0000	0004		NOP
0002	3268		MOVE $D0, R2
0004	0200		DEC2 R2, R0
0006	127F		CTRL $2, #$7F
0008	0084		RET R8

000A	1108		CTRL $1, #$08
000C	8301		LBI R3, #$01
000E	033D		MLH R3, R3
0010	839A		LBI R3, #$9A
0012	3382		MOVE $104, R3
0014	8301		LBI R3, #$01
0016	033D		MLH R3, R3
0018	839C		LBI R3, #$9C
001A	3392		MOVE $124, R3
001C	8301		LBI R3, #$01
001E	033D		MLH R3, R3
0020	8300		LBI R3, #$00
0022	3381		MOVE $102, R3
0024	8300		LBI R3, #$00
0026	033D		MLH R3, R3
0028	83A0		LBI R3, #$A0
002A	33B1		MOVE $162, R3
002C	830A		LBI R3, #$0A
002E	033D		MLH R3, R3
0030	8300		LBI R3, #$00
0032	33AA		MOVE $154, R3
0034	8301		LBI R3, #$01
0036	033D		MLH R3, R3
0038	8318		LBI R3, #$18
003A	33AB		MOVE $156, R3
003C	8301		LBI R3, #$01
003E	033D		MLH R3, R3
0040	83B2		LBI R3, #$B2
0042	3391		MOVE $122, R3
0044	8302		LBI R3, #$02
0046	033D		MLH R3, R3
0048	8372		LBI R3, #$72
004A	339B		MOVE $136, R3
004C	8302		LBI R3, #$02
004E	033D		MLH R3, R3
0050	8376		LBI R3, #$76
0052	339C		MOVE $138, R3
0054	8302		LBI R3, #$02
0056	033D		MLH R3, R3
0058	837A		LBI R3, #$7A
005A	339D		MOVE $13A, R3
005C	8302		LBI R3, #$02
005E	033D		MLH R3, R3
0060	837E		LBI R3, #$7E
0062	339E		MOVE $13C, R3
0064	8302		LBI R3, #$02
0066	033D		MLH R3, R3
0068	8382		LBI R3, #$82
006A	339F		MOVE $13E, R3
006C	8339		LBI R3, #$39
006E	033D		MLH R3, R3
0070	8322		LBI R3, #$22
0072	33B2		MOVE $164, R3
0074	8339		LBI R3, #$39
0076	033D		MLH R3, R3
0078	83DE		LBI R3, #$DE
007A	33B3		MOVE $166, R3
007C	833A		LBI R3, #$3A
007E	033D		MLH R3, R3
0080	839A		LBI R3, #$9A
0082	33BA		MOVE $174, R3
0084	8301		LBI R3, #$01
0086	033D		MLH R3, R3
0088	83A0		LBI R3, #$A0
008A	3394		MOVE $128, R3
008C	A300		ADD R3, #$01
008E	3395		MOVE $12A, R3
0090	8301		LBI R3, #$01
0092	033D		MLH R3, R3
0094	83B0		LBI R3, #$B0
0096	33E0		MOVE $1C0, R3
0098	A300		ADD R3, #$01
009A	33E1		MOVE $1C2, R3
009C	830C		LBI R3, #$0C
009E	033D		MLH R3, R3
00A0	83C4		LBI R3, #$C4
00A2	338B		MOVE $116, R3
00A4	830D		LBI R3, #$0D
00A6	033D		MLH R3, R3
00A8	832C		LBI R3, #$2C
00AA	33A9		MOVE $152, R3
00AC	830D		LBI R3, #$0D
00AE	033D		MLH R3, R3
00B0	8348		LBI R3, #$48
00B2	33B9		MOVE $172, R3
00B4	830E		LBI R3, #$0E
00B6	033D		MLH R3, R3
00B8	8304		LBI R3, #$04
00BA	33C8		MOVE $190, R3
00BC	8300		LBI R3, #$00
00BE	033D		MLH R3, R3
00C0	8306		LBI R3, #$06
00C2	33A1		MOVE $142, R3
00C4	8300		LBI R3, #$00
00C6	033D		MLH R3, R3
00C8	8318		LBI R3, #$18
00CA	3399		MOVE $132, R3
00CC	8300		LBI R3, #$00
00CE	033D		MLH R3, R3
00D0	831A		LBI R3, #$1A
00D2	339A		MOVE $134, R3
00D4	8300		LBI R3, #$00
00D6	033D		MLH R3, R3
00D8	831D		LBI R3, #$1D
00DA	3393		MOVE $126, R3
00DC	8300		LBI R3, #$00
00DE	033D		MLH R3, R3
00E0	8313		LBI R3, #$13
00E2	33C3		MOVE $186, R3
00E4	8C00		LBI R12, #$00
00E6	0CCD		MLH R12, R12
00E8	8C00		LBI R12, #$00
00EA	2399		MOVE R3, $132
00EC	4130		PUTB $1, (R3)+
00EE	4138		PUTB $1, (R3)
00F0	8C08		LBI R12, #$08
00F2	0CCD		MLH R12, R12
00F4	8C00		LBI R12, #$00
00F6	3C83		MOVE $106, R12
00F8	8EFF		LBI R14, #$FF
00FA	013E		GETB R3, $1
00FC	033D		MLH R3, R3
00FE	0004		NOP
0100	013E		GETB R3, $1
0102	53C1		MOVE (R12)+, R3
0104	FE00		SUB R14, #$01
0106	CE04		SS R14
0108	F00F		BRA $00FA		; -> -$10(R0)

010A	8301		LBI R3, #$01
010C	033D		MLH R3, R3
010E	830F		LBI R3, #$0F
0110	8701		LBI R7, #$01
0112	077D		MLH R7, R7
0114	875F		LBI R7, #$5F
0116	8408		LBI R4, #$08
0118	2550		MOVE R5, $A0
011A	85FF		LBI R5, #$FF
011C	0954		MOVE R9, R5
011E	7534		MOVB (R3)-, R5
0120	7974		MOVB (R7)-, R9
0122	E05C		SHR R5
0124	0998		ADD R9, R9
0126	F400		SUB R4, #$01
0128	C403		SZ R4
012A	F00D		BRA $011E		; -> -$0E(R0)

012C	A300		ADD R3, #$01
012E	A700		ADD R7, #$01
0130	33C1		MOVE $182, R3
0132	37C2		MOVE $184, R7
0134	0303		INC2 R3, R0
0136	33E7		MOVE $1CE, R3
0138	8C01		LBI R12, #$01
013A	0CCD		MLH R12, R12
013C	8C00		LBI R12, #$00
013E	2399		MOVE R3, $132
0140	4130		PUTB $1, (R3)+
0142	4138		PUTB $1, (R3)
0144	2351		MOVE R3, $A2
0146	9380		CLR R3, #$80
0148	3351		MOVE $A2, R3
014A	2350		MOVE R3, $A0
014C	33F8		MOVE $1F0, R3
014E	209B		JMP ($0136)

0150	03ED		MLH R3, R14
0152	013E		GETB R3, $1
0154	2803		MOVE R8, $06
0156	0203		INC2 R2, R0
0158	2050		JMP ($00A0)

015A	24DF		MOVE R4, $1BE
015C	2804		MOVE R8, $08
015E	0203		INC2 R2, R0
0160	2050		JMP ($00A0)

0162	8301		LBI R3, #$01
0164	033D		MLH R3, R3
0166	8376		LBI R3, #$76
0168	3382		MOVE $104, R3
016A	8301		LBI R3, #$01
016C	033D		MLH R3, R3
016E	8374		LBI R3, #$74
0170	3392		MOVE $124, R3
0172	A001		BRA $0176		; $02(R0)

0174	011E		GETB R1, $1
0176	2CDE		MOVE R12, $1BC
0178	E13F		STAT R3, $1
017A	E17F		STAT R7, $1
017C	64C3		MOVB R4, (R12)++++
017E	C340		SLE R3, R4
0180	F005		BRA $017C		; -> -$06(R0)

0182	C342		SE R3, R4
0184	A013		BRA $019A		; $14(R0)

0186	FC02		SUB R12, #$03
0188	68C2		MOVB R8, (R12)+++
018A	C782		SE R7, R8
018C	F011		BRA $017C		; -> -$12(R0)

018E	FC01		SUB R12, #$02
0190	D3C8		MOVE R3, (R12)
0192	2803		MOVE R8, $06
0194	0203		INC2 R2, R0
0196	2050		JMP ($00A0)

0198	0004		NOP
019A	013E		GETB R3, $1
019C	2283		MOVE R2, $106
019E	0238		ADD R2, R3
01A0	01EE		GETB R14, $1
01A2	0238		ADD R2, R3
01A4	D028		JMP (R2)
01A6	03E4		MOVE R3, R14
01A8	2283		MOVE R2, $106
01AA	0238		ADD R2, R3
01AC	01EE		GETB R14, $1
01AE	0238		ADD R2, R3
01B0	D028		JMP (R2)
01B2	015E		GETB R5, $1
01B4	930F		CLR R3, #$0F
01B6	0038		ADD R0, R3
01B8	01CE		GETB R12, $1
01BA	0C5D		MLH R12, R5
01BC	0004		NOP
01BE	01DE		GETB R13, $1
01C0	0DDD		MLH R13, R13
01C2	0004		NOP
01C4	01DE		GETB R13, $1
01C6	0024		RET R2

01C8	01CE		GETB R12, $1
01CA	0C5D		MLH R12, R5
01CC	2D88		MOVE R13, $110
01CE	017E		GETB R7, $1
01D0	0D78		ADD R13, R7
01D2	0024		RET R2

01D4	0000		HALT
01D6	0000		HALT
01D8	01CE		GETB R12, $1
01DA	0C5D		MLH R12, R5
01DC	2D90		MOVE R13, $120
01DE	017E		GETB R7, $1
01E0	0D78		ADD R13, R7
01E2	0024		RET R2

01E4	0000		HALT
01E6	0000		HALT
01E8	0000		HALT
01EA	0000		HALT
01EC	0000		HALT
01EE	0000		HALT
01F0	0000		HALT
01F2	0000		HALT
01F4	0000		HALT
01F6	0000		HALT
01F8	016E		GETB R6, $1
01FA	2C88		MOVE R12, $110
01FC	0C58		ADD R12, R5
01FE	01DE		GETB R13, $1
0200	0D6D		MLH R13, R6
0202	0024		RET R2

0204	0000		HALT
0206	0000		HALT
0208	016E		GETB R6, $1
020A	2C88		MOVE R12, $110
020C	0C58		ADD R12, R5
020E	2D88		MOVE R13, $110
0210	0D68		ADD R13, R6
0212	0024		RET R2

0214	0000		HALT
0216	0000		HALT
0218	016E		GETB R6, $1
021A	2C88		MOVE R12, $110
021C	0C58		ADD R12, R5
021E	2D90		MOVE R13, $120
0220	0D68		ADD R13, R6
0222	0024		RET R2

0224	0000		HALT
0226	0000		HALT
0228	0000		HALT
022A	0000		HALT
022C	0000		HALT
022E	0000		HALT
0230	0000		HALT
0232	0000		HALT
0234	0000		HALT
0236	0000		HALT
0238	016E		GETB R6, $1
023A	2C90		MOVE R12, $120
023C	0C58		ADD R12, R5
023E	01DE		GETB R13, $1
0240	0D6D		MLH R13, R6
0242	0024		RET R2

0244	0000		HALT
0246	0000		HALT
0248	016E		GETB R6, $1
024A	2C90		MOVE R12, $120
024C	0C58		ADD R12, R5
024E	2D88		MOVE R13, $110
0250	0D68		ADD R13, R6
0252	0024		RET R2

0254	0000		HALT
0256	0000		HALT
0258	016E		GETB R6, $1
025A	2C90		MOVE R12, $120
025C	0C58		ADD R12, R5
025E	2D90		MOVE R13, $120
0260	0D68		ADD R13, R6
0262	0024		RET R2

0264	0000		HALT
0266	0000		HALT
0268	E11F		STAT R1, $1
026A	011D		MLH R1, R1
026C	E11F		STAT R1, $1
026E	1077		CTRL $0, #$77
0270	0000		HALT
0272	8B01		LBI R11, #$01
0274	2082		JMP ($0104)

0276	8B21		LBI R11, #$21
0278	2082		JMP ($0104)

027A	8B04		LBI R11, #$04
027C	2082		JMP ($0104)

027E	8B24		LBI R11, #$24
0280	2082		JMP ($0104)

0282	8B02		LBI R11, #$02
0284	2082		JMP ($0104)

0286	1077		CTRL $0, #$77
0288	E12F		STAT R2, $1
028A	022D		MLH R2, R2
028C	E12F		STAT R2, $1
028E	1440		CTRL $4, #$40
0290	831A		LBI R3, #$1A
0292	F300		SUB R3, #$01
0294	C303		SZ R3
0296	F005		BRA $0292		; -> -$06(R0)

0298	1442		CTRL $4, #$42
029A	2358		MOVE R3, $B0
029C	C30B		SNZ R3
029E	F005		BRA $029A		; -> -$06(R0)

02A0	2350		MOVE R3, $A0
02A2	3358		MOVE $B0, R3
02A4	20E5		JMP ($01CA)

02A6	1108		CTRL $1, #$08
02A8	8301		LBI R3, #$01
02AA	033D		MLH R3, R3
02AC	839A		LBI R3, #$9A
02AE	33E5		MOVE $1CA, R3
02B0	8302		LBI R3, #$02
02B2	033D		MLH R3, R3
02B4	83CA		LBI R3, #$CA
02B6	3382		MOVE $104, R3
02B8	2351		MOVE R3, $A2
02BA	043C		MHL R4, R3
02BC	B480		SET R4, #$80
02BE	034D		MLH R3, R4
02C0	3351		MOVE $A2, R3
02C2	8100		LBI R1, #$00
02C4	011D		MLH R1, R1
02C6	8114		LBI R1, #$14
02C8	0014		RET R1

02CA	1077		CTRL $0, #$77
02CC	8C02		LBI R12, #$02
02CE	0CCD		MLH R12, R12
02D0	8C00		LBI R12, #$00
02D2	8F40		LBI R15, #$40
02D4	0FFD		MLH R15, R15
02D6	8A09		LBI R10, #$09
02D8	2DE4		MOVE R13, $1C8
02DA	CD03		SZ R13
02DC	A005		BRA $02E4		; $06(R0)

02DE	03DC		MHL R3, R13
02E0	C30B		SNZ R3
02E2	A025		BRA $030A		; $26(R0)

02E4	8420		LBI R4, #$20
02E6	8902		LBI R9, #$02
02E8	63D0		MOVB R3, (R13)+
02EA	0634		MOVE R6, R3
02EC	960F		CLR R6, #$0F
02EE	E06F		SWAP R6
02F0	C6A0		SLE R6, R10
02F2	A6C6		ADD R6, #$C7
02F4	A6EF		ADD R6, #$F0
02F6	76C0		MOVB (R12)+, R6
02F8	F900		SUB R9, #$01
02FA	C90B		SNZ R9
02FC	A005		BRA $0304		; $06(R0)

02FE	0634		MOVE R6, R3
0300	96F0		CLR R6, #$F0
0302	F013		BRA $02F0		; -> -$14(R0)

0304	F400		SUB R4, #$01
0306	C403		SZ R4
0308	F023		BRA $02E6		; -> -$24(R0)

030A	5FC1		MOVE (R12)+, R15
030C	5FC1		MOVE (R12)+, R15
030E	2D81		MOVE R13, $102
0310	8409		LBI R4, #$09
0312	8802		LBI R8, #$02
0314	8902		LBI R9, #$02
0316	63D0		MOVB R3, (R13)+
0318	0634		MOVE R6, R3
031A	960F		CLR R6, #$0F
031C	E06F		SWAP R6
031E	C6A0		SLE R6, R10
0320	A6C6		ADD R6, #$C7
0322	A6EF		ADD R6, #$F0
0324	76C0		MOVB (R12)+, R6
0326	F900		SUB R9, #$01
0328	C90B		SNZ R9
032A	A005		BRA $0332		; $06(R0)

032C	0634		MOVE R6, R3
032E	96F0		CLR R6, #$F0
0330	F013		BRA $031E		; -> -$14(R0)

0332	F800		SUB R8, #$01
0334	C803		SZ R8
0336	F023		BRA $0314		; -> -$24(R0)

0338	5FC1		MOVE (R12)+, R15
033A	5FC1		MOVE (R12)+, R15
033C	5FC1		MOVE (R12)+, R15
033E	5FC1		MOVE (R12)+, R15
0340	5FC1		MOVE (R12)+, R15
0342	5FC1		MOVE (R12)+, R15
0344	AD0D		ADD R13, #$0E
0346	F400		SUB R4, #$01
0348	C403		SZ R4
034A	F039		BRA $0312		; -> -$3A(R0)

034C	8D01		LBI R13, #$01
034E	0DDD		MLH R13, R13
0350	8DA0		LBI R13, #$A0
0352	8808		LBI R8, #$08
0354	8902		LBI R9, #$02
0356	63D0		MOVB R3, (R13)+
0358	0634		MOVE R6, R3
035A	960F		CLR R6, #$0F
035C	E06F		SWAP R6
035E	C6A0		SLE R6, R10
0360	A6C6		ADD R6, #$C7
0362	A6EF		ADD R6, #$F0
0364	76C0		MOVB (R12)+, R6
0366	F900		SUB R9, #$01
0368	C90B		SNZ R9
036A	A005		BRA $0372		; $06(R0)

036C	0634		MOVE R6, R3
036E	96F0		CLR R6, #$F0
0370	F013		BRA $035E		; -> -$14(R0)

0372	F800		SUB R8, #$01
0374	C803		SZ R8
0376	F023		BRA $0354		; -> -$24(R0)

0378	5FC1		MOVE (R12)+, R15
037A	5FC1		MOVE (R12)+, R15
037C	5FC1		MOVE (R12)+, R15
037E	5FC1		MOVE (R12)+, R15
0380	5FC1		MOVE (R12)+, R15
0382	5FC1		MOVE (R12)+, R15
0384	5FC1		MOVE (R12)+, R15
0386	5FC1		MOVE (R12)+, R15
0388	5FC1		MOVE (R12)+, R15
038A	5FC1		MOVE (R12)+, R15
038C	FC0F		SUB R12, #$10
038E	2350		MOVE R3, $A0
0390	2450		MOVE R4, $A0
0392	E13F		STAT R3, $1
0394	E14F		STAT R4, $1
0396	0D34		MOVE R13, R3
0398	8802		LBI R8, #$02
039A	8902		LBI R9, #$02
039C	0634		MOVE R6, R3
039E	960F		CLR R6, #$0F
03A0	E06F		SWAP R6
03A2	C6A0		SLE R6, R10
03A4	A6C6		ADD R6, #$C7
03A6	A6EF		ADD R6, #$F0
03A8	76C0		MOVB (R12)+, R6
03AA	F900		SUB R9, #$01
03AC	C90B		SNZ R9
03AE	A005		BRA $03B6		; $06(R0)

03B0	0634		MOVE R6, R3
03B2	96F0		CLR R6, #$F0
03B4	F013		BRA $03A2		; -> -$14(R0)

03B6	F800		SUB R8, #$01
03B8	C80B		SNZ R8
03BA	A003		BRA $03C0		; $04(R0)

03BC	0344		MOVE R3, R4
03BE	F025		BRA $039A		; -> -$26(R0)

03C0	AC01		ADD R12, #$02
03C2	03D4		MOVE R3, R13
03C4	0338		ADD R3, R3
03C6	0448		ADD R4, R4
03C8	074C		MHL R7, R4
03CA	0378		ADD R3, R7
03CC	073C		MHL R7, R3
03CE	0F74		MOVE R15, R7
03D0	0D34		MOVE R13, R3
03D2	0E44		MOVE R14, R4
03D4	8803		LBI R8, #$03
03D6	8902		LBI R9, #$02
03D8	0674		MOVE R6, R7
03DA	960F		CLR R6, #$0F
03DC	E06F		SWAP R6
03DE	C6A0		SLE R6, R10
03E0	A6C6		ADD R6, #$C7
03E2	A6EF		ADD R6, #$F0
03E4	76C0		MOVB (R12)+, R6
03E6	F900		SUB R9, #$01
03E8	C90B		SNZ R9
03EA	A005		BRA $03F2		; $06(R0)

03EC	0674		MOVE R6, R7
03EE	96F0		CLR R6, #$F0
03F0	F013		BRA $03DE		; -> -$14(R0)

03F2	F800		SUB R8, #$01
03F4	C80B		SNZ R8
03F6	A00D		BRA $0406		; $0E(R0)

03F8	8102		LBI R1, #$02
03FA	C812		SE R8, R1
03FC	A003		BRA $0402		; $04(R0)

03FE	0734		MOVE R7, R3
0400	F02B		BRA $03D6		; -> -$2C(R0)

0402	0744		MOVE R7, R4
0404	F02F		BRA $03D6		; -> -$30(R0)

0406	AC01		ADD R12, #$02
0408	81C3		LBI R1, #$C3
040A	011D		MLH R1, R1
040C	51C1		MOVE (R12)+, R1
040E	817E		LBI R1, #$7E
0410	71C0		MOVB (R12)+, R1
0412	06B4		MOVE R6, R11
0414	960F		CLR R6, #$0F
0416	E06F		SWAP R6
0418	A6EF		ADD R6, #$F0
041A	76C0		MOVB (R12)+, R6
041C	06B4		MOVE R6, R11
041E	96F0		CLR R6, #$F0
0420	A6EF		ADD R6, #$F0
0422	76C8		MOVB (R12), R6
0424	8C01		LBI R12, #$01
0426	0CCD		MLH R12, R12
0428	8CC4		LBI R12, #$C4
042A	D3C1		MOVE R3, (R12)+
042C	C3F2		SE R3, R15
042E	A013		BRA $0444		; $14(R0)

0430	63C0		MOVB R3, (R12)+
0432	C3D2		SE R3, R13
0434	A00D		BRA $0444		; $0E(R0)

0436	63C8		MOVB R3, (R12)
0438	C3E2		SE R3, R14
043A	A007		BRA $0444		; $08(R0)

043C	2FE2		MOVE R15, $1C4
043E	81FF		LBI R1, #$FF
0440	0F1D		MLH R15, R1
0442	3FE2		MOVE $1C4, R15
0444	21E2		MOVE R1, $1C4
0446	011C		MHL R1, R1
0448	C103		SZ R1
044A	A001		BRA $044E		; $02(R0)

044C	20E5		JMP ($01CA)

044E	1440		CTRL $4, #$40
0450	841A		LBI R4, #$1A
0452	F400		SUB R4, #$01
0454	C403		SZ R4
0456	F005		BRA $0452		; -> -$06(R0)

0458	1442		CTRL $4, #$42
045A	2458		MOVE R4, $B0
045C	C40B		SNZ R4
045E	F005		BRA $045A		; -> -$06(R0)

0460	2150		MOVE R1, $A0
0462	3158		MOVE $B0, R1
0464	81AB		LBI R1, #$AB
0466	C412		SE R4, R1
0468	A003		BRA $046E		; $04(R0)

046A	287C		MOVE R8, $F8
046C	2050		JMP ($00A0)

046E	812D		LBI R1, #$2D
0470	C412		SE R4, R1
0472	20E5		JMP ($01CA)

0474	24E2		MOVE R4, $1C4
0476	8100		LBI R1, #$00
0478	041D		MLH R4, R1
047A	34E2		MOVE $1C4, R4
047C	20E5		JMP ($01CA)

047E	015E		GETB R5, $1
0480	2C88		MOVE R12, $110
0482	0C58		ADD R12, R5
0484	63C8		MOVB R3, (R12)
0486	03E8		ADD R3, R14
0488	73C8		MOVB (R12), R3
048A	8101		LBI R1, #$01
048C	C31F		SNBSH R3, R1
048E	A005		BRA $0496		; $06(R0)

0490	C30B		SNZ R3
0492	209B		JMP ($0136)

0494	209D		JMP ($013A)

0496	C30B		SNZ R3
0498	209C		JMP ($0138)

049A	209E		JMP ($013C)

049C	015E		GETB R5, $1
049E	2C90		MOVE R12, $120
04A0	0C58		ADD R12, R5
04A2	63C8		MOVB R3, (R12)
04A4	03E8		ADD R3, R14
04A6	73C8		MOVB (R12), R3
04A8	8101		LBI R1, #$01
04AA	C31F		SNBSH R3, R1
04AC	A005		BRA $04B4		; $06(R0)

04AE	C30B		SNZ R3
04B0	209B		JMP ($0136)

04B2	209D		JMP ($013A)

04B4	C30B		SNZ R3
04B6	209C		JMP ($0138)

04B8	209E		JMP ($013C)

04BA	015E		GETB R5, $1
04BC	0C5D		MLH R12, R5
04BE	0004		NOP
04C0	01CE		GETB R12, $1
04C2	63C8		MOVB R3, (R12)
04C4	03E8		ADD R3, R14
04C6	73C8		MOVB (R12), R3
04C8	8101		LBI R1, #$01
04CA	C31F		SNBSH R3, R1
04CC	A005		BRA $04D4		; $06(R0)

04CE	C30B		SNZ R3
04D0	209B		JMP ($0136)

04D2	209D		JMP ($013A)

04D4	C30B		SNZ R3
04D6	209C		JMP ($0138)

04D8	209E		JMP ($013C)

04DA	015E		GETB R5, $1
04DC	2D88		MOVE R13, $110
04DE	0D58		ADD R13, R5
04E0	63D0		MOVB R3, (R13)+
04E2	64D8		MOVB R4, (R13)
04E4	043D		MLH R4, R3
04E6	2C81		MOVE R12, $102
04E8	0CE6		OR R12, R14
04EA	D3C8		MOVE R3, (R12)
04EC	013C		MHL R1, R3
04EE	034D		MLH R3, R4
04F0	033A		ADDH R3, R3
04F2	043C		MHL R4, R3
04F4	044A		ADDH R4, R4
04F6	0418		ADD R4, R1
04F8	034D		MLH R3, R4
04FA	53C8		MOVE (R12), R3
04FC	8101		LBI R1, #$01
04FE	C41F		SNBSH R4, R1
0500	A00B		BRA $050E		; $0C(R0)

0502	C303		SZ R3
0504	209D		JMP ($013A)

0506	033C		MHL R3, R3
0508	C30B		SNZ R3
050A	209B		JMP ($0136)

050C	209D		JMP ($013A)

050E	C303		SZ R3
0510	209E		JMP ($013C)

0512	033C		MHL R3, R3
0514	C30B		SNZ R3
0516	209C		JMP ($0138)

0518	209E		JMP ($013C)

051A	015E		GETB R5, $1
051C	2D90		MOVE R13, $120
051E	0D58		ADD R13, R5
0520	63D0		MOVB R3, (R13)+
0522	64D8		MOVB R4, (R13)
0524	043D		MLH R4, R3
0526	2C81		MOVE R12, $102
0528	0CE6		OR R12, R14
052A	D3C8		MOVE R3, (R12)
052C	013C		MHL R1, R3
052E	034D		MLH R3, R4
0530	033A		ADDH R3, R3
0532	043C		MHL R4, R3
0534	044A		ADDH R4, R4
0536	0418		ADD R4, R1
0538	034D		MLH R3, R4
053A	53C8		MOVE (R12), R3
053C	8101		LBI R1, #$01
053E	C41F		SNBSH R4, R1
0540	A00B		BRA $054E		; $0C(R0)

0542	C303		SZ R3
0544	209D		JMP ($013A)

0546	033C		MHL R3, R3
0548	C30B		SNZ R3
054A	209B		JMP ($0136)

054C	209D		JMP ($013A)

054E	C303		SZ R3
0550	209E		JMP ($013C)

0552	033C		MHL R3, R3
0554	C30B		SNZ R3
0556	209C		JMP ($0138)

0558	209E		JMP ($013C)

055A	015E		GETB R5, $1
055C	0D5D		MLH R13, R5
055E	2C81		MOVE R12, $102
0560	01DE		GETB R13, $1
0562	63D0		MOVB R3, (R13)+
0564	64D8		MOVB R4, (R13)
0566	043D		MLH R4, R3
0568	0CE6		OR R12, R14
056A	D3C8		MOVE R3, (R12)
056C	013C		MHL R1, R3
056E	034D		MLH R3, R4
0570	033A		ADDH R3, R3
0572	043C		MHL R4, R3
0574	044A		ADDH R4, R4
0576	0418		ADD R4, R1
0578	034D		MLH R3, R4
057A	53C8		MOVE (R12), R3
057C	8101		LBI R1, #$01
057E	C41F		SNBSH R4, R1
0580	A00B		BRA $058E		; $0C(R0)

0582	C303		SZ R3
0584	209D		JMP ($013A)

0586	033C		MHL R3, R3
0588	C30B		SNZ R3
058A	209B		JMP ($0136)

058C	209D		JMP ($013A)

058E	C303		SZ R3
0590	209E		JMP ($013C)

0592	033C		MHL R3, R3
0594	C30B		SNZ R3
0596	209C		JMP ($0138)

0598	209E		JMP ($013C)

059A	015E		GETB R5, $1
059C	2D81		MOVE R13, $102
059E	0D56		OR R13, R5
05A0	D4D8		MOVE R4, (R13)
05A2	2C81		MOVE R12, $102
05A4	0CE6		OR R12, R14
05A6	D3C8		MOVE R3, (R12)
05A8	013C		MHL R1, R3
05AA	034D		MLH R3, R4
05AC	033A		ADDH R3, R3
05AE	043C		MHL R4, R3
05B0	044A		ADDH R4, R4
05B2	0418		ADD R4, R1
05B4	034D		MLH R3, R4
05B6	53C8		MOVE (R12), R3
05B8	8101		LBI R1, #$01
05BA	C41F		SNBSH R4, R1
05BC	A00B		BRA $05CA		; $0C(R0)

05BE	C303		SZ R3
05C0	209D		JMP ($013A)

05C2	033C		MHL R3, R3
05C4	C30B		SNZ R3
05C6	209B		JMP ($0136)

05C8	209D		JMP ($013A)

05CA	C303		SZ R3
05CC	209E		JMP ($013C)

05CE	033C		MHL R3, R3
05D0	C30B		SNZ R3
05D2	209C		JMP ($0138)

05D4	209E		JMP ($013C)

05D6	0203		INC2 R2, R0
05D8	2091		JMP ($0122)

05DA	E0EF		SWAP R14
05DC	0CE8		ADD R12, R14
05DE	0DE8		ADD R13, R14
05E0	8600		LBI R6, #$00
05E2	63C8		MOVB R3, (R12)
05E4	64D4		MOVB R4, (R13)-
05E6	0348		ADD R3, R4
05E8	73C4		MOVB (R12)-, R3
05EA	0636		OR R6, R3
05EC	FE00		SUB R14, #$01
05EE	CE0C		SNS R14
05F0	A005		BRA $05F8		; $06(R0)

05F2	64C8		MOVB R4, (R12)
05F4	034A		ADDH R3, R4
05F6	F013		BRA $05E4		; -> -$14(R0)

05F8	8101		LBI R1, #$01
05FA	C31F		SNBSH R3, R1
05FC	A005		BRA $0604		; $06(R0)

05FE	C60B		SNZ R6
0600	209B		JMP ($0136)

0602	209D		JMP ($013A)

0604	C60B		SNZ R6
0606	209C		JMP ($0138)

0608	209E		JMP ($013C)

060A	01FE		GETB R15, $1
060C	2393		MOVE R3, $126
060E	0004		NOP
0610	011E		GETB R1, $1
0612	E16F		STAT R6, $1
0614	E17F		STAT R7, $1
0616	076D		MLH R7, R6
0618	4131		PUTB $1, (R3)++
061A	4138		PUTB $1, (R3)
061C	37C0		MOVE $180, R7
061E	2082		JMP ($0104)

0620	01FE		GETB R15, $1
0622	2393		MOVE R3, $126
0624	4131		PUTB $1, (R3)++
0626	4138		PUTB $1, (R3)
0628	0004		NOP
062A	2082		JMP ($0104)

062C	015E		GETB R5, $1
062E	2C88		MOVE R12, $110
0630	0C58		ADD R12, R5
0632	8180		LBI R1, #$80
0634	CE16		SBC R14, R1
0636	A00D		BRA $0646		; $0E(R0)

0638	CBE6		SBC R11, R14
063A	2082		JMP ($0104)

063C	2399		MOVE R3, $132
063E	4130		PUTB $1, (R3)+
0640	4138		PUTB $1, (R3)
0642	0004		NOP
0644	2082		JMP ($0104)

0646	CBEE		SNBC R11, R14
0648	2082		JMP ($0104)

064A	2399		MOVE R3, $132
064C	4130		PUTB $1, (R3)+
064E	4138		PUTB $1, (R3)
0650	0004		NOP
0652	2082		JMP ($0104)

0654	015E		GETB R5, $1
0656	2C90		MOVE R12, $120
0658	0C58		ADD R12, R5
065A	8180		LBI R1, #$80
065C	CE16		SBC R14, R1
065E	A00D		BRA $066E		; $0E(R0)

0660	CBE6		SBC R11, R14
0662	2082		JMP ($0104)

0664	2399		MOVE R3, $132
0666	4130		PUTB $1, (R3)+
0668	4138		PUTB $1, (R3)
066A	0004		NOP
066C	2082		JMP ($0104)

066E	CBEE		SNBC R11, R14
0670	2082		JMP ($0104)

0672	2399		MOVE R3, $132
0674	4130		PUTB $1, (R3)+
0676	4138		PUTB $1, (R3)
0678	0004		NOP
067A	2082		JMP ($0104)

067C	015E		GETB R5, $1
067E	0C5D		MLH R12, R5
0680	8180		LBI R1, #$80
0682	CE16		SBC R14, R1
0684	A00F		BRA $0696		; $10(R0)

0686	01CE		GETB R12, $1
0688	CBE6		SBC R11, R14
068A	2082		JMP ($0104)

068C	2399		MOVE R3, $132
068E	4130		PUTB $1, (R3)+
0690	4138		PUTB $1, (R3)
0692	0004		NOP
0694	2082		JMP ($0104)

0696	01CE		GETB R12, $1
0698	CBEE		SNBC R11, R14
069A	2082		JMP ($0104)

069C	2399		MOVE R3, $132
069E	4130		PUTB $1, (R3)+
06A0	4138		PUTB $1, (R3)
06A2	0004		NOP
06A4	2082		JMP ($0104)

06A6	015E		GETB R5, $1
06A8	2C88		MOVE R12, $110
06AA	0C58		ADD R12, R5
06AC	8180		LBI R1, #$80
06AE	CE16		SBC R14, R1
06B0	A015		BRA $06C8		; $16(R0)

06B2	CBE6		SBC R11, R14
06B4	2082		JMP ($0104)

06B6	011E		GETB R1, $1
06B8	E16F		STAT R6, $1
06BA	E17F		STAT R7, $1
06BC	076D		MLH R7, R6
06BE	2399		MOVE R3, $132
06C0	4130		PUTB $1, (R3)+
06C2	4138		PUTB $1, (R3)
06C4	37C0		MOVE $180, R7
06C6	2082		JMP ($0104)

06C8	CBEE		SNBC R11, R14
06CA	2082		JMP ($0104)

06CC	011E		GETB R1, $1
06CE	E16F		STAT R6, $1
06D0	E17F		STAT R7, $1
06D2	076D		MLH R7, R6
06D4	2399		MOVE R3, $132
06D6	4130		PUTB $1, (R3)+
06D8	4138		PUTB $1, (R3)
06DA	37C0		MOVE $180, R7
06DC	2082		JMP ($0104)

06DE	015E		GETB R5, $1
06E0	2C90		MOVE R12, $120
06E2	0C58		ADD R12, R5
06E4	8180		LBI R1, #$80
06E6	CE16		SBC R14, R1
06E8	A015		BRA $0700		; $16(R0)

06EA	CBE6		SBC R11, R14
06EC	2082		JMP ($0104)

06EE	011E		GETB R1, $1
06F0	E16F		STAT R6, $1
06F2	E17F		STAT R7, $1
06F4	076D		MLH R7, R6
06F6	2399		MOVE R3, $132
06F8	4130		PUTB $1, (R3)+
06FA	4138		PUTB $1, (R3)
06FC	37C0		MOVE $180, R7
06FE	2082		JMP ($0104)

0700	CBEE		SNBC R11, R14
0702	2082		JMP ($0104)

0704	011E		GETB R1, $1
0706	E16F		STAT R6, $1
0708	E17F		STAT R7, $1
070A	076D		MLH R7, R6
070C	2399		MOVE R3, $132
070E	4130		PUTB $1, (R3)+
0710	4138		PUTB $1, (R3)
0712	37C0		MOVE $180, R7
0714	2082		JMP ($0104)

0716	015E		GETB R5, $1
0718	0C5D		MLH R12, R5
071A	8180		LBI R1, #$80
071C	CE16		SBC R14, R1
071E	A017		BRA $0738		; $18(R0)

0720	01CE		GETB R12, $1
0722	CBE6		SBC R11, R14
0724	2082		JMP ($0104)

0726	011E		GETB R1, $1
0728	E16F		STAT R6, $1
072A	E17F		STAT R7, $1
072C	076D		MLH R7, R6
072E	2399		MOVE R3, $132
0730	4130		PUTB $1, (R3)+
0732	4138		PUTB $1, (R3)
0734	37C0		MOVE $180, R7
0736	2082		JMP ($0104)

0738	01CE		GETB R12, $1
073A	CBEE		SNBC R11, R14
073C	2082		JMP ($0104)

073E	011E		GETB R1, $1
0740	E16F		STAT R6, $1
0742	E17F		STAT R7, $1
0744	076D		MLH R7, R6
0746	2399		MOVE R3, $132
0748	4130		PUTB $1, (R3)+
074A	4138		PUTB $1, (R3)
074C	37C0		MOVE $180, R7
074E	2082		JMP ($0104)

0750	015E		GETB R5, $1
0752	2C88		MOVE R12, $110
0754	0C58		ADD R12, R5
0756	41C0		PUTB $1, (R12)+
0758	41C8		PUTB $1, (R12)
075A	0004		NOP
075C	2082		JMP ($0104)

075E	015E		GETB R5, $1
0760	2C90		MOVE R12, $120
0762	0C58		ADD R12, R5
0764	41C0		PUTB $1, (R12)+
0766	41C8		PUTB $1, (R12)
0768	0004		NOP
076A	2082		JMP ($0104)

076C	015E		GETB R5, $1
076E	0C5D		MLH R12, R5
0770	0004		NOP
0772	01CE		GETB R12, $1
0774	41C0		PUTB $1, (R12)+
0776	41C8		PUTB $1, (R12)
0778	0004		NOP
077A	2082		JMP ($0104)

077C	015E		GETB R5, $1
077E	2C81		MOVE R12, $102
0780	0CE6		OR R12, R14
0782	011E		GETB R1, $1
0784	E16F		STAT R6, $1
0786	E17F		STAT R7, $1
0788	076D		MLH R7, R6
078A	41C0		PUTB $1, (R12)+
078C	41C8		PUTB $1, (R12)
078E	37C0		MOVE $180, R7
0790	2082		JMP ($0104)

0792	015E		GETB R5, $1
0794	2C81		MOVE R12, $102
0796	0CE6		OR R12, R14
0798	41C0		PUTB $1, (R12)+
079A	41C8		PUTB $1, (R12)
079C	0004		NOP
079E	2082		JMP ($0104)

07A0	015E		GETB R5, $1
07A2	2C88		MOVE R12, $110
07A4	0C58		ADD R12, R5
07A6	017E		GETB R7, $1
07A8	63C8		MOVB R3, (R12)
07AA	A0CB		BRA $0878		; $CC(R0)

07AC	015E		GETB R5, $1
07AE	2C90		MOVE R12, $120
07B0	0C58		ADD R12, R5
07B2	017E		GETB R7, $1
07B4	63C8		MOVB R3, (R12)
07B6	A0BF		BRA $0878		; $C0(R0)

07B8	015E		GETB R5, $1
07BA	0C5D		MLH R12, R5
07BC	0004		NOP
07BE	01CE		GETB R12, $1
07C0	F000		BRA $07C1		; -> -$01(R0)

07C2	017E		GETB R7, $1
07C4	63C8		MOVB R3, (R12)
07C6	A0AF		BRA $0878		; $B0(R0)

07C8	015E		GETB R5, $1
07CA	2C81		MOVE R12, $102
07CC	0CE6		OR R12, R14
07CE	2D81		MOVE R13, $102
07D0	0D56		OR R13, R5
07D2	63C0		MOVB R3, (R12)+
07D4	6ED0		MOVB R14, (R13)+
07D6	017E		GETB R7, $1
07D8	C3E2		SE R3, R14
07DA	A09B		BRA $0878		; $9C(R0)

07DC	63C8		MOVB R3, (R12)
07DE	6ED8		MOVB R14, (R13)
07E0	A095		BRA $0878		; $96(R0)

07E2	015E		GETB R5, $1
07E4	2C88		MOVE R12, $110
07E6	0C58		ADD R12, R5
07E8	2D81		MOVE R13, $102
07EA	0DE6		OR R13, R14
07EC	63C0		MOVB R3, (R12)+
07EE	6ED0		MOVB R14, (R13)+
07F0	017E		GETB R7, $1
07F2	C3E2		SE R3, R14
07F4	A081		BRA $0878		; $82(R0)

07F6	63C8		MOVB R3, (R12)
07F8	6ED8		MOVB R14, (R13)
07FA	A07B		BRA $0878		; $7C(R0)

07FC	015E		GETB R5, $1
07FE	2C90		MOVE R12, $120
0800	0C58		ADD R12, R5
0802	2D81		MOVE R13, $102
0804	0DE6		OR R13, R14
0806	63C0		MOVB R3, (R12)+
0808	6ED0		MOVB R14, (R13)+
080A	017E		GETB R7, $1
080C	C3E2		SE R3, R14
080E	A067		BRA $0878		; $68(R0)

0810	63C8		MOVB R3, (R12)
0812	6ED8		MOVB R14, (R13)
0814	A061		BRA $0878		; $62(R0)

0816	015E		GETB R5, $1
0818	0C5D		MLH R12, R5
081A	2D81		MOVE R13, $102
081C	0DE6		OR R13, R14
081E	01CE		GETB R12, $1
0820	63C0		MOVB R3, (R12)+
0822	6ED0		MOVB R14, (R13)+
0824	017E		GETB R7, $1
0826	C3E2		SE R3, R14
0828	A04D		BRA $0878		; $4E(R0)

082A	63C8		MOVB R3, (R12)
082C	6ED8		MOVB R14, (R13)
082E	A047		BRA $0878		; $48(R0)

0830	0203		INC2 R2, R0
0832	2091		JMP ($0122)

0834	2481		MOVE R4, $102
0836	04E6		OR R4, R14
0838	011E		GETB R1, $1
083A	E19F		STAT R9, $1
083C	E1AF		STAT R10, $1
083E	259A		MOVE R5, $134
0840	4150		PUTB $1, (R5)+
0842	4158		PUTB $1, (R5)
0844	D448		MOVE R4, (R4)
0846	63C0		MOVB R3, (R12)+
0848	01EE		GETB R14, $1
084A	C3E2		SE R3, R14
084C	A005		BRA $0854		; $06(R0)

084E	F400		SUB R4, #$01
0850	C403		SZ R4
0852	F00D		BRA $0846		; -> -$0E(R0)

0854	25C3		MOVE R5, $186
0856	4151		PUTB $1, (R5)++
0858	4158		PUTB $1, (R5)
085A	F000		BRA $085B		; -> -$01(R0)

085C	017E		GETB R7, $1
085E	0004		NOP
0860	A015		BRA $0878		; $16(R0)

0862	0203		INC2 R2, R0
0864	2091		JMP ($0122)

0866	04E4		MOVE R4, R14
0868	017E		GETB R7, $1
086A	63C0		MOVB R3, (R12)+
086C	6ED0		MOVB R14, (R13)+
086E	C3E2		SE R3, R14
0870	A005		BRA $0878		; $06(R0)

0872	F400		SUB R4, #$01
0874	C404		SS R4
0876	F00D		BRA $086A		; -> -$0E(R0)

0878	019E		GETB R9, $1
087A	0078		ADD R0, R7
087C	C3E0		SLE R3, R14
087E	A05B		BRA $08DC		; $5C(R0)

0880	01AE		GETB R10, $1
0882	A077		BRA $08FC		; $78(R0)

0884	C3E8		SGT R3, R14
0886	A053		BRA $08DC		; $54(R0)

0888	01AE		GETB R10, $1
088A	A06F		BRA $08FC		; $70(R0)

088C	C3E9		SGE R3, R14
088E	A04B		BRA $08DC		; $4C(R0)

0890	01AE		GETB R10, $1
0892	A067		BRA $08FC		; $68(R0)

0894	C3E1		SLT R3, R14
0896	A043		BRA $08DC		; $44(R0)

0898	01AE		GETB R10, $1
089A	A05F		BRA $08FC		; $60(R0)

089C	C3EA		SNE R3, R14
089E	A03B		BRA $08DC		; $3C(R0)

08A0	01AE		GETB R10, $1
08A2	A057		BRA $08FC		; $58(R0)

08A4	C3E2		SE R3, R14
08A6	A033		BRA $08DC		; $34(R0)

08A8	01AE		GETB R10, $1
08AA	A04F		BRA $08FC		; $50(R0)

08AC	C3E0		SLE R3, R14
08AE	A037		BRA $08E8		; $38(R0)

08B0	01AE		GETB R10, $1
08B2	A047		BRA $08FC		; $48(R0)

08B4	C3E8		SGT R3, R14
08B6	A02F		BRA $08E8		; $30(R0)

08B8	01AE		GETB R10, $1
08BA	A03F		BRA $08FC		; $40(R0)

08BC	C3E9		SGE R3, R14
08BE	A027		BRA $08E8		; $28(R0)

08C0	01AE		GETB R10, $1
08C2	A037		BRA $08FC		; $38(R0)

08C4	C3E1		SLT R3, R14
08C6	A01F		BRA $08E8		; $20(R0)

08C8	01AE		GETB R10, $1
08CA	A02F		BRA $08FC		; $30(R0)

08CC	C3EA		SNE R3, R14
08CE	A017		BRA $08E8		; $18(R0)

08D0	01AE		GETB R10, $1
08D2	A027		BRA $08FC		; $28(R0)

08D4	C3E2		SE R3, R14
08D6	A00F		BRA $08E8		; $10(R0)

08D8	01AE		GETB R10, $1
08DA	A01F		BRA $08FC		; $20(R0)

08DC	01AE		GETB R10, $1
08DE	23C3		MOVE R3, $186
08E0	4131		PUTB $1, (R3)++
08E2	4138		PUTB $1, (R3)
08E4	0004		NOP
08E6	2082		JMP ($0104)

08E8	01AE		GETB R10, $1
08EA	F000		BRA $08EB		; -> -$01(R0)

08EC	011E		GETB R1, $1
08EE	E11F		STAT R1, $1
08F0	011D		MLH R1, R1
08F2	E11F		STAT R1, $1
08F4	23C3		MOVE R3, $186
08F6	4131		PUTB $1, (R3)++
08F8	4138		PUTB $1, (R3)
08FA	31C0		MOVE $180, R1
08FC	2082		JMP ($0104)

08FE	015E		GETB R5, $1
0900	0C5D		MLH R12, R5
0902	0004		NOP
0904	01CE		GETB R12, $1
0906	63C8		MOVB R3, (R12)
0908	0004		NOP
090A	019E		GETB R9, $1
090C	C3E0		SLE R3, R14
090E	A005		BRA $0916		; $06(R0)

0910	0004		NOP
0912	01AE		GETB R10, $1
0914	A009		BRA $0920		; $0A(R0)

0916	01AE		GETB R10, $1
0918	23C3		MOVE R3, $186
091A	4131		PUTB $1, (R3)++
091C	4138		PUTB $1, (R3)
091E	0004		NOP
0920	2082		JMP ($0104)

0922	015E		GETB R5, $1
0924	0C5D		MLH R12, R5
0926	0004		NOP
0928	01CE		GETB R12, $1
092A	63C8		MOVB R3, (R12)
092C	0004		NOP
092E	019E		GETB R9, $1
0930	C3E8		SGT R3, R14
0932	A005		BRA $093A		; $06(R0)

0934	0004		NOP
0936	01AE		GETB R10, $1
0938	A009		BRA $0944		; $0A(R0)

093A	01AE		GETB R10, $1
093C	23C3		MOVE R3, $186
093E	4131		PUTB $1, (R3)++
0940	4138		PUTB $1, (R3)
0942	0004		NOP
0944	2082		JMP ($0104)

0946	015E		GETB R5, $1
0948	0C5D		MLH R12, R5
094A	0004		NOP
094C	01CE		GETB R12, $1
094E	63C8		MOVB R3, (R12)
0950	0004		NOP
0952	019E		GETB R9, $1
0954	C3E9		SGE R3, R14
0956	A005		BRA $095E		; $06(R0)

0958	0004		NOP
095A	01AE		GETB R10, $1
095C	A009		BRA $0968		; $0A(R0)

095E	01AE		GETB R10, $1
0960	23C3		MOVE R3, $186
0962	4131		PUTB $1, (R3)++
0964	4138		PUTB $1, (R3)
0966	0004		NOP
0968	2082		JMP ($0104)

096A	015E		GETB R5, $1
096C	0C5D		MLH R12, R5
096E	0004		NOP
0970	01CE		GETB R12, $1
0972	63C8		MOVB R3, (R12)
0974	0004		NOP
0976	019E		GETB R9, $1
0978	C3E1		SLT R3, R14
097A	A005		BRA $0982		; $06(R0)

097C	0004		NOP
097E	01AE		GETB R10, $1
0980	A009		BRA $098C		; $0A(R0)

0982	01AE		GETB R10, $1
0984	23C3		MOVE R3, $186
0986	4131		PUTB $1, (R3)++
0988	4138		PUTB $1, (R3)
098A	0004		NOP
098C	2082		JMP ($0104)

098E	015E		GETB R5, $1
0990	0C5D		MLH R12, R5
0992	0004		NOP
0994	01CE		GETB R12, $1
0996	63C8		MOVB R3, (R12)
0998	0004		NOP
099A	019E		GETB R9, $1
099C	C3EA		SNE R3, R14
099E	A005		BRA $09A6		; $06(R0)

09A0	0004		NOP
09A2	01AE		GETB R10, $1
09A4	A009		BRA $09B0		; $0A(R0)

09A6	01AE		GETB R10, $1
09A8	23C3		MOVE R3, $186
09AA	4131		PUTB $1, (R3)++
09AC	4138		PUTB $1, (R3)
09AE	0004		NOP
09B0	2082		JMP ($0104)

09B2	015E		GETB R5, $1
09B4	0C5D		MLH R12, R5
09B6	0004		NOP
09B8	01CE		GETB R12, $1
09BA	63C8		MOVB R3, (R12)
09BC	0004		NOP
09BE	019E		GETB R9, $1
09C0	C3E2		SE R3, R14
09C2	A005		BRA $09CA		; $06(R0)

09C4	0004		NOP
09C6	01AE		GETB R10, $1
09C8	A009		BRA $09D4		; $0A(R0)

09CA	01AE		GETB R10, $1
09CC	23C3		MOVE R3, $186
09CE	4131		PUTB $1, (R3)++
09D0	4138		PUTB $1, (R3)
09D2	0004		NOP
09D4	2082		JMP ($0104)

09D6	015E		GETB R5, $1
09D8	2C88		MOVE R12, $110
09DA	0C58		ADD R12, R5
09DC	019E		GETB R9, $1
09DE	63C8		MOVB R3, (R12)
09E0	C3E0		SLE R3, R14
09E2	A003		BRA $09E8		; $04(R0)

09E4	01AE		GETB R10, $1
09E6	A009		BRA $09F2		; $0A(R0)

09E8	01AE		GETB R10, $1
09EA	23C3		MOVE R3, $186
09EC	4131		PUTB $1, (R3)++
09EE	4138		PUTB $1, (R3)
09F0	0004		NOP
09F2	2082		JMP ($0104)

09F4	015E		GETB R5, $1
09F6	2C88		MOVE R12, $110
09F8	0C58		ADD R12, R5
09FA	019E		GETB R9, $1
09FC	63C8		MOVB R3, (R12)
09FE	C3E8		SGT R3, R14
0A00	A003		BRA $0A06		; $04(R0)

0A02	01AE		GETB R10, $1
0A04	A009		BRA $0A10		; $0A(R0)

0A06	01AE		GETB R10, $1
0A08	23C3		MOVE R3, $186
0A0A	4131		PUTB $1, (R3)++
0A0C	4138		PUTB $1, (R3)
0A0E	0004		NOP
0A10	2082		JMP ($0104)

0A12	015E		GETB R5, $1
0A14	2C88		MOVE R12, $110
0A16	0C58		ADD R12, R5
0A18	019E		GETB R9, $1
0A1A	63C8		MOVB R3, (R12)
0A1C	C3E9		SGE R3, R14
0A1E	A003		BRA $0A24		; $04(R0)

0A20	01AE		GETB R10, $1
0A22	A009		BRA $0A2E		; $0A(R0)

0A24	01AE		GETB R10, $1
0A26	23C3		MOVE R3, $186
0A28	4131		PUTB $1, (R3)++
0A2A	4138		PUTB $1, (R3)
0A2C	0004		NOP
0A2E	2082		JMP ($0104)

0A30	015E		GETB R5, $1
0A32	2C88		MOVE R12, $110
0A34	0C58		ADD R12, R5
0A36	019E		GETB R9, $1
0A38	63C8		MOVB R3, (R12)
0A3A	C3E1		SLT R3, R14
0A3C	A003		BRA $0A42		; $04(R0)

0A3E	01AE		GETB R10, $1
0A40	A009		BRA $0A4C		; $0A(R0)

0A42	01AE		GETB R10, $1
0A44	23C3		MOVE R3, $186
0A46	4131		PUTB $1, (R3)++
0A48	4138		PUTB $1, (R3)
0A4A	0004		NOP
0A4C	2082		JMP ($0104)

0A4E	015E		GETB R5, $1
0A50	2C88		MOVE R12, $110
0A52	0C58		ADD R12, R5
0A54	019E		GETB R9, $1
0A56	63C8		MOVB R3, (R12)
0A58	C3EA		SNE R3, R14
0A5A	A003		BRA $0A60		; $04(R0)

0A5C	01AE		GETB R10, $1
0A5E	A009		BRA $0A6A		; $0A(R0)

0A60	01AE		GETB R10, $1
0A62	23C3		MOVE R3, $186
0A64	4131		PUTB $1, (R3)++
0A66	4138		PUTB $1, (R3)
0A68	0004		NOP
0A6A	2082		JMP ($0104)

0A6C	015E		GETB R5, $1
0A6E	2C88		MOVE R12, $110
0A70	0C58		ADD R12, R5
0A72	019E		GETB R9, $1
0A74	63C8		MOVB R3, (R12)
0A76	C3E2		SE R3, R14
0A78	A003		BRA $0A7E		; $04(R0)

0A7A	01AE		GETB R10, $1
0A7C	A009		BRA $0A88		; $0A(R0)

0A7E	01AE		GETB R10, $1
0A80	23C3		MOVE R3, $186
0A82	4131		PUTB $1, (R3)++
0A84	4138		PUTB $1, (R3)
0A86	0004		NOP
0A88	2082		JMP ($0104)

0A8A	015E		GETB R5, $1
0A8C	2C90		MOVE R12, $120
0A8E	0C58		ADD R12, R5
0A90	019E		GETB R9, $1
0A92	63C8		MOVB R3, (R12)
0A94	C3E0		SLE R3, R14
0A96	A003		BRA $0A9C		; $04(R0)

0A98	01AE		GETB R10, $1
0A9A	A009		BRA $0AA6		; $0A(R0)

0A9C	01AE		GETB R10, $1
0A9E	23C3		MOVE R3, $186
0AA0	4131		PUTB $1, (R3)++
0AA2	4138		PUTB $1, (R3)
0AA4	0004		NOP
0AA6	2082		JMP ($0104)

0AA8	015E		GETB R5, $1
0AAA	2C90		MOVE R12, $120
0AAC	0C58		ADD R12, R5
0AAE	019E		GETB R9, $1
0AB0	63C8		MOVB R3, (R12)
0AB2	C3E8		SGT R3, R14
0AB4	A003		BRA $0ABA		; $04(R0)

0AB6	01AE		GETB R10, $1
0AB8	A009		BRA $0AC4		; $0A(R0)

0ABA	01AE		GETB R10, $1
0ABC	23C3		MOVE R3, $186
0ABE	4131		PUTB $1, (R3)++
0AC0	4138		PUTB $1, (R3)
0AC2	0004		NOP
0AC4	2082		JMP ($0104)

0AC6	015E		GETB R5, $1
0AC8	2C90		MOVE R12, $120
0ACA	0C58		ADD R12, R5
0ACC	019E		GETB R9, $1
0ACE	63C8		MOVB R3, (R12)
0AD0	C3E9		SGE R3, R14
0AD2	A003		BRA $0AD8		; $04(R0)

0AD4	01AE		GETB R10, $1
0AD6	A009		BRA $0AE2		; $0A(R0)

0AD8	01AE		GETB R10, $1
0ADA	23C3		MOVE R3, $186
0ADC	4131		PUTB $1, (R3)++
0ADE	4138		PUTB $1, (R3)
0AE0	0004		NOP
0AE2	2082		JMP ($0104)

0AE4	015E		GETB R5, $1
0AE6	2C90		MOVE R12, $120
0AE8	0C58		ADD R12, R5
0AEA	019E		GETB R9, $1
0AEC	63C8		MOVB R3, (R12)
0AEE	C3E1		SLT R3, R14
0AF0	A003		BRA $0AF6		; $04(R0)

0AF2	01AE		GETB R10, $1
0AF4	A009		BRA $0B00		; $0A(R0)

0AF6	01AE		GETB R10, $1
0AF8	23C3		MOVE R3, $186
0AFA	4131		PUTB $1, (R3)++
0AFC	4138		PUTB $1, (R3)
0AFE	0004		NOP
0B00	2082		JMP ($0104)

0B02	015E		GETB R5, $1
0B04	2C90		MOVE R12, $120
0B06	0C58		ADD R12, R5
0B08	019E		GETB R9, $1
0B0A	63C8		MOVB R3, (R12)
0B0C	C3EA		SNE R3, R14
0B0E	A003		BRA $0B14		; $04(R0)

0B10	01AE		GETB R10, $1
0B12	A009		BRA $0B1E		; $0A(R0)

0B14	01AE		GETB R10, $1
0B16	23C3		MOVE R3, $186
0B18	4131		PUTB $1, (R3)++
0B1A	4138		PUTB $1, (R3)
0B1C	0004		NOP
0B1E	2082		JMP ($0104)

0B20	015E		GETB R5, $1
0B22	2C90		MOVE R12, $120
0B24	0C58		ADD R12, R5
0B26	019E		GETB R9, $1
0B28	63C8		MOVB R3, (R12)
0B2A	C3E2		SE R3, R14
0B2C	A003		BRA $0B32		; $04(R0)

0B2E	01AE		GETB R10, $1
0B30	A009		BRA $0B3C		; $0A(R0)

0B32	01AE		GETB R10, $1
0B34	23C3		MOVE R3, $186
0B36	4131		PUTB $1, (R3)++
0B38	4138		PUTB $1, (R3)
0B3A	0004		NOP
0B3C	2082		JMP ($0104)

0B3E	2350		MOVE R3, $A0
0B40	33D2		MOVE $1A4, R3
0B42	33D3		MOVE $1A6, R3
0B44	016E		GETB R6, $1
0B46	E16F		STAT R6, $1
0B48	066D		MLH R6, R6
0B4A	E16F		STAT R6, $1
0B4C	36CA		MOVE $194, R6
0B4E	1102		CTRL $1, #$02
0B50	2650		MOVE R6, $A0
0B52	830B		LBI R3, #$0B
0B54	033D		MLH R3, R3
0B56	83F3		LBI R3, #$F3
0B58	2AA1		MOVE R10, $142
0B5A	41A0		PUTB $1, (R10)+
0B5C	41A8		PUTB $1, (R10)
0B5E	36D4		MOVE $1A8, R6
0B60	36D5		MOVE $1AA, R6
0B62	36D6		MOVE $1AC, R6
0B64	019E		GETB R9, $1
0B66	099D		MLH R9, R9
0B68	2DAA		MOVE R13, $154
0B6A	019E		GETB R9, $1
0B6C	3989		MOVE $112, R9
0B6E	56D1		MOVE (R13)+, R6
0B70	56D1		MOVE (R13)+, R6
0B72	56D1		MOVE (R13)+, R6
0B74	56D1		MOVE (R13)+, R6
0B76	56D1		MOVE (R13)+, R6
0B78	56D1		MOVE (R13)+, R6
0B7A	56D1		MOVE (R13)+, R6
0B7C	56D8		MOVE (R13), R6
0B7E	FD04		SUB R13, #$05
0B80	3DCC		MOVE $198, R13
0B82	3DCF		MOVE $19E, R13
0B84	8501		LBI R5, #$01
0B86	055D		MLH R5, R5
0B88	85A9		LBI R5, #$A9
0B8A	35CB		MOVE $196, R5
0B8C	8102		LBI R1, #$02
0B8E	C1B2		SE R1, R11
0B90	A003		BRA $0B96		; $04(R0)

0B92	8D0D		LBI R13, #$0D
0B94	A013		BRA $0BAA		; $14(R0)

0B96	0203		INC2 R2, R0
0B98	208B		JMP ($0116)

0B9A	24A1		MOVE R4, $142
0B9C	4140		PUTB $1, (R4)+
0B9E	4148		PUTB $1, (R4)
0BA0	8D08		LBI R13, #$08
0BA2	8100		LBI R1, #$00
0BA4	8100		LBI R1, #$00
0BA6	019E		GETB R9, $1
0BA8	0D98		ADD R13, R9
0BAA	3DCC		MOVE $198, R13
0BAC	25CB		MOVE R5, $196
0BAE	F508		SUB R5, #$09
0BB0	05D8		ADD R5, R13
0BB2	35CB		MOVE $196, R5
0BB4	3DCF		MOVE $19E, R13
0BB6	AD0F		ADD R13, #$10
0BB8	3DCE		MOVE $19C, R13
0BBA	AD0E		ADD R13, #$0F
0BBC	3DCD		MOVE $19A, R13
0BBE	8102		LBI R1, #$02
0BC0	C1BA		SNE R1, R11
0BC2	A005		BRA $0BCA		; $06(R0)

0BC4	2AAA		MOVE R10, $154
0BC6	AF00		ADD R15, #$01
0BC8	A00F		BRA $0BDA		; $10(R0)

0BCA	0203		INC2 R2, R0
0BCC	208B		JMP ($0116)

0BCE	24A1		MOVE R4, $142
0BD0	4140		PUTB $1, (R4)+
0BD2	4148		PUTB $1, (R4)
0BD4	2AAA		MOVE R10, $154
0BD6	AF00		ADD R15, #$01
0BD8	019E		GETB R9, $1
0BDA	8A10		LBI R10, #$10
0BDC	79A0		MOVB (R10)+, R9
0BDE	019E		GETB R9, $1
0BE0	79A0		MOVB (R10)+, R9
0BE2	2ECF		MOVE R14, $19E
0BE4	016E		GETB R6, $1
0BE6	76A0		MOVB (R10)+, R6
0BE8	2CCB		MOVE R12, $196
0BEA	016E		GETB R6, $1
0BEC	76A0		MOVB (R10)+, R6
0BEE	2DCD		MOVE R13, $19A
0BF0	016E		GETB R6, $1
0BF2	76A0		MOVB (R10)+, R6
0BF4	0203		INC2 R2, R0
0BF6	20B9		JMP ($0172)

0BF8	016E		GETB R6, $1
0BFA	76A0		MOVB (R10)+, R6
0BFC	0203		INC2 R2, R0
0BFE	20A9		JMP ($0152)

0C00	016E		GETB R6, $1
0C02	76A0		MOVB (R10)+, R6
0C04	2DCE		MOVE R13, $19C
0C06	016E		GETB R6, $1
0C08	76A0		MOVB (R10)+, R6
0C0A	2CCC		MOVE R12, $198
0C0C	016E		GETB R6, $1
0C0E	76A0		MOVB (R10)+, R6
0C10	8102		LBI R1, #$02
0C12	016E		GETB R6, $1
0C14	76A0		MOVB (R10)+, R6
0C16	8E09		LBI R14, #$09
0C18	016E		GETB R6, $1
0C1A	76A0		MOVB (R10)+, R6
0C1C	C1BA		SNE R1, R11
0C1E	8E0D		LBI R14, #$0D
0C20	016E		GETB R6, $1
0C22	76A0		MOVB (R10)+, R6
0C24	0203		INC2 R2, R0
0C26	20A9		JMP ($0152)

0C28	F05F		BRA $0BCA		; -> -$60(R0)

0C2A	2CCC		MOVE R12, $198
0C2C	2DCB		MOVE R13, $196
0C2E	2ECF		MOVE R14, $19E
0C30	0203		INC2 R2, R0
0C32	20C8		JMP ($0190)

0C34	8102		LBI R1, #$02
0C36	C1B2		SE R1, R11
0C38	A047		BRA $0C82		; $48(R0)

0C3A	23CB		MOVE R3, $196
0C3C	8104		LBI R1, #$04
0C3E	7134		MOVB (R3)-, R1
0C40	8198		LBI R1, #$98
0C42	7134		MOVB (R3)-, R1
0C44	81B3		LBI R1, #$B3
0C46	7134		MOVB (R3)-, R1
0C48	81E3		LBI R1, #$E3
0C4A	7134		MOVB (R3)-, R1
0C4C	81C9		LBI R1, #$C9
0C4E	7134		MOVB (R3)-, R1
0C50	81AB		LBI R1, #$AB
0C52	7134		MOVB (R3)-, R1
0C54	8179		LBI R1, #$79
0C56	7134		MOVB (R3)-, R1
0C58	81CF		LBI R1, #$CF
0C5A	7134		MOVB (R3)-, R1
0C5C	81D1		LBI R1, #$D1
0C5E	7134		MOVB (R3)-, R1
0C60	81F7		LBI R1, #$F7
0C62	7134		MOVB (R3)-, R1
0C64	8117		LBI R1, #$17
0C66	7134		MOVB (R3)-, R1
0C68	8172		LBI R1, #$72
0C6A	7134		MOVB (R3)-, R1
0C6C	81B1		LBI R1, #$B1
0C6E	7134		MOVB (R3)-, R1
0C70	2CCB		MOVE R12, $196
0C72	2DCC		MOVE R13, $198
0C74	0203		INC2 R2, R0
0C76	20C8		JMP ($0190)

0C78	8F00		LBI R15, #$00
0C7A	0203		INC2 R2, R0
0C7C	20B9		JMP ($0172)

0C7E	8A40		LBI R10, #$40
0C80	A001		BRA $0C84		; $02(R0)

0C82	8AC0		LBI R10, #$C0
0C84	87F0		LBI R7, #$F0
0C86	840F		LBI R4, #$0F
0C88	2CAA		MOVE R12, $154
0C8A	AC00		ADD R12, #$01
0C8C	66C0		MOVB R6, (R12)+
0C8E	C67E		SNBC R6, R7
0C90	A007		BRA $0C9A		; $08(R0)

0C92	8F00		LBI R15, #$00
0C94	AC04		ADD R12, #$05
0C96	8E07		LBI R14, #$07
0C98	A011		BRA $0CAC		; $12(R0)

0C9A	FA00		SUB R10, #$01
0C9C	C64E		SNBC R6, R4
0C9E	A007		BRA $0CA8		; $08(R0)

0CA0	8F04		LBI R15, #$04
0CA2	AC05		ADD R12, #$06
0CA4	8E08		LBI R14, #$08
0CA6	A003		BRA $0CAC		; $04(R0)

0CA8	FA00		SUB R10, #$01
0CAA	F01F		BRA $0C8C		; -> -$20(R0)

0CAC	1108		CTRL $1, #$08
0CAE	23CA		MOVE R3, $194
0CB0	24A1		MOVE R4, $142
0CB2	4140		PUTB $1, (R4)+
0CB4	4148		PUTB $1, (R4)
0CB6	2D94		MOVE R13, $128
0CB8	AD06		ADD R13, #$07
0CBA	0203		INC2 R2, R0
0CBC	20B9		JMP ($0172)

0CBE	FD06		SUB R13, #$07
0CC0	7AD8		MOVB (R13), R10
0CC2	2082		JMP ($0104)

0CC4	2F50		MOVE R15, $A0
0CC6	25CF		MOVE R5, $19E
0CC8	E05C		SHR R5
0CCA	2394		MOVE R3, $128
0CCC	A300		ADD R3, #$01
0CCE	6430		MOVB R4, (R3)+
0CD0	C404		SS R4
0CD2	A017		BRA $0CEC		; $18(R0)

0CD4	AF07		ADD R15, #$08
0CD6	F500		SUB R5, #$01
0CD8	C503		SZ R5
0CDA	F00D		BRA $0CCE		; -> -$0E(R0)

0CDC	25CF		MOVE R5, $19E
0CDE	8101		LBI R1, #$01
0CE0	C515		SBS R5, R1
0CE2	F0B9		BRA $0C2A		; -> -$BA(R0)

0CE4	6438		MOVB R4, (R3)
0CE6	81F0		LBI R1, #$F0
0CE8	C41D		SNBS R4, R1
0CEA	F0C1		BRA $0C2A		; -> -$C2(R0)

0CEC	81F0		LBI R1, #$F0
0CEE	C41D		SNBS R4, R1
0CF0	A003		BRA $0CF6		; $04(R0)

0CF2	E04F		SWAP R4
0CF4	A001		BRA $0CF8		; $02(R0)

0CF6	AF03		ADD R15, #$04
0CF8	810C		LBI R1, #$0C
0CFA	C41D		SNBS R4, R1
0CFC	A005		BRA $0D04		; $06(R0)

0CFE	E04D		ROR R4
0D00	E04D		ROR R4
0D02	A001		BRA $0D06		; $02(R0)

0D04	AF01		ADD R15, #$02
0D06	8102		LBI R1, #$02
0D08	C415		SBS R4, R1
0D0A	A001		BRA $0D0E		; $02(R0)

0D0C	AF00		ADD R15, #$01
0D0E	03F4		MOVE R3, R15
0D10	0338		ADD R3, R3
0D12	0338		ADD R3, R3
0D14	0134		MOVE R1, R3
0D16	0318		ADD R3, R1
0D18	013C		MHL R1, R3
0D1A	011A		ADDH R1, R1
0D1C	031D		MLH R3, R1
0D1E	03F9		SUB R3, R15
0D20	2189		MOVE R1, $112
0D22	0318		ADD R3, R1
0D24	013C		MHL R1, R3
0D26	011A		ADDH R1, R1
0D28	031D		MLH R3, R1
0D2A	0024		RET R2

0D2C	06D4		MOVE R6, R13
0D2E	8300		LBI R3, #$00
0D30	06E9		SUB R6, R14
0D32	64D4		MOVB R4, (R13)-
0D34	0438		ADD R4, R3
0D36	65C8		MOVB R5, (R12)
0D38	0458		ADD R4, R5
0D3A	74C4		MOVB (R12)-, R4
0D3C	034C		MHL R3, R4
0D3E	CD62		SE R13, R6
0D40	F00F		BRA $0D32		; -> -$10(R0)

0D42	0CE8		ADD R12, R14
0D44	0DE8		ADD R13, R14
0D46	0024		RET R2

0D48	08C4		MOVE R8, R12
0D4A	01F4		MOVE R1, R15
0D4C	9107		CLR R1, #$07
0D4E	E01E		ROR3 R1
0D50	0819		SUB R8, R1
0D52	0CE9		SUB R12, R14
0D54	09D4		MOVE R9, R13
0D56	09E9		SUB R9, R14
0D58	0704		MOVE R7, R0
0D5A	A787		ADD R7, #$88
0D5C	06F4		MOVE R6, R15
0D5E	96F8		CLR R6, #$F8
0D60	E06F		SWAP R6
0D62	6484		MOVB R4, (R8)-
0D64	0068		ADD R0, R6
0D66	74D4		MOVB (R13)-, R4
0D68	C8C2		SE R8, R12
0D6A	F009		BRA $0D62		; -> -$0A(R0)

0D6C	A085		BRA $0DF4		; $86(R0)

0D6E	0000		HALT
0D70	0000		HALT
0D72	0000		HALT
0D74	0000		HALT
0D76	E04D		ROR R4
0D78	0344		MOVE R3, R4
0D7A	947F		CLR R4, #$7F
0D7C	9380		CLR R3, #$80
0D7E	0074		RET R7

0D80	0000		HALT
0D82	0000		HALT
0D84	0000		HALT
0D86	E04D		ROR R4
0D88	E04D		ROR R4
0D8A	0344		MOVE R3, R4
0D8C	943F		CLR R4, #$3F
0D8E	93C0		CLR R3, #$C0
0D90	0074		RET R7

0D92	0000		HALT
0D94	0000		HALT
0D96	E04E		ROR3 R4
0D98	0344		MOVE R3, R4
0D9A	941F		CLR R4, #$1F
0D9C	93E0		CLR R3, #$E0
0D9E	0074		RET R7

0DA0	0000		HALT
0DA2	0000		HALT
0DA4	0000		HALT
0DA6	E04F		SWAP R4
0DA8	0344		MOVE R3, R4
0DAA	940F		CLR R4, #$0F
0DAC	93F0		CLR R3, #$F0
0DAE	0074		RET R7

0DB0	0000		HALT
0DB2	0000		HALT
0DB4	0000		HALT
0DB6	E04F		SWAP R4
0DB8	E04D		ROR R4
0DBA	0344		MOVE R3, R4
0DBC	9407		CLR R4, #$07
0DBE	93F8		CLR R3, #$F8
0DC0	0074		RET R7

0DC2	0000		HALT
0DC4	0000		HALT
0DC6	E04E		ROR3 R4
0DC8	E04E		ROR3 R4
0DCA	0344		MOVE R3, R4
0DCC	9403		CLR R4, #$03
0DCE	93FC		CLR R3, #$FC
0DD0	0074		RET R7

0DD2	0000		HALT
0DD4	0000		HALT
0DD6	E04F		SWAP R4
0DD8	E04E		ROR3 R4
0DDA	0344		MOVE R3, R4
0DDC	9401		CLR R4, #$01
0DDE	93FE		CLR R3, #$FE
0DE0	0074		RET R7

0DE2	0534		MOVE R5, R3
0DE4	A705		ADD R7, #$06
0DE6	F085		BRA $0D62		; -> -$86(R0)

0DE8	0456		OR R4, R5
0DEA	74D4		MOVB (R13)-, R4
0DEC	0534		MOVE R5, R3
0DEE	CC82		SE R12, R8
0DF0	F08F		BRA $0D62		; -> -$90(R0)

0DF2	75D4		MOVB (R13)-, R5
0DF4	8400		LBI R4, #$00
0DF6	CD9A		SNE R13, R9
0DF8	A003		BRA $0DFE		; $04(R0)

0DFA	74D4		MOVB (R13)-, R4
0DFC	F007		BRA $0DF6		; -> -$08(R0)

0DFE	0CE8		ADD R12, R14
0E00	0DE8		ADD R13, R14
0E02	0024		RET R2

0E04	83FF		LBI R3, #$FF
0E06	06C4		MOVE R6, R12
0E08	06E9		SUB R6, R14
0E0A	2350		MOVE R3, $A0
0E0C	64C8		MOVB R4, (R12)
0E0E	C35F		SNBSH R3, R5
0E10	A003		BRA $0E16		; $04(R0)

0E12	0344		MOVE R3, R4
0E14	A001		BRA $0E18		; $02(R0)

0E16	034B		ADDH2 R3, R4
0E18	64D4		MOVB R4, (R13)-
0E1A	0349		SUB R3, R4
0E1C	73C4		MOVB (R12)-, R3
0E1E	CC62		SE R12, R6
0E20	F015		BRA $0E0C		; -> -$16(R0)

0E22	0CE8		ADD R12, R14
0E24	0DE8		ADD R13, R14
0E26	0024		RET R2

0E28	2350		MOVE R3, $A0
0E2A	33D2		MOVE $1A4, R3
0E2C	33D3		MOVE $1A6, R3
0E2E	013E		GETB R3, $1
0E30	63D0		MOVB R3, (R13)+
0E32	8440		LBI R4, #$40
0E34	044D		MLH R4, R4
0E36	8480		LBI R4, #$80
0E38	8103		LBI R1, #$03
0E3A	C31E		SNBC R3, R1
0E3C	A005		BRA $0E44		; $06(R0)

0E3E	E04D		ROR R4
0E40	F300		SUB R3, #$01
0E42	F009		BRA $0E3A		; -> -$0A(R0)

0E44	014C		MHL R1, R4
0E46	71D0		MOVB (R13)+, R1
0E48	74D0		MOVB (R13)+, R4
0E4A	23D0		MOVE R3, $1A0
0E4C	033C		MHL R3, R3
0E4E	9380		CLR R3, #$80
0E50	8139		LBI R1, #$39
0E52	2F50		MOVE R15, $A0
0E54	25D0		MOVE R5, $1A0
0E56	35F0		MOVE $1E0, R5
0E58	25D1		MOVE R5, $1A2
0E5A	35F1		MOVE $1E2, R5
0E5C	25D2		MOVE R5, $1A4
0E5E	35F2		MOVE $1E4, R5
0E60	25D3		MOVE R5, $1A6
0E62	35F3		MOVE $1E6, R5
0E64	C310		SLE R3, R1
0E66	A00D		BRA $0E76		; $0E(R0)

0E68	7FD0		MOVB (R13)+, R15
0E6A	7FD0		MOVB (R13)+, R15
0E6C	7FD0		MOVB (R13)+, R15
0E6E	7FD0		MOVB (R13)+, R15
0E70	7FD0		MOVB (R13)+, R15
0E72	7FD8		MOVB (R13), R15
0E74	2082		JMP ($0104)

0E76	AD04		ADD R13, #$05
0E78	3DF5		MOVE $1EA, R13
0E7A	2AAA		MOVE R10, $154
0E7C	54A1		MOVE (R10)+, R4
0E7E	8D01		LBI R13, #$01
0E80	0DDD		MLH R13, R13
0E82	8DE8		LBI R13, #$E8
0E84	3DCB		MOVE $196, R13
0E86	8F40		LBI R15, #$40
0E88	C3FA		SNE R3, R15
0E8A	A013		BRA $0EA0		; $14(R0)

0E8C	FD07		SUB R13, #$08
0E8E	7FD8		MOVB (R13), R15
0E90	2DCB		MOVE R13, $196
0E92	0F39		SUB R15, R3
0E94	0CD4		MOVE R12, R13
0E96	8E08		LBI R14, #$08
0E98	E0FE		ROR3 R15
0E9A	E0FE		ROR3 R15
0E9C	0203		INC2 R2, R0
0E9E	20B9		JMP ($0172)

0EA0	E13F		STAT R3, $1
0EA2	033D		MLH R3, R3
0EA4	E13F		STAT R3, $1
0EA6	33CA		MOVE $194, R3
0EA8	1102		CTRL $1, #$02
0EAA	830B		LBI R3, #$0B
0EAC	033D		MLH R3, R3
0EAE	83F3		LBI R3, #$F3
0EB0	24A1		MOVE R4, $142
0EB2	4140		PUTB $1, (R4)+
0EB4	4148		PUTB $1, (R4)
0EB6	F000		BRA $0EB7		; -> -$01(R0)

0EB8	013E		GETB R3, $1
0EBA	033D		MLH R3, R3
0EBC	8A08		LBI R10, #$08
0EBE	3ACC		MOVE $198, R10
0EC0	013E		GETB R3, $1
0EC2	3389		MOVE $112, R3
0EC4	2350		MOVE R3, $A0
0EC6	33F4		MOVE $1E8, R3
0EC8	53A5		MOVE (R10)-, R3
0ECA	53A5		MOVE (R10)-, R3
0ECC	53A5		MOVE (R10)-, R3
0ECE	53A8		MOVE (R10), R3
0ED0	8A17		LBI R10, #$17
0ED2	3ACD		MOVE $19A, R10
0ED4	8A27		LBI R10, #$27
0ED6	3ACE		MOVE $19C, R10
0ED8	2F50		MOVE R15, $A0
0EDA	24F0		MOVE R4, $1E0
0EDC	C403		SZ R4
0EDE	A01F		BRA $0F00		; $20(R0)

0EE0	AF07		ADD R15, #$08
0EE2	24F1		MOVE R4, $1E2
0EE4	014C		MHL R1, R4
0EE6	C10B		SNZ R1
0EE8	A003		BRA $0EEE		; $04(R0)

0EEA	0414		MOVE R4, R1
0EEC	A011		BRA $0F00		; $12(R0)

0EEE	AF07		ADD R15, #$08
0EF0	C403		SZ R4
0EF2	A00B		BRA $0F00		; $0C(R0)

0EF4	AF07		ADD R15, #$08
0EF6	24F2		MOVE R4, $1E4
0EF8	81F0		LBI R1, #$F0
0EFA	044C		MHL R4, R4
0EFC	C41E		SNBC R4, R1
0EFE	A07B		BRA $0F7C		; $7C(R0)

0F00	81F0		LBI R1, #$F0
0F02	C41E		SNBC R4, R1
0F04	A003		BRA $0F0A		; $04(R0)

0F06	E04F		SWAP R4
0F08	A001		BRA $0F0C		; $02(R0)

0F0A	AF03		ADD R15, #$04
0F0C	810C		LBI R1, #$0C
0F0E	C41E		SNBC R4, R1
0F10	A005		BRA $0F18		; $06(R0)

0F12	E04D		ROR R4
0F14	E04D		ROR R4
0F16	A001		BRA $0F1A		; $02(R0)

0F18	AF01		ADD R15, #$02
0F1A	8102		LBI R1, #$02
0F1C	C416		SBC R4, R1
0F1E	A001		BRA $0F22		; $02(R0)

0F20	AF00		ADD R15, #$01
0F22	03F4		MOVE R3, R15
0F24	E03F		SWAP R3
0F26	E03D		ROR R3
0F28	03F9		SUB R3, R15
0F2A	2189		MOVE R1, $112
0F2C	0318		ADD R3, R1
0F2E	013C		MHL R1, R3
0F30	011A		ADDH R1, R1
0F32	031D		MLH R3, R1
0F34	24A1		MOVE R4, $142
0F36	4140		PUTB $1, (R4)+
0F38	4148		PUTB $1, (R4)
0F3A	2ACE		MOVE R10, $19C
0F3C	FA06		SUB R10, #$07
0F3E	016E		GETB R6, $1
0F40	2CCC		MOVE R12, $198
0F42	2DCD		MOVE R13, $19A
0F44	016E		GETB R6, $1
0F46	76A0		MOVB (R10)+, R6
0F48	AF00		ADD R15, #$01
0F4A	016E		GETB R6, $1
0F4C	76A0		MOVB (R10)+, R6
0F4E	8E08		LBI R14, #$08
0F50	016E		GETB R6, $1
0F52	76A0		MOVB (R10)+, R6
0F54	0203		INC2 R2, R0
0F56	20B9		JMP ($0172)

0F58	016E		GETB R6, $1
0F5A	76A0		MOVB (R10)+, R6
0F5C	0203		INC2 R2, R0
0F5E	20A9		JMP ($0152)

0F60	016E		GETB R6, $1
0F62	76A0		MOVB (R10)+, R6
0F64	2DCE		MOVE R13, $19C
0F66	016E		GETB R6, $1
0F68	76A0		MOVB (R10)+, R6
0F6A	2CCB		MOVE R12, $196
0F6C	016E		GETB R6, $1
0F6E	76A0		MOVB (R10)+, R6
0F70	8E08		LBI R14, #$08
0F72	016E		GETB R6, $1
0F74	76A0		MOVB (R10)+, R6
0F76	0203		INC2 R2, R0
0F78	20C8		JMP ($0190)

0F7A	F0A3		BRA $0ED8		; -> -$A4(R0)

0F7C	23CA		MOVE R3, $194
0F7E	24A1		MOVE R4, $142
0F80	1108		CTRL $1, #$08
0F82	4140		PUTB $1, (R4)+
0F84	4148		PUTB $1, (R4)
0F86	2F50		MOVE R15, $A0
0F88	2DF5		MOVE R13, $1EA
0F8A	2CAA		MOVE R12, $154
0F8C	AC06		ADD R12, #$07
0F8E	8E08		LBI R14, #$08
0F90	0203		INC2 R2, R0
0F92	20B9		JMP ($0172)

0F94	8730		LBI R7, #$30
0F96	8A3A		LBI R10, #$3A
0F98	2CCB		MOVE R12, $196
0F9A	FC03		SUB R12, #$04
0F9C	8E06		LBI R14, #$06
0F9E	2350		MOVE R3, $A0
0FA0	33D0		MOVE $1A0, R3
0FA2	33D1		MOVE $1A2, R3
0FA4	33D2		MOVE $1A4, R3
0FA6	33D3		MOVE $1A6, R3
0FA8	66C0		MOVB R6, (R12)+
0FAA	C603		SZ R6
0FAC	A009		BRA $0FB8		; $0A(R0)

0FAE	FA01		SUB R10, #$02
0FB0	FE00		SUB R14, #$01
0FB2	CA72		SE R10, R7
0FB4	F00D		BRA $0FA8		; -> -$0E(R0)

0FB6	2082		JMP ($0104)

0FB8	2D94		MOVE R13, $128
0FBA	0DE8		ADD R13, R14
0FBC	0CE8		ADD R12, R14
0FBE	FC01		SUB R12, #$02
0FC0	8F00		LBI R15, #$00
0FC2	81F0		LBI R1, #$F0
0FC4	C616		SBC R6, R1
0FC6	A005		BRA $0FCE		; $06(R0)

0FC8	FA00		SUB R10, #$01
0FCA	FD00		SUB R13, #$01
0FCC	8F04		LBI R15, #$04
0FCE	810D		LBI R1, #$0D
0FD0	011D		MLH R1, R1
0FD2	8148		LBI R1, #$48
0FD4	0203		INC2 R2, R0
0FD6	0014		RET R1

0FD8	2394		MOVE R3, $128
0FDA	7A38		MOVB (R3), R10
0FDC	2082		JMP ($0104)

0FDE	0000		HALT
0FE0	0000		HALT
0FE2	0000		HALT
0FE4	0000		HALT
0FE6	0000		HALT
0FE8	0000		HALT
0FEA	0000		HALT
0FEC	0000		HALT
0FEE	0000		HALT
0FF0	0000		HALT
0FF2	0000		HALT
0FF4	0000		HALT
0FF6	0000		HALT
0FF8	0000		HALT
0FFA	0000		HALT
0FFC	0000		HALT
0FFE	0000		HALT
1000	0203		INC2 R2, R0
1002	2091		JMP ($0122)

1004	0CE8		ADD R12, R14
1006	0DE8		ADD R13, R14
1008	2550		MOVE R5, $A0
100A	8600		LBI R6, #$00
100C	8701		LBI R7, #$01
100E	8810		LBI R8, #$10
1010	63C8		MOVB R3, (R12)
1012	64D4		MOVB R4, (R13)-
1014	054A		ADDH R5, R4
1016	A365		ADD R3, #$66
1018	0437		XOR R4, R3
101A	0538		ADD R5, R3
101C	0457		XOR R4, R5
101E	C485		SBS R4, R8
1020	F505		SUB R5, #$06
1022	C577		SBSH R5, R7
1024	F55F		SUB R5, #$60
1026	0656		OR R6, R5
1028	75C4		MOVB (R12)-, R5
102A	FE00		SUB R14, #$01
102C	CE04		SS R14
102E	F01F		BRA $1010		; -> -$20(R0)

1030	C57F		SNBSH R5, R7
1032	A005		BRA $103A		; $06(R0)

1034	C60B		SNZ R6
1036	209B		JMP ($0136)

1038	209D		JMP ($013A)

103A	8E00		LBI R14, #$00
103C	2DB1		MOVE R13, $162
103E	F02F		BRA $1010		; -> -$30(R0)

1040	015E		GETB R5, $1
1042	2C88		MOVE R12, $110
1044	0C58		ADD R12, R5
1046	2D81		MOVE R13, $102
1048	0DE6		OR R13, R14
104A	63C0		MOVB R3, (R12)+
104C	64C8		MOVB R4, (R12)
104E	043D		MLH R4, R3
1050	54D8		MOVE (R13), R4
1052	2082		JMP ($0104)

1054	015E		GETB R5, $1
1056	2C90		MOVE R12, $120
1058	0C58		ADD R12, R5
105A	2D81		MOVE R13, $102
105C	0DE6		OR R13, R14
105E	63C0		MOVB R3, (R12)+
1060	64C8		MOVB R4, (R12)
1062	043D		MLH R4, R3
1064	54D8		MOVE (R13), R4
1066	2082		JMP ($0104)

1068	015E		GETB R5, $1
106A	0C5D		MLH R12, R5
106C	2D81		MOVE R13, $102
106E	01CE		GETB R12, $1
1070	0DE6		OR R13, R14
1072	63C0		MOVB R3, (R12)+
1074	64C8		MOVB R4, (R12)
1076	043D		MLH R4, R3
1078	54D8		MOVE (R13), R4
107A	2082		JMP ($0104)

107C	015E		GETB R5, $1
107E	2C81		MOVE R12, $102
1080	0CE6		OR R12, R14
1082	2D81		MOVE R13, $102
1084	0D56		OR R13, R5
1086	D3D8		MOVE R3, (R13)
1088	53C8		MOVE (R12), R3
108A	2082		JMP ($0104)

108C	015E		GETB R5, $1
108E	2C88		MOVE R12, $110
1090	0C58		ADD R12, R5
1092	2D81		MOVE R13, $102
1094	0DE6		OR R13, R14
1096	63C0		MOVB R3, (R12)+
1098	64C8		MOVB R4, (R12)
109A	043D		MLH R4, R3
109C	54D8		MOVE (R13), R4
109E	C403		SZ R4
10A0	209D		JMP ($013A)

10A2	C303		SZ R3
10A4	209D		JMP ($013A)

10A6	209B		JMP ($0136)

10A8	015E		GETB R5, $1
10AA	2C90		MOVE R12, $120
10AC	0C58		ADD R12, R5
10AE	2D81		MOVE R13, $102
10B0	0DE6		OR R13, R14
10B2	63C0		MOVB R3, (R12)+
10B4	64C8		MOVB R4, (R12)
10B6	043D		MLH R4, R3
10B8	54D8		MOVE (R13), R4
10BA	C403		SZ R4
10BC	209D		JMP ($013A)

10BE	C303		SZ R3
10C0	209D		JMP ($013A)

10C2	209B		JMP ($0136)

10C4	015E		GETB R5, $1
10C6	0C5D		MLH R12, R5
10C8	2D81		MOVE R13, $102
10CA	01CE		GETB R12, $1
10CC	0DE6		OR R13, R14
10CE	63C0		MOVB R3, (R12)+
10D0	64C8		MOVB R4, (R12)
10D2	043D		MLH R4, R3
10D4	54D8		MOVE (R13), R4
10D6	C403		SZ R4
10D8	209D		JMP ($013A)

10DA	C303		SZ R3
10DC	209D		JMP ($013A)

10DE	209B		JMP ($0136)

10E0	015E		GETB R5, $1
10E2	2C88		MOVE R12, $110
10E4	0C58		ADD R12, R5
10E6	011E		GETB R1, $1
10E8	E1DF		STAT R13, $1
10EA	0DDD		MLH R13, R13
10EC	E1DF		STAT R13, $1
10EE	2399		MOVE R3, $132
10F0	4130		PUTB $1, (R3)+
10F2	4138		PUTB $1, (R3)
10F4	2481		MOVE R4, $102
10F6	04E6		OR R4, R14
10F8	013E		GETB R3, $1
10FA	033D		MLH R3, R3
10FC	259A		MOVE R5, $134
10FE	013E		GETB R3, $1
1100	4150		PUTB $1, (R5)+
1102	4158		PUTB $1, (R5)
1104	5348		MOVE (R4), R3
1106	2082		JMP ($0104)

1108	015E		GETB R5, $1
110A	2C90		MOVE R12, $120
110C	0C58		ADD R12, R5
110E	011E		GETB R1, $1
1110	E1DF		STAT R13, $1
1112	0DDD		MLH R13, R13
1114	E1DF		STAT R13, $1
1116	2399		MOVE R3, $132
1118	4130		PUTB $1, (R3)+
111A	4138		PUTB $1, (R3)
111C	2481		MOVE R4, $102
111E	04E6		OR R4, R14
1120	013E		GETB R3, $1
1122	033D		MLH R3, R3
1124	259A		MOVE R5, $134
1126	013E		GETB R3, $1
1128	4150		PUTB $1, (R5)+
112A	4158		PUTB $1, (R5)
112C	5348		MOVE (R4), R3
112E	2082		JMP ($0104)

1130	015E		GETB R5, $1
1132	0C5D		MLH R12, R5
1134	2399		MOVE R3, $132
1136	01CE		GETB R12, $1
1138	2481		MOVE R4, $102
113A	04E6		OR R4, R14
113C	011E		GETB R1, $1
113E	E1DF		STAT R13, $1
1140	0DDD		MLH R13, R13
1142	E1DF		STAT R13, $1
1144	4130		PUTB $1, (R3)+
1146	4138		PUTB $1, (R3)
1148	F000		BRA $1149		; -> -$01(R0)

114A	013E		GETB R3, $1
114C	033D		MLH R3, R3
114E	259A		MOVE R5, $134
1150	013E		GETB R3, $1
1152	4150		PUTB $1, (R5)+
1154	4158		PUTB $1, (R5)
1156	5348		MOVE (R4), R3
1158	2082		JMP ($0104)

115A	015E		GETB R5, $1
115C	2C88		MOVE R12, $110
115E	0C58		ADD R12, R5
1160	2D81		MOVE R13, $102
1162	0DE6		OR R13, R14
1164	5CD8		MOVE (R13), R12
1166	2082		JMP ($0104)

1168	015E		GETB R5, $1
116A	2C90		MOVE R12, $120
116C	0C58		ADD R12, R5
116E	2D81		MOVE R13, $102
1170	0DE6		OR R13, R14
1172	5CD8		MOVE (R13), R12
1174	2082		JMP ($0104)

1176	015E		GETB R5, $1
1178	0C5D		MLH R12, R5
117A	2D81		MOVE R13, $102
117C	0DE6		OR R13, R14
117E	01CE		GETB R12, $1
1180	5CD8		MOVE (R13), R12
1182	2082		JMP ($0104)

1184	015E		GETB R5, $1
1186	0C5D		MLH R12, R5
1188	2D81		MOVE R13, $102
118A	0DE6		OR R13, R14
118C	01CE		GETB R12, $1
118E	6CC8		MOVB R12, (R12)
1190	5CD8		MOVE (R13), R12
1192	2082		JMP ($0104)

1194	015E		GETB R5, $1
1196	2C88		MOVE R12, $110
1198	0C58		ADD R12, R5
119A	2D81		MOVE R13, $102
119C	0DE6		OR R13, R14
119E	6CC8		MOVB R12, (R12)
11A0	5CD8		MOVE (R13), R12
11A2	2082		JMP ($0104)

11A4	015E		GETB R5, $1
11A6	2C90		MOVE R12, $120
11A8	0C58		ADD R12, R5
11AA	2D81		MOVE R13, $102
11AC	0DE6		OR R13, R14
11AE	6CC8		MOVB R12, (R12)
11B0	5CD8		MOVE (R13), R12
11B2	2082		JMP ($0104)

11B4	015E		GETB R5, $1
11B6	2C88		MOVE R12, $110
11B8	0C58		ADD R12, R5
11BA	019E		GETB R9, $1
11BC	2D81		MOVE R13, $102
11BE	0DE6		OR R13, R14
11C0	01AE		GETB R10, $1
11C2	63C0		MOVB R3, (R12)+
11C4	64C8		MOVB R4, (R12)
11C6	043D		MLH R4, R3
11C8	54D8		MOVE (R13), R4
11CA	C403		SZ R4
11CC	2082		JMP ($0104)

11CE	C303		SZ R3
11D0	2082		JMP ($0104)

11D2	23C3		MOVE R3, $186
11D4	4131		PUTB $1, (R3)++
11D6	4138		PUTB $1, (R3)
11D8	0004		NOP
11DA	2082		JMP ($0104)

11DC	015E		GETB R5, $1
11DE	2C90		MOVE R12, $120
11E0	0C58		ADD R12, R5
11E2	019E		GETB R9, $1
11E4	2D81		MOVE R13, $102
11E6	0DE6		OR R13, R14
11E8	01AE		GETB R10, $1
11EA	63C0		MOVB R3, (R12)+
11EC	64C8		MOVB R4, (R12)
11EE	043D		MLH R4, R3
11F0	54D8		MOVE (R13), R4
11F2	C403		SZ R4
11F4	2082		JMP ($0104)

11F6	C303		SZ R3
11F8	2082		JMP ($0104)

11FA	23C3		MOVE R3, $186
11FC	4131		PUTB $1, (R3)++
11FE	4138		PUTB $1, (R3)
1200	0004		NOP
1202	2082		JMP ($0104)

1204	015E		GETB R5, $1
1206	0C5D		MLH R12, R5
1208	2D81		MOVE R13, $102
120A	01CE		GETB R12, $1
120C	63C0		MOVB R3, (R12)+
120E	64C8		MOVB R4, (R12)
1210	019E		GETB R9, $1
1212	043D		MLH R4, R3
1214	0DE6		OR R13, R14
1216	01AE		GETB R10, $1
1218	54D8		MOVE (R13), R4
121A	C403		SZ R4
121C	2082		JMP ($0104)

121E	C303		SZ R3
1220	2082		JMP ($0104)

1222	23C3		MOVE R3, $186
1224	4131		PUTB $1, (R3)++
1226	4138		PUTB $1, (R3)
1228	0004		NOP
122A	2082		JMP ($0104)

122C	015E		GETB R5, $1
122E	2C88		MOVE R12, $110
1230	0C58		ADD R12, R5
1232	2D81		MOVE R13, $102
1234	0DE6		OR R13, R14
1236	D4D8		MOVE R4, (R13)
1238	034C		MHL R3, R4
123A	73C0		MOVB (R12)+, R3
123C	74C8		MOVB (R12), R4
123E	2082		JMP ($0104)

1240	015E		GETB R5, $1
1242	2C90		MOVE R12, $120
1244	0C58		ADD R12, R5
1246	2D81		MOVE R13, $102
1248	0DE6		OR R13, R14
124A	D4D8		MOVE R4, (R13)
124C	034C		MHL R3, R4
124E	73C0		MOVB (R12)+, R3
1250	74C8		MOVB (R12), R4
1252	2082		JMP ($0104)

1254	015E		GETB R5, $1
1256	0C5D		MLH R12, R5
1258	2D81		MOVE R13, $102
125A	01CE		GETB R12, $1
125C	0DE6		OR R13, R14
125E	D4D8		MOVE R4, (R13)
1260	034C		MHL R3, R4
1262	73C0		MOVB (R12)+, R3
1264	74C8		MOVB (R12), R4
1266	2082		JMP ($0104)

1268	015E		GETB R5, $1
126A	2C88		MOVE R12, $110
126C	0C58		ADD R12, R5
126E	7EC8		MOVB (R12), R14
1270	2082		JMP ($0104)

1272	015E		GETB R5, $1
1274	2C90		MOVE R12, $120
1276	0C58		ADD R12, R5
1278	7EC8		MOVB (R12), R14
127A	2082		JMP ($0104)

127C	015E		GETB R5, $1
127E	0C5D		MLH R12, R5
1280	0004		NOP
1282	01CE		GETB R12, $1
1284	7EC8		MOVB (R12), R14
1286	2082		JMP ($0104)

1288	0203		INC2 R2, R0
128A	2091		JMP ($0122)

128C	2381		MOVE R3, $102
128E	03E6		OR R3, R14
1290	DE38		MOVE R14, (R3)
1292	CE03		SZ R14
1294	A007		BRA $129E		; $08(R0)

1296	01EC		MHL R1, R14
1298	C103		SZ R1
129A	A001		BRA $129E		; $02(R0)

129C	2082		JMP ($0104)

129E	63D0		MOVB R3, (R13)+
12A0	73C0		MOVB (R12)+, R3
12A2	FE00		SUB R14, #$01
12A4	F013		BRA $1292		; -> -$14(R0)

12A6	0203		INC2 R2, R0
12A8	2091		JMP ($0122)

12AA	63D0		MOVB R3, (R13)+
12AC	73C0		MOVB (R12)+, R3
12AE	FE00		SUB R14, #$01
12B0	CE04		SS R14
12B2	F009		BRA $12AA		; -> -$0A(R0)

12B4	2082		JMP ($0104)

12B6	0203		INC2 R2, R0
12B8	2091		JMP ($0122)

12BA	7DC0		MOVB (R12)+, R13
12BC	FE00		SUB R14, #$01
12BE	CE04		SS R14
12C0	F007		BRA $12BA		; -> -$08(R0)

12C2	2082		JMP ($0104)

12C4	0203		INC2 R2, R0
12C6	2091		JMP ($0122)

12C8	259A		MOVE R5, $134
12CA	011E		GETB R1, $1
12CC	E13F		STAT R3, $1
12CE	033D		MLH R3, R3
12D0	E13F		STAT R3, $1
12D2	4150		PUTB $1, (R5)+
12D4	4158		PUTB $1, (R5)
12D6	0004		NOP
12D8	25A1		MOVE R5, $142
12DA	016E		GETB R6, $1
12DC	76C0		MOVB (R12)+, R6
12DE	FE00		SUB R14, #$01
12E0	CE04		SS R14
12E2	F009		BRA $12DA		; -> -$0A(R0)

12E4	4150		PUTB $1, (R5)+
12E6	4158		PUTB $1, (R5)
12E8	0004		NOP
12EA	2082		JMP ($0104)

12EC	0203		INC2 R2, R0
12EE	2091		JMP ($0122)

12F0	63C8		MOVB R3, (R12)
12F2	64D8		MOVB R4, (R13)
12F4	0EE8		ADD R14, R14
12F6	00E8		ADD R0, R14
12F8	A007		BRA $1302		; $08(R0)

12FA	A003		BRA $1300		; $04(R0)

12FC	A00D		BRA $130C		; $0E(R0)

12FE	A00D		BRA $130E		; $0E(R0)

1300	E04F		SWAP R4
1302	93F0		CLR R3, #$F0
1304	940F		CLR R4, #$0F
1306	0346		OR R3, R4
1308	73C8		MOVB (R12), R3
130A	2082		JMP ($0104)

130C	E04F		SWAP R4
130E	930F		CLR R3, #$0F
1310	94F0		CLR R4, #$F0
1312	0346		OR R3, R4
1314	73C8		MOVB (R12), R3
1316	2082		JMP ($0104)

1318	0203		INC2 R2, R0
131A	2091		JMP ($0122)

131C	8101		LBI R1, #$01
131E	CE16		SBC R14, R1
1320	A005		BRA $1328		; $06(R0)

1322	8300		LBI R3, #$00
1324	AE00		ADD R14, #$01
1326	A005		BRA $132E		; $06(R0)

1328	63D0		MOVB R3, (R13)+
132A	93F0		CLR R3, #$F0
132C	E03F		SWAP R3
132E	64D0		MOVB R4, (R13)+
1330	94F0		CLR R4, #$F0
1332	0346		OR R3, R4
1334	73C0		MOVB (R12)+, R3
1336	FE01		SUB R14, #$02
1338	CE04		SS R14
133A	F013		BRA $1328		; -> -$14(R0)

133C	2082		JMP ($0104)

133E	0203		INC2 R2, R0
1340	2091		JMP ($0122)

1342	8101		LBI R1, #$01
1344	CE16		SBC R14, R1
1346	A005		BRA $134E		; $06(R0)

1348	64D0		MOVB R4, (R13)+
134A	AE00		ADD R14, #$01
134C	A009		BRA $1358		; $0A(R0)

134E	63D0		MOVB R3, (R13)+
1350	0434		MOVE R4, R3
1352	E03F		SWAP R3
1354	B3F0		SET R3, #$F0
1356	73C0		MOVB (R12)+, R3
1358	B4F0		SET R4, #$F0
135A	74C0		MOVB (R12)+, R4
135C	FE01		SUB R14, #$02
135E	CE04		SS R14
1360	F013		BRA $134E		; -> -$14(R0)

1362	2082		JMP ($0104)

1364	015E		GETB R5, $1
1366	2C81		MOVE R12, $102
1368	0CE6		OR R12, R14
136A	95F0		CLR R5, #$F0
136C	A500		ADD R5, #$01
136E	D3C8		MOVE R3, (R12)
1370	8108		LBI R1, #$08
1372	C519		SGE R5, R1
1374	A005		BRA $137C		; $06(R0)

1376	F507		SUB R5, #$08
1378	8300		LBI R3, #$00
137A	033A		ADDH R3, R3
137C	8104		LBI R1, #$04
137E	C519		SGE R5, R1
1380	A013		BRA $1396		; $14(R0)

1382	F503		SUB R5, #$04
1384	E03F		SWAP R3
1386	93F0		CLR R3, #$F0
1388	063C		MHL R6, R3
138A	E06F		SWAP R6
138C	0764		MOVE R7, R6
138E	960F		CLR R6, #$0F
1390	0366		OR R3, R6
1392	97F0		CLR R7, #$F0
1394	037D		MLH R3, R7
1396	2650		MOVE R6, $A0
1398	C50B		SNZ R5
139A	A00B		BRA $13A8		; $0C(R0)

139C	F500		SUB R5, #$01
139E	E03C		SHR R3
13A0	063C		MHL R6, R3
13A2	E06C		SHR R6
13A4	036D		MLH R3, R6
13A6	F011		BRA $1396		; -> -$12(R0)

13A8	53C8		MOVE (R12), R3
13AA	C303		SZ R3
13AC	209D		JMP ($013A)

13AE	033C		MHL R3, R3
13B0	C303		SZ R3
13B2	209D		JMP ($013A)

13B4	209B		JMP ($0136)

13B6	015E		GETB R5, $1
13B8	2C81		MOVE R12, $102
13BA	0CE6		OR R12, R14
13BC	95F0		CLR R5, #$F0
13BE	A500		ADD R5, #$01
13C0	D3C8		MOVE R3, (R12)
13C2	8108		LBI R1, #$08
13C4	C519		SGE R5, R1
13C6	A005		BRA $13CE		; $06(R0)

13C8	F507		SUB R5, #$08
13CA	033D		MLH R3, R3
13CC	8300		LBI R3, #$00
13CE	8104		LBI R1, #$04
13D0	C519		SGE R5, R1
13D2	A013		BRA $13E8		; $14(R0)

13D4	F503		SUB R5, #$04
13D6	063C		MHL R6, R3
13D8	E06F		SWAP R6
13DA	960F		CLR R6, #$0F
13DC	E03F		SWAP R3
13DE	0734		MOVE R7, R3
13E0	97F0		CLR R7, #$F0
13E2	0676		OR R6, R7
13E4	036D		MLH R3, R6
13E6	930F		CLR R3, #$0F
13E8	C50B		SNZ R5
13EA	A00B		BRA $13F8		; $0C(R0)

13EC	F500		SUB R5, #$01
13EE	013C		MHL R1, R3
13F0	0118		ADD R1, R1
13F2	031D		MLH R3, R1
13F4	0338		ADD R3, R3
13F6	F00F		BRA $13E8		; -> -$10(R0)

13F8	53C8		MOVE (R12), R3
13FA	C303		SZ R3
13FC	209D		JMP ($013A)

13FE	033C		MHL R3, R3
1400	C303		SZ R3
1402	209D		JMP ($013A)

1404	209B		JMP ($0136)

1406	0203		INC2 R2, R0
1408	2091		JMP ($0122)

140A	E0EF		SWAP R14
140C	23C1		MOVE R3, $182
140E	08D4		MOVE R8, R13
1410	98F8		CLR R8, #$F8
1412	9DF8		CLR R13, #$F8
1414	03D8		ADD R3, R13
1416	6738		MOVB R7, (R3)
1418	86FF		LBI R6, #$FF
141A	0677		XOR R6, R7
141C	8500		LBI R5, #$00
141E	0888		ADD R8, R8
1420	8400		LBI R4, #$00
1422	A001		BRA $1426		; $02(R0)

1424	73C0		MOVB (R12)+, R3
1426	63C8		MOVB R3, (R12)
1428	0365		AND R3, R6
142A	0475		AND R4, R7
142C	0346		OR R3, R4
142E	0536		OR R5, R3
1430	0088		ADD R0, R8
1432	A00F		BRA $1444		; $10(R0)

1434	A00B		BRA $1442		; $0C(R0)

1436	A00F		BRA $1448		; $10(R0)

1438	A011		BRA $144C		; $12(R0)

143A	A013		BRA $1450		; $14(R0)

143C	A017		BRA $1456		; $18(R0)

143E	A01B		BRA $145C		; $1C(R0)

1440	A01D		BRA $1460		; $1E(R0)

1442	E03D		ROR R3
1444	E03D		ROR R3
1446	A017		BRA $1460		; $18(R0)

1448	E03E		ROR3 R3
144A	A013		BRA $1460		; $14(R0)

144C	E03F		SWAP R3
144E	A00F		BRA $1460		; $10(R0)

1450	E03D		ROR R3
1452	E03F		SWAP R3
1454	A009		BRA $1460		; $0A(R0)

1456	E03E		ROR3 R3
1458	E03E		ROR3 R3
145A	A003		BRA $1460		; $04(R0)

145C	E03F		SWAP R3
145E	E03E		ROR3 R3
1460	64C8		MOVB R4, (R12)
1462	FE00		SUB R14, #$01
1464	CE04		SS R14
1466	F043		BRA $1424		; -> -$44(R0)

1468	73C8		MOVB (R12), R3
146A	C50B		SNZ R5
146C	209B		JMP ($0136)

146E	209D		JMP ($013A)

1470	0203		INC2 R2, R0
1472	2091		JMP ($0122)

1474	E0EF		SWAP R14
1476	23C2		MOVE R3, $184
1478	0CE8		ADD R12, R14
147A	8806		LBI R8, #$06
147C	08D9		SUB R8, R13
147E	98F8		CLR R8, #$F8
1480	9DF8		CLR R13, #$F8
1482	03D8		ADD R3, R13
1484	6738		MOVB R7, (R3)
1486	86FF		LBI R6, #$FF
1488	0677		XOR R6, R7
148A	8500		LBI R5, #$00
148C	0888		ADD R8, R8
148E	8400		LBI R4, #$00
1490	A001		BRA $1494		; $02(R0)

1492	73C4		MOVB (R12)-, R3
1494	63C8		MOVB R3, (R12)
1496	0365		AND R3, R6
1498	0475		AND R4, R7
149A	0346		OR R3, R4
149C	0536		OR R5, R3
149E	0088		ADD R0, R8
14A0	A00F		BRA $14B2		; $10(R0)

14A2	A00B		BRA $14B0		; $0C(R0)

14A4	A00F		BRA $14B6		; $10(R0)

14A6	A011		BRA $14BA		; $12(R0)

14A8	A013		BRA $14BE		; $14(R0)

14AA	A017		BRA $14C4		; $18(R0)

14AC	A01B		BRA $14CA		; $1C(R0)

14AE	A01D		BRA $14CE		; $1E(R0)

14B0	E03D		ROR R3
14B2	E03D		ROR R3
14B4	A017		BRA $14CE		; $18(R0)

14B6	E03E		ROR3 R3
14B8	A013		BRA $14CE		; $14(R0)

14BA	E03F		SWAP R3
14BC	A00F		BRA $14CE		; $10(R0)

14BE	E03D		ROR R3
14C0	E03F		SWAP R3
14C2	A009		BRA $14CE		; $0A(R0)

14C4	E03E		ROR3 R3
14C6	E03E		ROR3 R3
14C8	A003		BRA $14CE		; $04(R0)

14CA	E03E		ROR3 R3
14CC	E03F		SWAP R3
14CE	64C8		MOVB R4, (R12)
14D0	FE00		SUB R14, #$01
14D2	CE04		SS R14
14D4	F043		BRA $1492		; -> -$44(R0)

14D6	73C8		MOVB (R12), R3
14D8	C50B		SNZ R5
14DA	209B		JMP ($0136)

14DC	209D		JMP ($013A)

14DE	015E		GETB R5, $1
14E0	2388		MOVE R3, $110
14E2	0358		ADD R3, R5
14E4	3B89		MOVE $112, R11
14E6	011E		GETB R1, $1
14E8	E11F		STAT R1, $1
14EA	011D		MLH R1, R1
14EC	E11F		STAT R1, $1
14EE	318A		MOVE $114, R1
14F0	2857		MOVE R8, $AE
14F2	0203		INC2 R2, R0
14F4	2050		JMP ($00A0)

14F6	1108		CTRL $1, #$08
14F8	2C8A		MOVE R12, $114
14FA	2599		MOVE R5, $132
14FC	4150		PUTB $1, (R5)+
14FE	4158		PUTB $1, (R5)
1500	2B89		MOVE R11, $112
1502	2082		JMP ($0104)

1504	015E		GETB R5, $1
1506	2390		MOVE R3, $120
1508	0358		ADD R3, R5
150A	3B89		MOVE $112, R11
150C	011E		GETB R1, $1
150E	E11F		STAT R1, $1
1510	011D		MLH R1, R1
1512	E11F		STAT R1, $1
1514	318A		MOVE $114, R1
1516	2857		MOVE R8, $AE
1518	0203		INC2 R2, R0
151A	2050		JMP ($00A0)

151C	1108		CTRL $1, #$08
151E	2C8A		MOVE R12, $114
1520	2599		MOVE R5, $132
1522	4150		PUTB $1, (R5)+
1524	4158		PUTB $1, (R5)
1526	2B89		MOVE R11, $112
1528	2082		JMP ($0104)

152A	013E		GETB R3, $1
152C	033D		MLH R3, R3
152E	0004		NOP
1530	013E		GETB R3, $1
1532	3B89		MOVE $112, R11
1534	0004		NOP
1536	011E		GETB R1, $1
1538	E11F		STAT R1, $1
153A	011D		MLH R1, R1
153C	E11F		STAT R1, $1
153E	318A		MOVE $114, R1
1540	2857		MOVE R8, $AE
1542	0203		INC2 R2, R0
1544	2050		JMP ($00A0)

1546	1108		CTRL $1, #$08
1548	2C8A		MOVE R12, $114
154A	2599		MOVE R5, $132
154C	4150		PUTB $1, (R5)+
154E	4158		PUTB $1, (R5)
1550	2B89		MOVE R11, $112
1552	2082		JMP ($0104)

1554	015E		GETB R5, $1
1556	2C88		MOVE R12, $110
1558	0C58		ADD R12, R5
155A	63C8		MOVB R3, (R12)
155C	03E9		SUB R3, R14
155E	73C8		MOVB (R12), R3
1560	C30B		SNZ R3
1562	209B		JMP ($0136)

1564	81FF		LBI R1, #$FF
1566	C317		SBSH R3, R1
1568	209D		JMP ($013A)

156A	209F		JMP ($013E)

156C	015E		GETB R5, $1
156E	2C90		MOVE R12, $120
1570	0C58		ADD R12, R5
1572	63C8		MOVB R3, (R12)
1574	03E9		SUB R3, R14
1576	73C8		MOVB (R12), R3
1578	C30B		SNZ R3
157A	209B		JMP ($0136)

157C	81FF		LBI R1, #$FF
157E	C317		SBSH R3, R1
1580	209D		JMP ($013A)

1582	209F		JMP ($013E)

1584	015E		GETB R5, $1
1586	0C5D		MLH R12, R5
1588	0004		NOP
158A	01CE		GETB R12, $1
158C	63C8		MOVB R3, (R12)
158E	03E9		SUB R3, R14
1590	73C8		MOVB (R12), R3
1592	C30B		SNZ R3
1594	209B		JMP ($0136)

1596	81FF		LBI R1, #$FF
1598	C317		SBSH R3, R1
159A	209D		JMP ($013A)

159C	209F		JMP ($013E)

159E	015E		GETB R5, $1
15A0	2D88		MOVE R13, $110
15A2	0D58		ADD R13, R5
15A4	63D0		MOVB R3, (R13)+
15A6	64D8		MOVB R4, (R13)
15A8	043D		MLH R4, R3
15AA	2C81		MOVE R12, $102
15AC	0CE6		OR R12, R14
15AE	D3C8		MOVE R3, (R12)
15B0	87FF		LBI R7, #$FF
15B2	2850		MOVE R8, $A0
15B4	0836		OR R8, R3
15B6	0849		SUB R8, R4
15B8	8300		LBI R3, #$00
15BA	0386		OR R3, R8
15BC	083C		MHL R8, R3
15BE	C87F		SNBSH R8, R7
15C0	088B		ADDH2 R8, R8
15C2	044C		MHL R4, R4
15C4	0849		SUB R8, R4
15C6	038D		MLH R3, R8
15C8	53C8		MOVE (R12), R3
15CA	C303		SZ R3
15CC	A003		BRA $15D2		; $04(R0)

15CE	C80B		SNZ R8
15D0	209B		JMP ($0136)

15D2	C877		SBSH R8, R7
15D4	209D		JMP ($013A)

15D6	209F		JMP ($013E)

15D8	015E		GETB R5, $1
15DA	2D90		MOVE R13, $120
15DC	0D58		ADD R13, R5
15DE	63D0		MOVB R3, (R13)+
15E0	64D8		MOVB R4, (R13)
15E2	043D		MLH R4, R3
15E4	2C81		MOVE R12, $102
15E6	0CE6		OR R12, R14
15E8	D3C8		MOVE R3, (R12)
15EA	87FF		LBI R7, #$FF
15EC	2850		MOVE R8, $A0
15EE	0836		OR R8, R3
15F0	0849		SUB R8, R4
15F2	8300		LBI R3, #$00
15F4	0386		OR R3, R8
15F6	083C		MHL R8, R3
15F8	C87F		SNBSH R8, R7
15FA	088B		ADDH2 R8, R8
15FC	044C		MHL R4, R4
15FE	0849		SUB R8, R4
1600	038D		MLH R3, R8
1602	53C8		MOVE (R12), R3
1604	C303		SZ R3
1606	A003		BRA $160C		; $04(R0)

1608	C80B		SNZ R8
160A	209B		JMP ($0136)

160C	C877		SBSH R8, R7
160E	209D		JMP ($013A)

1610	209F		JMP ($013E)

1612	015E		GETB R5, $1
1614	0D5D		MLH R13, R5
1616	2C81		MOVE R12, $102
1618	01DE		GETB R13, $1
161A	63D0		MOVB R3, (R13)+
161C	64D8		MOVB R4, (R13)
161E	043D		MLH R4, R3
1620	0CE6		OR R12, R14
1622	D3C8		MOVE R3, (R12)
1624	87FF		LBI R7, #$FF
1626	2850		MOVE R8, $A0
1628	0836		OR R8, R3
162A	0849		SUB R8, R4
162C	8300		LBI R3, #$00
162E	0386		OR R3, R8
1630	083C		MHL R8, R3
1632	C87F		SNBSH R8, R7
1634	088B		ADDH2 R8, R8
1636	044C		MHL R4, R4
1638	0849		SUB R8, R4
163A	038D		MLH R3, R8
163C	53C8		MOVE (R12), R3
163E	C303		SZ R3
1640	A003		BRA $1646		; $04(R0)

1642	C80B		SNZ R8
1644	209B		JMP ($0136)

1646	C877		SBSH R8, R7
1648	209D		JMP ($013A)

164A	209F		JMP ($013E)

164C	015E		GETB R5, $1
164E	2D81		MOVE R13, $102
1650	0D56		OR R13, R5
1652	D4D8		MOVE R4, (R13)
1654	2C81		MOVE R12, $102
1656	0CE6		OR R12, R14
1658	D3C8		MOVE R3, (R12)
165A	87FF		LBI R7, #$FF
165C	2850		MOVE R8, $A0
165E	0836		OR R8, R3
1660	0849		SUB R8, R4
1662	8300		LBI R3, #$00
1664	0386		OR R3, R8
1666	083C		MHL R8, R3
1668	C87F		SNBSH R8, R7
166A	088B		ADDH2 R8, R8
166C	044C		MHL R4, R4
166E	0849		SUB R8, R4
1670	038D		MLH R3, R8
1672	53C8		MOVE (R12), R3
1674	C303		SZ R3
1676	A003		BRA $167C		; $04(R0)

1678	C80B		SNZ R8
167A	209B		JMP ($0136)

167C	C877		SBSH R8, R7
167E	209D		JMP ($013A)

1680	209F		JMP ($013E)

1682	0203		INC2 R2, R0
1684	2091		JMP ($0122)

1686	E0EF		SWAP R14
1688	0CE8		ADD R12, R14
168A	0DE8		ADD R13, R14
168C	8600		LBI R6, #$00
168E	87FF		LBI R7, #$FF
1690	63C8		MOVB R3, (R12)
1692	64D4		MOVB R4, (R13)-
1694	0349		SUB R3, R4
1696	73C4		MOVB (R12)-, R3
1698	0636		OR R6, R3
169A	FE00		SUB R14, #$01
169C	CE0C		SNS R14
169E	A009		BRA $16AA		; $0A(R0)

16A0	C377		SBSH R3, R7
16A2	F013		BRA $1690		; -> -$14(R0)

16A4	64C8		MOVB R4, (R12)
16A6	034B		ADDH2 R3, R4
16A8	F017		BRA $1692		; -> -$18(R0)

16AA	C60B		SNZ R6
16AC	209B		JMP ($0136)

16AE	C377		SBSH R3, R7
16B0	209D		JMP ($013A)

16B2	209F		JMP ($013E)

16B4	0203		INC2 R2, R0
16B6	2091		JMP ($0122)

16B8	0CE8		ADD R12, R14
16BA	0DE8		ADD R13, R14
16BC	3C89		MOVE $112, R12
16BE	3E8A		MOVE $114, R14
16C0	09C4		MOVE R9, R12
16C2	87FF		LBI R7, #$FF
16C4	8810		LBI R8, #$10
16C6	8A01		LBI R10, #$01
16C8	2550		MOVE R5, $A0
16CA	8600		LBI R6, #$00
16CC	63C8		MOVB R3, (R12)
16CE	0CA9		SUB R12, R10
16D0	64D4		MOVB R4, (R13)-
16D2	053B		ADDH2 R5, R3
16D4	C35A		SNE R3, R5
16D6	0534		MOVE R5, R3
16D8	0347		XOR R3, R4
16DA	0549		SUB R5, R4
16DC	0357		XOR R3, R5
16DE	C386		SBC R3, R8
16E0	F505		SUB R5, #$06
16E2	C57F		SNBSH R5, R7
16E4	F55F		SUB R5, #$60
16E6	0656		OR R6, R5
16E8	7594		MOVB (R9)-, R5
16EA	FE00		SUB R14, #$01
16EC	CE04		SS R14
16EE	F023		BRA $16CC		; -> -$24(R0)

16F0	CA0B		SNZ R10
16F2	209F		JMP ($013E)

16F4	C60B		SNZ R6
16F6	209B		JMP ($0136)

16F8	C577		SBSH R5, R7
16FA	209D		JMP ($013A)

16FC	2989		MOVE R9, $112
16FE	2D89		MOVE R13, $112
1700	2E8A		MOVE R14, $114
1702	8A00		LBI R10, #$00
1704	2CB1		MOVE R12, $162
1706	F03F		BRA $16C8		; -> -$40(R0)

1708	015E		GETB R5, $1
170A	2C88		MOVE R12, $110
170C	0C58		ADD R12, R5
170E	019E		GETB R9, $1
1710	63C8		MOVB R3, (R12)
1712	C3E5		SBS R3, R14
1714	A065		BRA $177C		; $66(R0)

1716	01AE		GETB R10, $1
1718	A075		BRA $1790		; $76(R0)

171A	015E		GETB R5, $1
171C	2C90		MOVE R12, $120
171E	0C58		ADD R12, R5
1720	019E		GETB R9, $1
1722	63C8		MOVB R3, (R12)
1724	C3E5		SBS R3, R14
1726	A053		BRA $177C		; $54(R0)

1728	01AE		GETB R10, $1
172A	A063		BRA $1790		; $64(R0)

172C	015E		GETB R5, $1
172E	0C5D		MLH R12, R5
1730	0004		NOP
1732	01CE		GETB R12, $1
1734	F000		BRA $1735		; -> -$01(R0)

1736	019E		GETB R9, $1
1738	63C8		MOVB R3, (R12)
173A	C3E5		SBS R3, R14
173C	A03D		BRA $177C		; $3E(R0)

173E	01AE		GETB R10, $1
1740	A04D		BRA $1790		; $4E(R0)

1742	015E		GETB R5, $1
1744	2C88		MOVE R12, $110
1746	0C58		ADD R12, R5
1748	019E		GETB R9, $1
174A	63C8		MOVB R3, (R12)
174C	C3E6		SBC R3, R14
174E	A02B		BRA $177C		; $2C(R0)

1750	01AE		GETB R10, $1
1752	A03B		BRA $1790		; $3C(R0)

1754	015E		GETB R5, $1
1756	2C90		MOVE R12, $120
1758	0C58		ADD R12, R5
175A	019E		GETB R9, $1
175C	63C8		MOVB R3, (R12)
175E	C3E6		SBC R3, R14
1760	A019		BRA $177C		; $1A(R0)

1762	01AE		GETB R10, $1
1764	A029		BRA $1790		; $2A(R0)

1766	015E		GETB R5, $1
1768	0C5D		MLH R12, R5
176A	0004		NOP
176C	01CE		GETB R12, $1
176E	F000		BRA $176F		; -> -$01(R0)

1770	019E		GETB R9, $1
1772	63C8		MOVB R3, (R12)
1774	C3E6		SBC R3, R14
1776	A003		BRA $177C		; $04(R0)

1778	01AE		GETB R10, $1
177A	A013		BRA $1790		; $14(R0)

177C	01AE		GETB R10, $1
177E	F000		BRA $177F		; -> -$01(R0)

1780	011E		GETB R1, $1
1782	E11F		STAT R1, $1
1784	011D		MLH R1, R1
1786	E11F		STAT R1, $1
1788	23C3		MOVE R3, $186
178A	4131		PUTB $1, (R3)++
178C	4138		PUTB $1, (R3)
178E	31C0		MOVE $180, R1
1790	2082		JMP ($0104)

1792	015E		GETB R5, $1
1794	2C88		MOVE R12, $110
1796	0C58		ADD R12, R5
1798	63C8		MOVB R3, (R12)
179A	03E6		OR R3, R14
179C	73C8		MOVB (R12), R3
179E	2082		JMP ($0104)

17A0	015E		GETB R5, $1
17A2	2C90		MOVE R12, $120
17A4	0C58		ADD R12, R5
17A6	63C8		MOVB R3, (R12)
17A8	03E6		OR R3, R14
17AA	73C8		MOVB (R12), R3
17AC	2082		JMP ($0104)

17AE	015E		GETB R5, $1
17B0	0C5D		MLH R12, R5
17B2	0004		NOP
17B4	01CE		GETB R12, $1
17B6	63C8		MOVB R3, (R12)
17B8	03E6		OR R3, R14
17BA	73C8		MOVB (R12), R3
17BC	2082		JMP ($0104)

17BE	015E		GETB R5, $1
17C0	2C88		MOVE R12, $110
17C2	0C58		ADD R12, R5
17C4	63C8		MOVB R3, (R12)
17C6	03E6		OR R3, R14
17C8	03E7		XOR R3, R14
17CA	73C8		MOVB (R12), R3
17CC	2082		JMP ($0104)

17CE	015E		GETB R5, $1
17D0	2C90		MOVE R12, $120
17D2	0C58		ADD R12, R5
17D4	63C8		MOVB R3, (R12)
17D6	03E6		OR R3, R14
17D8	03E7		XOR R3, R14
17DA	73C8		MOVB (R12), R3
17DC	2082		JMP ($0104)

17DE	015E		GETB R5, $1
17E0	0C5D		MLH R12, R5
17E2	0004		NOP
17E4	01CE		GETB R12, $1
17E6	63C8		MOVB R3, (R12)
17E8	03E6		OR R3, R14
17EA	03E7		XOR R3, R14
17EC	73C8		MOVB (R12), R3
17EE	2082		JMP ($0104)

17F0	0203		INC2 R2, R0
17F2	2091		JMP ($0122)

17F4	85FF		LBI R5, #$FF
17F6	2381		MOVE R3, $102
17F8	03E6		OR R3, R14
17FA	DE38		MOVE R14, (R3)
17FC	FE00		SUB R14, #$01
17FE	CE5F		SNBSH R14, R5
1800	2082		JMP ($0104)

1802	63C8		MOVB R3, (R12)
1804	04D4		MOVE R4, R13
1806	0438		ADD R4, R3
1808	6348		MOVB R3, (R4)
180A	73C0		MOVB (R12)+, R3
180C	F011		BRA $17FC		; -> -$12(R0)

180E	3BCB		MOVE $196, R11
1810	2350		MOVE R3, $A0
1812	2450		MOVE R4, $A0
1814	2550		MOVE R5, $A0
1816	2650		MOVE R6, $A0
1818	2750		MOVE R7, $A0
181A	2850		MOVE R8, $A0
181C	2950		MOVE R9, $A0
181E	39D4		MOVE $1A8, R9
1820	8F00		LBI R15, #$00
1822	8B08		LBI R11, #$08
1824	6CD0		MOVB R12, (R13)+
1826	FB00		SUB R11, #$01
1828	CFC2		SE R15, R12
182A	A00D		BRA $183A		; $0E(R0)

182C	CB03		SZ R11
182E	F00B		BRA $1824		; -> -$0C(R0)

1830	33D0		MOVE $1A0, R3
1832	33D1		MOVE $1A2, R3
1834	33D2		MOVE $1A4, R3
1836	33D3		MOVE $1A6, R3
1838	2082		JMP ($0104)

183A	8E0F		LBI R14, #$0F
183C	CCE8		SGT R12, R14
183E	A007		BRA $1848		; $08(R0)

1840	09C4		MOVE R9, R12
1842	990F		CLR R9, #$0F
1844	E09F		SWAP R9
1846	A01D		BRA $1866		; $1E(R0)

1848	09C4		MOVE R9, R12
184A	CB03		SZ R11
184C	A007		BRA $1856		; $08(R0)

184E	8119		LBI R1, #$19
1850	011D		MLH R1, R1
1852	816E		LBI R1, #$6E
1854	0014		RET R1

1856	6CD0		MOVB R12, (R13)+
1858	FB00		SUB R11, #$01
185A	8200		LBI R2, #$00
185C	0EC4		MOVE R14, R12
185E	9C0F		CLR R12, #$0F
1860	E0CF		SWAP R12
1862	A005		BRA $186A		; $06(R0)

1864	0CE4		MOVE R12, R14
1866	9CF0		CLR R12, #$F0
1868	8201		LBI R2, #$01
186A	0A94		MOVE R10, R9
186C	0AFD		MLH R10, R15
186E	0A98		ADD R10, R9
1870	09A4		MOVE R9, R10
1872	0A8A		ADDH R10, R8
1874	0A88		ADD R10, R8
1876	08A4		MOVE R8, R10
1878	0A7A		ADDH R10, R7
187A	0A78		ADD R10, R7
187C	07A4		MOVE R7, R10
187E	0A6A		ADDH R10, R6
1880	0A68		ADD R10, R6
1882	06A4		MOVE R6, R10
1884	0A5A		ADDH R10, R5
1886	0A58		ADD R10, R5
1888	05A4		MOVE R5, R10
188A	0A4A		ADDH R10, R4
188C	0A48		ADD R10, R4
188E	04A4		MOVE R4, R10
1890	0A3A		ADDH R10, R3
1892	03A8		ADD R3, R10
1894	33D0		MOVE $1A0, R3
1896	34D1		MOVE $1A2, R4
1898	35D2		MOVE $1A4, R5
189A	36D3		MOVE $1A6, R6
189C	37D8		MOVE $1B0, R7
189E	38D9		MOVE $1B2, R8
18A0	39DA		MOVE $1B4, R9
18A2	0A9A		ADDH R10, R9
18A4	0A98		ADD R10, R9
18A6	09A4		MOVE R9, R10
18A8	0A8A		ADDH R10, R8
18AA	0A88		ADD R10, R8
18AC	08A4		MOVE R8, R10
18AE	0A7A		ADDH R10, R7
18B0	0A78		ADD R10, R7
18B2	07A4		MOVE R7, R10
18B4	0A6A		ADDH R10, R6
18B6	0A68		ADD R10, R6
18B8	06A4		MOVE R6, R10
18BA	0A5A		ADDH R10, R5
18BC	0A58		ADD R10, R5
18BE	05A4		MOVE R5, R10
18C0	0A4A		ADDH R10, R4
18C2	0A48		ADD R10, R4
18C4	04A4		MOVE R4, R10
18C6	0A3A		ADDH R10, R3
18C8	03A8		ADD R3, R10
18CA	0A9A		ADDH R10, R9
18CC	0A98		ADD R10, R9
18CE	09A4		MOVE R9, R10
18D0	0A8A		ADDH R10, R8
18D2	0A88		ADD R10, R8
18D4	08A4		MOVE R8, R10
18D6	0A7A		ADDH R10, R7
18D8	0A78		ADD R10, R7
18DA	07A4		MOVE R7, R10
18DC	0A6A		ADDH R10, R6
18DE	0A68		ADD R10, R6
18E0	06A4		MOVE R6, R10
18E2	0A5A		ADDH R10, R5
18E4	0A58		ADD R10, R5
18E6	05A4		MOVE R5, R10
18E8	0A4A		ADDH R10, R4
18EA	0A48		ADD R10, R4
18EC	04A4		MOVE R4, R10
18EE	0A3A		ADDH R10, R3
18F0	03A8		ADD R3, R10
18F2	2ADA		MOVE R10, $1B4
18F4	0AFD		MLH R10, R15
18F6	0A98		ADD R10, R9
18F8	09A4		MOVE R9, R10
18FA	2FD9		MOVE R15, $1B2
18FC	0AFA		ADDH R10, R15
18FE	0A88		ADD R10, R8
1900	08A4		MOVE R8, R10
1902	2FD8		MOVE R15, $1B0
1904	0AFA		ADDH R10, R15
1906	0A78		ADD R10, R7
1908	07A4		MOVE R7, R10
190A	2FD3		MOVE R15, $1A6
190C	0AFA		ADDH R10, R15
190E	0A68		ADD R10, R6
1910	06A4		MOVE R6, R10
1912	2FD2		MOVE R15, $1A4
1914	0AFA		ADDH R10, R15
1916	0A58		ADD R10, R5
1918	05A4		MOVE R5, R10
191A	2FD1		MOVE R15, $1A2
191C	0AFA		ADDH R10, R15
191E	0A48		ADD R10, R4
1920	04A4		MOVE R4, R10
1922	2FD0		MOVE R15, $1A0
1924	0AFA		ADDH R10, R15
1926	03A8		ADD R3, R10
1928	8F00		LBI R15, #$00
192A	09FD		MLH R9, R15
192C	09C8		ADD R9, R12
192E	8A01		LBI R10, #$01
1930	C9A7		SBSH R9, R10
1932	A027		BRA $195C		; $28(R0)

1934	08FD		MLH R8, R15
1936	A800		ADD R8, #$01
1938	C8A7		SBSH R8, R10
193A	A01F		BRA $195C		; $20(R0)

193C	07FD		MLH R7, R15
193E	A700		ADD R7, #$01
1940	C7A7		SBSH R7, R10
1942	A017		BRA $195C		; $18(R0)

1944	06FD		MLH R6, R15
1946	A600		ADD R6, #$01
1948	C6A7		SBSH R6, R10
194A	A00F		BRA $195C		; $10(R0)

194C	05FD		MLH R5, R15
194E	A500		ADD R5, #$01
1950	C5A7		SBSH R5, R10
1952	A007		BRA $195C		; $08(R0)

1954	04FD		MLH R4, R15
1956	A400		ADD R4, #$01
1958	C4AF		SNBSH R4, R10
195A	A300		ADD R3, #$01
195C	C203		SZ R2
195E	A001		BRA $1962		; $02(R0)

1960	F0FD		BRA $1864		; -> -$FE(R0)

1962	CB0B		SNZ R11
1964	A007		BRA $196E		; $08(R0)

1966	8118		LBI R1, #$18
1968	011D		MLH R1, R1
196A	8156		LBI R1, #$56
196C	0014		RET R1

196E	2BCB		MOVE R11, $196
1970	8A4E		LBI R10, #$4E
1972	03AD		MLH R3, R10
1974	054D		MLH R5, R4
1976	0454		MOVE R4, R5
1978	076D		MLH R7, R6
197A	0574		MOVE R5, R7
197C	098D		MLH R9, R8
197E	0694		MOVE R6, R9
1980	0203		INC2 R2, R0
1982	20BA		JMP ($0174)

1984	A001		BRA $1988		; $02(R0)

1986	0000		HALT
1988	33D0		MOVE $1A0, R3
198A	34D1		MOVE $1A2, R4
198C	35D2		MOVE $1A4, R5
198E	36D3		MOVE $1A6, R6
1990	2082		JMP ($0104)

1992	2350		MOVE R3, $A0
1994	33D2		MOVE $1A4, R3
1996	33D3		MOVE $1A6, R3
1998	2ED0		MOVE R14, $1A0
199A	CE03		SZ R14
199C	A01B		BRA $19BA		; $1C(R0)

199E	8401		LBI R4, #$01
19A0	CD46		SBC R13, R4
19A2	A009		BRA $19AE		; $0A(R0)

19A4	53D1		MOVE (R13)+, R3
19A6	53D1		MOVE (R13)+, R3
19A8	53D1		MOVE (R13)+, R3
19AA	53D8		MOVE (R13), R3
19AC	2082		JMP ($0104)

19AE	73D0		MOVB (R13)+, R3
19B0	53D1		MOVE (R13)+, R3
19B2	53D1		MOVE (R13)+, R3
19B4	53D0		MOVE (R13)', R3
19B6	73D8		MOVB (R13), R3
19B8	2082		JMP ($0104)

19BA	0EEC		MHL R14, R14
19BC	814E		LBI R1, #$4E
19BE	CE18		SGT R14, R1
19C0	A007		BRA $19CA		; $08(R0)

19C2	23F8		MOVE R3, $1F0
19C4	8302		LBI R3, #$02
19C6	33F8		MOVE $1F0, R3
19C8	2082		JMP ($0104)

19CA	FE3F		SUB R14, #$40
19CC	0EE8		ADD R14, R14
19CE	0EE8		ADD R14, R14
19D0	2350		MOVE R3, $A0
19D2	2450		MOVE R4, $A0
19D4	2550		MOVE R5, $A0
19D6	2650		MOVE R6, $A0
19D8	2795		MOVE R7, $12A
19DA	8A00		LBI R10, #$00
19DC	8F01		LBI R15, #$01
19DE	820A		LBI R2, #$0A
19E0	2C50		MOVE R12, $A0
19E2	8C80		LBI R12, #$80
19E4	3BCB		MOVE $196, R11
19E6	8B9A		LBI R11, #$9A
19E8	3DCA		MOVE $194, R13
19EA	6D70		MOVB R13, (R7)+
19EC	CDCD		SNBS R13, R12
19EE	A007		BRA $19F8		; $08(R0)

19F0	E0CC		SHR R12
19F2	FE00		SUB R14, #$01
19F4	F009		BRA $19EC		; -> -$0A(R0)

19F6	CDCD		SNBS R13, R12
19F8	06F6		OR R6, R15
19FA	FE00		SUB R14, #$01
19FC	CE0B		SNZ R14
19FE	A0F3		BRA $1AF4		; $F4(R0)

1A00	E0CC		SHR R12
1A02	0864		MOVE R8, R6
1A04	08AD		MLH R8, R10
1A06	98F0		CLR R8, #$F0
1A08	0888		ADD R8, R8
1A0A	C821		SLT R8, R2
1A0C	A805		ADD R8, #$06
1A0E	0964		MOVE R9, R6
1A10	990F		CLR R9, #$0F
1A12	0898		ADD R8, R9
1A14	0898		ADD R8, R9
1A16	C8F7		SBSH R8, R15
1A18	C8B1		SLT R8, R11
1A1A	A85F		ADD R8, #$60
1A1C	096C		MHL R9, R6
1A1E	8600		LBI R6, #$00
1A20	0686		OR R6, R8
1A22	99F0		CLR R9, #$F0
1A24	089A		ADDH R8, R9
1A26	0898		ADD R8, R9
1A28	C821		SLT R8, R2
1A2A	A805		ADD R8, #$06
1A2C	096C		MHL R9, R6
1A2E	990F		CLR R9, #$0F
1A30	0898		ADD R8, R9
1A32	0898		ADD R8, R9
1A34	C8F7		SBSH R8, R15
1A36	C8B1		SLT R8, R11
1A38	A85F		ADD R8, #$60
1A3A	068D		MLH R6, R8
1A3C	0954		MOVE R9, R5
1A3E	99F0		CLR R9, #$F0
1A40	089A		ADDH R8, R9
1A42	0898		ADD R8, R9
1A44	C821		SLT R8, R2
1A46	A805		ADD R8, #$06
1A48	0954		MOVE R9, R5
1A4A	990F		CLR R9, #$0F
1A4C	0898		ADD R8, R9
1A4E	0898		ADD R8, R9
1A50	C8F7		SBSH R8, R15
1A52	C8B1		SLT R8, R11
1A54	A85F		ADD R8, #$60
1A56	095C		MHL R9, R5
1A58	8500		LBI R5, #$00
1A5A	0586		OR R5, R8
1A5C	99F0		CLR R9, #$F0
1A5E	089A		ADDH R8, R9
1A60	0898		ADD R8, R9
1A62	C821		SLT R8, R2
1A64	A805		ADD R8, #$06
1A66	095C		MHL R9, R5
1A68	990F		CLR R9, #$0F
1A6A	0898		ADD R8, R9
1A6C	0898		ADD R8, R9
1A6E	C8F7		SBSH R8, R15
1A70	C8B1		SLT R8, R11
1A72	A85F		ADD R8, #$60
1A74	058D		MLH R5, R8
1A76	0944		MOVE R9, R4
1A78	99F0		CLR R9, #$F0
1A7A	089A		ADDH R8, R9
1A7C	0898		ADD R8, R9
1A7E	C821		SLT R8, R2
1A80	A805		ADD R8, #$06
1A82	0944		MOVE R9, R4
1A84	990F		CLR R9, #$0F
1A86	0898		ADD R8, R9
1A88	0898		ADD R8, R9
1A8A	C8F7		SBSH R8, R15
1A8C	C8B1		SLT R8, R11
1A8E	A85F		ADD R8, #$60
1A90	094C		MHL R9, R4
1A92	8400		LBI R4, #$00
1A94	0486		OR R4, R8
1A96	99F0		CLR R9, #$F0
1A98	089A		ADDH R8, R9
1A9A	0898		ADD R8, R9
1A9C	C821		SLT R8, R2
1A9E	A805		ADD R8, #$06
1AA0	094C		MHL R9, R4
1AA2	990F		CLR R9, #$0F
1AA4	0898		ADD R8, R9
1AA6	0898		ADD R8, R9
1AA8	C8F7		SBSH R8, R15
1AAA	C8B1		SLT R8, R11
1AAC	A85F		ADD R8, #$60
1AAE	048D		MLH R4, R8
1AB0	0934		MOVE R9, R3
1AB2	99F0		CLR R9, #$F0
1AB4	089A		ADDH R8, R9
1AB6	0898		ADD R8, R9
1AB8	C821		SLT R8, R2
1ABA	A805		ADD R8, #$06
1ABC	0934		MOVE R9, R3
1ABE	990F		CLR R9, #$0F
1AC0	0898		ADD R8, R9
1AC2	0898		ADD R8, R9
1AC4	C8F7		SBSH R8, R15
1AC6	C8B1		SLT R8, R11
1AC8	A85F		ADD R8, #$60
1ACA	093C		MHL R9, R3
1ACC	8300		LBI R3, #$00
1ACE	0386		OR R3, R8
1AD0	99F0		CLR R9, #$F0
1AD2	089A		ADDH R8, R9
1AD4	0898		ADD R8, R9
1AD6	C821		SLT R8, R2
1AD8	A805		ADD R8, #$06
1ADA	093C		MHL R9, R3
1ADC	990F		CLR R9, #$0F
1ADE	0898		ADD R8, R9
1AE0	0898		ADD R8, R9
1AE2	C8F7		SBSH R8, R15
1AE4	C8B1		SLT R8, R11
1AE6	A85F		ADD R8, #$60
1AE8	038D		MLH R3, R8
1AEA	CC03		SZ R12
1AEC	F0F7		BRA $19F6		; -> -$F8(R0)

1AEE	8C80		LBI R12, #$80
1AF0	6D70		MOVB R13, (R7)+
1AF2	F0FD		BRA $19F6		; -> -$FE(R0)

1AF4	2BCB		MOVE R11, $196
1AF6	2DCA		MOVE R13, $194
1AF8	8101		LBI R1, #$01
1AFA	CD16		SBC R13, R1
1AFC	A009		BRA $1B08		; $0A(R0)

1AFE	53D1		MOVE (R13)+, R3
1B00	54D1		MOVE (R13)+, R4
1B02	55D1		MOVE (R13)+, R5
1B04	56D8		MOVE (R13), R6
1B06	2082		JMP ($0104)

1B08	073C		MHL R7, R3
1B0A	77D0		MOVB (R13)+, R7
1B0C	73D0		MOVB (R13)+, R3
1B0E	074C		MHL R7, R4
1B10	77D0		MOVB (R13)+, R7
1B12	74D0		MOVB (R13)+, R4
1B14	075C		MHL R7, R5
1B16	77D0		MOVB (R13)+, R7
1B18	75D0		MOVB (R13)+, R5
1B1A	076C		MHL R7, R6
1B1C	76D0		MOVB (R13)+, R6
1B1E	76D8		MOVB (R13), R6
1B20	2082		JMP ($0104)

1B22	2550		MOVE R5, $A0
1B24	2650		MOVE R6, $A0
1B26	A003		BRA $1B2C		; $04(R0)

1B28	25D2		MOVE R5, $1A4
1B2A	26D3		MOVE R6, $1A6
1B2C	23D0		MOVE R3, $1A0
1B2E	24D1		MOVE R4, $1A2
1B30	2C50		MOVE R12, $A0
1B32	2D50		MOVE R13, $A0
1B34	2E50		MOVE R14, $A0
1B36	2F50		MOVE R15, $A0
1B38	0204		MOVE R2, R0
1B3A	A269		ADD R2, #$6A
1B3C	3289		MOVE $112, R2
1B3E	A27F		ADD R2, #$80
1B40	328A		MOVE $114, R2
1B42	821D		LBI R2, #$1D
1B44	022D		MLH R2, R2
1B46	82B0		LBI R2, #$B0
1B48	32D8		MOVE $1B0, R2
1B4A	C303		SZ R3
1B4C	A009		BRA $1B58		; $0A(R0)

1B4E	3CD0		MOVE $1A0, R12
1B50	3CD1		MOVE $1A2, R12
1B52	3CD2		MOVE $1A4, R12
1B54	3CD3		MOVE $1A6, R12
1B56	2082		JMP ($0104)

1B58	813F		LBI R1, #$3F
1B5A	C139		SGE R1, R3
1B5C	A00B		BRA $1B6A		; $0C(R0)

1B5E	0204		MOVE R2, R0
1B60	A203		ADD R2, #$04
1B62	A06D		BRA $1BD2		; $6E(R0)

1B64	A203		ADD R2, #$04
1B66	A069		BRA $1BD2		; $6A(R0)

1B68	8E80		LBI R14, #$80
1B6A	07ED		MLH R7, R14
1B6C	8740		LBI R7, #$40
1B6E	F33F		SUB R3, #$40
1B70	8E10		LBI R14, #$10
1B72	8F18		LBI R15, #$18
1B74	0204		MOVE R2, R0
1B76	A211		ADD R2, #$12
1B78	07E6		OR R7, R14
1B7A	C730		SLE R7, R3
1B7C	A005		BRA $1B84		; $06(R0)

1B7E	0379		SUB R3, R7
1B80	07E8		ADD R7, R14
1B82	A04D		BRA $1BD2		; $4E(R0)

1B84	07E9		SUB R7, R14
1B86	A049		BRA $1BD2		; $4A(R0)

1B88	E0EC		SHR R14
1B8A	CE03		SZ R14
1B8C	F015		BRA $1B78		; -> -$16(R0)

1B8E	8F00		LBI R15, #$00
1B90	0A7D		MLH R10, R7
1B92	0204		MOVE R2, R0
1B94	A213		ADD R2, #$14
1B96	8E80		LBI R14, #$80
1B98	8A00		LBI R10, #$00
1B9A	0AE6		OR R10, R14
1B9C	C739		SGE R7, R3
1B9E	A083		BRA $1C24		; $84(R0)

1BA0	C73A		SNE R7, R3
1BA2	20D8		JMP ($01B0)

1BA4	0AE9		SUB R10, R14
1BA6	A029		BRA $1BD2		; $2A(R0)

1BA8	E0EC		SHR R14
1BAA	CE03		SZ R14
1BAC	F013		BRA $1B9A		; -> -$14(R0)

1BAE	00F8		ADD R0, R15
1BB0	07AC		MHL R7, R10
1BB2	A017		BRA $1BCC		; $18(R0)

1BB4	08A4		MOVE R8, R10
1BB6	A013		BRA $1BCC		; $14(R0)

1BB8	08AC		MHL R8, R10
1BBA	A00F		BRA $1BCC		; $10(R0)

1BBC	09A4		MOVE R9, R10
1BBE	A00B		BRA $1BCC		; $0C(R0)

1BC0	09AC		MHL R9, R10
1BC2	A007		BRA $1BCC		; $08(R0)

1BC4	811D		LBI R1, #$1D
1BC6	011D		MLH R1, R1
1BC8	8136		LBI R1, #$36
1BCA	0014		RET R1

1BCC	0AAD		MLH R10, R10
1BCE	AF03		ADD R15, #$04
1BD0	F03B		BRA $1B96		; -> -$3C(R0)

1BD2	C603		SZ R6
1BD4	A01F		BRA $1BF6		; $20(R0)

1BD6	0C6C		MHL R12, R6
1BD8	CC03		SZ R12
1BDA	A019		BRA $1BF6		; $1A(R0)

1BDC	C503		SZ R5
1BDE	A01D		BRA $1BFE		; $1E(R0)

1BE0	0C5C		MHL R12, R5
1BE2	CC03		SZ R12
1BE4	A017		BRA $1BFE		; $18(R0)

1BE6	C403		SZ R4
1BE8	A021		BRA $1C0C		; $22(R0)

1BEA	0C4C		MHL R12, R4
1BEC	CC03		SZ R12
1BEE	A01B		BRA $1C0C		; $1C(R0)

1BF0	C303		SZ R3
1BF2	A02B		BRA $1C20		; $2C(R0)

1BF4	A0FD		BRA $1CF4		; $FE(R0)

1BF6	0C6C		MHL R12, R6
1BF8	0CC8		ADD R12, R12
1BFA	06CD		MLH R6, R12
1BFC	0668		ADD R6, R6
1BFE	0D5C		MHL R13, R5
1C00	0DD8		ADD R13, R13
1C02	05DD		MLH R5, R13
1C04	0558		ADD R5, R5
1C06	0C5A		ADDH R12, R5
1C08	8500		LBI R5, #$00
1C0A	05C6		OR R5, R12
1C0C	0C4C		MHL R12, R4
1C0E	0CC8		ADD R12, R12
1C10	04CD		MLH R4, R12
1C12	0448		ADD R4, R4
1C14	0D4A		ADDH R13, R4
1C16	8400		LBI R4, #$00
1C18	04D6		OR R4, R13
1C1A	0C3A		ADDH R12, R3
1C1C	03C8		ADD R3, R12
1C1E	0024		RET R2

1C20	0338		ADD R3, R3
1C22	0024		RET R2

1C24	0CF4		MOVE R12, R15
1C26	E0CD		ROR R12
1C28	00C8		ADD R0, R12
1C2A	A009		BRA $1C36		; $0A(R0)

1C2C	A01D		BRA $1C4C		; $1E(R0)

1C2E	A02F		BRA $1C60		; $30(R0)

1C30	A041		BRA $1C74		; $42(R0)

1C32	A053		BRA $1C88		; $54(R0)

1C34	A065		BRA $1C9C		; $66(R0)

1C36	0C4C		MHL R12, R4
1C38	0CA9		SUB R12, R10
1C3A	04CD		MLH R4, R12
1C3C	0C3B		ADDH2 R12, R3
1C3E	0DAC		MHL R13, R10
1C40	0CD9		SUB R12, R13
1C42	03C4		MOVE R3, R12
1C44	0AE8		ADD R10, R14
1C46	07AC		MHL R7, R10
1C48	2C50		MOVE R12, $A0
1C4A	F079		BRA $1BD2		; -> -$7A(R0)

1C4C	8C00		LBI R12, #$00
1C4E	0C46		OR R12, R4
1C50	0CA9		SUB R12, R10
1C52	0D44		MOVE R13, R4
1C54	04C4		MOVE R4, R12
1C56	0CDC		MHL R12, R13
1C58	CCEF		SNBSH R12, R14
1C5A	0CCB		ADDH2 R12, R12
1C5C	0DAC		MHL R13, R10
1C5E	A081		BRA $1CE2		; $82(R0)

1C60	0C5C		MHL R12, R5
1C62	0CA9		SUB R12, R10
1C64	05CD		MLH R5, R12
1C66	8C00		LBI R12, #$00
1C68	0C46		OR R12, R4
1C6A	CCEF		SNBSH R12, R14
1C6C	0CCB		ADDH2 R12, R12
1C6E	0DAC		MHL R13, R10
1C70	0CD9		SUB R12, R13
1C72	A061		BRA $1CD6		; $62(R0)

1C74	8C00		LBI R12, #$00
1C76	0C56		OR R12, R5
1C78	0CA9		SUB R12, R10
1C7A	0D54		MOVE R13, R5
1C7C	05C4		MOVE R5, R12
1C7E	0CDC		MHL R12, R13
1C80	CCEF		SNBSH R12, R14
1C82	0CCB		ADDH2 R12, R12
1C84	0DAC		MHL R13, R10
1C86	A03F		BRA $1CC8		; $40(R0)

1C88	0C6C		MHL R12, R6
1C8A	0CA9		SUB R12, R10
1C8C	06CD		MLH R6, R12
1C8E	8C00		LBI R12, #$00
1C90	0C56		OR R12, R5
1C92	CCEF		SNBSH R12, R14
1C94	0CCB		ADDH2 R12, R12
1C96	0DAC		MHL R13, R10
1C98	0CD9		SUB R12, R13
1C9A	A01F		BRA $1CBC		; $20(R0)

1C9C	8C00		LBI R12, #$00
1C9E	0C66		OR R12, R6
1CA0	0CA9		SUB R12, R10
1CA2	0D64		MOVE R13, R6
1CA4	06C4		MOVE R6, R12
1CA6	0CDC		MHL R12, R13
1CA8	CCEF		SNBSH R12, R14
1CAA	0CCB		ADDH2 R12, R12
1CAC	0DAC		MHL R13, R10
1CAE	0CD9		SUB R12, R13
1CB0	06CD		MLH R6, R12
1CB2	8C00		LBI R12, #$00
1CB4	0C56		OR R12, R5
1CB6	CCEF		SNBSH R12, R14
1CB8	0CCB		ADDH2 R12, R12
1CBA	0C99		SUB R12, R9
1CBC	0D54		MOVE R13, R5
1CBE	05C4		MOVE R5, R12
1CC0	0CDC		MHL R12, R13
1CC2	CCEF		SNBSH R12, R14
1CC4	0CCB		ADDH2 R12, R12
1CC6	0D9C		MHL R13, R9
1CC8	0CD9		SUB R12, R13
1CCA	05CD		MLH R5, R12
1CCC	8C00		LBI R12, #$00
1CCE	0C46		OR R12, R4
1CD0	CCEF		SNBSH R12, R14
1CD2	0CCB		ADDH2 R12, R12
1CD4	0C89		SUB R12, R8
1CD6	0D44		MOVE R13, R4
1CD8	04C4		MOVE R4, R12
1CDA	0CDC		MHL R12, R13
1CDC	CCEF		SNBSH R12, R14
1CDE	0CCB		ADDH2 R12, R12
1CE0	0D8C		MHL R13, R8
1CE2	0CD9		SUB R12, R13
1CE4	04CD		MLH R4, R12
1CE6	0C3B		ADDH2 R12, R3
1CE8	0C79		SUB R12, R7
1CEA	03C4		MOVE R3, R12
1CEC	0AE8		ADD R10, R14
1CEE	2C50		MOVE R12, $A0
1CF0	2D50		MOVE R13, $A0
1CF2	F0A9		BRA $1C4A		; -> -$AA(R0)

1CF4	E0FD		ROR R15
1CF6	00F8		ADD R0, R15
1CF8	A011		BRA $1D0C		; $12(R0)

1CFA	A01B		BRA $1D18		; $1C(R0)

1CFC	A021		BRA $1D20		; $22(R0)

1CFE	A029		BRA $1D2A		; $2A(R0)

1D00	A02D		BRA $1D30		; $2E(R0)

1D02	A031		BRA $1D36		; $32(R0)

1D04	2850		MOVE R8, $A0
1D06	2950		MOVE R9, $A0
1D08	2A50		MOVE R10, $A0
1D0A	A029		BRA $1D36		; $2A(R0)

1D0C	07AC		MHL R7, R10
1D0E	08AD		MLH R8, R10
1D10	8800		LBI R8, #$00
1D12	2950		MOVE R9, $A0
1D14	2A50		MOVE R10, $A0
1D16	A01D		BRA $1D36		; $1E(R0)

1D18	08A4		MOVE R8, R10
1D1A	2950		MOVE R9, $A0
1D1C	2A50		MOVE R10, $A0
1D1E	A015		BRA $1D36		; $16(R0)

1D20	08AC		MHL R8, R10
1D22	09AD		MLH R9, R10
1D24	8900		LBI R9, #$00
1D26	2A50		MOVE R10, $A0
1D28	A00B		BRA $1D36		; $0C(R0)

1D2A	09A4		MOVE R9, R10
1D2C	2A50		MOVE R10, $A0
1D2E	A005		BRA $1D36		; $06(R0)

1D30	09AC		MHL R9, R10
1D32	0AAD		MLH R10, R10
1D34	8A00		LBI R10, #$00
1D36	2ED0		MOVE R14, $1A0
1D38	8E01		LBI R14, #$01
1D3A	CEE7		SBSH R14, R14
1D3C	A00D		BRA $1D4C		; $0E(R0)

1D3E	0103		INC2 R1, R0
1D40	A04B		BRA $1D8E		; $4C(R0)

1D42	8EFF		LBI R14, #$FF
1D44	AE80		ADD R14, #$81
1D46	C7EF		SNBSH R7, R14
1D48	A043		BRA $1D8E		; $44(R0)

1D4A	A02D		BRA $1D7A		; $2E(R0)

1D4C	8E80		LBI R14, #$80
1D4E	C7EF		SNBSH R7, R14
1D50	A027		BRA $1D7A		; $28(R0)

1D52	0CAC		MHL R12, R10
1D54	0CC8		ADD R12, R12
1D56	0ACD		MLH R10, R12
1D58	0AA8		ADD R10, R10
1D5A	0D9C		MHL R13, R9
1D5C	0DD8		ADD R13, R13
1D5E	09DD		MLH R9, R13
1D60	0998		ADD R9, R9
1D62	0C9A		ADDH R12, R9
1D64	8900		LBI R9, #$00
1D66	09C6		OR R9, R12
1D68	0C8C		MHL R12, R8
1D6A	0CC8		ADD R12, R12
1D6C	08CD		MLH R8, R12
1D6E	0888		ADD R8, R8
1D70	0D8A		ADDH R13, R8
1D72	8800		LBI R8, #$00
1D74	08D6		OR R8, R13
1D76	0C7A		ADDH R12, R7
1D78	07C8		ADD R7, R12
1D7A	0EEC		MHL R14, R14
1D7C	AE40		ADD R14, #$41
1D7E	9E01		CLR R14, #$01
1D80	E0ED		ROR R14
1D82	07ED		MLH R7, R14
1D84	37D0		MOVE $1A0, R7
1D86	38D1		MOVE $1A2, R8
1D88	39D2		MOVE $1A4, R9
1D8A	3AD3		MOVE $1A6, R10
1D8C	2082		JMP ($0104)

1D8E	E0AC		SHR R10
1D90	0CAC		MHL R12, R10
1D92	0C9D		MLH R12, R9
1D94	E0CC		SHR R12
1D96	0ACD		MLH R10, R12
1D98	E09C		SHR R9
1D9A	0C9C		MHL R12, R9
1D9C	0C8D		MLH R12, R8
1D9E	E0CC		SHR R12
1DA0	09CD		MLH R9, R12
1DA2	E08C		SHR R8
1DA4	0C8C		MHL R12, R8
1DA6	0C7D		MLH R12, R7
1DA8	E0CC		SHR R12
1DAA	08CD		MLH R8, R12
1DAC	E07C		SHR R7
1DAE	0014		RET R1

1DB0	0CF4		MOVE R12, R15
1DB2	E0CD		ROR R12
1DB4	00C8		ADD R0, R12
1DB6	A009		BRA $1DC2		; $0A(R0)

1DB8	A00F		BRA $1DCA		; $10(R0)

1DBA	A011		BRA $1DCE		; $12(R0)

1DBC	A015		BRA $1DD4		; $16(R0)

1DBE	A017		BRA $1DD8		; $18(R0)

1DC0	A017		BRA $1DDA		; $18(R0)

1DC2	0C4C		MHL R12, R4
1DC4	CCA9		SGE R12, R10
1DC6	2089		JMP ($0112)

1DC8	208A		JMP ($0114)

1DCA	08A4		MOVE R8, R10
1DCC	A00B		BRA $1DDA		; $0C(R0)

1DCE	08AC		MHL R8, R10
1DD0	09AD		MLH R9, R10
1DD2	A005		BRA $1DDA		; $06(R0)

1DD4	09A4		MOVE R9, R10
1DD6	A001		BRA $1DDA		; $02(R0)

1DD8	09AC		MHL R9, R10
1DDA	0C4C		MHL R12, R4
1DDC	0D8C		MHL R13, R8
1DDE	CCD9		SGE R12, R13
1DE0	2089		JMP ($0112)

1DE2	CCD2		SE R12, R13
1DE4	208A		JMP ($0114)

1DE6	C489		SGE R4, R8
1DE8	2089		JMP ($0112)

1DEA	C482		SE R4, R8
1DEC	208A		JMP ($0114)

1DEE	8104		LBI R1, #$04
1DF0	C1FA		SNE R1, R15
1DF2	208A		JMP ($0114)

1DF4	0C5C		MHL R12, R5
1DF6	0D9C		MHL R13, R9
1DF8	CCD9		SGE R12, R13
1DFA	2089		JMP ($0112)

1DFC	CCD2		SE R12, R13
1DFE	208A		JMP ($0114)

1E00	8108		LBI R1, #$08
1E02	C1FA		SNE R1, R15
1E04	208A		JMP ($0114)

1E06	C599		SGE R5, R9
1E08	2089		JMP ($0112)

1E0A	C592		SE R5, R9
1E0C	208A		JMP ($0114)

1E0E	8C10		LBI R12, #$10
1E10	CCF0		SLE R12, R15
1E12	208A		JMP ($0114)

1E14	CCF2		SE R12, R15
1E16	A007		BRA $1E20		; $08(R0)

1E18	0C6C		MHL R12, R6
1E1A	CCA9		SGE R12, R10
1E1C	2089		JMP ($0112)

1E1E	208A		JMP ($0114)

1E20	0C6C		MHL R12, R6
1E22	0DAC		MHL R13, R10
1E24	CCD9		SGE R12, R13
1E26	2089		JMP ($0112)

1E28	CCD2		SE R12, R13
1E2A	208A		JMP ($0114)

1E2C	C6A9		SGE R6, R10
1E2E	2089		JMP ($0112)

1E30	208A		JMP ($0114)

1E32	0000		HALT
1E34	0000		HALT
1E36	0000		HALT
1E38	0000		HALT
1E3A	0000		HALT
1E3C	0000		HALT
1E3E	0000		HALT
1E40	0000		HALT
1E42	0000		HALT
1E44	0000		HALT
1E46	0000		HALT
1E48	0000		HALT
1E4A	0000		HALT
1E4C	0000		HALT
1E4E	0000		HALT
1E50	0000		HALT
1E52	0000		HALT
1E54	0000		HALT
1E56	0000		HALT
1E58	0000		HALT
1E5A	0000		HALT
1E5C	0000		HALT
1E5E	0000		HALT
1E60	0000		HALT
1E62	0000		HALT
1E64	0000		HALT
1E66	0000		HALT
1E68	0000		HALT
1E6A	0000		HALT
1E6C	0000		HALT
1E6E	0000		HALT
1E70	0000		HALT
1E72	0000		HALT
1E74	0000		HALT
1E76	0000		HALT
1E78	0000		HALT
1E7A	0000		HALT
1E7C	0000		HALT
1E7E	0000		HALT
1E80	0000		HALT
1E82	0000		HALT
1E84	0000		HALT
1E86	0000		HALT
1E88	0000		HALT
1E8A	0000		HALT
1E8C	0000		HALT
1E8E	0000		HALT
1E90	0000		HALT
1E92	0000		HALT
1E94	0000		HALT
1E96	0000		HALT
1E98	0000		HALT
1E9A	0000		HALT
1E9C	0000		HALT
1E9E	0000		HALT
1EA0	0000		HALT
1EA2	0000		HALT
1EA4	0000		HALT
1EA6	0000		HALT
1EA8	0000		HALT
1EAA	0000		HALT
1EAC	0000		HALT
1EAE	0000		HALT
1EB0	0000		HALT
1EB2	0000		HALT
1EB4	0000		HALT
1EB6	0000		HALT
1EB8	0000		HALT
1EBA	0000		HALT
1EBC	0000		HALT
1EBE	0000		HALT
1EC0	0000		HALT
1EC2	0000		HALT
1EC4	0000		HALT
1EC6	0000		HALT
1EC8	0000		HALT
1ECA	0000		HALT
1ECC	0000		HALT
1ECE	0000		HALT
1ED0	0000		HALT
1ED2	0000		HALT
1ED4	0000		HALT
1ED6	0000		HALT
1ED8	0000		HALT
1EDA	0000		HALT
1EDC	0000		HALT
1EDE	0000		HALT
1EE0	0000		HALT
1EE2	0000		HALT
1EE4	0000		HALT
1EE6	0000		HALT
1EE8	0000		HALT
1EEA	0000		HALT
1EEC	0000		HALT
1EEE	0000		HALT
1EF0	0000		HALT
1EF2	0000		HALT
1EF4	0000		HALT
1EF6	0000		HALT
1EF8	0000		HALT
1EFA	0000		HALT
1EFC	0000		HALT
1EFE	0000		HALT
1F00	0000		HALT
1F02	0000		HALT
1F04	0000		HALT
1F06	0000		HALT
1F08	0000		HALT
1F0A	0000		HALT
1F0C	0000		HALT
1F0E	0000		HALT
1F10	0000		HALT
1F12	0000		HALT
1F14	0000		HALT
1F16	0000		HALT
1F18	0000		HALT
1F1A	0000		HALT
1F1C	0000		HALT
1F1E	0000		HALT
1F20	0000		HALT
1F22	0000		HALT
1F24	0000		HALT
1F26	0000		HALT
1F28	0000		HALT
1F2A	0000		HALT
1F2C	0000		HALT
1F2E	0000		HALT
1F30	0000		HALT
1F32	0000		HALT
1F34	0000		HALT
1F36	0000		HALT
1F38	0000		HALT
1F3A	0000		HALT
1F3C	0000		HALT
1F3E	0000		HALT
1F40	0000		HALT
1F42	0000		HALT
1F44	0000		HALT
1F46	0000		HALT
1F48	0000		HALT
1F4A	0000		HALT
1F4C	0000		HALT
1F4E	0000		HALT
1F50	0000		HALT
1F52	0000		HALT
1F54	0000		HALT
1F56	0000		HALT
1F58	0000		HALT
1F5A	0000		HALT
1F5C	0000		HALT
1F5E	0000		HALT
1F60	0000		HALT
1F62	0000		HALT
1F64	0000		HALT
1F66	0000		HALT
1F68	0000		HALT
1F6A	0000		HALT
1F6C	0000		HALT
1F6E	0000		HALT
1F70	0000		HALT
1F72	0000		HALT
1F74	0000		HALT
1F76	0000		HALT
1F78	0000		HALT
1F7A	0000		HALT
1F7C	0000		HALT
1F7E	0000		HALT
1F80	0000		HALT
1F82	0000		HALT
1F84	0000		HALT
1F86	0000		HALT
1F88	0000		HALT
1F8A	0000		HALT
1F8C	0000		HALT
1F8E	0000		HALT
1F90	0000		HALT
1F92	0000		HALT
1F94	0000		HALT
1F96	0000		HALT
1F98	0000		HALT
1F9A	0000		HALT
1F9C	0000		HALT
1F9E	0000		HALT
1FA0	0000		HALT
1FA2	0000		HALT
1FA4	0000		HALT
1FA6	0000		HALT
1FA8	0000		HALT
1FAA	0000		HALT
1FAC	0000		HALT
1FAE	0000		HALT
1FB0	0000		HALT
1FB2	0000		HALT
1FB4	0000		HALT
1FB6	0000		HALT
1FB8	0000		HALT
1FBA	0000		HALT
1FBC	0000		HALT
1FBE	0000		HALT
1FC0	0000		HALT
1FC2	0000		HALT
1FC4	0000		HALT
1FC6	0000		HALT
1FC8	0000		HALT
1FCA	0000		HALT
1FCC	0000		HALT
1FCE	0000		HALT
1FD0	0000		HALT
1FD2	0000		HALT
1FD4	0000		HALT
1FD6	0000		HALT
1FD8	0000		HALT
1FDA	0000		HALT
1FDC	0000		HALT
1FDE	0000		HALT
1FE0	0000		HALT
1FE2	0000		HALT
1FE4	0000		HALT
1FE6	0000		HALT
1FE8	8102		LBI R1, #$02
1FEA	011D		MLH R1, R1
1FEC	8131		LBI R1, #$31
1FEE	31E8		MOVE $1D0, R1
1FF0	31FC		MOVE $1F8, R1
1FF2	8100		LBI R1, #$00
1FF4	011D		MLH R1, R1
1FF6	810A		LBI R1, #$0A
1FF8	31FD		MOVE $1FA, R1
1FFA	0824		MOVE R8, R2
1FFC	2050		JMP ($00A0)

1FFE	F017		BRA $1FE8		; -> -$18(R0)

2000	D4C1		MOVE R4, (R12)+
2002	D6C1		MOVE R6, (R12)+
2004	C64A		SNE R6, R4
2006	A037		BRA $2040		; $38(R0)

2008	3688		MOVE $110, R6
200A	D7C5		MOVE R7, (R12)-
200C	0678		ADD R6, R7
200E	56C5		MOVE (R12)-, R6
2010	FC09		SUB R12, #$0A
2012	D4C1		MOVE R4, (R12)+
2014	D9C1		MOVE R9, (R12)+
2016	C94A		SNE R9, R4
2018	A037		BRA $2052		; $38(R0)

201A	2688		MOVE R6, $110
201C	2850		MOVE R8, $A0
201E	56C1		MOVE (R12)+, R6
2020	58C7		MOVE (R12)--, R8
2022	5691		MOVE (R9)+, R6
2024	5891		MOVE (R9)+, R8
2026	59C8		MOVE (R12), R9
2028	29D0		MOVE R9, $1A0
202A	2AD1		MOVE R10, $1A2
202C	5961		MOVE (R6)+, R9
202E	5A61		MOVE (R6)+, R10
2030	F703		SUB R7, #$04
2032	C70B		SNZ R7
2034	2082		JMP ($0104)

2036	29D2		MOVE R9, $1A4
2038	2AD3		MOVE R10, $1A6
203A	5961		MOVE (R6)+, R9
203C	5A68		MOVE (R6), R10
203E	2082		JMP ($0104)

2040	034C		MHL R3, R4
2042	056C		MHL R5, R6
2044	C532		SE R5, R3
2046	F03F		BRA $2008		; -> -$40(R0)

2048	AC01		ADD R12, #$02
204A	41C0		PUTB $1, (R12)+
204C	41C8		PUTB $1, (R12)
204E	0004		NOP
2050	2082		JMP ($0104)

2052	034C		MHL R3, R4
2054	059C		MHL R5, R9
2056	C532		SE R5, R3
2058	F03F		BRA $201A		; -> -$40(R0)

205A	AC03		ADD R12, #$04
205C	41C0		PUTB $1, (R12)+
205E	41C8		PUTB $1, (R12)
2060	0004		NOP
2062	2082		JMP ($0104)

2064	AC03		ADD R12, #$04
2066	D3C5		MOVE R3, (R12)-
2068	3388		MOVE $110, R3
206A	D3C8		MOVE R3, (R12)
206C	F307		SUB R3, #$08
206E	D431		MOVE R4, (R3)+
2070	D531		MOVE R5, (R3)+
2072	53C1		MOVE (R12)+, R3
2074	54C1		MOVE (R12)+, R4
2076	55C3		MOVE (R12)++, R5
2078	63C1		MOVB R3, (R12)++
207A	2488		MOVE R4, $110
207C	054C		MHL R5, R4
207E	C530		SLE R5, R3
2080	2082		JMP ($0104)

2082	54C8		MOVE (R12), R4
2084	2082		JMP ($0104)

2086	D4C1		MOVE R4, (R12)+
2088	D6C1		MOVE R6, (R12)+
208A	C64A		SNE R6, R4
208C	A009		BRA $2098		; $0A(R0)

208E	3688		MOVE $110, R6
2090	D7C5		MOVE R7, (R12)-
2092	0678		ADD R6, R7
2094	56C8		MOVE (R12), R6
2096	2082		JMP ($0104)

2098	034C		MHL R3, R4
209A	056C		MHL R5, R6
209C	C532		SE R5, R3
209E	F011		BRA $208E		; -> -$12(R0)

20A0	AC01		ADD R12, #$02
20A2	41C0		PUTB $1, (R12)+
20A4	41C8		PUTB $1, (R12)
20A6	0004		NOP
20A8	2082		JMP ($0104)

20AA	F0AB		BRA $2000		; -> -$AC(R0)

20AC	F049		BRA $2064		; -> -$4A(R0)

20AE	63C1		MOVB R3, (R12)++
20B0	2488		MOVE R4, $110
20B2	054C		MHL R5, R4
20B4	C530		SLE R5, R3
20B6	2082		JMP ($0104)

20B8	54C8		MOVE (R12), R4
20BA	2082		JMP ($0104)

20BC	D4C1		MOVE R4, (R12)+
20BE	D6C1		MOVE R6, (R12)+
20C0	C64A		SNE R6, R4
20C2	A00B		BRA $20D0		; $0C(R0)

20C4	D7C1		MOVE R7, (R12)+
20C6	D8C7		MOVE R8, (R12)--
20C8	5761		MOVE (R6)+, R7
20CA	5861		MOVE (R6)+, R8
20CC	56C8		MOVE (R12), R6
20CE	2082		JMP ($0104)

20D0	034C		MHL R3, R4
20D2	056C		MHL R5, R6
20D4	C532		SE R5, R3
20D6	F013		BRA $20C4		; -> -$14(R0)

20D8	AC03		ADD R12, #$04
20DA	41C0		PUTB $1, (R12)+
20DC	41C8		PUTB $1, (R12)
20DE	0004		NOP
20E0	2082		JMP ($0104)

20E2	AC01		ADD R12, #$02
20E4	D3C8		MOVE R3, (R12)
20E6	F307		SUB R3, #$08
20E8	D431		MOVE R4, (R3)+
20EA	D531		MOVE R5, (R3)+
20EC	53C1		MOVE (R12)+, R3
20EE	54C1		MOVE (R12)+, R4
20F0	55C8		MOVE (R12), R5
20F2	2082		JMP ($0104)

20F4	2588		MOVE R5, $110
20F6	6350		MOVB R3, (R5)+
20F8	6450		MOVB R4, (R5)+
20FA	D5C1		MOVE R5, (R12)+
20FC	3588		MOVE $110, R5
20FE	D7C1		MOVE R7, (R12)+
2100	067C		MHL R6, R7
2102	8880		LBI R8, #$80
2104	8F20		LBI R15, #$20
2106	C572		SE R5, R7
2108	A005		BRA $2110		; $06(R0)

210A	095C		MHL R9, R5
210C	C96A		SNE R9, R6
210E	2082		JMP ($0104)

2110	F503		SUB R5, #$04
2112	DA58		MOVE R10, (R5)
2114	09AC		MHL R9, R10
2116	C392		SE R3, R9
2118	A005		BRA $2120		; $06(R0)

211A	9A40		CLR R10, #$40
211C	CA4A		SNE R10, R4
211E	A00F		BRA $2130		; $10(R0)

2120	CA86		SBC R10, R8
2122	F505		SUB R5, #$06
2124	C572		SE R5, R7
2126	F017		BRA $2110		; -> -$18(R0)

2128	095C		MHL R9, R5
212A	C962		SE R9, R6
212C	F01D		BRA $2110		; -> -$1E(R0)

212E	2082		JMP ($0104)

2130	3588		MOVE $110, R5
2132	C4F6		SBC R4, R15
2134	F015		BRA $2120		; -> -$16(R0)

2136	2082		JMP ($0104)

2138	D4C1		MOVE R4, (R12)+
213A	D6C1		MOVE R6, (R12)+
213C	C64A		SNE R6, R4
213E	A00D		BRA $214E		; $0E(R0)

2140	D7C1		MOVE R7, (R12)+
2142	2850		MOVE R8, $A0
2144	58C7		MOVE (R12)--, R8
2146	5761		MOVE (R6)+, R7
2148	5861		MOVE (R6)+, R8
214A	56C8		MOVE (R12), R6
214C	2082		JMP ($0104)

214E	034C		MHL R3, R4
2150	056C		MHL R5, R6
2152	C532		SE R5, R3
2154	F015		BRA $2140		; -> -$16(R0)

2156	AC03		ADD R12, #$04
2158	41C0		PUTB $1, (R12)+
215A	41C8		PUTB $1, (R12)
215C	0004		NOP
215E	2082		JMP ($0104)

2160	015E		GETB R5, $1
2162	2C88		MOVE R12, $110
2164	0C58		ADD R12, R5
2166	A00F		BRA $2178		; $10(R0)

2168	015E		GETB R5, $1
216A	2C90		MOVE R12, $120
216C	0C58		ADD R12, R5
216E	A007		BRA $2178		; $08(R0)

2170	015E		GETB R5, $1
2172	0C5D		MLH R12, R5
2174	0004		NOP
2176	01CE		GETB R12, $1
2178	00E8		ADD R0, R14
217A	F0F5		BRA $2086		; -> -$F6(R0)

217C	F0CF		BRA $20AE		; -> -$D0(R0)

217E	F0C3		BRA $20BC		; -> -$C4(R0)

2180	F09F		BRA $20E2		; -> -$A0(R0)

2182	A013		BRA $2198		; $14(R0)

2184	A063		BRA $21EA		; $64(R0)

2186	A06F		BRA $21F8		; $70(R0)

2188	A07B		BRA $2206		; $7C(R0)

218A	A087		BRA $2214		; $88(R0)

218C	A0A5		BRA $2234		; $A6(R0)

218E	A0A5		BRA $2236		; $A6(R0)

2190	F09D		BRA $20F4		; -> -$9E(R0)

2192	F05B		BRA $2138		; -> -$5C(R0)

2194	F0EB		BRA $20AA		; -> -$EC(R0)

2196	F0EB		BRA $20AC		; -> -$EC(R0)

2198	2454		MOVE R4, $A8
219A	034C		MHL R3, R4
219C	853A		LBI R5, #$3A
219E	863B		LBI R6, #$3B
21A0	873D		LBI R7, #$3D
21A2	883E		LBI R8, #$3E
21A4	893F		LBI R9, #$3F
21A6	8A3C		LBI R10, #$3C
21A8	2F88		MOVE R15, $110
21AA	6EF0		MOVB R14, (R15)+
21AC	CECA		SNE R14, R12
21AE	A021		BRA $21D2		; $22(R0)

21B0	CE5A		SNE R14, R5
21B2	A023		BRA $21D8		; $24(R0)

21B4	CE6A		SNE R14, R6
21B6	A023		BRA $21DC		; $24(R0)

21B8	CE7A		SNE R14, R7
21BA	A023		BRA $21E0		; $24(R0)

21BC	CE8A		SNE R14, R8
21BE	A017		BRA $21D8		; $18(R0)

21C0	CE9A		SNE R14, R9
21C2	A01F		BRA $21E4		; $20(R0)

21C4	CEAA		SNE R14, R10
21C6	A01B		BRA $21E4		; $1C(R0)

21C8	CF42		SE R15, R4
21CA	F021		BRA $21AA		; -> -$22(R0)

21CC	0DFC		MHL R13, R15
21CE	CD32		SE R13, R3
21D0	F027		BRA $21AA		; -> -$28(R0)

21D2	FF00		SUB R15, #$01
21D4	3F88		MOVE $110, R15
21D6	2082		JMP ($0104)

21D8	AF01		ADD R15, #$02
21DA	F031		BRA $21AA		; -> -$32(R0)

21DC	AF07		ADD R15, #$08
21DE	F035		BRA $21AA		; -> -$36(R0)

21E0	AF00		ADD R15, #$01
21E2	F039		BRA $21AA		; -> -$3A(R0)

21E4	6DF0		MOVB R13, (R15)+
21E6	0FD8		ADD R15, R13
21E8	F03F		BRA $21AA		; -> -$40(R0)

21EA	2388		MOVE R3, $110
21EC	6430		MOVB R4, (R3)+
21EE	C4C2		SE R4, R12
21F0	F005		BRA $21EC		; -> -$06(R0)

21F2	F300		SUB R3, #$01
21F4	3388		MOVE $110, R3
21F6	2082		JMP ($0104)

21F8	2388		MOVE R3, $110
21FA	53C1		MOVE (R12)+, R3
21FC	2390		MOVE R3, $120
21FE	53C1		MOVE (R12)+, R3
2200	23C0		MOVE R3, $180
2202	53C8		MOVE (R12), R3
2204	2082		JMP ($0104)

2206	D3C1		MOVE R3, (R12)+
2208	3388		MOVE $110, R3
220A	D3C1		MOVE R3, (R12)+
220C	41C0		PUTB $1, (R12)+
220E	41C8		PUTB $1, (R12)
2210	3390		MOVE $120, R3
2212	2082		JMP ($0104)

2214	2588		MOVE R5, $110
2216	6350		MOVB R3, (R5)+
2218	3588		MOVE $110, R5
221A	6450		MOVB R4, (R5)+
221C	865B		LBI R6, #$5B
221E	C64A		SNE R6, R4
2220	A00B		BRA $222E		; $0C(R0)

2222	86F0		LBI R6, #$F0
2224	C469		SGE R4, R6
2226	A00F		BRA $2238		; $10(R0)

2228	86F9		LBI R6, #$F9
222A	C460		SLE R4, R6
222C	A009		BRA $2238		; $0A(R0)

222E	3588		MOVE $110, R5
2230	94F0		CLR R4, #$F0
2232	A007		BRA $223C		; $08(R0)

2234	A0F1		BRA $2328		; $F2(R0)

2236	A0B7		BRA $22F0		; $B8(R0)

2238	840A		LBI R4, #$0A
223A	2588		MOVE R5, $110
223C	6655		MOVB R6, (R5)--
223E	874D		LBI R7, #$4D
2240	C76A		SNE R7, R6
2242	A013		BRA $2258		; $14(R0)

2244	6654		MOVB R6, (R5)-
2246	C672		SE R6, R7
2248	A00F		BRA $225A		; $10(R0)

224A	6654		MOVB R6, (R5)-
224C	8703		LBI R7, #$03
224E	C670		SLE R6, R7
2250	A007		BRA $225A		; $08(R0)

2252	6658		MOVB R6, (R5)
2254	873D		LBI R7, #$3D
2256	C67A		SNE R6, R7
2258	B480		SET R4, #$80
225A	D5C1		MOVE R5, (R12)+
225C	D7C1		MOVE R7, (R12)+
225E	067C		MHL R6, R7
2260	8880		LBI R8, #$80
2262	C572		SE R5, R7
2264	A005		BRA $226C		; $06(R0)

2266	095C		MHL R9, R5
2268	C96A		SNE R9, R6
226A	A01D		BRA $228A		; $1E(R0)

226C	F503		SUB R5, #$04
226E	DA58		MOVE R10, (R5)
2270	09AC		MHL R9, R10
2272	C392		SE R3, R9
2274	A005		BRA $227C		; $06(R0)

2276	9A40		CLR R10, #$40
2278	CA4A		SNE R10, R4
227A	A01F		BRA $229C		; $20(R0)

227C	CA86		SBC R10, R8
227E	F505		SUB R5, #$06
2280	C572		SE R5, R7
2282	F017		BRA $226C		; -> -$18(R0)

2284	095C		MHL R9, R5
2286	C962		SE R9, R6
2288	F01D		BRA $226C		; -> -$1E(R0)

228A	011E		GETB R1, $1
228C	043D		MLH R4, R3
228E	54C8		MOVE (R12), R4
2290	011E		GETB R1, $1
2292	F000		BRA $2293		; -> -$01(R0)

2294	011E		GETB R1, $1
2296	F000		BRA $2297		; -> -$01(R0)

2298	011E		GETB R1, $1
229A	2082		JMP ($0104)

229C	C486		SBC R4, R8
229E	A027		BRA $22C8		; $28(R0)

22A0	A501		ADD R5, #$02
22A2	D654		MOVE R6, (R5)~
22A4	56C1		MOVE (R12)+, R6
22A6	810B		LBI R1, #$0B
22A8	C41D		SNBS R4, R1
22AA	A005		BRA $22B2		; $06(R0)

22AC	8100		LBI R1, #$00
22AE	71C8		MOVB (R12), R1
22B0	2082		JMP ($0104)

22B2	8140		LBI R1, #$40
22B4	6458		MOVB R4, (R5)
22B6	C416		SBC R4, R1
22B8	A005		BRA $22C0		; $06(R0)

22BA	8112		LBI R1, #$12
22BC	71C8		MOVB (R12), R1
22BE	2082		JMP ($0104)

22C0	6760		MOVB R7, (R6)+
22C2	77C5		MOVB (R12)--, R7
22C4	56C8		MOVE (R12), R6
22C6	2082		JMP ($0104)

22C8	F505		SUB R5, #$06
22CA	55C1		MOVE (R12)+, R5
22CC	810B		LBI R1, #$0B
22CE	C41D		SNBS R4, R1
22D0	A005		BRA $22D8		; $06(R0)

22D2	8100		LBI R1, #$00
22D4	71C8		MOVB (R12), R1
22D6	2082		JMP ($0104)

22D8	8140		LBI R1, #$40
22DA	A506		ADD R5, #$07
22DC	6450		MOVB R4, (R5)+
22DE	C416		SBC R4, R1
22E0	A005		BRA $22E8		; $06(R0)

22E2	8112		LBI R1, #$12
22E4	71C8		MOVB (R12), R1
22E6	2082		JMP ($0104)

22E8	D658		MOVE R6, (R5)
22EA	6768		MOVB R7, (R6)
22EC	77C8		MOVB (R12), R7
22EE	2082		JMP ($0104)

22F0	011E		GETB R1, $1
22F2	E13F		STAT R3, $1
22F4	E14F		STAT R4, $1
22F6	043D		MLH R4, R3
22F8	2588		MOVE R5, $110
22FA	6658		MOVB R6, (R5)
22FC	81C1		LBI R1, #$C1
22FE	C619		SGE R6, R1
2300	A043		BRA $2346		; $44(R0)

2302	81C9		LBI R1, #$C9
2304	C618		SGT R6, R1
2306	A023		BRA $232C		; $24(R0)

2308	81D1		LBI R1, #$D1
230A	C619		SGE R6, R1
230C	A011		BRA $2320		; $12(R0)

230E	81D9		LBI R1, #$D9
2310	C618		SGT R6, R1
2312	A017		BRA $232C		; $18(R0)

2314	81E2		LBI R1, #$E2
2316	C619		SGE R6, R1
2318	A005		BRA $2320		; $06(R0)

231A	81E9		LBI R1, #$E9
231C	C618		SGT R6, R1
231E	A00B		BRA $232C		; $0C(R0)

2320	0744		MOVE R7, R4
2322	A407		ADD R4, #$08
2324	A71E		ADD R7, #$1F
2326	A0C5		BRA $23EE		; $C6(R0)

2328	A0E7		BRA $2412		; $E8(R0)

232A	034C		MHL R3, R4
232C	8100		LBI R1, #$00
232E	011D		MLH R1, R1
2330	8107		LBI R1, #$07
2332	4111		PUTB $1, (R1)++
2334	4115		PUTB $1, (R1)--
2336	F000		BRA $2337		; -> -$01(R0)

2338	013E		GETB R3, $1
233A	F000		BRA $233B		; -> -$01(R0)

233C	014E		GETB R4, $1
233E	4111		PUTB $1, (R1)++
2340	4118		PUTB $1, (R1)
2342	0004		NOP
2344	2082		JMP ($0104)

2346	815B		LBI R1, #$5B
2348	C61A		SNE R6, R1
234A	F01F		BRA $232C		; -> -$20(R0)

234C	817B		LBI R1, #$7B
234E	C61A		SNE R6, R1
2350	F025		BRA $232C		; -> -$26(R0)

2352	817C		LBI R1, #$7C
2354	C61A		SNE R6, R1
2356	F02B		BRA $232C		; -> -$2C(R0)

2358	8150		LBI R1, #$50
235A	C61A		SNE R6, R1
235C	F031		BRA $232C		; -> -$32(R0)

235E	A400		ADD R4, #$01
2360	813A		LBI R1, #$3A
2362	C61A		SNE R6, R1
2364	F03B		BRA $232A		; -> -$3C(R0)

2366	A400		ADD R4, #$01
2368	813B		LBI R1, #$3B
236A	C61A		SNE R6, R1
236C	F043		BRA $232A		; -> -$44(R0)

236E	A400		ADD R4, #$01
2370	813F		LBI R1, #$3F
2372	C61A		SNE R6, R1
2374	F04B		BRA $232A		; -> -$4C(R0)

2376	A400		ADD R4, #$01
2378	813C		LBI R1, #$3C
237A	C61A		SNE R6, R1
237C	F053		BRA $232A		; -> -$54(R0)

237E	A400		ADD R4, #$01
2380	813D		LBI R1, #$3D
2382	C61A		SNE R6, R1
2384	F05B		BRA $232A		; -> -$5C(R0)

2386	A400		ADD R4, #$01
2388	813E		LBI R1, #$3E
238A	C61A		SNE R6, R1
238C	F063		BRA $232A		; -> -$64(R0)

238E	A400		ADD R4, #$01
2390	0744		MOVE R7, R4
2392	A701		ADD R7, #$02
2394	814E		LBI R1, #$4E
2396	C61A		SNE R6, R1
2398	A053		BRA $23EE		; $54(R0)

239A	A701		ADD R7, #$02
239C	8160		LBI R1, #$60
239E	C61A		SNE R6, R1
23A0	A04B		BRA $23EE		; $4C(R0)

23A2	A701		ADD R7, #$02
23A4	815C		LBI R1, #$5C
23A6	C61A		SNE R6, R1
23A8	A043		BRA $23EE		; $44(R0)

23AA	A701		ADD R7, #$02
23AC	8161		LBI R1, #$61
23AE	C61A		SNE R6, R1
23B0	A03B		BRA $23EE		; $3C(R0)

23B2	A701		ADD R7, #$02
23B4	818A		LBI R1, #$8A
23B6	C61A		SNE R6, R1
23B8	A033		BRA $23EE		; $34(R0)

23BA	A701		ADD R7, #$02
23BC	814D		LBI R1, #$4D
23BE	C61A		SNE R6, R1
23C0	A02B		BRA $23EE		; $2C(R0)

23C2	A701		ADD R7, #$02
23C4	815D		LBI R1, #$5D
23C6	C61A		SNE R6, R1
23C8	A023		BRA $23EE		; $24(R0)

23CA	A701		ADD R7, #$02
23CC	816B		LBI R1, #$6B
23CE	C61A		SNE R6, R1
23D0	A01B		BRA $23EE		; $1C(R0)

23D2	A701		ADD R7, #$02
23D4	8135		LBI R1, #$35
23D6	C61A		SNE R6, R1
23D8	A013		BRA $23EE		; $14(R0)

23DA	A701		ADD R7, #$02
23DC	8131		LBI R1, #$31
23DE	C61A		SNE R6, R1
23E0	A00B		BRA $23EE		; $0C(R0)

23E2	A701		ADD R7, #$02
23E4	8134		LBI R1, #$34
23E6	C61A		SNE R6, R1
23E8	A003		BRA $23EE		; $04(R0)

23EA	A701		ADD R7, #$02
23EC	A400		ADD R4, #$01
23EE	8100		LBI R1, #$00
23F0	011D		MLH R1, R1
23F2	810E		LBI R1, #$0E
23F4	4110		PUTB $1, (R1)+
23F6	4118		PUTB $1, (R1)
23F8	F000		BRA $23F9		; -> -$01(R0)

23FA	018E		GETB R8, $1
23FC	78C0		MOVB (R12)+, R8
23FE	0004		NOP
2400	018E		GETB R8, $1
2402	78C0		MOVB (R12)+, R8
2404	0004		NOP
2406	018E		GETB R8, $1
2408	78C0		MOVB (R12)+, R8
240A	0004		NOP
240C	018E		GETB R8, $1
240E	78C8		MOVB (R12), R8
2410	F0E7		BRA $232A		; -> -$E8(R0)

2412	013E		GETB R3, $1
2414	E11F		STAT R1, $1
2416	011D		MLH R1, R1
2418	E11F		STAT R1, $1
241A	A103		ADD R1, #$04
241C	31C0		MOVE $180, R1
241E	6DC8		MOVB R13, (R12)
2420	8440		LBI R4, #$40
2422	01CE		GETB R12, $1
2424	CD4A		SNE R13, R4
2426	A04F		BRA $2478		; $50(R0)

2428	87F0		LBI R7, #$F0
242A	013E		GETB R3, $1
242C	84F9		LBI R4, #$F9
242E	857B		LBI R5, #$7B
2430	865B		LBI R6, #$5B
2432	01CE		GETB R12, $1
2434	CD79		SGE R13, R7
2436	A003		BRA $243C		; $04(R0)

2438	CD48		SGT R13, R4
243A	A03B		BRA $2478		; $3C(R0)

243C	013E		GETB R3, $1
243E	877C		LBI R7, #$7C
2440	88C1		LBI R8, #$C1
2442	89C9		LBI R9, #$C9
2444	01CE		GETB R12, $1
2446	CD5A		SNE R13, R5
2448	A02D		BRA $2478		; $2E(R0)

244A	CD6A		SNE R13, R6
244C	A029		BRA $2478		; $2A(R0)

244E	CD7A		SNE R13, R7
2450	A025		BRA $2478		; $26(R0)

2452	CD89		SGE R13, R8
2454	A01B		BRA $2472		; $1C(R0)

2456	CD98		SGT R13, R9
2458	A01D		BRA $2478		; $1E(R0)

245A	85D1		LBI R5, #$D1
245C	CD59		SGE R13, R5
245E	A011		BRA $2472		; $12(R0)

2460	86D9		LBI R6, #$D9
2462	CD68		SGT R13, R6
2464	A011		BRA $2478		; $12(R0)

2466	87E2		LBI R7, #$E2
2468	CD79		SGE R13, R7
246A	A005		BRA $2472		; $06(R0)

246C	88E9		LBI R8, #$E9
246E	CD88		SGT R13, R8
2470	A005		BRA $2478		; $06(R0)

2472	013E		GETB R3, $1
2474	F000		BRA $2475		; -> -$01(R0)

2476	01CE		GETB R12, $1
2478	0C3D		MLH R12, R3
247A	2399		MOVE R3, $132
247C	4130		PUTB $1, (R3)+
247E	4138		PUTB $1, (R3)
2480	0004		NOP
2482	2082		JMP ($0104)

2484	015E		GETB R5, $1
2486	2C81		MOVE R12, $102
2488	0CE6		OR R12, R14
248A	2D81		MOVE R13, $102
248C	0D56		OR R13, R5
248E	D6C8		MOVE R6, (R12)
2490	C603		SZ R6
2492	A005		BRA $249A		; $06(R0)

2494	016C		MHL R1, R6
2496	C10B		SNZ R1
2498	A00B		BRA $24A6		; $0C(R0)

249A	D8D8		MOVE R8, (R13)
249C	C803		SZ R8
249E	A00D		BRA $24AE		; $0E(R0)

24A0	018C		MHL R1, R8
24A2	C103		SZ R1
24A4	A007		BRA $24AE		; $08(R0)

24A6	2150		MOVE R1, $A0
24A8	51C8		MOVE (R12), R1
24AA	51D8		MOVE (R13), R1
24AC	209B		JMP ($0136)

24AE	2450		MOVE R4, $A0
24B0	2750		MOVE R7, $A0
24B2	3CCC		MOVE $198, R12
24B4	3DCD		MOVE $19A, R13
24B6	2DAB		MOVE R13, $156
24B8	57D1		MOVE (R13)+, R7
24BA	57D0		MOVE (R13)', R7
24BC	018C		MHL R1, R8
24BE	71D0		MOVB (R13)+, R1
24C0	78D8		MOVB (R13), R8
24C2	8125		LBI R1, #$25
24C4	011D		MLH R1, R1
24C6	81F8		LBI R1, #$F8
24C8	31CA		MOVE $194, R1
24CA	8126		LBI R1, #$26
24CC	011D		MLH R1, R1
24CE	8136		LBI R1, #$36
24D0	31CB		MOVE $196, R1
24D2	2EAA		MOVE R14, $154
24D4	2850		MOVE R8, $A0
24D6	3DCE		MOVE $19C, R13
24D8	0D84		MOVE R13, R8
24DA	58E1		MOVE (R14)+, R8
24DC	54E1		MOVE (R14)+, R4
24DE	56E8		MOVE (R14), R6
24E0	038D		MLH R3, R8
24E2	034C		MHL R3, R4
24E4	054D		MLH R5, R4
24E6	056C		MHL R5, R6
24E8	076D		MLH R7, R6
24EA	8700		LBI R7, #$00
24EC	8E3C		LBI R14, #$3C
24EE	8F07		LBI R15, #$07
24F0	E07C		SHR R7
24F2	065D		MLH R6, R5
24F4	E06C		SHR R6
24F6	076D		MLH R7, R6
24F8	57E5		MOVE (R14)-, R7
24FA	E05C		SHR R5
24FC	043D		MLH R4, R3
24FE	E04C		SHR R4
2500	054D		MLH R5, R4
2502	55E5		MOVE (R14)-, R5
2504	E03C		SHR R3
2506	53E7		MOVE (R14)--, R3
2508	FF00		SUB R15, #$01
250A	CF03		SZ R15
250C	F01D		BRA $24F0		; -> -$1E(R0)

250E	2350		MOVE R3, $A0
2510	2450		MOVE R4, $A0
2512	2550		MOVE R5, $A0
2514	2650		MOVE R6, $A0
2516	2F50		MOVE R15, $A0
2518	2CCE		MOVE R12, $19C
251A	61C8		MOVB R1, (R12)
251C	0F1A		ADDH R15, R1
251E	8E00		LBI R14, #$00
2520	01F4		MOVE R1, R15
2522	91F0		CLR R1, #$F0
2524	0118		ADD R1, R1
2526	0018		ADD R0, R1
2528	A08D		BRA $25B8		; $8E(R0)

252A	A01B		BRA $2548		; $1C(R0)

252C	A023		BRA $2552		; $24(R0)

252E	A01D		BRA $254E		; $1E(R0)

2530	A035		BRA $2568		; $36(R0)

2532	A02F		BRA $2564		; $30(R0)

2534	A023		BRA $255A		; $24(R0)

2536	A037		BRA $2570		; $38(R0)

2538	A047		BRA $2582		; $48(R0)

253A	A039		BRA $2576		; $3A(R0)

253C	A03D		BRA $257C		; $3E(R0)

253E	A049		BRA $258A		; $4A(R0)

2540	A051		BRA $2594		; $52(R0)

2542	A04B		BRA $2590		; $4C(R0)

2544	A055		BRA $259C		; $56(R0)

2546	A05B		BRA $25A4		; $5C(R0)

2548	0203		INC2 R2, R0
254A	20CA		JMP ($0194)

254C	A069		BRA $25B8		; $6A(R0)

254E	0203		INC2 R2, R0
2550	20CA		JMP ($0194)

2552	BE08		SET R14, #$08
2554	0203		INC2 R2, R0
2556	20CA		JMP ($0194)

2558	A05D		BRA $25B8		; $5E(R0)

255A	BE08		SET R14, #$08
255C	0203		INC2 R2, R0
255E	20CA		JMP ($0194)

2560	9E08		CLR R14, #$08
2562	A003		BRA $2568		; $04(R0)

2564	0203		INC2 R2, R0
2566	20CA		JMP ($0194)

2568	BE10		SET R14, #$10
256A	0203		INC2 R2, R0
256C	20CA		JMP ($0194)

256E	A047		BRA $25B8		; $48(R0)

2570	0203		INC2 R2, R0
2572	20CB		JMP ($0196)

2574	A00B		BRA $2582		; $0C(R0)

2576	0203		INC2 R2, R0
2578	20CA		JMP ($0194)

257A	A005		BRA $2582		; $06(R0)

257C	BE08		SET R14, #$08
257E	0203		INC2 R2, R0
2580	20CA		JMP ($0194)

2582	BE18		SET R14, #$18
2584	0203		INC2 R2, R0
2586	20CA		JMP ($0194)

2588	A02D		BRA $25B8		; $2E(R0)

258A	0203		INC2 R2, R0
258C	20CB		JMP ($0196)

258E	A003		BRA $2594		; $04(R0)

2590	0203		INC2 R2, R0
2592	20CA		JMP ($0194)

2594	BE10		SET R14, #$10
2596	0203		INC2 R2, R0
2598	20CB		JMP ($0196)

259A	A00B		BRA $25A8		; $0C(R0)

259C	BE08		SET R14, #$08
259E	0203		INC2 R2, R0
25A0	20CB		JMP ($0196)

25A2	A003		BRA $25A8		; $04(R0)

25A4	0203		INC2 R2, R0
25A6	20CB		JMP ($0196)

25A8	8120		LBI R1, #$20
25AA	CE16		SBC R14, R1
25AC	A003		BRA $25B2		; $04(R0)

25AE	AF0F		ADD R15, #$10
25B0	A00B		BRA $25BE		; $0C(R0)

25B2	AF7F		ADD R15, #$80
25B4	AF7F		ADD R15, #$80
25B6	A00F		BRA $25C8		; $10(R0)

25B8	8120		LBI R1, #$20
25BA	CE16		SBC R14, R1
25BC	A009		BRA $25C8		; $0A(R0)

25BE	8E20		LBI R14, #$20
25C0	9F0F		CLR R15, #$0F
25C2	E0FE		ROR3 R15
25C4	01F4		MOVE R1, R15
25C6	F0A1		BRA $2526		; -> -$A2(R0)

25C8	2CCE		MOVE R12, $19C
25CA	76C4		MOVB (R12)-, R6
25CC	3CCE		MOVE $19C, R12
25CE	066C		MHL R6, R6
25D0	065D		MLH R6, R5
25D2	055C		MHL R5, R5
25D4	054D		MLH R5, R4
25D6	044C		MHL R4, R4
25D8	043D		MLH R4, R3
25DA	033C		MHL R3, R3
25DC	8D00		LBI R13, #$00
25DE	03DD		MLH R3, R13
25E0	8107		LBI R1, #$07
25E2	CC16		SBC R12, R1
25E4	F0CB		BRA $251A		; -> -$CC(R0)

25E6	2CCC		MOVE R12, $198
25E8	2DCD		MOVE R13, $19A
25EA	2ECE		MOVE R14, $19C
25EC	56C8		MOVE (R12), R6
25EE	D7E1		MOVE R7, (R14)+
25F0	77D0		MOVB (R13)+, R7
25F2	67E8		MOVB R7, (R14)
25F4	77D8		MOVB (R13), R7
25F6	209D		JMP ($013A)

25F8	D7E1		MOVE R7, (R14)+
25FA	D8E1		MOVE R8, (R14)+
25FC	D9E7		MOVE R9, (R14)--
25FE	2A50		MOVE R10, $A0
2600	0A5A		ADDH R10, R5
2602	0A98		ADD R10, R9
2604	09AC		MHL R9, R10
2606	099A		ADDH R9, R9
2608	055C		MHL R5, R5
260A	0958		ADD R9, R5
260C	0A9D		MLH R10, R9
260E	05A4		MOVE R5, R10
2610	094A		ADDH R9, R4
2612	0988		ADD R9, R8
2614	089C		MHL R8, R9
2616	088A		ADDH R8, R8
2618	044C		MHL R4, R4
261A	0848		ADD R8, R4
261C	098D		MLH R9, R8
261E	0494		MOVE R4, R9
2620	083A		ADDH R8, R3
2622	0878		ADD R8, R7
2624	078C		MHL R7, R8
2626	077A		ADDH R7, R7
2628	033C		MHL R3, R3
262A	0738		ADD R7, R3
262C	087D		MLH R8, R7
262E	0384		MOVE R3, R8
2630	077C		MHL R7, R7
2632	0D78		ADD R13, R7
2634	0024		RET R2

2636	D7E1		MOVE R7, (R14)+
2638	D8E1		MOVE R8, (R14)+
263A	D9E7		MOVE R9, (R14)--
263C	2C50		MOVE R12, $A0
263E	0C56		OR R12, R5
2640	8BFF		LBI R11, #$FF
2642	0C99		SUB R12, R9
2644	8500		LBI R5, #$00
2646	05C6		OR R5, R12
2648	0C5C		MHL R12, R5
264A	CCBF		SNBSH R12, R11
264C	0CCB		ADDH2 R12, R12
264E	099C		MHL R9, R9
2650	0C99		SUB R12, R9
2652	05CD		MLH R5, R12
2654	8C00		LBI R12, #$00
2656	0C46		OR R12, R4
2658	CCBF		SNBSH R12, R11
265A	0CCB		ADDH2 R12, R12
265C	0C89		SUB R12, R8
265E	8400		LBI R4, #$00
2660	04C6		OR R4, R12
2662	0C4C		MHL R12, R4
2664	CCBF		SNBSH R12, R11
2666	0CCB		ADDH2 R12, R12
2668	088C		MHL R8, R8
266A	0C89		SUB R12, R8
266C	04CD		MLH R4, R12
266E	8C00		LBI R12, #$00
2670	0C36		OR R12, R3
2672	CCBF		SNBSH R12, R11
2674	0CCB		ADDH2 R12, R12
2676	0C79		SUB R12, R7
2678	8300		LBI R3, #$00
267A	03C6		OR R3, R12
267C	0C3C		MHL R12, R3
267E	CCBF		SNBSH R12, R11
2680	0CCB		ADDH2 R12, R12
2682	077C		MHL R7, R7
2684	0C79		SUB R12, R7
2686	03CD		MLH R3, R12
2688	0CCC		MHL R12, R12
268A	0DC8		ADD R13, R12
268C	0024		RET R2

268E	25D0		MOVE R5, $1A0
2690	035C		MHL R3, R5
2692	937F		CLR R3, #$7F
2694	67D0		MOVB R7, (R13)+
2696	0874		MOVE R8, R7
2698	987F		CLR R8, #$7F
269A	C38A		SNE R3, R8
269C	A005		BRA $26A4		; $06(R0)

269E	C303		SZ R3
26A0	209F		JMP ($013E)

26A2	209D		JMP ($013A)

26A4	045C		MHL R4, R5
26A6	C47A		SNE R4, R7
26A8	A00F		BRA $26BA		; $10(R0)

26AA	C303		SZ R3
26AC	A005		BRA $26B4		; $06(R0)

26AE	C478		SGT R4, R7
26B0	209F		JMP ($013E)

26B2	209D		JMP ($013A)

26B4	C471		SLT R4, R7
26B6	209F		JMP ($013E)

26B8	209D		JMP ($013A)

26BA	69D0		MOVB R9, (R13)+
26BC	C592		SE R5, R9
26BE	A013		BRA $26D4		; $14(R0)

26C0	25D1		MOVE R5, $1A2
26C2	065C		MHL R6, R5
26C4	69D0		MOVB R9, (R13)+
26C6	C692		SE R6, R9
26C8	A007		BRA $26D2		; $08(R0)

26CA	69D8		MOVB R9, (R13)
26CC	C592		SE R5, R9
26CE	A003		BRA $26D4		; $04(R0)

26D0	209B		JMP ($0136)

26D2	0564		MOVE R5, R6
26D4	C303		SZ R3
26D6	A005		BRA $26DE		; $06(R0)

26D8	C598		SGT R5, R9
26DA	209F		JMP ($013E)

26DC	209D		JMP ($013A)

26DE	C591		SLT R5, R9
26E0	209F		JMP ($013E)

26E2	209D		JMP ($013A)

26E4	8101		LBI R1, #$01
26E6	CD16		SBC R13, R1
26E8	A005		BRA $26F0		; $06(R0)

26EA	D3D1		MOVE R3, (R13)+
26EC	D4D8		MOVE R4, (R13)
26EE	A00B		BRA $26FC		; $0C(R0)

26F0	63D0		MOVB R3, (R13)+
26F2	033D		MLH R3, R3
26F4	D1D1		MOVE R1, (R13)+
26F6	031C		MHL R3, R1
26F8	64D8		MOVB R4, (R13)
26FA	041D		MLH R4, R1
26FC	33D0		MOVE $1A0, R3
26FE	34D1		MOVE $1A2, R4
2700	2082		JMP ($0104)

2702	2550		MOVE R5, $A0
2704	2650		MOVE R6, $A0
2706	36D4		MOVE $1A8, R6
2708	8101		LBI R1, #$01
270A	CD16		SBC R13, R1
270C	A005		BRA $2714		; $06(R0)

270E	D3D1		MOVE R3, (R13)+
2710	D4D8		MOVE R4, (R13)
2712	A00B		BRA $2720		; $0C(R0)

2714	63D0		MOVB R3, (R13)+
2716	033D		MLH R3, R3
2718	D1D1		MOVE R1, (R13)+
271A	031C		MHL R3, R1
271C	64D8		MOVB R4, (R13)
271E	041D		MLH R4, R1
2720	0203		INC2 R2, R0
2722	20BA		JMP ($0174)

2724	A00F		BRA $2736		; $10(R0)

2726	A005		BRA $272E		; $06(R0)

2728	23F8		MOVE R3, $1F0
272A	B301		SET R3, #$01
272C	33F8		MOVE $1F0, R3
272E	2350		MOVE R3, $A0
2730	33D0		MOVE $1A0, R3
2732	33D1		MOVE $1A2, R3
2734	2082		JMP ($0104)

2736	33D0		MOVE $1A0, R3
2738	34D1		MOVE $1A2, R4
273A	2082		JMP ($0104)

273C	23D0		MOVE R3, $1A0
273E	24D1		MOVE R4, $1A2
2740	8101		LBI R1, #$01
2742	CD16		SBC R13, R1
2744	A005		BRA $274C		; $06(R0)

2746	53D1		MOVE (R13)+, R3
2748	54D8		MOVE (R13), R4
274A	2082		JMP ($0104)

274C	0144		MOVE R1, R4
274E	044C		MHL R4, R4
2750	043D		MLH R4, R3
2752	033C		MHL R3, R3
2754	73D0		MOVB (R13)+, R3
2756	54D1		MOVE (R13)+, R4
2758	71D8		MOVB (R13), R1
275A	2082		JMP ($0104)

275C	2350		MOVE R3, $A0
275E	33D0		MOVE $1A0, R3
2760	33D1		MOVE $1A2, R3
2762	2082		JMP ($0104)

2764	015E		GETB R5, $1
2766	2D88		MOVE R13, $110
2768	0D58		ADD R13, R5
276A	A00F		BRA $277C		; $10(R0)

276C	015E		GETB R5, $1
276E	2D90		MOVE R13, $120
2770	0D58		ADD R13, R5
2772	A007		BRA $277C		; $08(R0)

2774	015E		GETB R5, $1
2776	0D5D		MLH R13, R5
2778	0004		NOP
277A	01DE		GETB R13, $1
277C	00E8		ADD R0, R14
277E	A0AB		BRA $282C		; $AC(R0)

2780	A0A7		BRA $282A		; $A8(R0)

2782	A03F		BRA $27C4		; $40(R0)

2784	F0F7		BRA $268E		; -> -$F8(R0)

2786	F0A3		BRA $26E4		; -> -$A4(R0)

2788	F087		BRA $2702		; -> -$88(R0)

278A	F04F		BRA $273C		; -> -$50(R0)

278C	F031		BRA $275C		; -> -$32(R0)

278E	A065		BRA $27F6		; $66(R0)

2790	A07B		BRA $280E		; $7C(R0)

2792	2082		JMP ($0104)

2794	812C		LBI R1, #$2C
2796	011D		MLH R1, R1
2798	811E		LBI R1, #$1E
279A	0014		RET R1

279C	8119		LBI R1, #$19
279E	011D		MLH R1, R1
27A0	8192		LBI R1, #$92
27A2	0014		RET R1

27A4	8118		LBI R1, #$18
27A6	011D		MLH R1, R1
27A8	810E		LBI R1, #$0E
27AA	0014		RET R1

27AC	811B		LBI R1, #$1B
27AE	011D		MLH R1, R1
27B0	8122		LBI R1, #$22
27B2	0014		RET R1

27B4	810B		LBI R1, #$0B
27B6	011D		MLH R1, R1
27B8	813E		LBI R1, #$3E
27BA	0014		RET R1

27BC	810E		LBI R1, #$0E
27BE	011D		MLH R1, R1
27C0	8128		LBI R1, #$28
27C2	0014		RET R1

27C4	8331		LBI R3, #$31
27C6	033D		MLH R3, R3
27C8	8302		LBI R3, #$02
27CA	2483		MOVE R4, $106
27CC	A4D6		ADD R4, #$D7
27CE	A4D6		ADD R4, #$D7
27D0	5348		MOVE (R4), R3
27D2	8331		LBI R3, #$31
27D4	033D		MLH R3, R3
27D6	830A		LBI R3, #$0A
27D8	2483		MOVE R4, $106
27DA	A4E6		ADD R4, #$E7
27DC	A4E6		ADD R4, #$E7
27DE	5348		MOVE (R4), R3
27E0	8331		LBI R3, #$31
27E2	033D		MLH R3, R3
27E4	8312		LBI R3, #$12
27E6	2483		MOVE R4, $106
27E8	A4C6		ADD R4, #$C7
27EA	A4C6		ADD R4, #$C7
27EC	5348		MOVE (R4), R3
27EE	2350		MOVE R3, $A0
27F0	33D2		MOVE $1A4, R3
27F2	33D3		MOVE $1A6, R3
27F4	2082		JMP ($0104)

27F6	27F8		MOVE R7, $1F0
27F8	C70B		SNZ R7
27FA	2082		JMP ($0104)

27FC	2150		MOVE R1, $A0
27FE	31F8		MOVE $1F0, R1
2800	239A		MOVE R3, $134
2802	4130		PUTB $1, (R3)+
2804	4138		PUTB $1, (R3)
2806	9702		CLR R7, #$02
2808	C70B		SNZ R7
280A	209D		JMP ($013A)

280C	209F		JMP ($013E)

280E	23D0		MOVE R3, $1A0
2810	0D3C		MHL R13, R3
2812	8E46		LBI R14, #$46
2814	CDE0		SLE R13, R14
2816	2082		JMP ($0104)

2818	0ED9		SUB R14, R13
281A	CE0B		SNZ R14
281C	2082		JMP ($0104)

281E	24D1		MOVE R4, $1A2
2820	0203		INC2 R2, R0
2822	20B2		JMP ($0164)

2824	33D0		MOVE $1A0, R3
2826	34D1		MOVE $1A2, R4
2828	2082		JMP ($0104)

282A	A04B		BRA $2878		; $4C(R0)

282C	8B00		LBI R11, #$00
282E	2550		MOVE R5, $A0
2830	2650		MOVE R6, $A0
2832	2950		MOVE R9, $A0
2834	2A50		MOVE R10, $A0
2836	3AD4		MOVE $1A8, R10
2838	3ADC		MOVE $1B8, R10
283A	23D0		MOVE R3, $1A0
283C	24D1		MOVE R4, $1A2
283E	8101		LBI R1, #$01
2840	CD1E		SNBC R13, R1
2842	A00D		BRA $2852		; $0E(R0)

2844	67D0		MOVB R7, (R13)+
2846	077D		MLH R7, R7
2848	D1D1		MOVE R1, (R13)+
284A	071C		MHL R7, R1
284C	68D8		MOVB R8, (R13)
284E	081D		MLH R8, R1
2850	A003		BRA $2856		; $04(R0)

2852	D7D1		MOVE R7, (R13)+
2854	D8D8		MOVE R8, (R13)
2856	0D3C		MHL R13, R3
2858	0E7C		MHL R14, R7
285A	8F80		LBI R15, #$80
285C	CDF6		SBC R13, R15
285E	AB7F		ADD R11, #$80
2860	CEF6		SBC R14, R15
2862	AB7F		ADD R11, #$80
2864	9D80		CLR R13, #$80
2866	9E80		CLR R14, #$80
2868	CDEA		SNE R13, R14
286A	A013		BRA $2880		; $14(R0)

286C	CDE8		SGT R13, R14
286E	A009		BRA $287A		; $0A(R0)

2870	0DE9		SUB R13, R14
2872	0203		INC2 R2, R0
2874	20B3		JMP ($0166)

2876	A007		BRA $2880		; $08(R0)

2878	A0CF		BRA $294A		; $D0(R0)

287A	0ED9		SUB R14, R13
287C	0203		INC2 R2, R0
287E	20B2		JMP ($0164)

2880	CB0B		SNZ R11
2882	A0C7		BRA $294C		; $C8(R0)

2884	8FFF		LBI R15, #$FF
2886	2E50		MOVE R14, $A0
2888	0E66		OR R14, R6
288A	22D4		MOVE R2, $1A8
288C	21DC		MOVE R1, $1B8
288E	0219		SUB R2, R1
2890	81F0		LBI R1, #$F0
2892	C21D		SNBS R2, R1
2894	FE00		SUB R14, #$01
2896	92F0		CLR R2, #$F0
2898	32D4		MOVE $1A8, R2
289A	0EA9		SUB R14, R10
289C	8600		LBI R6, #$00
289E	06E6		OR R6, R14
28A0	0E6C		MHL R14, R6
28A2	CEFF		SNBSH R14, R15
28A4	0EEB		ADDH2 R14, R14
28A6	0AAC		MHL R10, R10
28A8	0EA9		SUB R14, R10
28AA	06ED		MLH R6, R14
28AC	8E00		LBI R14, #$00
28AE	0E56		OR R14, R5
28B0	CEFF		SNBSH R14, R15
28B2	0EEB		ADDH2 R14, R14
28B4	0E99		SUB R14, R9
28B6	8500		LBI R5, #$00
28B8	05E6		OR R5, R14
28BA	0E5C		MHL R14, R5
28BC	CEFF		SNBSH R14, R15
28BE	0EEB		ADDH2 R14, R14
28C0	099C		MHL R9, R9
28C2	0E99		SUB R14, R9
28C4	05ED		MLH R5, R14
28C6	8E00		LBI R14, #$00
28C8	0E46		OR R14, R4
28CA	CEFF		SNBSH R14, R15
28CC	0EEB		ADDH2 R14, R14
28CE	0E89		SUB R14, R8
28D0	8400		LBI R4, #$00
28D2	04E6		OR R4, R14
28D4	0E4C		MHL R14, R4
28D6	CEFF		SNBSH R14, R15
28D8	0EEB		ADDH2 R14, R14
28DA	088C		MHL R8, R8
28DC	0E89		SUB R14, R8
28DE	04ED		MLH R4, R14
28E0	8E00		LBI R14, #$00
28E2	0E36		OR R14, R3
28E4	CEFF		SNBSH R14, R15
28E6	0EEB		ADDH2 R14, R14
28E8	0E79		SUB R14, R7
28EA	8300		LBI R3, #$00
28EC	03E6		OR R3, R14
28EE	CEF7		SBSH R14, R15
28F0	A0C7		BRA $29BA		; $C8(R0)

28F2	22D4		MOVE R2, $1A8
28F4	02F7		XOR R2, R15
28F6	06F7		XOR R6, R15
28F8	0E6C		MHL R14, R6
28FA	0EF7		XOR R14, R15
28FC	06ED		MLH R6, R14
28FE	05F7		XOR R5, R15
2900	0E5C		MHL R14, R5
2902	0EF7		XOR R14, R15
2904	05ED		MLH R5, R14
2906	04F7		XOR R4, R15
2908	0E4C		MHL R14, R4
290A	0EF7		XOR R14, R15
290C	04ED		MLH R4, R14
290E	03F7		XOR R3, R15
2910	0E3C		MHL R14, R3
2912	A200		ADD R2, #$01
2914	92F0		CLR R2, #$F0
2916	32D4		MOVE $1A8, R2
2918	C203		SZ R2
291A	A027		BRA $2944		; $28(R0)

291C	A600		ADD R6, #$01
291E	C603		SZ R6
2920	A021		BRA $2944		; $22(R0)

2922	016C		MHL R1, R6
2924	C103		SZ R1
2926	A01B		BRA $2944		; $1C(R0)

2928	A500		ADD R5, #$01
292A	C503		SZ R5
292C	A015		BRA $2944		; $16(R0)

292E	015C		MHL R1, R5
2930	C103		SZ R1
2932	A00F		BRA $2944		; $10(R0)

2934	A400		ADD R4, #$01
2936	C403		SZ R4
2938	A009		BRA $2944		; $0A(R0)

293A	014C		MHL R1, R4
293C	C103		SZ R1
293E	A003		BRA $2944		; $04(R0)

2940	A300		ADD R3, #$01
2942	C303		SZ R3
2944	AE7F		ADD R14, #$80
2946	03ED		MLH R3, R14
2948	A06F		BRA $29BA		; $70(R0)

294A	A08F		BRA $29DC		; $90(R0)

294C	21D4		MOVE R1, $1A8
294E	2FDC		MOVE R15, $1B8
2950	01F8		ADD R1, R15
2952	31D4		MOVE $1A8, R1
2954	016C		MHL R1, R6
2956	06AD		MLH R6, R10
2958	066A		ADDH R6, R6
295A	0A6C		MHL R10, R6
295C	0AAA		ADDH R10, R10
295E	0A18		ADD R10, R1
2960	06AD		MLH R6, R10
2962	0A5A		ADDH R10, R5
2964	0A98		ADD R10, R9
2966	09AC		MHL R9, R10
2968	099A		ADDH R9, R9
296A	055C		MHL R5, R5
296C	0958		ADD R9, R5
296E	0A9D		MLH R10, R9
2970	05A4		MOVE R5, R10
2972	094A		ADDH R9, R4
2974	0988		ADD R9, R8
2976	089C		MHL R8, R9
2978	088A		ADDH R8, R8
297A	044C		MHL R4, R4
297C	0848		ADD R8, R4
297E	098D		MLH R9, R8
2980	0494		MOVE R4, R9
2982	083A		ADDH R8, R3
2984	0878		ADD R8, R7
2986	8300		LBI R3, #$00
2988	0386		OR R3, R8
298A	088C		MHL R8, R8
298C	C80B		SNZ R8
298E	A029		BRA $29BA		; $2A(R0)

2990	0D3C		MHL R13, R3
2992	8E01		LBI R14, #$01
2994	0203		INC2 R2, R0
2996	20B2		JMP ($0164)

2998	B310		SET R3, #$10
299A	9D7F		CLR R13, #$7F
299C	013C		MHL R1, R3
299E	917F		CLR R1, #$7F
29A0	CD1A		SNE R13, R1
29A2	A031		BRA $29D6		; $32(R0)

29A4	013C		MHL R1, R3
29A6	A17F		ADD R1, #$80
29A8	031D		MLH R3, R1
29AA	83FF		LBI R3, #$FF
29AC	33D0		MOVE $1A0, R3
29AE	033D		MLH R3, R3
29B0	33D1		MOVE $1A2, R3
29B2	21F8		MOVE R1, $1F0
29B4	B102		SET R1, #$02
29B6	31F8		MOVE $1F0, R1
29B8	209D		JMP ($013A)

29BA	0203		INC2 R2, R0
29BC	20BA		JMP ($0174)

29BE	A015		BRA $29D6		; $16(R0)

29C0	A00D		BRA $29D0		; $0E(R0)

29C2	2350		MOVE R3, $A0
29C4	33D0		MOVE $1A0, R3
29C6	33D1		MOVE $1A2, R3
29C8	21F8		MOVE R1, $1F0
29CA	B101		SET R1, #$01
29CC	31F8		MOVE $1F0, R1
29CE	209F		JMP ($013E)

29D0	34D0		MOVE $1A0, R4
29D2	34D1		MOVE $1A2, R4
29D4	209B		JMP ($0136)

29D6	33D0		MOVE $1A0, R3
29D8	34D1		MOVE $1A2, R4
29DA	2082		JMP ($0104)

29DC	23D0		MOVE R3, $1A0
29DE	C30B		SNZ R3
29E0	A015		BRA $29F8		; $16(R0)

29E2	8101		LBI R1, #$01
29E4	CD1E		SNBC R13, R1
29E6	A017		BRA $2A00		; $18(R0)

29E8	67D0		MOVB R7, (R13)+
29EA	077D		MLH R7, R7
29EC	D1D1		MOVE R1, (R13)+
29EE	071C		MHL R7, R1
29F0	68D8		MOVB R8, (R13)
29F2	081D		MLH R8, R1
29F4	C703		SZ R7
29F6	A00F		BRA $2A08		; $10(R0)

29F8	2350		MOVE R3, $A0
29FA	33D0		MOVE $1A0, R3
29FC	33D1		MOVE $1A2, R3
29FE	209B		JMP ($0136)

2A00	D7D1		MOVE R7, (R13)+
2A02	C70B		SNZ R7
2A04	F00D		BRA $29F8		; -> -$0E(R0)

2A06	D8D8		MOVE R8, (R13)
2A08	24D1		MOVE R4, $1A2
2A0A	2550		MOVE R5, $A0
2A0C	2650		MOVE R6, $A0
2A0E	2950		MOVE R9, $A0
2A10	2A50		MOVE R10, $A0
2A12	3AD4		MOVE $1A8, R10
2A14	3ADC		MOVE $1B8, R10
2A16	0134		MOVE R1, R3
2A18	017C		MHL R1, R7
2A1A	31CF		MOVE $19E, R1
2A1C	2DAB		MOVE R13, $156
2A1E	57D1		MOVE (R13)+, R7
2A20	58D0		MOVE (R13)', R8
2A22	3DCE		MOVE $19C, R13
2A24	2D50		MOVE R13, $A0
2A26	812B		LBI R1, #$2B
2A28	011D		MLH R1, R1
2A2A	81B6		LBI R1, #$B6
2A2C	31CA		MOVE $194, R1
2A2E	812B		LBI R1, #$2B
2A30	011D		MLH R1, R1
2A32	81E2		LBI R1, #$E2
2A34	31CB		MOVE $196, R1
2A36	2EAA		MOVE R14, $154
2A38	0544		MOVE R5, R4
2A3A	036D		MLH R3, R6
2A3C	53E1		MOVE (R14)+, R3
2A3E	55E8		MOVE (R14), R5
2A40	043D		MLH R4, R3
2A42	045C		MHL R4, R5
2A44	065D		MLH R6, R5
2A46	8E3A		LBI R14, #$3A
2A48	8F07		LBI R15, #$07
2A4A	E06C		SHR R6
2A4C	054D		MLH R5, R4
2A4E	E05C		SHR R5
2A50	065D		MLH R6, R5
2A52	56E5		MOVE (R14)-, R6
2A54	E04C		SHR R4
2A56	E03C		SHR R3
2A58	043D		MLH R4, R3
2A5A	54E5		MOVE (R14)-, R4
2A5C	FE03		SUB R14, #$04
2A5E	FF00		SUB R15, #$01
2A60	CF03		SZ R15
2A62	F019		BRA $2A4A		; -> -$1A(R0)

2A64	2350		MOVE R3, $A0
2A66	2450		MOVE R4, $A0
2A68	2550		MOVE R5, $A0
2A6A	2650		MOVE R6, $A0
2A6C	2F50		MOVE R15, $A0
2A6E	2CCE		MOVE R12, $19C
2A70	61C8		MOVB R1, (R12)
2A72	0F1A		ADDH R15, R1
2A74	8E00		LBI R14, #$00
2A76	01F4		MOVE R1, R15
2A78	91F0		CLR R1, #$F0
2A7A	0118		ADD R1, R1
2A7C	0018		ADD R0, R1
2A7E	A08D		BRA $2B0E		; $8E(R0)

2A80	A01B		BRA $2A9E		; $1C(R0)

2A82	A023		BRA $2AA8		; $24(R0)

2A84	A01D		BRA $2AA4		; $1E(R0)

2A86	A035		BRA $2ABE		; $36(R0)

2A88	A02F		BRA $2ABA		; $30(R0)

2A8A	A023		BRA $2AB0		; $24(R0)

2A8C	A037		BRA $2AC6		; $38(R0)

2A8E	A047		BRA $2AD8		; $48(R0)

2A90	A039		BRA $2ACC		; $3A(R0)

2A92	A03D		BRA $2AD2		; $3E(R0)

2A94	A049		BRA $2AE0		; $4A(R0)

2A96	A051		BRA $2AEA		; $52(R0)

2A98	A04B		BRA $2AE6		; $4C(R0)

2A9A	A055		BRA $2AF2		; $56(R0)

2A9C	A05B		BRA $2AFA		; $5C(R0)

2A9E	0203		INC2 R2, R0
2AA0	20CA		JMP ($0194)

2AA2	A069		BRA $2B0E		; $6A(R0)

2AA4	0203		INC2 R2, R0
2AA6	20CA		JMP ($0194)

2AA8	BE08		SET R14, #$08
2AAA	0203		INC2 R2, R0
2AAC	20CA		JMP ($0194)

2AAE	A05D		BRA $2B0E		; $5E(R0)

2AB0	BE08		SET R14, #$08
2AB2	0203		INC2 R2, R0
2AB4	20CA		JMP ($0194)

2AB6	9E08		CLR R14, #$08
2AB8	A003		BRA $2ABE		; $04(R0)

2ABA	0203		INC2 R2, R0
2ABC	20CA		JMP ($0194)

2ABE	BE10		SET R14, #$10
2AC0	0203		INC2 R2, R0
2AC2	20CA		JMP ($0194)

2AC4	A047		BRA $2B0E		; $48(R0)

2AC6	0203		INC2 R2, R0
2AC8	20CB		JMP ($0196)

2ACA	A00B		BRA $2AD8		; $0C(R0)

2ACC	0203		INC2 R2, R0
2ACE	20CA		JMP ($0194)

2AD0	A005		BRA $2AD8		; $06(R0)

2AD2	BE08		SET R14, #$08
2AD4	0203		INC2 R2, R0
2AD6	20CA		JMP ($0194)

2AD8	BE18		SET R14, #$18
2ADA	0203		INC2 R2, R0
2ADC	20CA		JMP ($0194)

2ADE	A02D		BRA $2B0E		; $2E(R0)

2AE0	0203		INC2 R2, R0
2AE2	20CB		JMP ($0196)

2AE4	A003		BRA $2AEA		; $04(R0)

2AE6	0203		INC2 R2, R0
2AE8	20CA		JMP ($0194)

2AEA	BE10		SET R14, #$10
2AEC	0203		INC2 R2, R0
2AEE	20CB		JMP ($0196)

2AF0	A00B		BRA $2AFE		; $0C(R0)

2AF2	BE08		SET R14, #$08
2AF4	0203		INC2 R2, R0
2AF6	20CB		JMP ($0196)

2AF8	A003		BRA $2AFE		; $04(R0)

2AFA	0203		INC2 R2, R0
2AFC	20CB		JMP ($0196)

2AFE	8120		LBI R1, #$20
2B00	CE16		SBC R14, R1
2B02	A003		BRA $2B08		; $04(R0)

2B04	AF0F		ADD R15, #$10
2B06	A00B		BRA $2B14		; $0C(R0)

2B08	AF7F		ADD R15, #$80
2B0A	AF7F		ADD R15, #$80
2B0C	A00F		BRA $2B1E		; $10(R0)

2B0E	8120		LBI R1, #$20
2B10	CE16		SBC R14, R1
2B12	A009		BRA $2B1E		; $0A(R0)

2B14	8E20		LBI R14, #$20
2B16	9F0F		CLR R15, #$0F
2B18	E0FE		ROR3 R15
2B1A	01F4		MOVE R1, R15
2B1C	F0A1		BRA $2A7C		; -> -$A2(R0)

2B1E	2CCE		MOVE R12, $19C
2B20	76C4		MOVB (R12)-, R6
2B22	3CCE		MOVE $19C, R12
2B24	066C		MHL R6, R6
2B26	065D		MLH R6, R5
2B28	055C		MHL R5, R5
2B2A	054D		MLH R5, R4
2B2C	044C		MHL R4, R4
2B2E	043D		MLH R4, R3
2B30	033C		MHL R3, R3
2B32	03DD		MLH R3, R13
2B34	8107		LBI R1, #$07
2B36	CC16		SBC R12, R1
2B38	F0C9		BRA $2A70		; -> -$CA(R0)

2B3A	0FFC		MHL R15, R15
2B3C	CF0B		SNZ R15
2B3E	A005		BRA $2B46		; $06(R0)

2B40	8E00		LBI R14, #$00
2B42	0203		INC2 R2, R0
2B44	20CA		JMP ($0194)

2B46	2DCE		MOVE R13, $19C
2B48	21CF		MOVE R1, $19E
2B4A	071C		MHL R7, R1
2B4C	0717		XOR R7, R1
2B4E	977F		CLR R7, #$7F
2B50	21CF		MOVE R1, $19E
2B52	9180		CLR R1, #$80
2B54	2850		MOVE R8, $A0
2B56	081C		MHL R8, R1
2B58	9880		CLR R8, #$80
2B5A	0818		ADD R8, R1
2B5C	F83F		SUB R8, #$40
2B5E	8100		LBI R1, #$00
2B60	031D		MLH R3, R1
2B62	0203		INC2 R2, R0
2B64	20BA		JMP ($0174)

2B66	A00B		BRA $2B74		; $0C(R0)

2B68	0000		HALT
2B6A	F800		SUB R8, #$01
2B6C	D1D8		MOVE R1, (R13)
2B6E	910F		CLR R1, #$0F
2B70	E01F		SWAP R1
2B72	0616		OR R6, R1
2B74	81FF		LBI R1, #$FF
2B76	C817		SBSH R8, R1
2B78	A00D		BRA $2B88		; $0E(R0)

2B7A	2350		MOVE R3, $A0
2B7C	33D0		MOVE $1A0, R3
2B7E	33D1		MOVE $1A2, R3
2B80	21F8		MOVE R1, $1F0
2B82	B101		SET R1, #$01
2B84	31F8		MOVE $1F0, R1
2B86	209B		JMP ($0136)

2B88	8180		LBI R1, #$80
2B8A	C81E		SNBC R8, R1
2B8C	A015		BRA $2BA4		; $16(R0)

2B8E	21F8		MOVE R1, $1F0
2B90	B102		SET R1, #$02
2B92	31F8		MOVE $1F0, R1
2B94	887F		LBI R8, #$7F
2B96	0876		OR R8, R7
2B98	038D		MLH R3, R8
2B9A	83FF		LBI R3, #$FF
2B9C	33D0		MOVE $1A0, R3
2B9E	033D		MLH R3, R3
2BA0	33D1		MOVE $1A2, R3
2BA2	209D		JMP ($013A)

2BA4	9880		CLR R8, #$80
2BA6	0876		OR R8, R7
2BA8	038D		MLH R3, R8
2BAA	33D0		MOVE $1A0, R3
2BAC	34D1		MOVE $1A2, R4
2BAE	8180		LBI R1, #$80
2BB0	C81E		SNBC R8, R1
2BB2	209F		JMP ($013E)

2BB4	209D		JMP ($013A)

2BB6	D7E1		MOVE R7, (R14)+
2BB8	D8E5		MOVE R8, (R14)-
2BBA	2950		MOVE R9, $A0
2BBC	094A		ADDH R9, R4
2BBE	0988		ADD R9, R8
2BC0	089C		MHL R8, R9
2BC2	088A		ADDH R8, R8
2BC4	044C		MHL R4, R4
2BC6	0848		ADD R8, R4
2BC8	098D		MLH R9, R8
2BCA	0494		MOVE R4, R9
2BCC	083A		ADDH R8, R3
2BCE	0878		ADD R8, R7
2BD0	078C		MHL R7, R8
2BD2	077A		ADDH R7, R7
2BD4	033C		MHL R3, R3
2BD6	0738		ADD R7, R3
2BD8	087D		MLH R8, R7
2BDA	0384		MOVE R3, R8
2BDC	077C		MHL R7, R7
2BDE	0D78		ADD R13, R7
2BE0	0024		RET R2

2BE2	D7E1		MOVE R7, (R14)+
2BE4	D8E5		MOVE R8, (R14)-
2BE6	2C50		MOVE R12, $A0
2BE8	0C46		OR R12, R4
2BEA	8BFF		LBI R11, #$FF
2BEC	0C89		SUB R12, R8
2BEE	8400		LBI R4, #$00
2BF0	04C6		OR R4, R12
2BF2	0C4C		MHL R12, R4
2BF4	CCBF		SNBSH R12, R11
2BF6	0CCB		ADDH2 R12, R12
2BF8	088C		MHL R8, R8
2BFA	0C89		SUB R12, R8
2BFC	04CD		MLH R4, R12
2BFE	8C00		LBI R12, #$00
2C00	0C36		OR R12, R3
2C02	CCBF		SNBSH R12, R11
2C04	0CCB		ADDH2 R12, R12
2C06	0C79		SUB R12, R7
2C08	8300		LBI R3, #$00
2C0A	03C6		OR R3, R12
2C0C	0C3C		MHL R12, R3
2C0E	CCBF		SNBSH R12, R11
2C10	0CCB		ADDH2 R12, R12
2C12	077C		MHL R7, R7
2C14	0C79		SUB R12, R7
2C16	03CD		MLH R3, R12
2C18	0CCC		MHL R12, R12
2C1A	0DC8		ADD R13, R12
2C1C	0024		RET R2

2C1E	23D0		MOVE R3, $1A0
2C20	C30B		SNZ R3
2C22	A02D		BRA $2C52		; $2E(R0)

2C24	8101		LBI R1, #$01
2C26	CD1E		SNBC R13, R1
2C28	A02F		BRA $2C5A		; $30(R0)

2C2A	67D0		MOVB R7, (R13)+
2C2C	077D		MLH R7, R7
2C2E	D1D1		MOVE R1, (R13)+
2C30	071C		MHL R7, R1
2C32	68D8		MOVB R8, (R13)
2C34	081D		MLH R8, R1
2C36	C703		SZ R7
2C38	A027		BRA $2C62		; $28(R0)

2C3A	817F		LBI R1, #$7F
2C3C	033C		MHL R3, R3
2C3E	0316		OR R3, R1
2C40	033D		MLH R3, R3
2C42	83FF		LBI R3, #$FF
2C44	33D0		MOVE $1A0, R3
2C46	033D		MLH R3, R3
2C48	33D1		MOVE $1A2, R3
2C4A	21F8		MOVE R1, $1F0
2C4C	B102		SET R1, #$02
2C4E	31F8		MOVE $1F0, R1
2C50	209D		JMP ($013A)

2C52	2350		MOVE R3, $A0
2C54	33D0		MOVE $1A0, R3
2C56	33D1		MOVE $1A2, R3
2C58	209B		JMP ($0136)

2C5A	D7D1		MOVE R7, (R13)+
2C5C	C70B		SNZ R7
2C5E	F025		BRA $2C3A		; -> -$26(R0)

2C60	D8D8		MOVE R8, (R13)
2C62	2950		MOVE R9, $A0
2C64	2A50		MOVE R10, $A0
2C66	3AD4		MOVE $1A8, R10
2C68	3ADC		MOVE $1B8, R10
2C6A	0134		MOVE R1, R3
2C6C	017C		MHL R1, R7
2C6E	31F9		MOVE $1F2, R1
2C70	2EAA		MOVE R14, $154
2C72	0984		MOVE R9, R8
2C74	07AD		MLH R7, R10
2C76	57E1		MOVE (R14)+, R7
2C78	59E8		MOVE (R14), R9
2C7A	087D		MLH R8, R7
2C7C	089C		MHL R8, R9
2C7E	0A9D		MLH R10, R9
2C80	8E3A		LBI R14, #$3A
2C82	8F07		LBI R15, #$07
2C84	E0AC		SHR R10
2C86	098D		MLH R9, R8
2C88	E09C		SHR R9
2C8A	0A9D		MLH R10, R9
2C8C	5AE5		MOVE (R14)-, R10
2C8E	E08C		SHR R8
2C90	E07C		SHR R7
2C92	087D		MLH R8, R7
2C94	58E5		MOVE (R14)-, R8
2C96	FE03		SUB R14, #$04
2C98	FF00		SUB R15, #$01
2C9A	CF03		SZ R15
2C9C	F019		BRA $2C84		; -> -$1A(R0)

2C9E	8F08		LBI R15, #$08
2CA0	2DAB		MOVE R13, $156
2CA2	AD05		ADD R13, #$06
2CA4	23D0		MOVE R3, $1A0
2CA6	24D1		MOVE R4, $1A2
2CA8	2550		MOVE R5, $A0
2CAA	2650		MOVE R6, $A0
2CAC	036D		MLH R3, R6
2CAE	56D5		MOVE (R13)-, R6
2CB0	56D5		MOVE (R13)-, R6
2CB2	56D5		MOVE (R13)-, R6
2CB4	56D8		MOVE (R13), R6
2CB6	8E18		LBI R14, #$18
2CB8	0FFD		MLH R15, R15
2CBA	8F08		LBI R15, #$08
2CBC	073C		MHL R7, R3
2CBE	6CE8		MOVB R12, (R14)
2CC0	CC70		SLE R12, R7
2CC2	A065		BRA $2D2A		; $66(R0)

2CC4	CC72		SE R12, R7
2CC6	A023		BRA $2CEC		; $24(R0)

2CC8	AE00		ADD R14, #$01
2CCA	6CE0		MOVB R12, (R14)+
2CCC	CC30		SLE R12, R3
2CCE	A057		BRA $2D28		; $58(R0)

2CD0	CC32		SE R12, R3
2CD2	A015		BRA $2CEA		; $16(R0)

2CD4	084C		MHL R8, R4
2CD6	6CE0		MOVB R12, (R14)+
2CD8	CC80		SLE R12, R8
2CDA	A04B		BRA $2D28		; $4C(R0)

2CDC	CC82		SE R12, R8
2CDE	A009		BRA $2CEA		; $0A(R0)

2CE0	6CE0		MOVB R12, (R14)+
2CE2	CC40		SLE R12, R4
2CE4	A041		BRA $2D28		; $42(R0)

2CE6	CC42		SE R12, R4
2CE8	A0FF		BRA $2DEA		; $100(R0)

2CEA	9E07		CLR R14, #$07
2CEC	61D8		MOVB R1, (R13)
2CEE	01F6		OR R1, R15
2CF0	71D8		MOVB (R13), R1
2CF2	D7E1		MOVE R7, (R14)+
2CF4	D8E8		MOVE R8, (R14)
2CF6	8BFF		LBI R11, #$FF
2CF8	2C50		MOVE R12, $A0
2CFA	0C46		OR R12, R4
2CFC	0C89		SUB R12, R8
2CFE	8400		LBI R4, #$00
2D00	04C6		OR R4, R12
2D02	0C4C		MHL R12, R4
2D04	CCBF		SNBSH R12, R11
2D06	0CCB		ADDH2 R12, R12
2D08	088C		MHL R8, R8
2D0A	0C89		SUB R12, R8
2D0C	04CD		MLH R4, R12
2D0E	8C00		LBI R12, #$00
2D10	0C36		OR R12, R3
2D12	CCBF		SNBSH R12, R11
2D14	0CCB		ADDH2 R12, R12
2D16	0C79		SUB R12, R7
2D18	8300		LBI R3, #$00
2D1A	03C6		OR R3, R12
2D1C	0C3C		MHL R12, R3
2D1E	CCBF		SNBSH R12, R11
2D20	0CCB		ADDH2 R12, R12
2D22	077C		MHL R7, R7
2D24	0C79		SUB R12, R7
2D26	03CD		MLH R3, R12
2D28	9E07		CLR R14, #$07
2D2A	E0FC		SHR R15
2D2C	CF0B		SNZ R15
2D2E	A003		BRA $2D34		; $04(R0)

2D30	FE07		SUB R14, #$08
2D32	F077		BRA $2CBC		; -> -$78(R0)

2D34	0FFC		MHL R15, R15
2D36	FF01		SUB R15, #$02
2D38	CF0B		SNZ R15
2D3A	A019		BRA $2D56		; $1A(R0)

2D3C	0FFD		MLH R15, R15
2D3E	8F80		LBI R15, #$80
2D40	033D		MLH R3, R3
2D42	034C		MHL R3, R4
2D44	044D		MLH R4, R4
2D46	045C		MHL R4, R5
2D48	055D		MLH R5, R5
2D4A	056C		MHL R5, R6
2D4C	066D		MLH R6, R6
2D4E	8600		LBI R6, #$00
2D50	AD00		ADD R13, #$01
2D52	8E38		LBI R14, #$38
2D54	F023		BRA $2D32		; -> -$24(R0)

2D56	21F9		MOVE R1, $1F2
2D58	091C		MHL R9, R1
2D5A	0917		XOR R9, R1
2D5C	997F		CLR R9, #$7F
2D5E	9180		CLR R1, #$80
2D60	2A50		MOVE R10, $A0
2D62	0A1C		MHL R10, R1
2D64	9A80		CLR R10, #$80
2D66	0A19		SUB R10, R1
2D68	AA3F		ADD R10, #$40
2D6A	2DAB		MOVE R13, $156
2D6C	61D8		MOVB R1, (R13)
2D6E	C103		SZ R1
2D70	AA00		ADD R10, #$01
2D72	81FF		LBI R1, #$FF
2D74	CA17		SBSH R10, R1
2D76	A00D		BRA $2D86		; $0E(R0)

2D78	2350		MOVE R3, $A0
2D7A	33D0		MOVE $1A0, R3
2D7C	33D1		MOVE $1A2, R3
2D7E	21F8		MOVE R1, $1F0
2D80	B101		SET R1, #$01
2D82	31F8		MOVE $1F0, R1
2D84	209F		JMP ($013E)

2D86	8180		LBI R1, #$80
2D88	CA1E		SNBC R10, R1
2D8A	A015		BRA $2DA2		; $16(R0)

2D8C	21F8		MOVE R1, $1F0
2D8E	B102		SET R1, #$02
2D90	31F8		MOVE $1F0, R1
2D92	837F		LBI R3, #$7F
2D94	0396		OR R3, R9
2D96	033D		MLH R3, R3
2D98	83FF		LBI R3, #$FF
2D9A	33D0		MOVE $1A0, R3
2D9C	033D		MLH R3, R3
2D9E	33D1		MOVE $1A2, R3
2DA0	209D		JMP ($013A)

2DA2	61D8		MOVB R1, (R13)
2DA4	C103		SZ R1
2DA6	A005		BRA $2DAE		; $06(R0)

2DA8	D3D1		MOVE R3, (R13)+
2DAA	D4D1		MOVE R4, (R13)+
2DAC	A01B		BRA $2DCA		; $1C(R0)

2DAE	D7D1		MOVE R7, (R13)+
2DB0	037C		MHL R3, R7
2DB2	047D		MLH R4, R7
2DB4	D7D1		MOVE R7, (R13)+
2DB6	047C		MHL R4, R7
2DB8	2550		MOVE R5, $A0
2DBA	2650		MOVE R6, $A0
2DBC	0203		INC2 R2, R0
2DBE	20BA		JMP ($0174)

2DC0	A001		BRA $2DC4		; $02(R0)

2DC2	0004		NOP
2DC4	970F		CLR R7, #$0F
2DC6	E07F		SWAP R7
2DC8	0676		OR R6, R7
2DCA	9A80		CLR R10, #$80
2DCC	0A96		OR R10, R9
2DCE	03AD		MLH R3, R10
2DD0	33D0		MOVE $1A0, R3
2DD2	34D1		MOVE $1A2, R4
2DD4	209B		JMP ($0136)

2DD6	0000		HALT
2DD8	0000		HALT
2DDA	0000		HALT
2DDC	0000		HALT
2DDE	0000		HALT
2DE0	0000		HALT
2DE2	0000		HALT
2DE4	0000		HALT
2DE6	0000		HALT
2DE8	0000		HALT
2DEA	0000		HALT
2DEC	0000		HALT
2DEE	0000		HALT
2DF0	0000		HALT
2DF2	0000		HALT
2DF4	0000		HALT
2DF6	0000		HALT
2DF8	0000		HALT
2DFA	0000		HALT
2DFC	0000		HALT
2DFE	0000		HALT
2E00	0000		HALT
2E02	0000		HALT
2E04	0000		HALT
2E06	0000		HALT
2E08	0000		HALT
2E0A	0000		HALT
2E0C	0000		HALT
2E0E	0000		HALT
2E10	0000		HALT
2E12	0000		HALT
2E14	0000		HALT
2E16	0000		HALT
2E18	0000		HALT
2E1A	0000		HALT
2E1C	0000		HALT
2E1E	0000		HALT
2E20	0000		HALT
2E22	0000		HALT
2E24	0000		HALT
2E26	0000		HALT
2E28	0000		HALT
2E2A	0000		HALT
2E2C	0000		HALT
2E2E	0000		HALT
2E30	0000		HALT
2E32	0000		HALT
2E34	0000		HALT
2E36	0000		HALT
2E38	0000		HALT
2E3A	0000		HALT
2E3C	0000		HALT
2E3E	0000		HALT
2E40	0000		HALT
2E42	0000		HALT
2E44	0000		HALT
2E46	0000		HALT
2E48	0000		HALT
2E4A	0000		HALT
2E4C	0000		HALT
2E4E	0000		HALT
2E50	0000		HALT
2E52	0000		HALT
2E54	0000		HALT
2E56	0000		HALT
2E58	0000		HALT
2E5A	0000		HALT
2E5C	0000		HALT
2E5E	0000		HALT
2E60	0000		HALT
2E62	0000		HALT
2E64	0000		HALT
2E66	0000		HALT
2E68	0000		HALT
2E6A	0000		HALT
2E6C	0000		HALT
2E6E	0000		HALT
2E70	0000		HALT
2E72	0000		HALT
2E74	0000		HALT
2E76	0000		HALT
2E78	0000		HALT
2E7A	0000		HALT
2E7C	0000		HALT
2E7E	0000		HALT
2E80	0000		HALT
2E82	0000		HALT
2E84	0000		HALT
2E86	0000		HALT
2E88	0000		HALT
2E8A	0000		HALT
2E8C	0000		HALT
2E8E	0000		HALT
2E90	0000		HALT
2E92	0000		HALT
2E94	0000		HALT
2E96	0000		HALT
2E98	0000		HALT
2E9A	0000		HALT
2E9C	0000		HALT
2E9E	0000		HALT
2EA0	0000		HALT
2EA2	0000		HALT
2EA4	0000		HALT
2EA6	0000		HALT
2EA8	0000		HALT
2EAA	0000		HALT
2EAC	0000		HALT
2EAE	0000		HALT
2EB0	0000		HALT
2EB2	0000		HALT
2EB4	0000		HALT
2EB6	0000		HALT
2EB8	0000		HALT
2EBA	0000		HALT
2EBC	0000		HALT
2EBE	0000		HALT
2EC0	0000		HALT
2EC2	0000		HALT
2EC4	0000		HALT
2EC6	0000		HALT
2EC8	0000		HALT
2ECA	0000		HALT
2ECC	0000		HALT
2ECE	0000		HALT
2ED0	0000		HALT
2ED2	0000		HALT
2ED4	0000		HALT
2ED6	0000		HALT
2ED8	0000		HALT
2EDA	0000		HALT
2EDC	0000		HALT
2EDE	0000		HALT
2EE0	0000		HALT
2EE2	0000		HALT
2EE4	0000		HALT
2EE6	0000		HALT
2EE8	0000		HALT
2EEA	0000		HALT
2EEC	0000		HALT
2EEE	0000		HALT
2EF0	0000		HALT
2EF2	0000		HALT
2EF4	0000		HALT
2EF6	0000		HALT
2EF8	0000		HALT
2EFA	0000		HALT
2EFC	0000		HALT
2EFE	0000		HALT
2F00	0000		HALT
2F02	0000		HALT
2F04	0000		HALT
2F06	0000		HALT
2F08	0000		HALT
2F0A	0000		HALT
2F0C	0000		HALT
2F0E	0000		HALT
2F10	0000		HALT
2F12	0000		HALT
2F14	0000		HALT
2F16	0000		HALT
2F18	0000		HALT
2F1A	0000		HALT
2F1C	0000		HALT
2F1E	0000		HALT
2F20	0000		HALT
2F22	0000		HALT
2F24	0000		HALT
2F26	0000		HALT
2F28	0000		HALT
2F2A	0000		HALT
2F2C	0000		HALT
2F2E	0000		HALT
2F30	0000		HALT
2F32	0000		HALT
2F34	0000		HALT
2F36	0000		HALT
2F38	0000		HALT
2F3A	0000		HALT
2F3C	0000		HALT
2F3E	0000		HALT
2F40	0000		HALT
2F42	0000		HALT
2F44	0000		HALT
2F46	0000		HALT
2F48	0000		HALT
2F4A	0000		HALT
2F4C	0000		HALT
2F4E	0000		HALT
2F50	0000		HALT
2F52	0000		HALT
2F54	0000		HALT
2F56	0000		HALT
2F58	0000		HALT
2F5A	0000		HALT
2F5C	0000		HALT
2F5E	0000		HALT
2F60	0000		HALT
2F62	0000		HALT
2F64	0000		HALT
2F66	0000		HALT
2F68	0000		HALT
2F6A	0000		HALT
2F6C	0000		HALT
2F6E	0000		HALT
2F70	0000		HALT
2F72	0000		HALT
2F74	0000		HALT
2F76	0000		HALT
2F78	0000		HALT
2F7A	0000		HALT
2F7C	0000		HALT
2F7E	0000		HALT
2F80	0000		HALT
2F82	0000		HALT
2F84	0000		HALT
2F86	0000		HALT
2F88	0000		HALT
2F8A	0000		HALT
2F8C	0000		HALT
2F8E	0000		HALT
2F90	0000		HALT
2F92	0000		HALT
2F94	0000		HALT
2F96	0000		HALT
2F98	0000		HALT
2F9A	0000		HALT
2F9C	0000		HALT
2F9E	0000		HALT
2FA0	0000		HALT
2FA2	0000		HALT
2FA4	0000		HALT
2FA6	0000		HALT
2FA8	0000		HALT
2FAA	0000		HALT
2FAC	0000		HALT
2FAE	0000		HALT
2FB0	0000		HALT
2FB2	0000		HALT
2FB4	0000		HALT
2FB6	0000		HALT
2FB8	0000		HALT
2FBA	0000		HALT
2FBC	0000		HALT
2FBE	0000		HALT
2FC0	0000		HALT
2FC2	0000		HALT
2FC4	0000		HALT
2FC6	0000		HALT
2FC8	0000		HALT
2FCA	0000		HALT
2FCC	0000		HALT
2FCE	0000		HALT
2FD0	0000		HALT
2FD2	0000		HALT
2FD4	0000		HALT
2FD6	0000		HALT
2FD8	0000		HALT
2FDA	0000		HALT
2FDC	0000		HALT
2FDE	0000		HALT
2FE0	0000		HALT
2FE2	0000		HALT
2FE4	0000		HALT
2FE6	0000		HALT
2FE8	0000		HALT
2FEA	0000		HALT
2FEC	0000		HALT
2FEE	0000		HALT
2FF0	0000		HALT
2FF2	0000		HALT
2FF4	0000		HALT
2FF6	0000		HALT
2FF8	0000		HALT
2FFA	0000		HALT
2FFC	0000		HALT
2FFE	0000		HALT
3000	25D0		MOVE R5, $1A0
3002	035C		MHL R3, R5
3004	937F		CLR R3, #$7F
3006	67D0		MOVB R7, (R13)+
3008	0874		MOVE R8, R7
300A	987F		CLR R8, #$7F
300C	C38A		SNE R3, R8
300E	A005		BRA $3016		; $06(R0)

3010	C303		SZ R3
3012	209F		JMP ($013E)

3014	209D		JMP ($013A)

3016	045C		MHL R4, R5
3018	C47A		SNE R4, R7
301A	A00F		BRA $302C		; $10(R0)

301C	C303		SZ R3
301E	A005		BRA $3026		; $06(R0)

3020	C478		SGT R4, R7
3022	209F		JMP ($013E)

3024	209D		JMP ($013A)

3026	C471		SLT R4, R7
3028	209F		JMP ($013E)

302A	209D		JMP ($013A)

302C	69D0		MOVB R9, (R13)+
302E	C592		SE R5, R9
3030	A033		BRA $3066		; $34(R0)

3032	25D1		MOVE R5, $1A2
3034	065C		MHL R6, R5
3036	69D0		MOVB R9, (R13)+
3038	C692		SE R6, R9
303A	A027		BRA $3064		; $28(R0)

303C	69D0		MOVB R9, (R13)+
303E	C592		SE R5, R9
3040	A023		BRA $3066		; $24(R0)

3042	25D2		MOVE R5, $1A4
3044	065C		MHL R6, R5
3046	69D0		MOVB R9, (R13)+
3048	C692		SE R6, R9
304A	A017		BRA $3064		; $18(R0)

304C	69D0		MOVB R9, (R13)+
304E	C592		SE R5, R9
3050	A013		BRA $3066		; $14(R0)

3052	25D3		MOVE R5, $1A6
3054	065C		MHL R6, R5
3056	69D0		MOVB R9, (R13)+
3058	C692		SE R6, R9
305A	A007		BRA $3064		; $08(R0)

305C	69D8		MOVB R9, (R13)
305E	C592		SE R5, R9
3060	A003		BRA $3066		; $04(R0)

3062	209B		JMP ($0136)

3064	0564		MOVE R5, R6
3066	C303		SZ R3
3068	A005		BRA $3070		; $06(R0)

306A	C598		SGT R5, R9
306C	209F		JMP ($013E)

306E	209D		JMP ($013A)

3070	C591		SLT R5, R9
3072	209F		JMP ($013E)

3074	209D		JMP ($013A)

3076	F077		BRA $3000		; -> -$78(R0)

3078	8101		LBI R1, #$01
307A	CD16		SBC R13, R1
307C	A009		BRA $3088		; $0A(R0)

307E	D3D1		MOVE R3, (R13)+
3080	D4D1		MOVE R4, (R13)+
3082	D5D1		MOVE R5, (R13)+
3084	D6D8		MOVE R6, (R13)
3086	A017		BRA $30A0		; $18(R0)

3088	63D0		MOVB R3, (R13)+
308A	033D		MLH R3, R3
308C	D1D1		MOVE R1, (R13)+
308E	031C		MHL R3, R1
3090	041D		MLH R4, R1
3092	D1D1		MOVE R1, (R13)+
3094	041C		MHL R4, R1
3096	051D		MLH R5, R1
3098	D1D1		MOVE R1, (R13)+
309A	051C		MHL R5, R1
309C	66D8		MOVB R6, (R13)
309E	061D		MLH R6, R1
30A0	33D0		MOVE $1A0, R3
30A2	34D1		MOVE $1A2, R4
30A4	35D2		MOVE $1A4, R5
30A6	36D3		MOVE $1A6, R6
30A8	2082		JMP ($0104)

30AA	23D0		MOVE R3, $1A0
30AC	24D1		MOVE R4, $1A2
30AE	25D2		MOVE R5, $1A4
30B0	26D3		MOVE R6, $1A6
30B2	8101		LBI R1, #$01
30B4	CD16		SBC R13, R1
30B6	A009		BRA $30C2		; $0A(R0)

30B8	53D1		MOVE (R13)+, R3
30BA	54D1		MOVE (R13)+, R4
30BC	55D1		MOVE (R13)+, R5
30BE	56D8		MOVE (R13), R6
30C0	2082		JMP ($0104)

30C2	0164		MOVE R1, R6
30C4	066C		MHL R6, R6
30C6	065D		MLH R6, R5
30C8	055C		MHL R5, R5
30CA	054D		MLH R5, R4
30CC	044C		MHL R4, R4
30CE	043D		MLH R4, R3
30D0	033C		MHL R3, R3
30D2	73D0		MOVB (R13)+, R3
30D4	54D1		MOVE (R13)+, R4
30D6	55D1		MOVE (R13)+, R5
30D8	56D1		MOVE (R13)+, R6
30DA	71D8		MOVB (R13), R1
30DC	2082		JMP ($0104)

30DE	2350		MOVE R3, $A0
30E0	33D0		MOVE $1A0, R3
30E2	33D1		MOVE $1A2, R3
30E4	33D2		MOVE $1A4, R3
30E6	33D3		MOVE $1A6, R3
30E8	2082		JMP ($0104)

30EA	27F8		MOVE R7, $1F0
30EC	C70B		SNZ R7
30EE	2082		JMP ($0104)

30F0	2150		MOVE R1, $A0
30F2	31F8		MOVE $1F0, R1
30F4	239A		MOVE R3, $134
30F6	4130		PUTB $1, (R3)+
30F8	4138		PUTB $1, (R3)
30FA	9702		CLR R7, #$02
30FC	C70B		SNZ R7
30FE	209D		JMP ($013A)

3100	209F		JMP ($013E)

3102	015E		GETB R5, $1
3104	2D88		MOVE R13, $110
3106	0D58		ADD R13, R5
3108	A00F		BRA $311A		; $10(R0)

310A	015E		GETB R5, $1
310C	2D90		MOVE R13, $120
310E	0D58		ADD R13, R5
3110	A007		BRA $311A		; $08(R0)

3112	015E		GETB R5, $1
3114	0D5D		MLH R13, R5
3116	0004		NOP
3118	01DE		GETB R13, $1
311A	00E8		ADD R0, R14
311C	A0E3		BRA $3202		; $E4(R0)

311E	A0DF		BRA $3200		; $E0(R0)

3120	2082		JMP ($0104)

3122	F0AD		BRA $3076		; -> -$AE(R0)

3124	F0AD		BRA $3078		; -> -$AE(R0)

3126	A089		BRA $31B2		; $8A(R0)

3128	F07F		BRA $30AA		; -> -$80(R0)

312A	F04D		BRA $30DE		; -> -$4E(R0)

312C	F043		BRA $30EA		; -> -$44(R0)

312E	A031		BRA $3162		; $32(R0)

3130	A053		BRA $3186		; $54(R0)

3132	8136		LBI R1, #$36
3134	011D		MLH R1, R1
3136	81B4		LBI R1, #$B4
3138	0014		RET R1

313A	8119		LBI R1, #$19
313C	011D		MLH R1, R1
313E	8198		LBI R1, #$98
3140	0014		RET R1

3142	8118		LBI R1, #$18
3144	011D		MLH R1, R1
3146	810E		LBI R1, #$0E
3148	0014		RET R1

314A	811B		LBI R1, #$1B
314C	011D		MLH R1, R1
314E	8128		LBI R1, #$28
3150	0014		RET R1

3152	810B		LBI R1, #$0B
3154	011D		MLH R1, R1
3156	8144		LBI R1, #$44
3158	0014		RET R1

315A	810E		LBI R1, #$0E
315C	011D		MLH R1, R1
315E	812E		LBI R1, #$2E
3160	0014		RET R1

3162	23D0		MOVE R3, $1A0
3164	0D3C		MHL R13, R3
3166	8E46		LBI R14, #$46
3168	CDE0		SLE R13, R14
316A	2082		JMP ($0104)

316C	0ED9		SUB R14, R13
316E	CE0B		SNZ R14
3170	2082		JMP ($0104)

3172	24D1		MOVE R4, $1A2
3174	25D2		MOVE R5, $1A4
3176	26D3		MOVE R6, $1A6
3178	0203		INC2 R2, R0
317A	20B2		JMP ($0164)

317C	33D0		MOVE $1A0, R3
317E	34D1		MOVE $1A2, R4
3180	35D2		MOVE $1A4, R5
3182	36D3		MOVE $1A6, R6
3184	2082		JMP ($0104)

3186	8327		LBI R3, #$27
3188	033D		MLH R3, R3
318A	8364		LBI R3, #$64
318C	2483		MOVE R4, $106
318E	A4D6		ADD R4, #$D7
3190	A4D6		ADD R4, #$D7
3192	5348		MOVE (R4), R3
3194	8327		LBI R3, #$27
3196	033D		MLH R3, R3
3198	836C		LBI R3, #$6C
319A	2483		MOVE R4, $106
319C	A4E6		ADD R4, #$E7
319E	A4E6		ADD R4, #$E7
31A0	5348		MOVE (R4), R3
31A2	8327		LBI R3, #$27
31A4	033D		MLH R3, R3
31A6	8374		LBI R3, #$74
31A8	2483		MOVE R4, $106
31AA	A4C6		ADD R4, #$C7
31AC	A4C6		ADD R4, #$C7
31AE	5348		MOVE (R4), R3
31B0	2082		JMP ($0104)

31B2	8100		LBI R1, #$00
31B4	31D4		MOVE $1A8, R1
31B6	8101		LBI R1, #$01
31B8	CD16		SBC R13, R1
31BA	A009		BRA $31C6		; $0A(R0)

31BC	D3D1		MOVE R3, (R13)+
31BE	D4D1		MOVE R4, (R13)+
31C0	D5D1		MOVE R5, (R13)+
31C2	D6D8		MOVE R6, (R13)
31C4	A017		BRA $31DE		; $18(R0)

31C6	63D0		MOVB R3, (R13)+
31C8	033D		MLH R3, R3
31CA	D1D1		MOVE R1, (R13)+
31CC	031C		MHL R3, R1
31CE	041D		MLH R4, R1
31D0	D1D1		MOVE R1, (R13)+
31D2	041C		MHL R4, R1
31D4	051D		MLH R5, R1
31D6	D1D1		MOVE R1, (R13)+
31D8	051C		MHL R5, R1
31DA	66D8		MOVB R6, (R13)
31DC	061D		MLH R6, R1
31DE	0203		INC2 R2, R0
31E0	20BA		JMP ($0174)

31E2	A011		BRA $31F6		; $12(R0)

31E4	A005		BRA $31EC		; $06(R0)

31E6	23F8		MOVE R3, $1F0
31E8	B301		SET R3, #$01
31EA	33F8		MOVE $1F0, R3
31EC	34D0		MOVE $1A0, R4
31EE	34D1		MOVE $1A2, R4
31F0	34D2		MOVE $1A4, R4
31F2	34D3		MOVE $1A6, R4
31F4	2082		JMP ($0104)

31F6	33D0		MOVE $1A0, R3
31F8	34D1		MOVE $1A2, R4
31FA	35D2		MOVE $1A4, R5
31FC	36D3		MOVE $1A6, R6
31FE	2082		JMP ($0104)

3200	A059		BRA $325C		; $5A(R0)

3202	8B00		LBI R11, #$00
3204	23D0		MOVE R3, $1A0
3206	24D1		MOVE R4, $1A2
3208	25D2		MOVE R5, $1A4
320A	26D3		MOVE R6, $1A6
320C	8101		LBI R1, #$01
320E	CD1E		SNBC R13, R1
3210	A019		BRA $322C		; $1A(R0)

3212	67D0		MOVB R7, (R13)+
3214	077D		MLH R7, R7
3216	D1D1		MOVE R1, (R13)+
3218	071C		MHL R7, R1
321A	081D		MLH R8, R1
321C	D1D1		MOVE R1, (R13)+
321E	081C		MHL R8, R1
3220	091D		MLH R9, R1
3222	D1D1		MOVE R1, (R13)+
3224	091C		MHL R9, R1
3226	6AD8		MOVB R10, (R13)
3228	0A1D		MLH R10, R1
322A	A007		BRA $3234		; $08(R0)

322C	D7D1		MOVE R7, (R13)+
322E	D8D1		MOVE R8, (R13)+
3230	D9D1		MOVE R9, (R13)+
3232	DAD8		MOVE R10, (R13)
3234	8100		LBI R1, #$00
3236	31D4		MOVE $1A8, R1
3238	31DC		MOVE $1B8, R1
323A	0D3C		MHL R13, R3
323C	0E7C		MHL R14, R7
323E	8F80		LBI R15, #$80
3240	CDF6		SBC R13, R15
3242	AB7F		ADD R11, #$80
3244	CEF6		SBC R14, R15
3246	AB7F		ADD R11, #$80
3248	9D80		CLR R13, #$80
324A	9E80		CLR R14, #$80
324C	CDEA		SNE R13, R14
324E	A013		BRA $3264		; $14(R0)

3250	CDE8		SGT R13, R14
3252	A009		BRA $325E		; $0A(R0)

3254	0DE9		SUB R13, R14
3256	0203		INC2 R2, R0
3258	20B3		JMP ($0166)

325A	A007		BRA $3264		; $08(R0)

325C	A0CF		BRA $332E		; $D0(R0)

325E	0ED9		SUB R14, R13
3260	0203		INC2 R2, R0
3262	20B2		JMP ($0164)

3264	CB0B		SNZ R11
3266	A0C7		BRA $3330		; $C8(R0)

3268	8FFF		LBI R15, #$FF
326A	2E50		MOVE R14, $A0
326C	0E66		OR R14, R6
326E	22D4		MOVE R2, $1A8
3270	21DC		MOVE R1, $1B8
3272	0219		SUB R2, R1
3274	81F0		LBI R1, #$F0
3276	C21D		SNBS R2, R1
3278	FE00		SUB R14, #$01
327A	92F0		CLR R2, #$F0
327C	32D4		MOVE $1A8, R2
327E	0EA9		SUB R14, R10
3280	8600		LBI R6, #$00
3282	06E6		OR R6, R14
3284	0E6C		MHL R14, R6
3286	CEFF		SNBSH R14, R15
3288	0EEB		ADDH2 R14, R14
328A	0AAC		MHL R10, R10
328C	0EA9		SUB R14, R10
328E	06ED		MLH R6, R14
3290	8E00		LBI R14, #$00
3292	0E56		OR R14, R5
3294	CEFF		SNBSH R14, R15
3296	0EEB		ADDH2 R14, R14
3298	0E99		SUB R14, R9
329A	8500		LBI R5, #$00
329C	05E6		OR R5, R14
329E	0E5C		MHL R14, R5
32A0	CEFF		SNBSH R14, R15
32A2	0EEB		ADDH2 R14, R14
32A4	099C		MHL R9, R9
32A6	0E99		SUB R14, R9
32A8	05ED		MLH R5, R14
32AA	8E00		LBI R14, #$00
32AC	0E46		OR R14, R4
32AE	CEFF		SNBSH R14, R15
32B0	0EEB		ADDH2 R14, R14
32B2	0E89		SUB R14, R8
32B4	8400		LBI R4, #$00
32B6	04E6		OR R4, R14
32B8	0E4C		MHL R14, R4
32BA	CEFF		SNBSH R14, R15
32BC	0EEB		ADDH2 R14, R14
32BE	088C		MHL R8, R8
32C0	0E89		SUB R14, R8
32C2	04ED		MLH R4, R14
32C4	8E00		LBI R14, #$00
32C6	0E36		OR R14, R3
32C8	CEFF		SNBSH R14, R15
32CA	0EEB		ADDH2 R14, R14
32CC	0E79		SUB R14, R7
32CE	8300		LBI R3, #$00
32D0	03E6		OR R3, R14
32D2	CEF7		SBSH R14, R15
32D4	A0CB		BRA $33A2		; $CC(R0)

32D6	22D4		MOVE R2, $1A8
32D8	02F7		XOR R2, R15
32DA	06F7		XOR R6, R15
32DC	0E6C		MHL R14, R6
32DE	0EF7		XOR R14, R15
32E0	06ED		MLH R6, R14
32E2	05F7		XOR R5, R15
32E4	0E5C		MHL R14, R5
32E6	0EF7		XOR R14, R15
32E8	05ED		MLH R5, R14
32EA	04F7		XOR R4, R15
32EC	0E4C		MHL R14, R4
32EE	0EF7		XOR R14, R15
32F0	04ED		MLH R4, R14
32F2	03F7		XOR R3, R15
32F4	0E3C		MHL R14, R3
32F6	A200		ADD R2, #$01
32F8	92F0		CLR R2, #$F0
32FA	32D4		MOVE $1A8, R2
32FC	C203		SZ R2
32FE	A027		BRA $3328		; $28(R0)

3300	A600		ADD R6, #$01
3302	C603		SZ R6
3304	A021		BRA $3328		; $22(R0)

3306	016C		MHL R1, R6
3308	C103		SZ R1
330A	A01B		BRA $3328		; $1C(R0)

330C	A500		ADD R5, #$01
330E	C503		SZ R5
3310	A015		BRA $3328		; $16(R0)

3312	015C		MHL R1, R5
3314	C103		SZ R1
3316	A00F		BRA $3328		; $10(R0)

3318	A400		ADD R4, #$01
331A	C403		SZ R4
331C	A009		BRA $3328		; $0A(R0)

331E	014C		MHL R1, R4
3320	C103		SZ R1
3322	A003		BRA $3328		; $04(R0)

3324	A300		ADD R3, #$01
3326	C303		SZ R3
3328	AE7F		ADD R14, #$80
332A	03ED		MLH R3, R14
332C	A073		BRA $33A2		; $74(R0)

332E	A09F		BRA $33D0		; $A0(R0)

3330	21D4		MOVE R1, $1A8
3332	2FDC		MOVE R15, $1B8
3334	01F8		ADD R1, R15
3336	31D4		MOVE $1A8, R1
3338	016C		MHL R1, R6
333A	06AD		MLH R6, R10
333C	066A		ADDH R6, R6
333E	0A6C		MHL R10, R6
3340	0AAA		ADDH R10, R10
3342	0A18		ADD R10, R1
3344	06AD		MLH R6, R10
3346	0A5A		ADDH R10, R5
3348	0A98		ADD R10, R9
334A	09AC		MHL R9, R10
334C	099A		ADDH R9, R9
334E	055C		MHL R5, R5
3350	0958		ADD R9, R5
3352	0A9D		MLH R10, R9
3354	05A4		MOVE R5, R10
3356	094A		ADDH R9, R4
3358	0988		ADD R9, R8
335A	089C		MHL R8, R9
335C	088A		ADDH R8, R8
335E	044C		MHL R4, R4
3360	0848		ADD R8, R4
3362	098D		MLH R9, R8
3364	0494		MOVE R4, R9
3366	083A		ADDH R8, R3
3368	0878		ADD R8, R7
336A	8300		LBI R3, #$00
336C	0386		OR R3, R8
336E	088C		MHL R8, R8
3370	C80B		SNZ R8
3372	A02D		BRA $33A2		; $2E(R0)

3374	0D3C		MHL R13, R3
3376	8E01		LBI R14, #$01
3378	0203		INC2 R2, R0
337A	20B2		JMP ($0164)

337C	B310		SET R3, #$10
337E	9D7F		CLR R13, #$7F
3380	013C		MHL R1, R3
3382	917F		CLR R1, #$7F
3384	CD1A		SNE R13, R1
3386	A03D		BRA $33C6		; $3E(R0)

3388	013C		MHL R1, R3
338A	A17F		ADD R1, #$80
338C	031D		MLH R3, R1
338E	83FF		LBI R3, #$FF
3390	33D0		MOVE $1A0, R3
3392	033D		MLH R3, R3
3394	33D1		MOVE $1A2, R3
3396	33D2		MOVE $1A4, R3
3398	33D3		MOVE $1A6, R3
339A	21F8		MOVE R1, $1F0
339C	B102		SET R1, #$02
339E	31F8		MOVE $1F0, R1
33A0	209D		JMP ($013A)

33A2	0203		INC2 R2, R0
33A4	20BA		JMP ($0174)

33A6	A01D		BRA $33C6		; $1E(R0)

33A8	A011		BRA $33BC		; $12(R0)

33AA	2350		MOVE R3, $A0
33AC	33D0		MOVE $1A0, R3
33AE	33D1		MOVE $1A2, R3
33B0	33D2		MOVE $1A4, R3
33B2	33D3		MOVE $1A6, R3
33B4	21F8		MOVE R1, $1F0
33B6	B101		SET R1, #$01
33B8	31F8		MOVE $1F0, R1
33BA	209F		JMP ($013E)

33BC	34D0		MOVE $1A0, R4
33BE	34D1		MOVE $1A2, R4
33C0	34D2		MOVE $1A4, R4
33C2	34D3		MOVE $1A6, R4
33C4	209B		JMP ($0136)

33C6	33D0		MOVE $1A0, R3
33C8	34D1		MOVE $1A2, R4
33CA	35D2		MOVE $1A4, R5
33CC	36D3		MOVE $1A6, R6
33CE	2082		JMP ($0104)

33D0	23D0		MOVE R3, $1A0
33D2	C30B		SNZ R3
33D4	A021		BRA $33F8		; $22(R0)

33D6	8101		LBI R1, #$01
33D8	CD1E		SNBC R13, R1
33DA	A027		BRA $3404		; $28(R0)

33DC	67D0		MOVB R7, (R13)+
33DE	077D		MLH R7, R7
33E0	D1D1		MOVE R1, (R13)+
33E2	071C		MHL R7, R1
33E4	081D		MLH R8, R1
33E6	D1D1		MOVE R1, (R13)+
33E8	081C		MHL R8, R1
33EA	091D		MLH R9, R1
33EC	D1D1		MOVE R1, (R13)+
33EE	091C		MHL R9, R1
33F0	6AD8		MOVB R10, (R13)
33F2	0A1D		MLH R10, R1
33F4	C703		SZ R7
33F6	A017		BRA $3410		; $18(R0)

33F8	2350		MOVE R3, $A0
33FA	33D0		MOVE $1A0, R3
33FC	33D1		MOVE $1A2, R3
33FE	33D2		MOVE $1A4, R3
3400	33D3		MOVE $1A6, R3
3402	209B		JMP ($0136)

3404	D7D1		MOVE R7, (R13)+
3406	C70B		SNZ R7
3408	F011		BRA $33F8		; -> -$12(R0)

340A	D8D1		MOVE R8, (R13)+
340C	D9D1		MOVE R9, (R13)+
340E	DAD8		MOVE R10, (R13)
3410	24D1		MOVE R4, $1A2
3412	25D2		MOVE R5, $1A4
3414	26D3		MOVE R6, $1A6
3416	8100		LBI R1, #$00
3418	31D4		MOVE $1A8, R1
341A	31DC		MOVE $1B8, R1
341C	0134		MOVE R1, R3
341E	017C		MHL R1, R7
3420	31CF		MOVE $19E, R1
3422	2DAB		MOVE R13, $156
3424	57D1		MOVE (R13)+, R7
3426	58D1		MOVE (R13)+, R8
3428	59D1		MOVE (R13)+, R9
342A	5AD0		MOVE (R13)', R10
342C	3DCE		MOVE $19C, R13
342E	2D50		MOVE R13, $A0
3430	8135		LBI R1, #$35
3432	011D		MLH R1, R1
3434	81F0		LBI R1, #$F0
3436	31CA		MOVE $194, R1
3438	8136		LBI R1, #$36
343A	011D		MLH R1, R1
343C	813E		LBI R1, #$3E
343E	31CB		MOVE $196, R1
3440	2EAA		MOVE R14, $154
3442	0964		MOVE R9, R6
3444	0754		MOVE R7, R5
3446	0544		MOVE R5, R4
3448	8A00		LBI R10, #$00
344A	03AD		MLH R3, R10
344C	53E1		MOVE (R14)+, R3
344E	55E1		MOVE (R14)+, R5
3450	57E1		MOVE (R14)+, R7
3452	59E8		MOVE (R14), R9
3454	043D		MLH R4, R3
3456	045C		MHL R4, R5
3458	065D		MLH R6, R5
345A	067C		MHL R6, R7
345C	087D		MLH R8, R7
345E	089C		MHL R8, R9
3460	0A9D		MLH R10, R9
3462	8E3E		LBI R14, #$3E
3464	8F07		LBI R15, #$07
3466	E0AC		SHR R10
3468	098D		MLH R9, R8
346A	E09C		SHR R9
346C	0A9D		MLH R10, R9
346E	5AE5		MOVE (R14)-, R10
3470	E08C		SHR R8
3472	076D		MLH R7, R6
3474	E07C		SHR R7
3476	087D		MLH R8, R7
3478	58E5		MOVE (R14)-, R8
347A	E06C		SHR R6
347C	054D		MLH R5, R4
347E	E05C		SHR R5
3480	065D		MLH R6, R5
3482	56E5		MOVE (R14)-, R6
3484	E04C		SHR R4
3486	E03C		SHR R3
3488	043D		MLH R4, R3
348A	54E5		MOVE (R14)-, R4
348C	FF00		SUB R15, #$01
348E	CF03		SZ R15
3490	F02B		BRA $3466		; -> -$2C(R0)

3492	2350		MOVE R3, $A0
3494	2450		MOVE R4, $A0
3496	2550		MOVE R5, $A0
3498	2650		MOVE R6, $A0
349A	2F50		MOVE R15, $A0
349C	2CCE		MOVE R12, $19C
349E	61C8		MOVB R1, (R12)
34A0	0F1A		ADDH R15, R1
34A2	8E00		LBI R14, #$00
34A4	01F4		MOVE R1, R15
34A6	91F0		CLR R1, #$F0
34A8	0118		ADD R1, R1
34AA	0018		ADD R0, R1
34AC	A08D		BRA $353C		; $8E(R0)

34AE	A01B		BRA $34CC		; $1C(R0)

34B0	A023		BRA $34D6		; $24(R0)

34B2	A01D		BRA $34D2		; $1E(R0)

34B4	A035		BRA $34EC		; $36(R0)

34B6	A02F		BRA $34E8		; $30(R0)

34B8	A023		BRA $34DE		; $24(R0)

34BA	A037		BRA $34F4		; $38(R0)

34BC	A047		BRA $3506		; $48(R0)

34BE	A039		BRA $34FA		; $3A(R0)

34C0	A03D		BRA $3500		; $3E(R0)

34C2	A049		BRA $350E		; $4A(R0)

34C4	A051		BRA $3518		; $52(R0)

34C6	A04B		BRA $3514		; $4C(R0)

34C8	A055		BRA $3520		; $56(R0)

34CA	A05B		BRA $3528		; $5C(R0)

34CC	0203		INC2 R2, R0
34CE	20CA		JMP ($0194)

34D0	A069		BRA $353C		; $6A(R0)

34D2	0203		INC2 R2, R0
34D4	20CA		JMP ($0194)

34D6	BE08		SET R14, #$08
34D8	0203		INC2 R2, R0
34DA	20CA		JMP ($0194)

34DC	A05D		BRA $353C		; $5E(R0)

34DE	BE08		SET R14, #$08
34E0	0203		INC2 R2, R0
34E2	20CA		JMP ($0194)

34E4	9E08		CLR R14, #$08
34E6	A003		BRA $34EC		; $04(R0)

34E8	0203		INC2 R2, R0
34EA	20CA		JMP ($0194)

34EC	BE10		SET R14, #$10
34EE	0203		INC2 R2, R0
34F0	20CA		JMP ($0194)

34F2	A047		BRA $353C		; $48(R0)

34F4	0203		INC2 R2, R0
34F6	20CB		JMP ($0196)

34F8	A00B		BRA $3506		; $0C(R0)

34FA	0203		INC2 R2, R0
34FC	20CA		JMP ($0194)

34FE	A005		BRA $3506		; $06(R0)

3500	BE08		SET R14, #$08
3502	0203		INC2 R2, R0
3504	20CA		JMP ($0194)

3506	BE18		SET R14, #$18
3508	0203		INC2 R2, R0
350A	20CA		JMP ($0194)

350C	A02D		BRA $353C		; $2E(R0)

350E	0203		INC2 R2, R0
3510	20CB		JMP ($0196)

3512	A003		BRA $3518		; $04(R0)

3514	0203		INC2 R2, R0
3516	20CA		JMP ($0194)

3518	BE10		SET R14, #$10
351A	0203		INC2 R2, R0
351C	20CB		JMP ($0196)

351E	A00B		BRA $352C		; $0C(R0)

3520	BE08		SET R14, #$08
3522	0203		INC2 R2, R0
3524	20CB		JMP ($0196)

3526	A003		BRA $352C		; $04(R0)

3528	0203		INC2 R2, R0
352A	20CB		JMP ($0196)

352C	8120		LBI R1, #$20
352E	CE16		SBC R14, R1
3530	A003		BRA $3536		; $04(R0)

3532	AF0F		ADD R15, #$10
3534	A00B		BRA $3542		; $0C(R0)

3536	AF7F		ADD R15, #$80
3538	AF7F		ADD R15, #$80
353A	A00F		BRA $354C		; $10(R0)

353C	8120		LBI R1, #$20
353E	CE16		SBC R14, R1
3540	A009		BRA $354C		; $0A(R0)

3542	8E20		LBI R14, #$20
3544	9F0F		CLR R15, #$0F
3546	E0FE		ROR3 R15
3548	01F4		MOVE R1, R15
354A	F0A1		BRA $34AA		; -> -$A2(R0)

354C	2CCE		MOVE R12, $19C
354E	76C4		MOVB (R12)-, R6
3550	3CCE		MOVE $19C, R12
3552	066C		MHL R6, R6
3554	065D		MLH R6, R5
3556	055C		MHL R5, R5
3558	054D		MLH R5, R4
355A	044C		MHL R4, R4
355C	043D		MLH R4, R3
355E	033C		MHL R3, R3
3560	03DD		MLH R3, R13
3562	8107		LBI R1, #$07
3564	CC16		SBC R12, R1
3566	F0C9		BRA $349E		; -> -$CA(R0)

3568	0FFC		MHL R15, R15
356A	CF0B		SNZ R15
356C	A005		BRA $3574		; $06(R0)

356E	8E00		LBI R14, #$00
3570	0203		INC2 R2, R0
3572	20CA		JMP ($0194)

3574	2DCE		MOVE R13, $19C
3576	21CF		MOVE R1, $19E
3578	071C		MHL R7, R1
357A	0717		XOR R7, R1
357C	977F		CLR R7, #$7F
357E	21CF		MOVE R1, $19E
3580	9180		CLR R1, #$80
3582	2850		MOVE R8, $A0
3584	081C		MHL R8, R1
3586	9880		CLR R8, #$80
3588	0818		ADD R8, R1
358A	F83F		SUB R8, #$40
358C	8100		LBI R1, #$00
358E	031D		MLH R3, R1
3590	0203		INC2 R2, R0
3592	20BA		JMP ($0174)

3594	A00B		BRA $35A2		; $0C(R0)

3596	0000		HALT
3598	F800		SUB R8, #$01
359A	D1D8		MOVE R1, (R13)
359C	910F		CLR R1, #$0F
359E	E01F		SWAP R1
35A0	0616		OR R6, R1
35A2	81FF		LBI R1, #$FF
35A4	C817		SBSH R8, R1
35A6	A011		BRA $35BA		; $12(R0)

35A8	2350		MOVE R3, $A0
35AA	33D0		MOVE $1A0, R3
35AC	33D1		MOVE $1A2, R3
35AE	33D2		MOVE $1A4, R3
35B0	33D3		MOVE $1A6, R3
35B2	21F8		MOVE R1, $1F0
35B4	B101		SET R1, #$01
35B6	31F8		MOVE $1F0, R1
35B8	209B		JMP ($0136)

35BA	8180		LBI R1, #$80
35BC	C81E		SNBC R8, R1
35BE	A019		BRA $35DA		; $1A(R0)

35C0	21F8		MOVE R1, $1F0
35C2	B102		SET R1, #$02
35C4	31F8		MOVE $1F0, R1
35C6	837F		LBI R3, #$7F
35C8	0376		OR R3, R7
35CA	033D		MLH R3, R3
35CC	83FF		LBI R3, #$FF
35CE	33D0		MOVE $1A0, R3
35D0	033D		MLH R3, R3
35D2	33D1		MOVE $1A2, R3
35D4	33D2		MOVE $1A4, R3
35D6	33D3		MOVE $1A6, R3
35D8	209D		JMP ($013A)

35DA	9880		CLR R8, #$80
35DC	0876		OR R8, R7
35DE	038D		MLH R3, R8
35E0	33D0		MOVE $1A0, R3
35E2	34D1		MOVE $1A2, R4
35E4	35D2		MOVE $1A4, R5
35E6	36D3		MOVE $1A6, R6
35E8	8180		LBI R1, #$80
35EA	C81E		SNBC R8, R1
35EC	209F		JMP ($013E)

35EE	209D		JMP ($013A)

35F0	D7E1		MOVE R7, (R14)+
35F2	D8E1		MOVE R8, (R14)+
35F4	D9E1		MOVE R9, (R14)+
35F6	DAE7		MOVE R10, (R14)--
35F8	FE01		SUB R14, #$02
35FA	016C		MHL R1, R6
35FC	06AD		MLH R6, R10
35FE	066A		ADDH R6, R6
3600	0A6C		MHL R10, R6
3602	0AAA		ADDH R10, R10
3604	0A18		ADD R10, R1
3606	06AD		MLH R6, R10
3608	0A5A		ADDH R10, R5
360A	0A98		ADD R10, R9
360C	09AC		MHL R9, R10
360E	099A		ADDH R9, R9
3610	055C		MHL R5, R5
3612	0958		ADD R9, R5
3614	0A9D		MLH R10, R9
3616	05A4		MOVE R5, R10
3618	094A		ADDH R9, R4
361A	0988		ADD R9, R8
361C	089C		MHL R8, R9
361E	088A		ADDH R8, R8
3620	044C		MHL R4, R4
3622	0848		ADD R8, R4
3624	098D		MLH R9, R8
3626	0494		MOVE R4, R9
3628	083A		ADDH R8, R3
362A	0878		ADD R8, R7
362C	078C		MHL R7, R8
362E	077A		ADDH R7, R7
3630	033C		MHL R3, R3
3632	0738		ADD R7, R3
3634	087D		MLH R8, R7
3636	0384		MOVE R3, R8
3638	077C		MHL R7, R7
363A	0D78		ADD R13, R7
363C	0024		RET R2

363E	D7E1		MOVE R7, (R14)+
3640	D8E1		MOVE R8, (R14)+
3642	D9E1		MOVE R9, (R14)+
3644	DAE7		MOVE R10, (R14)--
3646	FE01		SUB R14, #$02
3648	8BFF		LBI R11, #$FF
364A	2C50		MOVE R12, $A0
364C	0C66		OR R12, R6
364E	0CA9		SUB R12, R10
3650	8600		LBI R6, #$00
3652	06C6		OR R6, R12
3654	0C6C		MHL R12, R6
3656	CCBF		SNBSH R12, R11
3658	0CCB		ADDH2 R12, R12
365A	0AAC		MHL R10, R10
365C	0CA9		SUB R12, R10
365E	06CD		MLH R6, R12
3660	8C00		LBI R12, #$00
3662	0C56		OR R12, R5
3664	CCBF		SNBSH R12, R11
3666	0CCB		ADDH2 R12, R12
3668	0C99		SUB R12, R9
366A	8500		LBI R5, #$00
366C	05C6		OR R5, R12
366E	0C5C		MHL R12, R5
3670	CCBF		SNBSH R12, R11
3672	0CCB		ADDH2 R12, R12
3674	099C		MHL R9, R9
3676	0C99		SUB R12, R9
3678	05CD		MLH R5, R12
367A	8C00		LBI R12, #$00
367C	0C46		OR R12, R4
367E	CCBF		SNBSH R12, R11
3680	0CCB		ADDH2 R12, R12
3682	0C89		SUB R12, R8
3684	8400		LBI R4, #$00
3686	04C6		OR R4, R12
3688	0C4C		MHL R12, R4
368A	CCBF		SNBSH R12, R11
368C	0CCB		ADDH2 R12, R12
368E	088C		MHL R8, R8
3690	0C89		SUB R12, R8
3692	04CD		MLH R4, R12
3694	8C00		LBI R12, #$00
3696	0C36		OR R12, R3
3698	CCBF		SNBSH R12, R11
369A	0CCB		ADDH2 R12, R12
369C	0C79		SUB R12, R7
369E	8300		LBI R3, #$00
36A0	03C6		OR R3, R12
36A2	0C3C		MHL R12, R3
36A4	CCBF		SNBSH R12, R11
36A6	0CCB		ADDH2 R12, R12
36A8	077C		MHL R7, R7
36AA	0C79		SUB R12, R7
36AC	03CD		MLH R3, R12
36AE	0CCC		MHL R12, R12
36B0	0DC8		ADD R13, R12
36B2	0024		RET R2

36B4	23D0		MOVE R3, $1A0
36B6	C30B		SNZ R3
36B8	A03D		BRA $36F8		; $3E(R0)

36BA	8101		LBI R1, #$01
36BC	CD1E		SNBC R13, R1
36BE	A043		BRA $3704		; $44(R0)

36C0	67D0		MOVB R7, (R13)+
36C2	077D		MLH R7, R7
36C4	D1D1		MOVE R1, (R13)+
36C6	071C		MHL R7, R1
36C8	081D		MLH R8, R1
36CA	D1D1		MOVE R1, (R13)+
36CC	081C		MHL R8, R1
36CE	091D		MLH R9, R1
36D0	D1D1		MOVE R1, (R13)+
36D2	091C		MHL R9, R1
36D4	6AD8		MOVB R10, (R13)
36D6	0A1D		MLH R10, R1
36D8	C703		SZ R7
36DA	A033		BRA $3710		; $34(R0)

36DC	817F		LBI R1, #$7F
36DE	033C		MHL R3, R3
36E0	0316		OR R3, R1
36E2	033D		MLH R3, R3
36E4	83FF		LBI R3, #$FF
36E6	33D0		MOVE $1A0, R3
36E8	033D		MLH R3, R3
36EA	33D1		MOVE $1A2, R3
36EC	33D2		MOVE $1A4, R3
36EE	33D3		MOVE $1A6, R3
36F0	21F8		MOVE R1, $1F0
36F2	B102		SET R1, #$02
36F4	31F8		MOVE $1F0, R1
36F6	209D		JMP ($013A)

36F8	2350		MOVE R3, $A0
36FA	33D0		MOVE $1A0, R3
36FC	33D1		MOVE $1A2, R3
36FE	33D2		MOVE $1A4, R3
3700	33D3		MOVE $1A6, R3
3702	209B		JMP ($0136)

3704	D7D1		MOVE R7, (R13)+
3706	C70B		SNZ R7
3708	F02D		BRA $36DC		; -> -$2E(R0)

370A	D8D1		MOVE R8, (R13)+
370C	D9D1		MOVE R9, (R13)+
370E	DAD8		MOVE R10, (R13)
3710	0134		MOVE R1, R3
3712	017C		MHL R1, R7
3714	31F9		MOVE $1F2, R1
3716	8100		LBI R1, #$00
3718	31D4		MOVE $1A8, R1
371A	31DC		MOVE $1B8, R1
371C	2EAA		MOVE R14, $154
371E	05A4		MOVE R5, R10
3720	0394		MOVE R3, R9
3722	0984		MOVE R9, R8
3724	8600		LBI R6, #$00
3726	076D		MLH R7, R6
3728	57E1		MOVE (R14)+, R7
372A	59E1		MOVE (R14)+, R9
372C	53E1		MOVE (R14)+, R3
372E	55E8		MOVE (R14), R5
3730	087D		MLH R8, R7
3732	089C		MHL R8, R9
3734	0A9D		MLH R10, R9
3736	0A3C		MHL R10, R3
3738	043D		MLH R4, R3
373A	045C		MHL R4, R5
373C	065D		MLH R6, R5
373E	8E3E		LBI R14, #$3E
3740	8F07		LBI R15, #$07
3742	E06C		SHR R6
3744	054D		MLH R5, R4
3746	E05C		SHR R5
3748	065D		MLH R6, R5
374A	56E5		MOVE (R14)-, R6
374C	E04C		SHR R4
374E	03AD		MLH R3, R10
3750	E03C		SHR R3
3752	043D		MLH R4, R3
3754	54E5		MOVE (R14)-, R4
3756	E0AC		SHR R10
3758	098D		MLH R9, R8
375A	E09C		SHR R9
375C	0A9D		MLH R10, R9
375E	5AE5		MOVE (R14)-, R10
3760	E08C		SHR R8
3762	E07C		SHR R7
3764	087D		MLH R8, R7
3766	58E5		MOVE (R14)-, R8
3768	FF00		SUB R15, #$01
376A	CF03		SZ R15
376C	F02B		BRA $3742		; -> -$2C(R0)

376E	8F10		LBI R15, #$10
3770	2DAB		MOVE R13, $156
3772	AD05		ADD R13, #$06
3774	23D0		MOVE R3, $1A0
3776	24D1		MOVE R4, $1A2
3778	25D2		MOVE R5, $1A4
377A	26D3		MOVE R6, $1A6
377C	2150		MOVE R1, $A0
377E	031D		MLH R3, R1
3780	51D5		MOVE (R13)-, R1
3782	51D5		MOVE (R13)-, R1
3784	51D5		MOVE (R13)-, R1
3786	51D8		MOVE (R13), R1
3788	8E18		LBI R14, #$18
378A	0FFD		MLH R15, R15
378C	8F08		LBI R15, #$08
378E	073C		MHL R7, R3
3790	6CE8		MOVB R12, (R14)
3792	CC70		SLE R12, R7
3794	A0C5		BRA $385C		; $C6(R0)

3796	CC72		SE R12, R7
3798	A04B		BRA $37E6		; $4C(R0)

379A	AE00		ADD R14, #$01
379C	6CE0		MOVB R12, (R14)+
379E	CC30		SLE R12, R3
37A0	A0B7		BRA $385A		; $B8(R0)

37A2	CC32		SE R12, R3
37A4	A03D		BRA $37E4		; $3E(R0)

37A6	084C		MHL R8, R4
37A8	6CE0		MOVB R12, (R14)+
37AA	CC80		SLE R12, R8
37AC	A0AB		BRA $385A		; $AC(R0)

37AE	CC82		SE R12, R8
37B0	A031		BRA $37E4		; $32(R0)

37B2	6CE0		MOVB R12, (R14)+
37B4	CC40		SLE R12, R4
37B6	A0A1		BRA $385A		; $A2(R0)

37B8	CC42		SE R12, R4
37BA	A027		BRA $37E4		; $28(R0)

37BC	095C		MHL R9, R5
37BE	6CE0		MOVB R12, (R14)+
37C0	CC90		SLE R12, R9
37C2	A095		BRA $385A		; $96(R0)

37C4	CC92		SE R12, R9
37C6	A01B		BRA $37E4		; $1C(R0)

37C8	6CE0		MOVB R12, (R14)+
37CA	CC50		SLE R12, R5
37CC	A08B		BRA $385A		; $8C(R0)

37CE	CC52		SE R12, R5
37D0	A011		BRA $37E4		; $12(R0)

37D2	0A6C		MHL R10, R6
37D4	6CE0		MOVB R12, (R14)+
37D6	CCA0		SLE R12, R10
37D8	A07F		BRA $385A		; $80(R0)

37DA	CCA2		SE R12, R10
37DC	A005		BRA $37E4		; $06(R0)

37DE	6CE8		MOVB R12, (R14)
37E0	CC60		SLE R12, R6
37E2	A075		BRA $385A		; $76(R0)

37E4	9E07		CLR R14, #$07
37E6	61D8		MOVB R1, (R13)
37E8	01F6		OR R1, R15
37EA	71D8		MOVB (R13), R1
37EC	D7E1		MOVE R7, (R14)+
37EE	D8E1		MOVE R8, (R14)+
37F0	D9E1		MOVE R9, (R14)+
37F2	DAE8		MOVE R10, (R14)
37F4	8BFF		LBI R11, #$FF
37F6	2C50		MOVE R12, $A0
37F8	0C66		OR R12, R6
37FA	0CA9		SUB R12, R10
37FC	8600		LBI R6, #$00
37FE	06C6		OR R6, R12
3800	0C6C		MHL R12, R6
3802	CCBF		SNBSH R12, R11
3804	0CCB		ADDH2 R12, R12
3806	0AAC		MHL R10, R10
3808	0CA9		SUB R12, R10
380A	06CD		MLH R6, R12
380C	8C00		LBI R12, #$00
380E	0C56		OR R12, R5
3810	CCBF		SNBSH R12, R11
3812	0CCB		ADDH2 R12, R12
3814	0C99		SUB R12, R9
3816	8500		LBI R5, #$00
3818	05C6		OR R5, R12
381A	0C5C		MHL R12, R5
381C	CCBF		SNBSH R12, R11
381E	0CCB		ADDH2 R12, R12
3820	099C		MHL R9, R9
3822	0C99		SUB R12, R9
3824	05CD		MLH R5, R12
3826	8C00		LBI R12, #$00
3828	0C46		OR R12, R4
382A	CCBF		SNBSH R12, R11
382C	0CCB		ADDH2 R12, R12
382E	0C89		SUB R12, R8
3830	8400		LBI R4, #$00
3832	04C6		OR R4, R12
3834	0C4C		MHL R12, R4
3836	CCBF		SNBSH R12, R11
3838	0CCB		ADDH2 R12, R12
383A	088C		MHL R8, R8
383C	0C89		SUB R12, R8
383E	04CD		MLH R4, R12
3840	8C00		LBI R12, #$00
3842	0C36		OR R12, R3
3844	CCBF		SNBSH R12, R11
3846	0CCB		ADDH2 R12, R12
3848	0C79		SUB R12, R7
384A	8300		LBI R3, #$00
384C	03C6		OR R3, R12
384E	0C3C		MHL R12, R3
3850	CCBF		SNBSH R12, R11
3852	0CCB		ADDH2 R12, R12
3854	077C		MHL R7, R7
3856	0C79		SUB R12, R7
3858	03CD		MLH R3, R12
385A	9E07		CLR R14, #$07
385C	E0FC		SHR R15
385E	CF0B		SNZ R15
3860	A003		BRA $3866		; $04(R0)

3862	FE07		SUB R14, #$08
3864	F0D7		BRA $378E		; -> -$D8(R0)

3866	0FFC		MHL R15, R15
3868	FF01		SUB R15, #$02
386A	CF0B		SNZ R15
386C	A019		BRA $3888		; $1A(R0)

386E	0FFD		MLH R15, R15
3870	8F80		LBI R15, #$80
3872	033D		MLH R3, R3
3874	034C		MHL R3, R4
3876	044D		MLH R4, R4
3878	045C		MHL R4, R5
387A	055D		MLH R5, R5
387C	056C		MHL R5, R6
387E	066D		MLH R6, R6
3880	8600		LBI R6, #$00
3882	AD00		ADD R13, #$01
3884	8E38		LBI R14, #$38
3886	F023		BRA $3864		; -> -$24(R0)

3888	21F9		MOVE R1, $1F2
388A	091C		MHL R9, R1
388C	0917		XOR R9, R1
388E	997F		CLR R9, #$7F
3890	9180		CLR R1, #$80
3892	2A50		MOVE R10, $A0
3894	0A1C		MHL R10, R1
3896	9A80		CLR R10, #$80
3898	0A19		SUB R10, R1
389A	AA3F		ADD R10, #$40
389C	2DAB		MOVE R13, $156
389E	61D8		MOVB R1, (R13)
38A0	C103		SZ R1
38A2	AA00		ADD R10, #$01
38A4	81FF		LBI R1, #$FF
38A6	CA17		SBSH R10, R1
38A8	A011		BRA $38BC		; $12(R0)

38AA	2350		MOVE R3, $A0
38AC	33D0		MOVE $1A0, R3
38AE	33D1		MOVE $1A2, R3
38B0	33D2		MOVE $1A4, R3
38B2	33D3		MOVE $1A6, R3
38B4	21F8		MOVE R1, $1F0
38B6	B101		SET R1, #$01
38B8	31F8		MOVE $1F0, R1
38BA	209F		JMP ($013E)

38BC	8180		LBI R1, #$80
38BE	CA1E		SNBC R10, R1
38C0	A019		BRA $38DC		; $1A(R0)

38C2	21F8		MOVE R1, $1F0
38C4	B102		SET R1, #$02
38C6	31F8		MOVE $1F0, R1
38C8	837F		LBI R3, #$7F
38CA	0396		OR R3, R9
38CC	033D		MLH R3, R3
38CE	83FF		LBI R3, #$FF
38D0	33D0		MOVE $1A0, R3
38D2	033D		MLH R3, R3
38D4	33D1		MOVE $1A2, R3
38D6	33D2		MOVE $1A4, R3
38D8	33D3		MOVE $1A6, R3
38DA	209D		JMP ($013A)

38DC	61D8		MOVB R1, (R13)
38DE	C103		SZ R1
38E0	A009		BRA $38EC		; $0A(R0)

38E2	D3D1		MOVE R3, (R13)+
38E4	D4D1		MOVE R4, (R13)+
38E6	D5D1		MOVE R5, (R13)+
38E8	D6D8		MOVE R6, (R13)
38EA	A023		BRA $3910		; $24(R0)

38EC	D7D1		MOVE R7, (R13)+
38EE	037C		MHL R3, R7
38F0	047D		MLH R4, R7
38F2	D7D1		MOVE R7, (R13)+
38F4	047C		MHL R4, R7
38F6	057D		MLH R5, R7
38F8	D7D1		MOVE R7, (R13)+
38FA	057C		MHL R5, R7
38FC	067D		MLH R6, R7
38FE	D7D8		MOVE R7, (R13)
3900	067C		MHL R6, R7
3902	0203		INC2 R2, R0
3904	20BA		JMP ($0174)

3906	A001		BRA $390A		; $02(R0)

3908	0004		NOP
390A	970F		CLR R7, #$0F
390C	E07F		SWAP R7
390E	0676		OR R6, R7
3910	9A80		CLR R10, #$80
3912	0A96		OR R10, R9
3914	03AD		MLH R3, R10
3916	33D0		MOVE $1A0, R3
3918	34D1		MOVE $1A2, R4
391A	35D2		MOVE $1A4, R5
391C	36D3		MOVE $1A6, R6
391E	209B		JMP ($0136)

3920	0004		NOP
3922	013C		MHL R1, R3
3924	01E8		ADD R1, R14
3926	031D		MLH R3, R1
3928	810F		LBI R1, #$0F
392A	CE11		SLT R14, R1
392C	A021		BRA $3950		; $22(R0)

392E	8101		LBI R1, #$01
3930	CE1E		SNBC R14, R1
3932	A00B		BRA $3940		; $0C(R0)

3934	2150		MOVE R1, $A0
3936	01E9		SUB R1, R14
3938	E01C		SHR R1
393A	A10D		ADD R1, #$0E
393C	6118		MOVB R1, (R1)
393E	A00B		BRA $394C		; $0C(R0)

3940	2150		MOVE R1, $A0
3942	01E9		SUB R1, R14
3944	E01C		SHR R1
3946	A10D		ADD R1, #$0E
3948	6118		MOVB R1, (R1)
394A	E01F		SWAP R1
394C	91F0		CLR R1, #$F0
394E	31D4		MOVE $1A8, R1
3950	8108		LBI R1, #$08
3952	CE19		SGE R14, R1
3954	A00B		BRA $3962		; $0C(R0)

3956	FE07		SUB R14, #$08
3958	0644		MOVE R6, R4
395A	0534		MOVE R5, R3
395C	2450		MOVE R4, $A0
395E	8300		LBI R3, #$00
3960	053D		MLH R5, R3
3962	8104		LBI R1, #$04
3964	CE19		SGE R14, R1
3966	A00B		BRA $3974		; $0C(R0)

3968	FE03		SUB R14, #$04
396A	0654		MOVE R6, R5
396C	0544		MOVE R5, R4
396E	0434		MOVE R4, R3
3970	8300		LBI R3, #$00
3972	043D		MLH R4, R3
3974	8102		LBI R1, #$02
3976	CE19		SGE R14, R1
3978	A00F		BRA $398A		; $10(R0)

397A	FE01		SUB R14, #$02
397C	066C		MHL R6, R6
397E	065D		MLH R6, R5
3980	055C		MHL R5, R5
3982	054D		MLH R5, R4
3984	044C		MHL R4, R4
3986	043D		MLH R4, R3
3988	8300		LBI R3, #$00
398A	8101		LBI R1, #$01
398C	CE19		SGE R14, R1
398E	0024		RET R2

3990	E06F		SWAP R6
3992	96F0		CLR R6, #$F0
3994	016C		MHL R1, R6
3996	E01F		SWAP R1
3998	0E14		MOVE R14, R1
399A	910F		CLR R1, #$0F
399C	0616		OR R6, R1
399E	9EF0		CLR R14, #$F0
39A0	E05F		SWAP R5
39A2	0154		MOVE R1, R5
39A4	910F		CLR R1, #$0F
39A6	01E6		OR R1, R14
39A8	061D		MLH R6, R1
39AA	95F0		CLR R5, #$F0
39AC	015C		MHL R1, R5
39AE	E01F		SWAP R1
39B0	0E14		MOVE R14, R1
39B2	910F		CLR R1, #$0F
39B4	0516		OR R5, R1
39B6	9EF0		CLR R14, #$F0
39B8	E04F		SWAP R4
39BA	0144		MOVE R1, R4
39BC	910F		CLR R1, #$0F
39BE	01E6		OR R1, R14
39C0	051D		MLH R5, R1
39C2	94F0		CLR R4, #$F0
39C4	014C		MHL R1, R4
39C6	E01F		SWAP R1
39C8	0E14		MOVE R14, R1
39CA	910F		CLR R1, #$0F
39CC	0416		OR R4, R1
39CE	9EF0		CLR R14, #$F0
39D0	E03F		SWAP R3
39D2	0134		MOVE R1, R3
39D4	910F		CLR R1, #$0F
39D6	01E6		OR R1, R14
39D8	041D		MLH R4, R1
39DA	93F0		CLR R3, #$F0
39DC	0024		RET R2

39DE	017C		MHL R1, R7
39E0	01D8		ADD R1, R13
39E2	071D		MLH R7, R1
39E4	810F		LBI R1, #$0F
39E6	CD11		SLT R13, R1
39E8	A021		BRA $3A0C		; $22(R0)

39EA	8101		LBI R1, #$01
39EC	CD1E		SNBC R13, R1
39EE	A00B		BRA $39FC		; $0C(R0)

39F0	2150		MOVE R1, $A0
39F2	01D9		SUB R1, R13
39F4	E01C		SHR R1
39F6	A115		ADD R1, #$16
39F8	6118		MOVB R1, (R1)
39FA	A00B		BRA $3A08		; $0C(R0)

39FC	2150		MOVE R1, $A0
39FE	01D9		SUB R1, R13
3A00	E01C		SHR R1
3A02	A115		ADD R1, #$16
3A04	6118		MOVB R1, (R1)
3A06	E01F		SWAP R1
3A08	91F0		CLR R1, #$F0
3A0A	31DC		MOVE $1B8, R1
3A0C	8108		LBI R1, #$08
3A0E	CD19		SGE R13, R1
3A10	A00B		BRA $3A1E		; $0C(R0)

3A12	FD07		SUB R13, #$08
3A14	0A84		MOVE R10, R8
3A16	0974		MOVE R9, R7
3A18	2850		MOVE R8, $A0
3A1A	8700		LBI R7, #$00
3A1C	097D		MLH R9, R7
3A1E	8104		LBI R1, #$04
3A20	CD19		SGE R13, R1
3A22	A00B		BRA $3A30		; $0C(R0)

3A24	FD03		SUB R13, #$04
3A26	0A94		MOVE R10, R9
3A28	0984		MOVE R9, R8
3A2A	0874		MOVE R8, R7
3A2C	8700		LBI R7, #$00
3A2E	087D		MLH R8, R7
3A30	8102		LBI R1, #$02
3A32	CD19		SGE R13, R1
3A34	A00F		BRA $3A46		; $10(R0)

3A36	FD01		SUB R13, #$02
3A38	0AAC		MHL R10, R10
3A3A	0A9D		MLH R10, R9
3A3C	099C		MHL R9, R9
3A3E	098D		MLH R9, R8
3A40	088C		MHL R8, R8
3A42	087D		MLH R8, R7
3A44	8700		LBI R7, #$00
3A46	8101		LBI R1, #$01
3A48	CD19		SGE R13, R1
3A4A	0024		RET R2

3A4C	E0AF		SWAP R10
3A4E	9AF0		CLR R10, #$F0
3A50	01AC		MHL R1, R10
3A52	E01F		SWAP R1
3A54	0D14		MOVE R13, R1
3A56	910F		CLR R1, #$0F
3A58	0A16		OR R10, R1
3A5A	9DF0		CLR R13, #$F0
3A5C	E09F		SWAP R9
3A5E	0194		MOVE R1, R9
3A60	910F		CLR R1, #$0F
3A62	01D6		OR R1, R13
3A64	0A1D		MLH R10, R1
3A66	99F0		CLR R9, #$F0
3A68	019C		MHL R1, R9
3A6A	E01F		SWAP R1
3A6C	0D14		MOVE R13, R1
3A6E	910F		CLR R1, #$0F
3A70	0916		OR R9, R1
3A72	9DF0		CLR R13, #$F0
3A74	E08F		SWAP R8
3A76	0184		MOVE R1, R8
3A78	910F		CLR R1, #$0F
3A7A	01D6		OR R1, R13
3A7C	091D		MLH R9, R1
3A7E	98F0		CLR R8, #$F0
3A80	018C		MHL R1, R8
3A82	E01F		SWAP R1
3A84	0D14		MOVE R13, R1
3A86	910F		CLR R1, #$0F
3A88	0816		OR R8, R1
3A8A	9DF0		CLR R13, #$F0
3A8C	E07F		SWAP R7
3A8E	0174		MOVE R1, R7
3A90	910F		CLR R1, #$0F
3A92	01D6		OR R1, R13
3A94	081D		MLH R8, R1
3A96	97F0		CLR R7, #$F0
3A98	0024		RET R2

3A9A	81F0		LBI R1, #$F0
3A9C	C316		SBC R3, R1
3A9E	0024		RET R2

3AA0	8E01		LBI R14, #$01
3AA2	0EED		MLH R14, R14
3AA4	C303		SZ R3
3AA6	A083		BRA $3B2C		; $84(R0)

3AA8	8E02		LBI R14, #$02
3AAA	0F4C		MHL R15, R4
3AAC	CF03		SZ R15
3AAE	A033		BRA $3AE4		; $34(R0)

3AB0	AE01		ADD R14, #$02
3AB2	0F44		MOVE R15, R4
3AB4	CF03		SZ R15
3AB6	A02B		BRA $3AE4		; $2C(R0)

3AB8	AE01		ADD R14, #$02
3ABA	0F5C		MHL R15, R5
3ABC	CF03		SZ R15
3ABE	A023		BRA $3AE4		; $24(R0)

3AC0	AE01		ADD R14, #$02
3AC2	0F54		MOVE R15, R5
3AC4	CF03		SZ R15
3AC6	A01B		BRA $3AE4		; $1C(R0)

3AC8	AE01		ADD R14, #$02
3ACA	0F6C		MHL R15, R6
3ACC	CF03		SZ R15
3ACE	A013		BRA $3AE4		; $14(R0)

3AD0	AE01		ADD R14, #$02
3AD2	0F64		MOVE R15, R6
3AD4	CF03		SZ R15
3AD6	A00B		BRA $3AE4		; $0C(R0)

3AD8	AE01		ADD R14, #$02
3ADA	2FD4		MOVE R15, $1A8
3ADC	CF03		SZ R15
3ADE	A009		BRA $3AEA		; $0A(R0)

3AE0	A201		ADD R2, #$02
3AE2	0024		RET R2

3AE4	81F0		LBI R1, #$F0
3AE6	CF1E		SNBC R15, R1
3AE8	AE00		ADD R14, #$01
3AEA	0EED		MLH R14, R14
3AEC	8108		LBI R1, #$08
3AEE	CE19		SGE R14, R1
3AF0	A00B		BRA $3AFE		; $0C(R0)

3AF2	FE07		SUB R14, #$08
3AF4	015D		MLH R1, R5
3AF6	031C		MHL R3, R1
3AF8	0464		MOVE R4, R6
3AFA	2550		MOVE R5, $A0
3AFC	2650		MOVE R6, $A0
3AFE	8104		LBI R1, #$04
3B00	CE19		SGE R14, R1
3B02	A00B		BRA $3B10		; $0C(R0)

3B04	FE03		SUB R14, #$04
3B06	014D		MLH R1, R4
3B08	031C		MHL R3, R1
3B0A	0454		MOVE R4, R5
3B0C	0564		MOVE R5, R6
3B0E	2650		MOVE R6, $A0
3B10	8102		LBI R1, #$02
3B12	CE19		SGE R14, R1
3B14	A00F		BRA $3B26		; $10(R0)

3B16	FE01		SUB R14, #$02
3B18	034C		MHL R3, R4
3B1A	044D		MLH R4, R4
3B1C	045C		MHL R4, R5
3B1E	055D		MLH R5, R5
3B20	056C		MHL R5, R6
3B22	066D		MLH R6, R6
3B24	8600		LBI R6, #$00
3B26	8101		LBI R1, #$01
3B28	CE19		SGE R14, R1
3B2A	A04B		BRA $3B78		; $4C(R0)

3B2C	E03F		SWAP R3
3B2E	930F		CLR R3, #$0F
3B30	014C		MHL R1, R4
3B32	E01F		SWAP R1
3B34	0F14		MOVE R15, R1
3B36	91F0		CLR R1, #$F0
3B38	0316		OR R3, R1
3B3A	9F0F		CLR R15, #$0F
3B3C	E04F		SWAP R4
3B3E	0144		MOVE R1, R4
3B40	91F0		CLR R1, #$F0
3B42	01F6		OR R1, R15
3B44	041D		MLH R4, R1
3B46	940F		CLR R4, #$0F
3B48	015C		MHL R1, R5
3B4A	E01F		SWAP R1
3B4C	0F14		MOVE R15, R1
3B4E	91F0		CLR R1, #$F0
3B50	0416		OR R4, R1
3B52	9F0F		CLR R15, #$0F
3B54	E05F		SWAP R5
3B56	0154		MOVE R1, R5
3B58	91F0		CLR R1, #$F0
3B5A	01F6		OR R1, R15
3B5C	051D		MLH R5, R1
3B5E	950F		CLR R5, #$0F
3B60	016C		MHL R1, R6
3B62	E01F		SWAP R1
3B64	0F14		MOVE R15, R1
3B66	91F0		CLR R1, #$F0
3B68	0516		OR R5, R1
3B6A	9F0F		CLR R15, #$0F
3B6C	E06F		SWAP R6
3B6E	0164		MOVE R1, R6
3B70	91F0		CLR R1, #$F0
3B72	01F6		OR R1, R15
3B74	061D		MLH R6, R1
3B76	960F		CLR R6, #$0F
3B78	0EEC		MHL R14, R14
3B7A	2F50		MOVE R15, $A0
3B7C	0FE9		SUB R15, R14
3B7E	E0FC		SHR R15
3B80	AF0D		ADD R15, #$0E
3B82	8101		LBI R1, #$01
3B84	CE1D		SNBS R14, R1
3B86	A005		BRA $3B8E		; $06(R0)

3B88	21D4		MOVE R1, $1A8
3B8A	E01F		SWAP R1
3B8C	A009		BRA $3B98		; $0A(R0)

3B8E	21D4		MOVE R1, $1A8
3B90	3FD4		MOVE $1A8, R15
3B92	6FF8		MOVB R15, (R15)
3B94	01F6		OR R1, R15
3B96	2FD4		MOVE R15, $1A8
3B98	71F8		MOVB (R15), R1
3B9A	8180		LBI R1, #$80
3B9C	C31F		SNBSH R3, R1
3B9E	A00D		BRA $3BAE		; $0E(R0)

3BA0	013C		MHL R1, R3
3BA2	01E9		SUB R1, R14
3BA4	031D		MLH R3, R1
3BA6	917F		CLR R1, #$7F
3BA8	C103		SZ R1
3BAA	A00D		BRA $3BBA		; $0E(R0)

3BAC	0024		RET R2

3BAE	013C		MHL R1, R3
3BB0	01E9		SUB R1, R14
3BB2	031D		MLH R3, R1
3BB4	917F		CLR R1, #$7F
3BB6	C103		SZ R1
3BB8	0024		RET R2

3BBA	013C		MHL R1, R3
3BBC	A17F		ADD R1, #$80
3BBE	031D		MLH R3, R1
3BC0	A203		ADD R2, #$04
3BC2	0024		RET R2

3BC4	8C01		LBI R12, #$01
3BC6	0CCD		MLH R12, R12
3BC8	8C38		LBI R12, #$38
3BCA	2354		MOVE R3, $A8
3BCC	043C		MHL R4, R3
3BCE	F407		SUB R4, #$08
3BD0	034D		MLH R3, R4
3BD2	3354		MOVE $A8, R3
3BD4	1108		CTRL $1, #$08
3BD6	2354		MOVE R3, $A8
3BD8	A300		ADD R3, #$01
3BDA	33A7		MOVE $14E, R3
3BDC	0734		MOVE R7, R3
3BDE	0834		MOVE R8, R3
3BE0	047C		MHL R4, R7
3BE2	A401		ADD R4, #$02
3BE4	074D		MLH R7, R4
3BE6	37A5		MOVE $14A, R7
3BE8	F73F		SUB R7, #$40
3BEA	37A6		MOVE $14C, R7
3BEC	F77F		SUB R7, #$80
3BEE	37A4		MOVE $148, R7
3BF0	F70F		SUB R7, #$10
3BF2	37C9		MOVE $192, R7
3BF4	2450		MOVE R4, $A0
3BF6	8602		LBI R6, #$02
3BF8	85CF		LBI R5, #$CF
3BFA	5431		MOVE (R3)+, R4
3BFC	5431		MOVE (R3)+, R4
3BFE	F500		SUB R5, #$01
3C00	C504		SS R5
3C02	F009		BRA $3BFA		; -> -$0A(R0)

3C04	F600		SUB R6, #$01
3C06	C603		SZ R6
3C08	F011		BRA $3BF8		; -> -$12(R0)

3C0A	2450		MOVE R4, $A0
3C0C	8105		LBI R1, #$05
3C0E	7170		MOVB (R7)+, R1
3C10	7470		MOVB (R7)+, R4
3C12	8102		LBI R1, #$02
3C14	7170		MOVB (R7)+, R1
3C16	7470		MOVB (R7)+, R4
3C18	5871		MOVE (R7)+, R8
3C1A	2650		MOVE R6, $A0
3C1C	8680		LBI R6, #$80
3C1E	5671		MOVE (R7)+, R6
3C20	8602		LBI R6, #$02
3C22	5671		MOVE (R7)+, R6
3C24	5471		MOVE (R7)+, R4
3C26	5471		MOVE (R7)+, R4
3C28	5478		MOVE (R7), R4
3C2A	00C4		RET R12

3C2C	013E		GETB R3, $1
3C2E	2283		MOVE R2, $106
3C30	0238		ADD R2, R3
3C32	01EE		GETB R14, $1
3C34	0238		ADD R2, R3
3C36	2450		MOVE R4, $A0
3C38	0438		ADD R4, R3
3C3A	0438		ADD R4, R3
3C3C	0438		ADD R4, R3
3C3E	0438		ADD R4, R3
3C40	34CC		MOVE $198, R4
3C42	2DA5		MOVE R13, $14A
3C44	0D48		ADD R13, R4
3C46	04DC		MHL R4, R13
3C48	044A		ADDH R4, R4
3C4A	0D4D		MLH R13, R4
3C4C	69D0		MOVB R9, (R13)+
3C4E	6AD0		MOVB R10, (R13)+
3C50	6FD0		MOVB R15, (R13)+
3C52	6CD8		MOVB R12, (R13)
3C54	CC04		SS R12
3C56	A00B		BRA $3C64		; $0C(R0)

3C58	CF04		SS R15
3C5A	A007		BRA $3C64		; $08(R0)

3C5C	CA04		SS R10
3C5E	A003		BRA $3C64		; $04(R0)

3C60	C90C		SNS R9
3C62	A099		BRA $3CFE		; $9A(R0)

3C64	AC00		ADD R12, #$01
3C66	7CD4		MOVB (R13)-, R12
3C68	0CFA		ADDH R12, R15
3C6A	7CD4		MOVB (R13)-, R12
3C6C	0CAA		ADDH R12, R10
3C6E	7CD4		MOVB (R13)-, R12
3C70	0C9A		ADDH R12, R9
3C72	7CD8		MOVB (R13), R12
3C74	8F30		LBI R15, #$30
3C76	CF3A		SNE R15, R3
3C78	A02F		BRA $3CAA		; $30(R0)

3C7A	8F70		LBI R15, #$70
3C7C	CF3A		SNE R15, R3
3C7E	A029		BRA $3CAA		; $2A(R0)

3C80	8FB0		LBI R15, #$B0
3C82	CF3A		SNE R15, R3
3C84	A023		BRA $3CAA		; $24(R0)

3C86	8FC7		LBI R15, #$C7
3C88	CF3A		SNE R15, R3
3C8A	A047		BRA $3CD4		; $48(R0)

3C8C	8FD7		LBI R15, #$D7
3C8E	CF3A		SNE R15, R3
3C90	A041		BRA $3CD4		; $42(R0)

3C92	8FE7		LBI R15, #$E7
3C94	CF3A		SNE R15, R3
3C96	A03B		BRA $3CD4		; $3C(R0)

3C98	8FFE		LBI R15, #$FE
3C9A	C3FA		SNE R3, R15
3C9C	A007		BRA $3CA6		; $08(R0)

3C9E	8101		LBI R1, #$01
3CA0	011D		MLH R1, R1
3CA2	81A4		LBI R1, #$A4
3CA4	0014		RET R1

3CA6	03E4		MOVE R3, R14
3CA8	F07B		BRA $3C2E		; -> -$7C(R0)

3CAA	2DA6		MOVE R13, $14C
3CAC	2450		MOVE R4, $A0
3CAE	04E8		ADD R4, R14
3CB0	04E8		ADD R4, R14
3CB2	0D48		ADD R13, R4
3CB4	04DC		MHL R4, R13
3CB6	044A		ADDH R4, R4
3CB8	0D4D		MLH R13, R4
3CBA	69D0		MOVB R9, (R13)+
3CBC	6AD0		MOVB R10, (R13)+
3CBE	6FD0		MOVB R15, (R13)+
3CC0	6CD8		MOVB R12, (R13)
3CC2	AC00		ADD R12, #$01
3CC4	7CD4		MOVB (R13)-, R12
3CC6	0CFA		ADDH R12, R15
3CC8	7CD4		MOVB (R13)-, R12
3CCA	0CAA		ADDH R12, R10
3CCC	7CD4		MOVB (R13)-, R12
3CCE	0C9A		ADDH R12, R9
3CD0	7CD8		MOVB (R13), R12
3CD2	F035		BRA $3C9E		; -> -$36(R0)

3CD4	2DA4		MOVE R13, $148
3CD6	2450		MOVE R4, $A0
3CD8	04E8		ADD R4, R14
3CDA	04E8		ADD R4, R14
3CDC	0D48		ADD R13, R4
3CDE	04DC		MHL R4, R13
3CE0	044A		ADDH R4, R4
3CE2	0D4D		MLH R13, R4
3CE4	69D0		MOVB R9, (R13)+
3CE6	6AD0		MOVB R10, (R13)+
3CE8	6FD0		MOVB R15, (R13)+
3CEA	6CD8		MOVB R12, (R13)
3CEC	AC00		ADD R12, #$01
3CEE	7CD4		MOVB (R13)-, R12
3CF0	0CFA		ADDH R12, R15
3CF2	7CD4		MOVB (R13)-, R12
3CF4	0CAA		ADDH R12, R10
3CF6	7CD4		MOVB (R13)-, R12
3CF8	0C9A		ADDH R12, R9
3CFA	7CD8		MOVB (R13), R12
3CFC	F05F		BRA $3C9E		; -> -$60(R0)

3CFE	8C3B		LBI R12, #$3B
3D00	0CCD		MLH R12, R12
3D02	8CD4		LBI R12, #$D4
3D04	A005		BRA $3D0C		; $06(R0)

3D06	8C01		LBI R12, #$01
3D08	0CCD		MLH R12, R12
3D0A	8C38		LBI R12, #$38
3D0C	3CCF		MOVE $19E, R12
3D0E	23A4		MOVE R3, $148
3D10	8F12		LBI R15, #$12
3D12	24A7		MOVE R4, $14E
3D14	8509		LBI R5, #$09
3D16	8A40		LBI R10, #$40
3D18	8904		LBI R9, #$04
3D1A	6730		MOVB R7, (R3)+
3D1C	0874		MOVE R8, R7
3D1E	970F		CLR R7, #$0F
3D20	E07F		SWAP R7
3D22	C750		SLE R7, R5
3D24	A7C6		ADD R7, #$C7
3D26	A7EF		ADD R7, #$F0
3D28	7740		MOVB (R4)+, R7
3D2A	98F0		CLR R8, #$F0
3D2C	C850		SLE R8, R5
3D2E	A8C6		ADD R8, #$C7
3D30	A8EF		ADD R8, #$F0
3D32	7840		MOVB (R4)+, R8
3D34	F900		SUB R9, #$01
3D36	C903		SZ R9
3D38	F01F		BRA $3D1A		; -> -$20(R0)

3D3A	FA03		SUB R10, #$04
3D3C	CA0B		SNZ R10
3D3E	A005		BRA $3D46		; $06(R0)

3D40	C903		SZ R9
3D42	F029		BRA $3D1A		; -> -$2A(R0)

3D44	F02D		BRA $3D18		; -> -$2E(R0)

3D46	33CA		MOVE $194, R3
3D48	3FCD		MOVE $19A, R15
3D4A	23C9		MOVE R3, $192
3D4C	32CE		MOVE $19C, R2
3D4E	2857		MOVE R8, $AE
3D50	0203		INC2 R2, R0
3D52	2056		JMP ($00AC)

3D54	22CE		MOVE R2, $19C
3D56	23C9		MOVE R3, $192
3D58	A30B		ADD R3, #$0C
3D5A	D438		MOVE R4, (R3)
3D5C	2150		MOVE R1, $A0
3D5E	5138		MOVE (R3), R1
3D60	C403		SZ R4
3D62	A00D		BRA $3D72		; $0E(R0)

3D64	23CA		MOVE R3, $194
3D66	2FCD		MOVE R15, $19A
3D68	FF00		SUB R15, #$01
3D6A	CF03		SZ R15
3D6C	F05B		BRA $3D12		; -> -$5C(R0)

3D6E	24CC		MOVE R4, $198
3D70	20CF		JMP ($019E)

3D72	8C3D		LBI R12, #$3D
3D74	0CCD		MLH R12, R12
3D76	8C0E		LBI R12, #$0E
3D78	833C		LBI R3, #$3C
3D7A	033D		MLH R3, R3
3D7C	830A		LBI R3, #$0A
3D7E	0034		RET R3

3D80	0000		HALT
3D82	0000		HALT
3D84	0000		HALT
3D86	0000		HALT
3D88	0000		HALT
3D8A	0000		HALT
3D8C	0000		HALT
3D8E	0000		HALT
3D90	0000		HALT
3D92	0000		HALT
3D94	0000		HALT
3D96	0000		HALT
3D98	0000		HALT
3D9A	0000		HALT
3D9C	0000		HALT
3D9E	0000		HALT
3DA0	0000		HALT
3DA2	0000		HALT
3DA4	0000		HALT
3DA6	0000		HALT
3DA8	0000		HALT
3DAA	0000		HALT
3DAC	0000		HALT
3DAE	0000		HALT
3DB0	0000		HALT
3DB2	0000		HALT
3DB4	0000		HALT
3DB6	0000		HALT
3DB8	0000		HALT
3DBA	0000		HALT
3DBC	0000		HALT
3DBE	0000		HALT
3DC0	0000		HALT
3DC2	0000		HALT
3DC4	0000		HALT
3DC6	0000		HALT
3DC8	0000		HALT
3DCA	0000		HALT
3DCC	0000		HALT
3DCE	0000		HALT
3DD0	0000		HALT
3DD2	0000		HALT
3DD4	0000		HALT
3DD6	0000		HALT
3DD8	0000		HALT
3DDA	0000		HALT
3DDC	0000		HALT
3DDE	0000		HALT
3DE0	0000		HALT
3DE2	0000		HALT
3DE4	0000		HALT
3DE6	0000		HALT
3DE8	0000		HALT
3DEA	0000		HALT
3DEC	0000		HALT
3DEE	0000		HALT
3DF0	0000		HALT
3DF2	0000		HALT
3DF4	0000		HALT
3DF6	0000		HALT
3DF8	0000		HALT
3DFA	0000		HALT
3DFC	0000		HALT
3DFE	0000		HALT
3E00	0000		HALT
3E02	0000		HALT
3E04	0000		HALT
3E06	0000		HALT
3E08	0000		HALT
3E0A	0000		HALT
3E0C	0000		HALT
3E0E	0000		HALT
3E10	0000		HALT
3E12	0000		HALT
3E14	0000		HALT
3E16	0000		HALT
3E18	0000		HALT
3E1A	0000		HALT
3E1C	0000		HALT
3E1E	0000		HALT
3E20	0000		HALT
3E22	0000		HALT
3E24	0000		HALT
3E26	0000		HALT
3E28	0000		HALT
3E2A	0000		HALT
3E2C	0000		HALT
3E2E	0000		HALT
3E30	0000		HALT
3E32	0000		HALT
3E34	0000		HALT
3E36	0000		HALT
3E38	0000		HALT
3E3A	0000		HALT
3E3C	0000		HALT
3E3E	0000		HALT
3E40	0000		HALT
3E42	0000		HALT
3E44	0000		HALT
3E46	0000		HALT
3E48	0000		HALT
3E4A	0000		HALT
3E4C	0000		HALT
3E4E	0000		HALT
3E50	0000		HALT
3E52	0000		HALT
3E54	0000		HALT
3E56	0000		HALT
3E58	0000		HALT
3E5A	0000		HALT
3E5C	0000		HALT
3E5E	0000		HALT
3E60	0000		HALT
3E62	0000		HALT
3E64	0000		HALT
3E66	0000		HALT
3E68	0000		HALT
3E6A	0000		HALT
3E6C	0000		HALT
3E6E	0000		HALT
3E70	0000		HALT
3E72	0000		HALT
3E74	0000		HALT
3E76	0000		HALT
3E78	0000		HALT
3E7A	0000		HALT
3E7C	0000		HALT
3E7E	0000		HALT
3E80	0000		HALT
3E82	0000		HALT
3E84	0000		HALT
3E86	0000		HALT
3E88	0000		HALT
3E8A	0000		HALT
3E8C	0000		HALT
3E8E	0000		HALT
3E90	0000		HALT
3E92	0000		HALT
3E94	0000		HALT
3E96	0000		HALT
3E98	0000		HALT
3E9A	0000		HALT
3E9C	0000		HALT
3E9E	0000		HALT
3EA0	0000		HALT
3EA2	0000		HALT
3EA4	0000		HALT
3EA6	0000		HALT
3EA8	0000		HALT
3EAA	0000		HALT
3EAC	0000		HALT
3EAE	0000		HALT
3EB0	0000		HALT
3EB2	0000		HALT
3EB4	0000		HALT
3EB6	0000		HALT
3EB8	0000		HALT
3EBA	0000		HALT
3EBC	0000		HALT
3EBE	0000		HALT
3EC0	0000		HALT
3EC2	0000		HALT
3EC4	0000		HALT
3EC6	0000		HALT
3EC8	0000		HALT
3ECA	0000		HALT
3ECC	0000		HALT
3ECE	0000		HALT
3ED0	0000		HALT
3ED2	0000		HALT
3ED4	0000		HALT
3ED6	0000		HALT
3ED8	0000		HALT
3EDA	0000		HALT
3EDC	0000		HALT
3EDE	0000		HALT
3EE0	0000		HALT
3EE2	0000		HALT
3EE4	0000		HALT
3EE6	0000		HALT
3EE8	0000		HALT
3EEA	0000		HALT
3EEC	0000		HALT
3EEE	0000		HALT
3EF0	0000		HALT
3EF2	0000		HALT
3EF4	0000		HALT
3EF6	0000		HALT
3EF8	0000		HALT
3EFA	0000		HALT
3EFC	0000		HALT
3EFE	0000		HALT
3F00	0000		HALT
3F02	0000		HALT
3F04	0000		HALT
3F06	0000		HALT
3F08	0000		HALT
3F0A	0000		HALT
3F0C	0000		HALT
3F0E	0000		HALT
3F10	0000		HALT
3F12	0000		HALT
3F14	0000		HALT
3F16	0000		HALT
3F18	0000		HALT
3F1A	0000		HALT
3F1C	0000		HALT
3F1E	0000		HALT
3F20	0000		HALT
3F22	0000		HALT
3F24	0000		HALT
3F26	0000		HALT
3F28	0000		HALT
3F2A	0000		HALT
3F2C	0000		HALT
3F2E	0000		HALT
3F30	0000		HALT
3F32	0000		HALT
3F34	0000		HALT
3F36	0000		HALT
3F38	0000		HALT
3F3A	0000		HALT
3F3C	0000		HALT
3F3E	0000		HALT
3F40	0000		HALT
3F42	0000		HALT
3F44	0000		HALT
3F46	0000		HALT
3F48	0000		HALT
3F4A	0000		HALT
3F4C	0000		HALT
3F4E	0000		HALT
3F50	0000		HALT
3F52	0000		HALT
3F54	0000		HALT
3F56	0000		HALT
3F58	0000		HALT
3F5A	0000		HALT
3F5C	0000		HALT
3F5E	0000		HALT
3F60	0000		HALT
3F62	0000		HALT
3F64	0000		HALT
3F66	0000		HALT
3F68	0000		HALT
3F6A	0000		HALT
3F6C	0000		HALT
3F6E	0000		HALT
3F70	0000		HALT
3F72	0000		HALT
3F74	0000		HALT
3F76	0000		HALT
3F78	0000		HALT
3F7A	0000		HALT
3F7C	0000		HALT
3F7E	0000		HALT
3F80	0000		HALT
3F82	0000		HALT
3F84	0000		HALT
3F86	0000		HALT
3F88	0000		HALT
3F8A	0000		HALT
3F8C	0000		HALT
3F8E	0000		HALT
3F90	0000		HALT
3F92	0000		HALT
3F94	0000		HALT
3F96	0000		HALT
3F98	0000		HALT
3F9A	0000		HALT
3F9C	0000		HALT
3F9E	0000		HALT
3FA0	0000		HALT
3FA2	0000		HALT
3FA4	0000		HALT
3FA6	0000		HALT
3FA8	0000		HALT
3FAA	0000		HALT
3FAC	0000		HALT
3FAE	0000		HALT
3FB0	0000		HALT
3FB2	0000		HALT
3FB4	0000		HALT
3FB6	0000		HALT
3FB8	0000		HALT
3FBA	0000		HALT
3FBC	0000		HALT
3FBE	0000		HALT
3FC0	0000		HALT
3FC2	0000		HALT
3FC4	0000		HALT
3FC6	0000		HALT
3FC8	0000		HALT
3FCA	0000		HALT
3FCC	0000		HALT
3FCE	0000		HALT
3FD0	0000		HALT
3FD2	0000		HALT
3FD4	0000		HALT
3FD6	0000		HALT
3FD8	0000		HALT
3FDA	0000		HALT
3FDC	0000		HALT
3FDE	0000		HALT
3FE0	0000		HALT
3FE2	0000		HALT
3FE4	0000		HALT
3FE6	0000		HALT
3FE8	0000		HALT
3FEA	0000		HALT
3FEC	0000		HALT
3FEE	0000		HALT
3FF0	0000		HALT
3FF2	8102		LBI R1, #$02
3FF4	011D		MLH R1, R1
3FF6	8132		LBI R1, #$32
3FF8	31E9		MOVE $1D2, R1
3FFA	0824		MOVE R8, R2
3FFC	2050		JMP ($00A0)

3FFE	F00D		BRA $3FF2		; -> -$0E(R0)

Fertig!

