0000	0830		DEC2 R8, R3
0002	17F0		CTRL $7, #$F0
0004	1406		CTRL $4, #$06
0006	1470		CTRL $4, #$70
0008	1288		CTRL $2, #$88
000A	12C4		CTRL $2, #$C4
000C	1000		CTRL $0, #$00
000E	16B4		CTRL $6, #$B4
0010	12EC		CTRL $2, #$EC
0012	12B6		CTRL $2, #$B6
0014	1318		CTRL $3, #$18
0016	133E		CTRL $3, #$3E
0018	12A6		CTRL $2, #$A6
001A	0862		INC R8, R6
001C	05D6		OR R5, R13
001E	1682		CTRL $6, #$82
0020	0830		DEC2 R8, R3
0022	17F0		CTRL $7, #$F0
0024	1406		CTRL $4, #$06
0026	1470		CTRL $4, #$70
0028	1288		CTRL $2, #$88
002A	12C4		CTRL $2, #$C4
002C	1000		CTRL $0, #$00
002E	16B4		CTRL $6, #$B4
0030	12EC		CTRL $2, #$EC
0032	12B6		CTRL $2, #$B6
0034	1318		CTRL $3, #$18
0036	133E		CTRL $3, #$3E
0038	12A6		CTRL $2, #$A6
003A	0862		INC R8, R6
003C	05D6		OR R5, R13
003E	1682		CTRL $6, #$82
0040	0830		DEC2 R8, R3
0042	17F0		CTRL $7, #$F0
0044	1406		CTRL $4, #$06
0046	1470		CTRL $4, #$70
0048	1288		CTRL $2, #$88
004A	12C4		CTRL $2, #$C4
004C	1000		CTRL $0, #$00
004E	16B4		CTRL $6, #$B4
0050	12EC		CTRL $2, #$EC
0052	12B6		CTRL $2, #$B6
0054	1318		CTRL $3, #$18
0056	133E		CTRL $3, #$3E
0058	12A6		CTRL $2, #$A6
005A	0862		INC R8, R6
005C	05D6		OR R5, R13
005E	1682		CTRL $6, #$82
0060	2170		MOVE R1, $E0
0062	076C		MHL R7, R6
0064	1184		CTRL $1, #$84
0066	1176		CTRL $1, #$76
0068	1254		CTRL $2, #$54
006A	1068		CTRL $0, #$68
006C	055A		ADDH R5, R5
006E	1612		CTRL $6, #$12
0070	172C		CTRL $7, #$2C
0072	1766		CTRL $7, #$66
0074	17AE		CTRL $7, #$AE
0076	17DE		CTRL $7, #$DE
0078	127C		CTRL $2, #$7C
007A	07B8		ADD R7, R11
007C	04BA		ADDH R4, R11
007E	1584		CTRL $5, #$84
0080	0830		DEC2 R8, R3
0082	17F0		CTRL $7, #$F0
0084	1406		CTRL $4, #$06
0086	1470		CTRL $4, #$70
0088	1288		CTRL $2, #$88
008A	12C4		CTRL $2, #$C4
008C	1000		CTRL $0, #$00
008E	16B4		CTRL $6, #$B4
0090	12EC		CTRL $2, #$EC
0092	12B6		CTRL $2, #$B6
0094	1318		CTRL $3, #$18
0096	133E		CTRL $3, #$3E
0098	12A6		CTRL $2, #$A6
009A	0862		INC R8, R6
009C	05D6		OR R5, R13
009E	1682		CTRL $6, #$82
00A0	0830		DEC2 R8, R3
00A2	17F0		CTRL $7, #$F0
00A4	1406		CTRL $4, #$06
00A6	1470		CTRL $4, #$70
00A8	1288		CTRL $2, #$88
00AA	12C4		CTRL $2, #$C4
00AC	1000		CTRL $0, #$00
00AE	16B4		CTRL $6, #$B4
00B0	12EC		CTRL $2, #$EC
00B2	12B6		CTRL $2, #$B6
00B4	1318		CTRL $3, #$18
00B6	133E		CTRL $3, #$3E
00B8	12A6		CTRL $2, #$A6
00BA	0862		INC R8, R6
00BC	05D6		OR R5, R13
00BE	1682		CTRL $6, #$82
00C0	0830		DEC2 R8, R3
00C2	17F0		CTRL $7, #$F0
00C4	1406		CTRL $4, #$06
00C6	1470		CTRL $4, #$70
00C8	1288		CTRL $2, #$88
00CA	12C4		CTRL $2, #$C4
00CC	1000		CTRL $0, #$00
00CE	16B4		CTRL $6, #$B4
00D0	12EC		CTRL $2, #$EC
00D2	12B6		CTRL $2, #$B6
00D4	1318		CTRL $3, #$18
00D6	133E		CTRL $3, #$3E
00D8	12A6		CTRL $2, #$A6
00DA	0862		INC R8, R6
00DC	05D6		OR R5, R13
00DE	1682		CTRL $6, #$82
00E0	2160		MOVE R1, $C0
00E2	0750		DEC2 R7, R5
00E4	1194		CTRL $1, #$94
00E6	115A		CTRL $1, #$5A
00E8	122C		CTRL $2, #$2C
00EA	1040		CTRL $0, #$40
00EC	04DA		ADDH R4, R13
00EE	159E		CTRL $5, #$9E
00F0	1708		CTRL $7, #$08
00F2	1742		CTRL $7, #$42
00F4	1792		CTRL $7, #$92
00F6	17BE		CTRL $7, #$BE
00F8	1268		CTRL $2, #$68
00FA	07A0		DEC2 R7, R10
00FC	047E		GETB R7, $4
00FE	1554		CTRL $5, #$54
0100	0830		DEC2 R8, R3
0102	17F0		CTRL $7, #$F0
0104	1406		CTRL $4, #$06
0106	1470		CTRL $4, #$70
0108	1288		CTRL $2, #$88
010A	12C4		CTRL $2, #$C4
010C	1000		CTRL $0, #$00
010E	16B4		CTRL $6, #$B4
0110	12EC		CTRL $2, #$EC
0112	12B6		CTRL $2, #$B6
0114	1318		CTRL $3, #$18
0116	133E		CTRL $3, #$3E
0118	12A6		CTRL $2, #$A6
011A	0862		INC R8, R6
011C	05D6		OR R5, R13
011E	1682		CTRL $6, #$82
0120	0830		DEC2 R8, R3
0122	17F0		CTRL $7, #$F0
0124	1406		CTRL $4, #$06
0126	1470		CTRL $4, #$70
0128	1288		CTRL $2, #$88
012A	12C4		CTRL $2, #$C4
012C	1000		CTRL $0, #$00
012E	16B4		CTRL $6, #$B4
0130	12EC		CTRL $2, #$EC
0132	12B6		CTRL $2, #$B6
0134	1318		CTRL $3, #$18
0136	133E		CTRL $3, #$3E
0138	12A6		CTRL $2, #$A6
013A	0862		INC R8, R6
013C	05D6		OR R5, R13
013E	1682		CTRL $6, #$82
0140	0830		DEC2 R8, R3
0142	17F0		CTRL $7, #$F0
0144	1406		CTRL $4, #$06
0146	1470		CTRL $4, #$70
0148	1288		CTRL $2, #$88
014A	12C4		CTRL $2, #$C4
014C	1000		CTRL $0, #$00
014E	16B4		CTRL $6, #$B4
0150	12EC		CTRL $2, #$EC
0152	12B6		CTRL $2, #$B6
0154	1318		CTRL $3, #$18
0156	133E		CTRL $3, #$3E
0158	12A6		CTRL $2, #$A6
015A	0862		INC R8, R6
015C	05D6		OR R5, R13
015E	1682		CTRL $6, #$82
0160	2168		MOVE R1, $D0
0162	075E		GETB R5, $7
0164	11A4		CTRL $1, #$A4
0166	1168		CTRL $1, #$68
0168	1240		CTRL $2, #$40
016A	1054		CTRL $0, #$54
016C	051A		ADDH R5, R1
016E	15D8		CTRL $5, #$D8
0170	171A		CTRL $7, #$1A
0172	1754		CTRL $7, #$54
0174	17A0		CTRL $7, #$A0
0176	17CE		CTRL $7, #$CE
0178	1272		CTRL $2, #$72
017A	07AC		MHL R7, R10
017C	049C		MHL R4, R9
017E	156C		CTRL $5, #$6C
0180	067C		MHL R6, R7
0182	0716		OR R7, R1
0184	0268		ADD R2, R6
0186	152A		CTRL $5, #$2A
0188	0816		OR R8, R1
018A	10C4		CTRL $0, #$C4
018C	1130		CTRL $1, #$30
018E	3112		MOVE $24, R1
0190	08FE		GETB R15, $8
0192	0922		INC R9, R2
0194	0946		OR R9, R4
0196	096A		ADDH R9, R6
0198	098E		GETB R8, $9
019A	09B2		INC R9, R11
019C	1204		CTRL $2, #$04
019E	0268		ADD R2, R6
01A0	062C		MHL R6, R2
01A2	06A6		OR R6, R10
01A4	0268		ADD R2, R6
01A6	14DE		CTRL $4, #$DE
01A8	07E2		INC R7, R14
01AA	108C		CTRL $0, #$8C
01AC	10E0		CTRL $0, #$E0
01AE	3102		MOVE $04, R1
01B0	09D6		OR R9, R13
01B2	09F4		MOVE R9, R15
01B4	0A12		INC R10, R1
01B6	0A30		DEC2 R10, R3
01B8	0A4E		GETB R4, $A
01BA	0A6C		MHL R10, R6
01BC	11B4		CTRL $1, #$B4
01BE	0268		ADD R2, R6
01C0	0654		MOVE R6, R5
01C2	06DE		GETB R13, $6
01C4	0268		ADD R2, R6
01C6	1504		CTRL $5, #$04
01C8	07FC		MHL R7, R15
01CA	10A8		CTRL $0, #$A8
01CC	1108		CTRL $1, #$08
01CE	310A		MOVE $14, R1
01D0	0A8A		ADDH R10, R8
01D2	0AA8		ADD R10, R10
01D4	0AC6		OR R10, R12
01D6	0AE4		MOVE R10, R14
01D8	0B02		INC R11, R0
01DA	0B20		DEC2 R11, R2
01DC	11DC		CTRL $1, #$DC
01DE	0268		ADD R2, R6
01E0	0620		DEC2 R6, R2
01E2	060A		ADDH R6, R0
01E4	0268		ADD R2, R6
01E6	0268		ADD R2, R6
01E8	0268		ADD R2, R6
01EA	2484		MOVE R4, $108
01EC	13B6		CTRL $3, #$B6
01EE	1364		CTRL $3, #$64
01F0	059A		ADDH R5, R9
01F2	164C		CTRL $6, #$4C
01F4	07C8		ADD R7, R12
01F6	107C		CTRL $0, #$7C
01F8	0792		INC R7, R9
01FA	077C		MHL R7, R7
01FC	01A6		OR R1, R10
01FE	0150		DEC2 R1, R5
0200	F003		BRA $01FE		; -> -$04(R0)

0202	A6FE		ADD R6, #$FF
0204	0004		NOP
0206	01CD		MLH R1, R12
0208	5FD4		MOVE (R13)~, R15
020A	1E03		CTRL $E, #$03
020C	01CB		ADDH2 R1, R12
020E	5FD2		MOVE (R13)+', R15
0210	0004		NOP
0212	01CF		GETA R12, $1
0214	77EC		MOVB (R14), R7
0216	0005		AND R0, R0
0218	01DA		ADDH R1, R13
021A	5FC6		MOVE (R12)-~, R15
021C	0004		NOP
021E	01DD		MLH R1, R13
0220	5FC4		MOVE (R12)~, R15
0222	0005		AND R0, R0
0224	01E3		INC2 R1, R14
0226	2FE8		MOVE R15, $1D0
0228	1F02		CTRL $F, #$02
022A	01D1		DEC R1, R13
022C	53F6		MOVE (R15)-~, R3
022E	1C04		CTRL $C, #$04
0230	01D2		INC R1, R13
0232	17FC		CTRL $7, #$FC
0234	1D04		CTRL $D, #$04
0236	01D4		MOVE R1, R13
0238	47FC		PUTB $7, (R15)
023A	2504		MOVE R5, $08
023C	01D6		OR R1, R13
023E	6BF6		MOVB R11, (R15)---
0240	2400		MOVE R4, $00
0242	0EEB		ADDH2 R14, R14
0244	0EEA		ADDH R14, R14
0246	2004		JMP ($0008)

0248	01D8		ADD R1, R13
024A	83FA		LBI R3, #$FA
024C	2305		MOVE R3, $0A
024E	01E6		OR R1, R14
0250	6BFA		MOVB R11, (R15)
0252	2204		MOVE R2, $08
0254	01E9		SUB R1, R14
0256	3BBC		MOVE $178, R11
0258	0005		AND R0, R0
025A	01EB		ADDH2 R1, R14
025C	5FFC		MOVE (R15), R15
025E	2104		MOVE R1, $08
0260	01EE		GETB R14, $1
0262	2FFC		MOVE R15, $1F8
0264	0006		OR R0, R0
0266	01F0		DEC2 R1, R15
0268	83DC		LBI R3, #$DC
026A	0003		INC2 R0, R0
026C	01FE		GETB R15, $1
026E	53F2		MOVE (R15)+', R3
0270	0004		NOP
0272	01F3		INC2 R1, R15
0274	6BF0		MOVB R11, (R15)+
0276	0E05		AND R14, R0
0278	028D		MLH R2, R8
027A	052D		MLH R5, R2
027C	1504		CTRL $5, #$04
027E	02A7		XOR R2, R10
0280	052D		MLH R5, R2
0282	0003		INC2 R0, R0
0284	020B		ADDH2 R2, R0
0286	83E8		LBI R3, #$E8
0288	0002		INC R0, R0
028A	022C		MHL R2, R2
028C	5FCC		MOVE (R12), R15
028E	0007		XOR R0, R0
0290	0237		XOR R2, R3
0292	23EA		MOVE R3, $1D4
0294	1203		CTRL $2, #$03
0296	022E		GETB R2, $2
0298	47E2		PUTB $7, (R14)+++
029A	1403		CTRL $4, #$03
029C	0231		DEC R2, R3
029E	83EC		LBI R3, #$EC
02A0	0003		INC2 R0, R0
02A2	0234		MOVE R2, R3
02A4	83EC		LBI R3, #$EC
02A6	0404		MOVE R4, R0
02A8	023C		MHL R2, R3
02AA	23EA		MOVE R3, $1D4
02AC	1305		CTRL $3, #$05
02AE	023F		GETA R3, $2
02B0	23EA		MOVE R3, $1D4
02B2	0206		OR R2, R0
02B4	0243		INC2 R2, R4
02B6	47E2		PUTB $7, (R14)+++
02B8	0905		AND R9, R0
02BA	0247		XOR R2, R4
02BC	2FEE		MOVE R15, $1DC
02BE	1004		CTRL $0, #$04
02C0	0217		XOR R2, R1
02C2	77F2		MOVB (R15)+++, R7
02C4	0F03		INC2 R15, R0
02C6	024B		ADDH2 R2, R4
02C8	2FE6		MOVE R15, $1CC
02CA	0804		MOVE R8, R0
02CC	024E		GETB R4, $2
02CE	2FE4		MOVE R15, $1C8
02D0	0504		MOVE R5, R0
02D2	0251		DEC R2, R5
02D4	2FEE		MOVE R15, $1DC
02D6	0B05		AND R11, R0
02D8	0254		MOVE R2, R5
02DA	2FEE		MOVE R15, $1DC
02DC	0004		NOP
02DE	0258		ADD R2, R5
02E0	2FEE		MOVE R15, $1DC
02E2	0003		INC2 R0, R0
02E4	025B		ADDH2 R2, R5
02E6	2FEE		MOVE R15, $1DC
02E8	0003		INC2 R0, R0
02EA	025E		GETB R5, $2
02EC	2FEE		MOVE R15, $1DC
02EE	1607		CTRL $6, #$07
02F0	0261		DEC R2, R6
02F2	2FEE		MOVE R15, $1DC
02F4	0305		AND R3, R0
02F6	0266		OR R2, R6
02F8	3BE6		MOVE $1CC, R11
02FA	1705		CTRL $7, #$05
02FC	026A		ADDH R2, R6
02FE	3BE8		MOVE $1D0, R11
0300	1904		CTRL $9, #$04
0302	020E		GETB R0, $2
0304	47F2		PUTB $7, (R15)+++
0306	0006		OR R0, R0
0308	0274		MOVE R2, R7
030A	3BE6		MOVE $1CC, R11
030C	0A04		MOVE R10, R0
030E	0271		DEC R2, R7
0310	3BEA		MOVE $1D4, R11
0312	1105		CTRL $1, #$05
0314	0289		SUB R2, R8
0316	3BE4		MOVE $1C8, R11
0318	0703		INC2 R7, R0
031A	0286		OR R2, R8
031C	2FF6		MOVE R15, $1EC
031E	0D05		AND R13, R0
0320	0211		DEC R2, R1
0322	3BF4		MOVE $1E8, R11
0324	0008		ADD R0, R0
0326	0227		XOR R2, R2
0328	3BF2		MOVE $1E4, R11
032A	000B		ADDH2 R0, R0
032C	0220		DEC2 R2, R2
032E	3BFC		MOVE $1F8, R11
0330	000A		ADDH R0, R0
0332	021A		ADDH R2, R1
0334	3BFA		MOVE $1F4, R11
0336	0103		INC2 R1, R0
0338	026E		GETB R6, $2
033A	3BEC		MOVE $1D8, R11
033C	1A03		CTRL $A, #$03
033E	0278		ADD R2, R7
0340	3BEC		MOVE $1D8, R11
0342	0605		AND R6, R0
0344	027B		ADDH2 R2, R7
0346	3BEE		MOVE $1DC, R11
0348	1804		CTRL $8, #$04
034A	027F		GETA R7, $2
034C	3BF0		MOVE $1E0, R11
034E	0C05		AND R12, R0
0350	0282		INC R2, R8
0352	3BF8		MOVE $1F0, R11
0354	FFFF		SUB R15, #$100
0356	FFFF		SUB R15, #$100
0358	FFFF		SUB R15, #$100
035A	0004		NOP
035C	02EB		ADDH2 R2, R14
035E	50F0		MOVE (R15)', R0
0360	0002		INC R0, R0
0362	02DF		GETA R13, $2
0364	50F2		MOVE (R15)+', R0
0366	0005		AND R0, R0
0368	02E8		ADD R2, R14
036A	50F1		MOVE (R15)+, R0
036C	0003		INC2 R0, R0
036E	02E0		DEC2 R2, R14
0370	50F3		MOVE (R15)++, R0
0372	0005		AND R0, R0
0374	02E2		INC R2, R14
0376	50F4		MOVE (R15)~, R0
0378	0005		AND R0, R0
037A	02E5		AND R2, R14
037C	50F5		MOVE (R15)-, R0
037E	0005		AND R0, R0
0380	02EF		GETA R14, $2
0382	50F6		MOVE (R15)-~, R0
0384	0005		AND R0, R0
0386	02F2		INC R2, R15
0388	50F7		MOVE (R15)--, R0
038A	0004		NOP
038C	02ED		MLH R2, R14
038E	3D24		MOVE $48, R13
0390	FFFF		SUB R15, #$100
0392	FFFF		SUB R15, #$100
0394	FFFF		SUB R15, #$100
0396	D9E4		MOVE R9, (R14)~
0398	D5FE		MOVE R5, (R15)
039A	D9E4		MOVE R9, (R14)~
039C	D5E2		MOVE R5, (R14)+'
039E	D7D9		MOVE R7, (R13)
03A0	D6C3		MOVE R6, (R12)++
03A2	C7D6		SBC R7, R13
03A4	D3D6		MOVE R3, (R13)-~
03A6	C1C4		SS R1
03A8	E2C1		
03AA	E5C5		
03AC	D4C1		MOVE R4, (R12)+
03AE	D9D2		MOVE R9, (R13)+'
03B0	D3C9		MOVE R3, (R12)
03B2	E2E3		
03B4	C3E2		SE R3, R14
03B6	D2C9		MOVE R2, (R12)
03B8	D7FE		MOVE R7, (R15)
03BA	E2D2		
03BC	C9D7		SBSH R9, R13
03BE	C9D5		SBS R9, R13
03C0	7ED7		MOVB (R13)----, R14
03C2	D9C3		MOVE R9, (R12)++
03C4	7EFE		MOVB (R15), R14
03C6	C1D3		SZ R1
03C8	C5D9		SGE R5, R13
03CA	E3FE		
03CC	D9C5		MOVE R9, (R12)-
03CE	D5E4		MOVE R5, (R14)~
03D0	D4FE		MOVE R4, (R15)
03D2	C1E4		SS R1
03D4	E3D6		
03D6	D4C5		MOVE R4, (R12)-
03D8	D9C7		MOVE R9, (R12)--
03DA	C5FE		SNBC R5, R15
03DC	E4E3		
03DE	C9D3		SZ R9
03E0	D9C5		MOVE R9, (R12)-
03E2	E6C9		
03E4	D5C4		MOVE R5, (R12)~
03E6	D3C9		MOVE R3, (R12)
03E8	D5D2		MOVE R5, (R13)+'
03EA	E2E3		
03EC	C5D7		SBSH R5, R13
03EE	D3D6		MOVE R3, (R13)-~
03F0	C3D2		SE R3, R13
03F2	E3D9		
03F4	C1C3		SZ R1
03F6	C5FE		SNBC R5, R15
03F8	D77E		MOVE R7, (R7)
03FA	C4FE		SNBC R4, R15
03FC	D9C4		MOVE R9, (R12)~
03FE	7EFE		MOVB (R15), R14
0400	D2C5		MOVE R2, (R12)-
0402	E8E2		
0404	C2C1		SLT R2, R12
0406	E2C9		
0408	C3FE		SNBC R3, R15
040A	E2D6		
040C	E4D9		
040E	C3C5		SBS R3, R12
0410	C4C9		SGE R4, R12
0412	D9FE		MOVE R9, (R15)
0414	0032		INC R0, R3
0416	D3C5		MOVE R3, (R12)-
0418	E3FE		
041A	001F		GETA R1, $0
041C	C5E7		SBSH R5, R14
041E	C9E3		SZ R9
0420	0008		ADD R0, R0
0422	E6D9		
0424	C9E3		SZ R9
0426	C5C6		SBC R5, R12
0428	C9D3		SZ R9
042A	C5FE		SNBC R5, R15
042C	0022		INC R0, R2
042E	C6D6		SBC R6, R13
0430	D9D4		MOVE R9, (R13)~
0432	000C		MHL R0, R0
0434	D9C5		MOVE R9, (R12)-
0436	D9C5		MOVE R9, (R12)-
0438	C1C4		SS R1
043A	C6C9		SGE R6, R12
043C	D3C5		MOVE R3, (R12)-
043E	0010		DEC2 R0, R1
0440	D9C5		MOVE R9, (R12)-
0442	E6D9		
0444	C9E3		SZ R9
0446	C5C6		SBC R5, R12
0448	C9D3		SZ R9
044A	C5FE		SNBC R5, R15
044C	0004		NOP
044E	D9C5		MOVE R9, (R12)-
0450	C1C4		SS R1
0452	C6C9		SGE R6, R12
0454	D3C5		MOVE R3, (R12)-
0456	002E		GETB R2, $0
0458	C9C6		SBC R9, R12
045A	003C		MHL R0, R3
045C	C4C5		SBS R4, R12
045E	C6FE		SNBC R6, R15
0460	002D		MLH R0, R2
0462	C4C9		SGE R4, R12
0464	D4FE		MOVE R4, (R15)
0466	0039		SUB R0, R3
0468	E4E2		
046A	C5FE		SNBC R5, R15
046C	0025		AND R0, R2
046E	D6D5		MOVE R6, (R13)-
0470	C5D9		SGE R5, R13
0472	D9D6		MOVE R9, (R13)-~
0474	D9FE		MOVE R9, (R15)
0476	0030		DEC2 R0, R3
0478	C7D6		SBC R7, R13
047A	E3D6		
047C	0031		DEC R0, R3
047E	C7D6		SBC R7, R13
0480	E2E4		
0482	C2FE		SNBC R2, R15
0484	0026		OR R0, R2
0486	D9C5		MOVE R9, (R12)-
0488	E3E4		
048A	D9D5		MOVE R9, (R13)-
048C	002B		ADDH2 R0, R2
048E	C6D5		SBS R6, R13
0490	C5D5		SBS R5, R13
0492	C4FE		SNBC R4, R15
0494	0029		SUB R0, R2
0496	C6D6		SBC R6, R13
0498	D9FE		MOVE R9, (R15)
049A	002A		ADDH R0, R2
049C	D5C5		MOVE R5, (R12)-
049E	E7E3		
04A0	0028		ADD R0, R2
04A2	C4C1		SLT R4, R12
04A4	E3C1		
04A6	002C		MHL R0, R2
04A8	D7C1		MOVE R7, (R12)+
04AA	E4E2		
04AC	C5FE		SNBC R5, R15
04AE	0034		RET R3

04B0	E2E3		
04B2	D6D7		MOVE R6, (R13)--
04B4	0035		AND R0, R3
04B6	C5D5		SBS R5, R13
04B8	C4FE		SNBC R4, R15
04BA	0038		ADD R0, R3
04BC	D9C5		MOVE R9, (R12)-
04BE	D4FE		MOVE R4, (R15)
04C0	003B		ADDH2 R0, R3
04C2	D9C5		MOVE R9, (R12)-
04C4	E2E3		
04C6	D6D9		MOVE R6, (R13)
04C8	C5FE		SNBC R5, R15
04CA	001B		ADDH2 R0, R1
04CC	D9C5		MOVE R9, (R12)-
04CE	E2C5		
04D0	E3FE		
04D2	0018		ADD R0, R1
04D4	C3D3		SZ R3
04D6	D6E2		MOVE R6, (R14)+'
04D8	C5FE		SNBC R5, R15
04DA	0014		RET R1

04DC	C7C5		SBS R7, R12
04DE	E3FE		
04E0	0020		DEC2 R0, R2
04E2	D6D7		MOVE R6, (R13)--
04E4	C5D5		SBS R5, R13
04E6	001A		ADDH R0, R1
04E8	C4C5		SBS R4, R12
04EA	D3C5		MOVE R3, (R12)-
04EC	E3C5		
04EE	0016		OR R0, R1
04F0	D7E4		MOVE R7, (R14)~
04F2	E3FE		
04F4	001D		MLH R0, R1
04F6	C9D5		SBS R9, R13
04F8	D7E4		MOVE R7, (R14)~
04FA	E3FE		
04FC	0023		INC2 R0, R2
04FE	D9C5		MOVE R9, (R12)-
0500	C1C4		SS R1
0502	0000		HALT
0504	D7D9		MOVE R7, (R13)
0506	C9D5		SBS R9, R13
0508	E3FE		
050A	002F		GETA R2, $0
050C	D4C1		MOVE R4, (R12)+
050E	E3FE		
0510	0027		XOR R0, R2
0512	C3C8		SGT R3, R12
0514	C1C9		SGE R1, R12
0516	D5FE		MOVE R5, (R15)
0518	0000		HALT
051A	E4E2		
051C	C9D5		SBS R9, R13
051E	C7FE		SNBC R7, R15
0520	0036		OR R0, R3
0522	C3D4		SS R3
0524	C4FE		SNBC R4, R15
0526	0037		XOR R0, R3
0528	E3E7		
052A	E3FE		
052C	C5D9		SGE R5, R13
052E	D9D6		MOVE R9, (R13)-~
0530	D9FE		MOVE R9, (R15)
0532	4F4F		PUTB $F, (R4)
0534	4F4F		PUTB $F, (R4)
0536	C1C9		SGE R1, R12
0538	C4E7		SBSH R4, R14
053A	4DFE		PUTB $D, (R15)
053C	C4C9		SGE R4, R12
053E	C4E7		SBSH R4, R14
0540	4DFE		PUTB $D, (R15)
0542	C4C2		SE R4, R12
0544	C3D9		SGE R3, R13
0546	D7D6		MOVE R7, (R13)-~
0548	E2FE		
054A	D7C9		MOVE R7, (R12)
054C	C34D		SNBS R3, R4
054E	C6C9		SGE R6, R12
0550	D3C5		MOVE R3, (R12)-
0552	6BC1		MOVB R11, (R12)++
0554	D3D3		MOVE R3, (R13)++
0556	6BC5		MOVB R11, (R12)--
0558	D6C6		MOVE R6, (R12)-~
055A	C1E3		SZ R1
055C	E3D5		
055E	D9C5		MOVE R9, (R12)-
0560	C1C4		SS R1
0562	E8FE		
0564	9989		CLR R9, #$89
0566	D5E4		MOVE R5, (R14)~
0568	D3D3		MOVE R3, (R13)++
056A	6BC3		MOVB R11, (R12)++++
056C	D6D5		MOVE R6, (R13)-
056E	E5FE		
0570	6BC9		MOVB R11, (R12)
0572	D6C5		MOVE R6, (R12)-
0574	D9D9		MOVE R9, (R13)
0576	C4F8		SGT R4, R15
0578	F0FE		BRA $047B		; -> -$FF(R0)

057A	E2E8		
057C	E2E3		
057E	C5D4		SS R5
0580	6BC5		MOVB R11, (R12)--
0582	E7C9		
0584	E3FE		
0586	D9C5		MOVE R9, (R12)-
0588	C37E		SNBC R3, R7
058A	6BD5		MOVB R11, (R13)--
058C	D6D9		MOVE R6, (R13)
058E	C5C3		SZ R5
0590	6BD5		MOVB R11, (R13)--
0592	D6D2		MOVE R6, (R13)+'
0594	C5E8		SGT R5, R14
0596	6BC4		MOVB R11, (R12)-
0598	E4D7		
059A	D2C5		MOVE R2, (R12)-
059C	E8FE		
059E	6BD2		MOVB R11, (R13)+++
05A0	C5E8		SGT R5, R14
05A2	6BD2		MOVB R11, (R13)+++
05A4	D77E		MOVE R7, (R7)
05A6	6BD2		MOVB R11, (R13)+++
05A8	D37E		MOVE R3, (R7)
05AA	6BD2		MOVB R11, (R13)+++
05AC	E67E		
05AE	D6D5		MOVE R6, (R13)-
05B0	C6D3		SZ R6
05B2	C4C5		SBS R4, R12
05B4	D3FE		MOVE R3, (R15)
05B6	E3C8		
05B8	C5D5		SBS R5, R13
05BA	E3D6		
05BC	E77D		
05BE	50C5		MOVE (R12)-, R0
05C0	50D7		MOVE (R13)--, R0
05C2	C9FE		SNBC R9, R15
05C4	50E2		MOVE (R14)+', R0
05C6	D8D9		MOVE R8, (R13)
05C8	F2FE		SUB R2, #$FF
05CA	50C7		MOVE (R12)--, R0
05CC	C1D3		SZ R1
05CE	C9FE		SNBC R9, R15
05D0	50D3		MOVE (R13)++, R0
05D2	C9D5		SBS R9, R13
05D4	C5FE		SNBC R5, R15
05D6	50C5		MOVE (R12)-, R0
05D8	D9D9		MOVE R9, (R13)
05DA	50D9		MOVE (R13), R0
05DC	C5C3		SZ R5
05DE	50C9		MOVE (R12), R0
05E0	D5C3		MOVE R5, (R12)++
05E2	D4FE		MOVE R4, (R15)
05E4	50D3		MOVE (R13)++, R0
05E6	C2D2		SE R2, R13
05E8	C7FE		SNBC R7, R15
05EA	C9C4		SS R9
05EC	D5FE		MOVE R5, (R15)
05EE	E3D9		
05F0	D54D		MOVE R5, (R4)
05F2	C9D5		SBS R9, R13
05F4	E54D		
05F6	C6D5		SBS R6, R13
05F8	E9FE		
05FA	E3C1		
05FC	C24D		SNBS R2, R4
05FE	D4C9		MOVE R4, (R12)
0600	D54D		MOVE R5, (R4)
0602	D4C1		MOVE R4, (R12)+
0604	E74D		
0606	6BD6		MOVB R11, (R13)---
0608	E4E3		
060A	6BD9		MOVB R11, (R13)
060C	C5C3		SZ R5
060E	D37E		MOVE R3, (R7)
0610	6BD5		MOVB R11, (R13)--
0612	D6C2		MOVE R6, (R12)+'
0614	D3D6		MOVE R3, (R13)-~
0616	C3D2		SE R3, R13
0618	6BE2		MOVB R11, (R14)+++
061A	C5D8		SGT R5, R13
061C	6BC9		MOVB R11, (R12)
061E	D5FE		MOVE R5, (R15)
0620	D7D9		MOVE R7, (R13)
0622	D6E3		MOVE R6, (R14)++
0624	C5C3		SZ R5
0626	E3FE		
0628	C6C9		SGE R6, R12
062A	D3C5		MOVE R3, (R12)-
062C	C9C4		SS R9
062E	E5D6		
0630	D3C9		MOVE R3, (R12)
0632	C4FE		SNBC R4, R15
0634	C4D9		SGE R4, R13
0636	D6D7		MOVE R6, (R13)--
0638	C6D9		SGE R6, R13
063A	C5C5		SBS R5, R12
063C	E2D6		
063E	D9E3		MOVE R9, (R14)++
0640	D6C6		MOVE R6, (R12)-~
0642	C6FE		SNBC R6, R15
0644	E2E3		
0646	D94D		MOVE R9, (R4)
0648	3D04		MOVE $08, R13
064A	C3C8		SGT R3, R12
064C	D94D		MOVE R9, (R4)
064E	3D23		MOVE $46, R13
0650	E2C9		
0652	D54D		MOVE R5, (R4)
0654	3D05		MOVE $0A, R13
0656	D3C5		MOVE R3, (R12)-
0658	D54D		MOVE R5, (R4)
065A	3D20		MOVE $40, R13
065C	C9C4		SS R9
065E	E74D		
0660	3D21		MOVE $42, R13
0662	D5E4		MOVE R5, (R14)~
0664	D44D		MOVE R4, (R4)
0666	3D22		MOVE $44, R13
0668	E2E4		
066A	D44D		MOVE R4, (R4)
066C	3D02		MOVE $04, R13
066E	D7D9		MOVE R7, (R13)
0670	C44D		SNBS R4, R4
0672	3D03		MOVE $06, R13
0674	C6C1		SLT R6, R12
0676	C84D		SNBS R8, R4
0678	3D1C		MOVE $38, R13
067A	C3C5		SBS R3, R12
067C	D54D		MOVE R5, (R4)
067E	3D1D		MOVE $3A, R13
0680	D4C9		MOVE R4, (R12)
0682	D54D		MOVE R5, (R4)
0684	3D1E		MOVE $3C, R13
0686	D4C1		MOVE R4, (R12)+
0688	E74D		
068A	3D1F		MOVE $3E, R13
068C	C3D6		SBC R3, R13
068E	E24D		
0690	3D06		MOVE $0C, R13
0692	E3C1		
0694	D54D		MOVE R5, (R4)
0696	3D07		MOVE $0E, R13
0698	C3D6		SBC R3, R13
069A	E34D		
069C	3D08		MOVE $10, R13
069E	E2C5		
06A0	C34D		SNBS R3, R4
06A2	3D09		MOVE $12, R13
06A4	C3E2		SE R3, R14
06A6	C34D		SNBS R3, R4
06A8	3D0A		MOVE $14, R13
06AA	C1E2		SE R1, R14
06AC	D54D		MOVE R5, (R4)
06AE	3D0B		MOVE $16, R13
06B0	C1C3		SZ R1
06B2	E24D		
06B4	3D0C		MOVE $18, R13
06B6	C1E3		SZ R1
06B8	D54D		MOVE R5, (R4)
06BA	3D0D		MOVE $1A, R13
06BC	C4C5		SBS R4, R12
06BE	C74D		SNBS R7, R4
06C0	3D0E		MOVE $1C, R13
06C2	D9C1		MOVE R9, (R12)+
06C4	C44D		SNBS R4, R4
06C6	3D0F		MOVE $1E, R13
06C8	C1C2		SE R1, R12
06CA	E24D		
06CC	3D10		MOVE $20, R13
06CE	E2D8		
06D0	D94D		MOVE R9, (R4)
06D2	3D11		MOVE $22, R13
06D4	C9D5		SBS R9, R13
06D6	E34D		
06D8	3D12		MOVE $24, R13
06DA	E2C7		
06DC	D54D		MOVE R5, (R4)
06DE	3D13		MOVE $26, R13
06E0	D9D5		MOVE R9, (R13)-
06E2	C44D		SNBS R4, R4
06E4	3D14		MOVE $28, R13
06E6	C4C5		SBS R4, R12
06E8	E34D		
06EA	3D01		MOVE $02, R13
06EC	C8E2		SE R8, R14
06EE	D54D		MOVE R5, (R4)
06F0	3D15		MOVE $2A, R13
06F2	C8C3		SZ R8
06F4	E24D		
06F6	3D16		MOVE $2C, R13
06F8	C8E3		SZ R8
06FA	D54D		MOVE R5, (R4)
06FC	3D17		MOVE $2E, R13
06FE	C5E7		SBSH R5, R14
0700	D74D		MOVE R7, (R4)
0702	3D18		MOVE $30, R13
0704	D3D6		MOVE R3, (R13)-~
0706	C74D		SNBS R7, R4
0708	3D19		MOVE $32, R13
070A	D3E3		MOVE R3, (R14)++
070C	E64D		
070E	3D1A		MOVE $34, R13
0710	D3C7		MOVE R3, (R12)--
0712	E34D		
0714	3D1B		MOVE $36, R13
0716	D9D3		MOVE R9, (R13)++
0718	D54D		MOVE R5, (R4)
071A	3D27		MOVE $4E, R13
071C	D2D7		MOVE R2, (R13)--
071E	E24D		
0720	3D26		MOVE $4C, R13
0722	D2D3		MOVE R2, (R13)++
0724	D54D		MOVE R5, (R4)
0726	3D25		MOVE $4A, R13
0728	FFFF		SUB R15, #$100
072A	FFFF		SUB R15, #$100
072C	FFFF		SUB R15, #$100
072E	F0F0		BRA $063F		; -> -$F1(R0)

0730	F1F1		SUB R1, #$F2
0732	F2F2		SUB R2, #$F3
0734	F3F3		SUB R3, #$F4
0736	F4F4		SUB R4, #$F5
0738	F5F5		SUB R5, #$F6
073A	F6F6		SUB R6, #$F7
073C	F7F7		SUB R7, #$F8
073E	F8F8		SUB R8, #$F9
0740	F9F9		SUB R9, #$FA
0742	2710		MOVE R7, $20
0744	03E8		ADD R3, R14
0746	0064		RET R6

0748	000A		ADDH R0, R0
074A	0001		DEC R0, R0
074C	3340		MOVE $80, R3
074E	070E		GETB R0, $7
0750	3C00		MOVE $00, R12
0752	0B00		DEC2 R11, R0
0754	0440		DEC2 R4, R4
0756	0B01		DEC R11, R0
0758	0B00		DEC2 R11, R0
075A	3C01		MOVE $02, R12
075C	0B03		INC2 R11, R0
075E	3340		MOVE $80, R3
0760	0580		DEC2 R5, R8
0762	3440		MOVE $80, R4
0764	0B04		MOVE R11, R0
0766	3440		MOVE $80, R4
0768	0B26		OR R11, R2
076A	3C04		MOVE $08, R12
076C	0B22		INC R11, R2
076E	3C01		MOVE $02, R12
0770	0B24		MOVE R11, R2
0772	3340		MOVE $80, R3
0774	0040		DEC2 R0, R4
0776	3440		MOVE $80, R4
0778	0B06		OR R11, R0
077A	3440		MOVE $80, R4
077C	0B28		ADD R11, R2
077E	3340		MOVE $80, R3
0780	05C0		DEC2 R5, R12
0782	3440		MOVE $80, R4
0784	0B16		OR R11, R1
0786	3440		MOVE $80, R4
0788	0B38		ADD R11, R3
078A	3C10		MOVE $20, R12
078C	0B73		INC2 R11, R7
078E	3C10		MOVE $20, R12
0790	0B75		AND R11, R7
0792	3C01		MOVE $02, R12
0794	0B5A		ADDH R11, R5
0796	3310		MOVE $20, R3
0798	0B82		INC R11, R8
079A	3340		MOVE $80, R3
079C	0BA0		DEC2 R11, R10
079E	4C00		PUTB $C, (R0)+
07A0	000B		ADDH2 R0, R0
07A2	5A3E		MOVE (R3), R10
07A4	010B		ADDH2 R1, R0
07A6	5A73		MOVE (R7)++, R10
07A8	1003		CTRL $0, #$03
07AA	FA40		SUB R10, #$41
07AC	1028		CTRL $0, #$28
07AE	03CF		GETA R12, $3
07B0	3530		MOVE $60, R5
07B2	00A8		ADD R0, R10
07B4	3430		MOVE $60, R4
07B6	0B5D		MLH R11, R5
07B8	3430		MOVE $60, R4
07BA	0B61		DEC R11, R6
07BC	3350		MOVE $A0, R3
07BE	120E		CTRL $2, #$0E
07C0	3450		MOVE $A0, R4
07C2	0B5F		GETA R5, $B
07C4	3450		MOVE $A0, R4
07C6	0B63		INC2 R11, R6
07C8	F117		SUB R1, #$18
07CA	E4FE		
07CC	3C06		MOVE $0C, R12
07CE	0C62		INC R12, R6
07D0	3C08		MOVE $10, R12
07D2	1081		CTRL $0, #$81
07D4	C70A		SNE R7, R0
07D6	1080		CTRL $0, #$80
07D8	3C10		MOVE $20, R12
07DA	1081		CTRL $0, #$81
07DC	C620		SLE R6, R2
07DE	77E6		MOVB (R14)---, R7
07E0	B320		SET R3, #$20
07E2	6825		MOVB R8, (R2)--
07E4	070F		GETA R0, $7
07E6	2400		MOVE R4, $00
07E8	C702		SE R7, R0
07EA	0F24		MOVE R15, R2
07EC	C70C		SNS R7
07EE	0168		ADD R1, R6
07F0	3C08		MOVE $10, R12
07F2	0EBF		GETA R11, $E
07F4	3C04		MOVE $08, R12
07F6	0B02		INC R11, R0
07F8	C300		SLE R3, R0
07FA	0B00		DEC2 R11, R0
07FC	3C02		MOVE $04, R12
07FE	0B02		INC R11, R0
0800	0503		INC2 R5, R0
0802	0580		DEC2 R5, R8
0804	01D2		INC R1, R13
0806	3CF0		MOVE $1E0, R12
0808	0584		MOVE R5, R8
080A	3330		MOVE $60, R3
080C	0102		INC R1, R0
080E	3430		MOVE $60, R4
0810	0B2C		MHL R11, R2
0812	0502		INC R5, R0
0814	0B69		SUB R11, R6
0816	02BB		ADDH2 R2, R11
0818	3310		MOVE $20, R3
081A	0F24		MOVE R15, R2
081C	4911		PUTB $9, (R1)++
081E	0000		HALT
0820	007C		MHL R0, R7
0822	0E00		DEC2 R14, R0
0824	7C80		MOVB (R8)+, R12
0826	017C		MHL R1, R7
0828	0002		INC R0, R0
082A	D300		MOVE R3, (R0)'
082C	00FE		GETB R15, $0
082E	4D01		PUTB $D, (R0)++
0830	0C0E		GETB R0, $C
0832	DA28		MOVE R10, (R2)
0834	041D		MLH R4, R1
0836	3CC5		MOVE $18A, R12
0838	0B69		SUB R11, R6
083A	3310		MOVE $20, R3
083C	0580		DEC2 R5, R8
083E	3808		MOVE $10, R8
0840	00A2		INC R0, R10
0842	17FC		CTRL $7, #$FC
0844	093F		GETA R3, $9
0846	0580		DEC2 R5, R8
0848	0040		DEC2 R0, R4
084A	3520		MOVE $40, R5
084C	00A8		ADD R0, R10
084E	3300		MOVE $00, R3
0850	0004		NOP
0852	F920		SUB R9, #$21
0854	002C		MHL R0, R2
0856	010B		ADDH2 R1, R0
0858	3C00		MOVE $00, R12
085A	2C02		MOVE R12, $04
085C	0B69		SUB R11, R6
085E	023B		ADDH2 R2, R3
0860	0800		DEC2 R8, R0
0862	A2F1		ADD R2, #$F2
0864	83F2		LBI R3, #$F2
0866	CE00		SLE R14, R0
0868	0B3C		MHL R11, R3
086A	0438		ADD R4, R3
086C	F004		BRA $0869		; -> -$05(R0)

086E	86FE		LBI R6, #$FE
0870	3A80		MOVE $100, R10
0872	0BB5		AND R11, R11
0874	F08F		BRA $07E6		; -> -$90(R0)

0876	EEFE		
0878	3C02		MOVE $04, R12
087A	0B02		INC R11, R0
087C	C300		SLE R3, R0
087E	0B00		DEC2 R11, R0
0880	3C00		MOVE $00, R12
0882	0B31		DEC R11, R3
0884	3C00		MOVE $00, R12
0886	0B30		DEC2 R11, R3
0888	3801		MOVE $02, R8
088A	0B6C		MHL R11, R6
088C	0467		XOR R4, R6
088E	0D01		DEC R13, R0
0890	0B76		OR R11, R7
0892	0B7A		ADDH R11, R7
0894	1005		CTRL $0, #$05
0896	BC0B		SET R12, #$0B
0898	0305		AND R3, R0
089A	800B		LBI R0, #$0B
089C	760C		MOVB (R0), R6
089E	010B		ADDH2 R1, R0
08A0	7A0B		MOVB (R0), R10
08A2	7606		MOVB (R0)---, R6
08A4	010B		ADDH2 R1, R0
08A6	760B		MOVB (R0), R6
08A8	783C		MOVB (R3), R8
08AA	050B		ADDH2 R5, R0
08AC	313C		MOVE $78, R1
08AE	000B		ADDH2 R0, R0
08B0	3039		MOVE $72, R0
08B2	010B		ADDH2 R1, R0
08B4	6D04		MOVB R13, (R0)-
08B6	67FE		MOVB R7, (R15)
08B8	3802		MOVE $04, R8
08BA	0B6D		MLH R11, R6
08BC	046F		GETA R6, $4
08BE	3C05		MOVE $0A, R12
08C0	0B31		DEC R11, R3
08C2	3C00		MOVE $00, R12
08C4	0B30		DEC2 R11, R3
08C6	3C7A		MOVE $F4, R12
08C8	0584		MOVE R5, R8
08CA	F004		BRA $08C7		; -> -$05(R0)

08CC	6FFE		MOVB R15, (R15)
08CE	3880		MOVE $100, R8
08D0	0BA1		DEC R11, R10
08D2	046C		MHL R4, R6
08D4	3C6F		MOVE $DE, R12
08D6	0580		DEC2 R5, R8
08D8	3920		MOVE $40, R9
08DA	0BA1		DEC R11, R10
08DC	17FA		CTRL $7, #$FA
08DE	3901		MOVE $02, R9
08E0	0B6D		MLH R11, R6
08E2	0475		AND R4, R7
08E4	0F10		DEC2 R15, R1
08E6	0B5B		ADDH2 R11, R5
08E8	0B5B		ADDH2 R11, R5
08EA	3B08		MOVE $10, R11
08EC	0BA1		DEC R11, R10
08EE	3B08		MOVE $10, R11
08F0	0B6D		MLH R11, R6
08F2	3802		MOVE $04, R8
08F4	0BA3		INC2 R11, R10
08F6	0480		DEC2 R4, R8
08F8	3B01		MOVE $02, R11
08FA	0B6D		MLH R11, R6
08FC	3B02		MOVE $04, R11
08FE	0BA3		INC2 R11, R10
0900	3880		MOVE $100, R8
0902	0BA1		DEC R11, R10
0904	0486		OR R4, R8
0906	3801		MOVE $02, R8
0908	0BA4		MOVE R11, R10
090A	0490		DEC2 R4, R9
090C	3901		MOVE $02, R9
090E	0BA5		AND R11, R10
0910	0490		DEC2 R4, R9
0912	CE00		SLE R14, R0
0914	0B3C		MHL R11, R3
0916	0490		DEC2 R4, R9
0918	F177		SUB R1, #$78
091A	EAFE		
091C	F00B		BRA $0912		; -> -$0C(R0)

091E	F4FE		SUB R4, #$FF
0920	C300		SLE R3, R0
0922	0B22		INC R11, R2
0924	C820		SLE R8, R2
0926	0B2A		ADDH R11, R2
0928	05C4		MOVE R5, R12
092A	CA0F		SNBSH R10, R0
092C	0B2A		ADDH R11, R2
092E	23EE		MOVE R3, $1DC
0930	3B10		MOVE $20, R11
0932	0B6C		MHL R11, R6
0934	3880		MOVE $100, R8
0936	0BA1		DEC R11, R10
0938	049F		GETA R9, $4
093A	3100		MOVE $00, R1
093C	0BA8		ADD R11, R10
093E	3C40		MOVE $80, R12
0940	05C0		DEC2 R5, R12
0942	3C00		MOVE $00, R12
0944	0B57		XOR R11, R5
0946	0901		DEC R9, R0
0948	0B58		ADD R11, R5
094A	0000		HALT
094C	3B10		MOVE $20, R11
094E	0B6D		MLH R11, R6
0950	3B08		MOVE $10, R11
0952	0BA4		MOVE R11, R10
0954	3340		MOVE $80, R3
0956	013F		GETA R3, $1
0958	3CFF		MOVE $1FE, R12
095A	10CE		CTRL $0, #$CE
095C	0440		DEC2 R4, R4
095E	10CF		CTRL $0, #$CF
0960	10CE		CTRL $0, #$CE
0962	3B04		MOVE $08, R11
0964	0B6D		MLH R11, R6
0966	3540		MOVE $80, R5
0968	0B63		INC2 R11, R6
096A	3350		MOVE $A0, R3
096C	0003		INC2 R0, R0
096E	F840		SUB R8, #$41
0970	50C0		MOVE (R12)', R0
0972	A004		BRA $0979		; $05(R0)

0974	D5C4		MOVE R5, (R12)~
0976	400B		PUTB $0, (R0)
0978	6108		MOVB R1, (R0)
097A	04D5		AND R4, R13
097C	3440		MOVE $80, R4
097E	0BAC		MHL R11, R10
0980	3B03		MOVE $06, R11
0982	0BAD		MLH R11, R10
0984	0C01		DEC R12, R0
0986	0BAA		ADDH R11, R10
0988	0DB0		DEC2 R13, R11
098A	3B03		MOVE $06, R11
098C	0BAB		ADDH2 R11, R10
098E	3340		MOVE $80, R3
0990	0607		XOR R6, R0
0992	3440		MOVE $80, R4
0994	0BB2		INC R11, R11
0996	3340		MOVE $80, R3
0998	0004		NOP
099A	3640		MOVE $80, R6
099C	0BAC		MHL R11, R10
099E	C0A0		SLE R0, R10
09A0	04D5		AND R4, R13
09A2	C440		SLE R4, R4
09A4	0BAA		ADDH R11, R10
09A6	1804		CTRL $8, #$04
09A8	E1FE		
09AA	3920		MOVE $40, R9
09AC	0BA1		DEC R11, R10
09AE	0607		XOR R6, R0
09B0	3904		MOVE $08, R9
09B2	0B6D		MLH R11, R6
09B4	04EF		GETA R14, $4
09B6	3A04		MOVE $08, R10
09B8	0B6D		MLH R11, R6
09BA	F183		SUB R1, #$84
09BC	F0FE		BRA $08BF		; -> -$FF(R0)

09BE	F004		BRA $09BB		; -> -$05(R0)

09C0	B3FE		SET R3, #$FE
09C2	3B04		MOVE $08, R11
09C4	0B6D		MLH R11, R6
09C6	0903		INC2 R9, R0
09C8	0BA6		OR R11, R10
09CA	0000		HALT
09CC	0C03		INC2 R12, R0
09CE	0BAE		GETB R10, $B
09D0	0BA6		OR R11, R10
09D2	3300		MOVE $00, R3
09D4	0607		XOR R6, R0
09D6	3400		MOVE $00, R4
09D8	0BB0		DEC2 R11, R11
09DA	3004		MOVE $08, R0
09DC	0BAA		ADDH R11, R10
09DE	3340		MOVE $80, R3
09E0	0005		AND R0, R0
09E2	3310		MOVE $20, R3
09E4	0580		DEC2 R5, R8
09E6	3330		MOVE $60, R3
09E8	05BF		GETA R11, $5
09EA	F105		SUB R1, #$06
09EC	F4FE		SUB R4, #$FF
09EE	F005		BRA $09EA		; -> -$06(R0)

09F0	28FE		MOVE R8, $1FC
09F2	0941		DEC R9, R4
09F4	108C		CTRL $0, #$8C
09F6	0040		DEC2 R0, R4
09F8	3B10		MOVE $20, R11
09FA	0BA3		INC2 R11, R10
09FC	3320		MOVE $40, R3
09FE	108C		CTRL $0, #$8C
0A00	FB70		SUB R11, #$71
0A02	10F1		CTRL $0, #$F1
0A04	2FF8		MOVE R15, $1F0
0A06	3320		MOVE $40, R3
0A08	10CE		CTRL $0, #$CE
0A0A	FB10		SUB R11, #$11
0A0C	7030		MOVB (R3)+, R0
0A0E	1210		CTRL $2, #$10
0A10	8C05		LBI R12, #$05
0A12	0D05		AND R13, R0
0A14	1505		CTRL $5, #$05
0A16	0D05		AND R13, R0
0A18	2D00		MOVE R13, $00
0A1A	3920		MOVE $40, R9
0A1C	0BA1		DEC R11, R10
0A1E	05B8		ADD R5, R11
0A20	CCD2		SE R12, R13
0A22	108C		CTRL $0, #$8C
0A24	055D		MLH R5, R5
0A26	F005		BRA $0A22		; -> -$06(R0)

0A28	3EFE		MOVE $1FC, R14
0A2A	3902		MOVE $04, R9
0A2C	0B6D		MLH R11, R6
0A2E	051C		MHL R5, R1
0A30	3C40		MOVE $80, R12
0A32	0B5A		ADDH R11, R5
0A34	F005		BRA $0A30		; -> -$06(R0)

0A36	1EFE		CTRL $E, #$FE
0A38	3C04		MOVE $08, R12
0A3A	0B5A		ADDH R11, R5
0A3C	3A20		MOVE $40, R10
0A3E	0BA3		INC2 R11, R10
0A40	F106		SUB R1, #$07
0A42	1AFE		CTRL $A, #$FE
0A44	F105		SUB R1, #$06
0A46	F4FE		SUB R4, #$FF
0A48	F005		BRA $0A44		; -> -$06(R0)

0A4A	2DFE		MOVE R13, $1FC
0A4C	F02F		BRA $0A1E		; -> -$30(R0)

0A4E	FAFE		SUB R10, #$FF
0A50	3920		MOVE $40, R9
0A52	0BA1		DEC R11, R10
0A54	0440		DEC2 R4, R4
0A56	F053		BRA $0A04		; -> -$54(R0)

0A58	F4FE		SUB R4, #$FF
0A5A	3902		MOVE $04, R9
0A5C	0B6D		MLH R11, R6
0A5E	05B8		ADD R5, R11
0A60	3904		MOVE $08, R9
0A62	0B6D		MLH R11, R6
0A64	0607		XOR R6, R0
0A66	3920		MOVE $40, R9
0A68	0BA1		DEC R11, R10
0A6A	05B8		ADD R5, R11
0A6C	3A08		MOVE $10, R10
0A6E	0BA3		INC2 R11, R10
0A70	3310		MOVE $20, R3
0A72	0580		DEC2 R5, R8
0A74	3320		MOVE $40, R3
0A76	10CE		CTRL $0, #$CE
0A78	F06B		BRA $0A0E		; -> -$6C(R0)

0A7A	E4FE		
0A7C	3310		MOVE $20, R3
0A7E	108C		CTRL $0, #$8C
0A80	3320		MOVE $40, R3
0A82	0102		INC R1, R0
0A84	3360		MOVE $C0, R3
0A86	0141		DEC R1, R4
0A88	E600		
0A8A	00FE		GETB R15, $0
0A8C	FB70		SUB R11, #$71
0A8E	20E6		JMP ($01CC)

0A90	2001		JMP ($0002)

0A92	6000		MOVB R0, (R0)+
0A94	0000		HALT
0A96	2005		JMP ($000A)

0A98	54FB		MOVE (R15), R4
0A9A	2070		JMP ($00E0)

0A9C	B320		SET R3, #$20
0A9E	03FA		ADDH R3, R15
0AA0	2060		JMP ($00C0)

0AA2	1805		CTRL $8, #$05
0AA4	2DF0		MOVE R13, $1E0
0AA6	0544		MOVE R5, R4
0AA8	FB20		SUB R11, #$21
0AAA	70E6		MOVB (R14)---, R0
0AAC	7002		MOVB (R0)+++, R0
0AAE	3B01		MOVE $02, R11
0AB0	0B6C		MHL R11, R6
0AB2	3310		MOVE $20, R3
0AB4	108C		CTRL $0, #$8C
0AB6	FC70		SUB R12, #$71
0AB8	00FE		GETB R15, $0
0ABA	3340		MOVE $80, R3
0ABC	0001		DEC R0, R0
0ABE	3350		MOVE $A0, R3
0AC0	0005		AND R0, R0
0AC2	F10B		SUB R1, #$0C
0AC4	F2FE		SUB R2, #$FF
0AC6	F950		SUB R9, #$51
0AC8	40C0		PUTB $0, (R12)+
0ACA	8105		LBI R1, #$05
0ACC	6CF1		MOVB R12, (R15)++
0ACE	05F4		MOVE R5, R15
0AD0	F005		BRA $0ACC		; -> -$06(R0)

0AD2	2DFE		MOVE R13, $1FC
0AD4	F005		BRA $0AD0		; -> -$06(R0)

0AD6	61FE		MOVB R1, (R15)
0AD8	3320		MOVE $40, R3
0ADA	10CE		CTRL $0, #$CE
0ADC	F105		SUB R1, #$06
0ADE	8CFE		LBI R12, #$FE
0AE0	F005		BRA $0ADC		; -> -$06(R0)

0AE2	2DFE		MOVE R13, $1FC
0AE4	CD6B		SNZ R13
0AE6	10D2		CTRL $0, #$D2
0AE8	05B8		ADD R5, R11
0AEA	F105		SUB R1, #$06
0AEC	F4FE		SUB R4, #$FF
0AEE	F005		BRA $0AEA		; -> -$06(R0)

0AF0	B8FE		SET R8, #$FE
0AF2	7012		MOVB (R1)+++, R0
0AF4	0005		AND R0, R0
0AF6	B805		SET R8, #$05
0AF8	7F05		MOVB (R0)--, R15
0AFA	B805		SET R8, #$05
0AFC	B800		SET R8, #$00
0AFE	3520		MOVE $40, R5
0B00	0B5B		ADDH2 R11, R5
0B02	B890		SET R8, #$90
0B04	0005		AND R0, R0
0B06	B4FE		SET R4, #$FE
0B08	3320		MOVE $40, R3
0B0A	10CE		CTRL $0, #$CE
0B0C	3A08		MOVE $10, R10
0B0E	0B6D		MLH R11, R6
0B10	3A02		MOVE $04, R10
0B12	0BA3		INC2 R11, R10
0B14	F004		BRA $0B11		; -> -$05(R0)

0B16	F5FE		SUB R5, #$FF
0B18	3480		MOVE $100, R4
0B1A	105E		CTRL $0, #$5E
0B1C	3300		MOVE $00, R3
0B1E	0003		INC2 R0, R0
0B20	8000		LBI R0, #$00
0B22	0002		INC R0, R0
0B24	00FE		GETB R15, $0
0B26	2005		JMP ($000A)

0B28	97FE		CLR R7, #$FE
0B2A	3100		MOVE $00, R1
0B2C	105E		CTRL $0, #$5E
0B2E	B320		SET R3, #$20
0B30	03EA		ADDH R3, R14
0B32	F000		BRA $0B33		; -> -$01(R0)

0B34	0595		AND R5, R9
0B36	E8F9		
0B38	0005		AND R0, R0
0B3A	9533		CLR R5, #$33
0B3C	5000		MOVE (R0)', R0
0B3E	F0B5		BRA $0A8A		; -> -$B6(R0)

0B40	6000		MOVB R0, (R0)+
0B42	F760		SUB R7, #$61
0B44	07F9		SUB R7, R15
0B46	6050		MOVB R0, (R5)+
0B48	FB50		SUB R11, #$51
0B4A	60F6		MOVB R0, (R15)---
0B4C	5000		MOVE (R0)', R0
0B4E	F850		SUB R8, #$51
0B50	6033		MOVB R0, (R3)++++
0B52	600B		MOVB R0, (R0)
0B54	82F8		LBI R2, #$F8
0B56	6050		MOVB R0, (R5)+
0B58	3460		MOVE $C0, R4
0B5A	0B5B		ADDH2 R11, R5
0B5C	3350		MOVE $A0, R3
0B5E	0002		INC R0, R0
0B60	3650		MOVE $A0, R6
0B62	105E		CTRL $0, #$5E
0B64	FC50		SUB R12, #$51
0B66	00FE		GETB R15, $0
0B68	3C35		MOVE $6A, R12
0B6A	0BB4		MOVE R11, R11
0B6C	F08F		BRA $0ADE		; -> -$90(R0)

0B6E	EEFE		
0B70	3C00		MOVE $00, R12
0B72	0BB4		MOVE R11, R11
0B74	F08F		BRA $0AE6		; -> -$90(R0)

0B76	EEFE		
0B78	3C36		MOVE $6C, R12
0B7A	0BB4		MOVE R11, R11
0B7C	3C10		MOVE $20, R12
0B7E	0B75		AND R11, R7
0B80	3B01		MOVE $02, R11
0B82	0B6C		MHL R11, R6
0B84	F08F		BRA $0AF6		; -> -$90(R0)

0B86	EEFE		
0B88	3C00		MOVE $00, R12
0B8A	0B31		DEC R11, R3
0B8C	3C00		MOVE $00, R12
0B8E	0B30		DEC2 R11, R3
0B90	CC80		SLE R12, R8
0B92	0B2A		ADDH R11, R2
0B94	05D6		OR R5, R13
0B96	3910		MOVE $20, R9
0B98	0B6C		MHL R11, R6
0B9A	83F6		LBI R3, #$F6
0B9C	3C03		MOVE $06, R12
0B9E	0B02		INC R11, R0
0BA0	C300		SLE R3, R0
0BA2	0B00		DEC2 R11, R0
0BA4	3C02		MOVE $04, R12
0BA6	0B02		INC R11, R0
0BA8	F004		BRA $0BA5		; -> -$05(R0)

0BAA	6CFE		MOVB R12, (R15)
0BAC	3910		MOVE $20, R9
0BAE	0B6C		MHL R11, R6
0BB0	83F8		LBI R3, #$F8
0BB2	3C02		MOVE $04, R12
0BB4	0B02		INC R11, R0
0BB6	C300		SLE R3, R0
0BB8	0B00		DEC2 R11, R0
0BBA	F004		BRA $0BB7		; -> -$05(R0)

0BBC	6CFE		MOVB R12, (R15)
0BBE	9C00		CLR R12, #$00
0BC0	0000		HALT
0BC2	7310		MOVB (R1)+, R3
0BC4	01B3		INC2 R1, R11
0BC6	2001		JMP ($0002)

0BC8	FC80		SUB R12, #$81
0BCA	00FE		GETB R15, $0
0BCC	9C01		CLR R12, #$01
0BCE	0000		HALT
0BD0	7310		MOVB (R1)+, R3
0BD2	02B3		INC2 R2, R11
0BD4	2002		JMP ($0004)

0BD6	FC80		SUB R12, #$81
0BD8	00FE		GETB R15, $0
0BDA	9C02		CLR R12, #$02
0BDC	0000		HALT
0BDE	B320		SET R3, #$20
0BE0	0373		INC2 R3, R7
0BE2	1003		CTRL $0, #$03
0BE4	FC80		SUB R12, #$81
0BE6	00FE		GETB R15, $0
0BE8	3480		MOVE $100, R4
0BEA	0FD9		SUB R15, R13
0BEC	3330		MOVE $60, R3
0BEE	05C0		DEC2 R5, R12
0BF0	DD40		MOVE R13, (R4)'
0BF2	0006		OR R0, R0
0BF4	0173		INC2 R1, R7
0BF6	1001		CTRL $0, #$01
0BF8	FA10		SUB R10, #$11
0BFA	3010		MOVE $20, R0
0BFC	05F8		ADD R5, R15
0BFE	3100		MOVE $00, R1
0C00	0FD9		SUB R15, R13
0C02	3330		MOVE $60, R3
0C04	0002		INC R0, R0
0C06	3630		MOVE $60, R6
0C08	0FD9		SUB R15, R13
0C0A	FC30		SUB R12, #$31
0C0C	00FE		GETB R15, $0
0C0E	3C1B		MOVE $36, R12
0C10	0B5A		ADDH R11, R5
0C12	3902		MOVE $04, R9
0C14	0B6D		MLH R11, R6
0C16	0610		DEC2 R6, R1
0C18	3330		MOVE $60, R3
0C1A	108B		CTRL $0, #$8B
0C1C	F006		BRA $0C17		; -> -$07(R0)

0C1E	12FE		CTRL $2, #$FE
0C20	3330		MOVE $60, R3
0C22	057F		GETA R7, $5
0C24	F910		SUB R9, #$11
0C26	3034		MOVE $68, R0
0C28	100B		CTRL $0, #$0B
0C2A	B40C		SET R4, #$0C
0C2C	000B		ADDH2 R0, R0
0C2E	B40B		SET R4, #$0B
0C30	5AF0		MOVE (R15)', R10
0C32	8FEE		LBI R15, #$EE
0C34	3480		MOVE $100, R4
0C36	105E		CTRL $0, #$5E
0C38	8904		LBI R9, #$04
0C3A	0000		HALT
0C3C	F0FE		BRA $0B3F		; -> -$FF(R0)

0C3E	9C00		CLR R12, #$00
0C40	0400		DEC2 R4, R0
0C42	AC03		ADD R12, #$04
0C44	0001		DEC R0, R0
0C46	7310		MOVB (R1)+, R3
0C48	01ED		MLH R1, R14
0C4A	F000		BRA $0C4B		; -> -$01(R0)

0C4C	0638		ADD R6, R3
0C4E	3820		MOVE $40, R8
0C50	0BA3		INC2 R11, R10
0C52	0632		INC R6, R3
0C54	3F01		MOVE $02, R15
0C56	0B5A		ADDH R11, R5
0C58	C081		SLT R0, R8
0C5A	0638		ADD R6, R3
0C5C	F105		SUB R1, #$06
0C5E	F4FE		SUB R4, #$FF
0C60	F006		BRA $0C5B		; -> -$07(R0)

0C62	38FE		MOVE $1FC, R8
0C64	7012		MOVB (R1)+++, R0
0C66	0006		OR R0, R0
0C68	3806		MOVE $0C, R8
0C6A	1F06		CTRL $F, #$06
0C6C	3806		MOVE $0C, R8
0C6E	3800		MOVE $00, R8
0C70	AA03		ADD R10, #$04
0C72	0000		HALT
0C74	B320		SET R3, #$20
0C76	0289		SUB R2, R8
0C78	0200		DEC2 R2, R0
0C7A	00FF		GETA R15, $0
0C7C	3B20		MOVE $40, R11
0C7E	0BA3		INC2 R11, R10
0C80	3100		MOVE $00, R1
0C82	105E		CTRL $0, #$5E
0C84	3C2D		MOVE $5A, R12
0C86	0FB3		INC2 R15, R11
0C88	B310		SET R3, #$10
0C8A	07F0		DEC2 R7, R15
0C8C	066C		MHL R6, R6
0C8E	0D01		DEC R13, R0
0C90	0DAE		GETB R10, $D
0C92	0DB0		DEC2 R13, R11
0C94	2006		JMP ($000C)

0C96	4F3C		PUTB $F, (R3)
0C98	A00B		BRA $0CA6		; $0C(R0)

0C9A	B4F0		SET R4, #$F0
0C9C	3BCE		MOVE $19C, R11
0C9E	3C00		MOVE $00, R12
0CA0	0FB3		INC2 R15, R11
0CA2	0F10		DEC2 R15, R1
0CA4	0FA8		ADD R15, R10
0CA6	0FA8		ADD R15, R10
0CA8	B310		SET R3, #$10
0CAA	07F0		DEC2 R7, R15
0CAC	066C		MHL R6, R6
0CAE	0F10		DEC2 R15, R1
0CB0	0DB0		DEC2 R13, R11
0CB2	0FA8		ADD R15, R10
0CB4	3B01		MOVE $02, R11
0CB6	0DB1		DEC R13, R11
0CB8	C082		SE R0, R8
0CBA	07BA		ADDH R7, R11
0CBC	0D01		DEC R13, R0
0CBE	0DB0		DEC2 R13, R11
0CC0	0B63		INC2 R11, R6
0CC2	0807		XOR R8, R0
0CC4	BA0C		SET R10, #$0C
0CC6	010F		GETA R0, $1
0CC8	B40D		SET R4, #$0D
0CCA	AE0C		ADD R14, #$0D
0CCC	010D		MLH R1, R0
0CCE	AE0D		ADD R14, #$0E
0CD0	B03C		SET R0, #$3C
0CD2	390F		MOVE $1E, R9
0CD4	B3B3		SET R3, #$B3
0CD6	1007		CTRL $0, #$07
0CD8	DDFF		MOVE R13, (R15)
0CDA	0006		OR R0, R0
0CDC	87EE		LBI R7, #$EE
0CDE	0000		HALT
0CE0	0682		INC R6, R8
0CE2	ED39		
0CE4	0606		OR R6, R0
0CE6	82FB		LBI R2, #$FB
0CE8	2000		JMP ($0000)

0CEA	ED39		
0CEC	0606		OR R6, R0
0CEE	7BB3		MOVB (R11)++++, R11
0CF0	1007		CTRL $0, #$07
0CF2	F006		BRA $0CED		; -> -$07(R0)

0CF4	6CFE		MOVB R12, (R15)
0CF6	CD00		SLE R13, R0
0CF8	0FB3		INC2 R15, R11
0CFA	3BD6		MOVE $1AC, R11
0CFC	3520		MOVE $40, R5
0CFE	0B65		AND R11, R6
0D00	F006		BRA $0CFB		; -> -$07(R0)

0D02	57FE		MOVE (R15), R7
0D04	CC00		SLE R12, R0
0D06	0FB3		INC2 R15, R11
0D08	067E		GETB R7, $6
0D0A	F03B		BRA $0CD0		; -> -$3C(R0)

0D0C	D8FE		MOVE R8, (R15)
0D0E	DD6B		MOVE R13, (R6)
0D10	0006		OR R0, R0
0D12	8D73		LBI R13, #$73
0D14	1001		CTRL $0, #$01
0D16	F006		BRA $0D11		; -> -$07(R0)

0D18	6CFE		MOVB R12, (R15)
0D1A	3C0A		MOVE $14, R12
0D1C	0FB7		XOR R15, R11
0D1E	1C00		CTRL $C, #$00
0D20	0FB6		OR R15, R11
0D22	0073		INC2 R0, R7
0D24	1001		CTRL $0, #$01
0D26	D8F9		MOVE R8, (R15)
0D28	0006		OR R0, R0
0D2A	9EDA		CLR R14, #$DA
0D2C	F000		BRA $0D2D		; -> -$01(R0)

0D2E	069E		GETB R9, $6
0D30	1C00		CTRL $C, #$00
0D32	0FB7		XOR R15, R11
0D34	003B		ADDH2 R0, R3
0D36	F00F		BRA $0D28		; -> -$10(R0)

0D38	B7F0		SET R7, #$F0
0D3A	06A7		XOR R6, R10
0D3C	DD5B		MOVE R13, (R5)
0D3E	0006		OR R0, R0
0D40	A93C		ADD R9, #$3D
0D42	0B0F		GETA R0, $B
0D44	B71C		SET R7, #$1C
0D46	010F		GETA R0, $1
0D48	B102		SET R1, #$02
0D4A	7310		MOVB (R1)+, R3
0D4C	03FE		GETB R15, $3
0D4E	7310		MOVB (R1)+, R3
0D50	01FE		GETB R15, $1
0D52	DD4D		MOVE R13, (R4)
0D54	0006		OR R0, R0
0D56	AE3A		ADD R14, #$3B
0D58	800F		LBI R0, #$0F
0D5A	B7FE		SET R7, #$FE
0D5C	FB70		SUB R11, #$71
0D5E	1033		CTRL $0, #$33
0D60	100F		CTRL $0, #$0F
0D62	B630		SET R6, #$30
0D64	160D		CTRL $6, #$0D
0D66	AEC4		ADD R14, #$C5
0D68	100D		CTRL $0, #$0D
0D6A	AE28		ADD R14, #$29
0D6C	07C1		DEC R7, R12
0D6E	FB60		SUB R11, #$61
0D70	2033		JMP ($0066)

0D72	20FF		JMP ($01FE)

0D74	FC36		SUB R12, #$37
0D76	200D		JMP ($001A)

0D78	B0FB		SET R0, #$FB
0D7A	1070		CTRL $0, #$70
0D7C	DC4D		MOVE R12, (R4)
0D7E	0007		XOR R0, R0
0D80	2035		JMP ($006A)

0D82	300B		MOVE $16, R0
0D84	63FA		MOVB R3, (R15)
0D86	2030		JMP ($0060)

0D88	1007		CTRL $0, #$07
0D8A	BD0C		SET R13, #$0C
0D8C	010F		GETA R0, $1
0D8E	AA0E		ADD R10, #$0F
0D90	BECD		SET R14, #$CD
0D92	0B0F		GETA R0, $B
0D94	B706		SET R7, #$06
0D96	D70C		MOVE R7, (R0)
0D98	010F		GETA R0, $1
0D9A	AA0F		ADD R10, #$10
0D9C	B1CC		SET R1, #$CC
0D9E	120F		CTRL $2, #$0F
0DA0	AB06		ADD R11, #$07
0DA2	D73A		MOVE R7, (R3)
0DA4	400F		PUTB $0, (R0)
0DA6	B70E		SET R7, #$0E
0DA8	100F		CTRL $0, #$0F
0DAA	AA0E		ADD R10, #$0F
0DAC	DBFE		MOVE R11, (R15)
0DAE	FB70		SUB R11, #$71
0DB0	10CD		CTRL $0, #$CD
0DB2	2D0F		MOVE R13, $1E
0DB4	B306		SET R3, #$06
0DB6	FC35		SUB R12, #$36
0DB8	000B		ADDH2 R0, R0
0DBA	6336		MOVB R3, (R3)---
0DBC	000F		GETA R0, $0
0DBE	AAC0		ADD R10, #$C1
0DC0	A007		BRA $0DCA		; $08(R0)

0DC2	BDFA		SET R13, #$FA
0DC4	0020		DEC2 R0, R2
0DC6	1807		CTRL $8, #$07
0DC8	BD35		SET R13, #$35
0DCA	100B		CTRL $0, #$0B
0DCC	63B4		MOVB R3, (R11)-
0DCE	1002		CTRL $0, #$02
0DD0	3400		MOVE $00, R4
0DD2	0B63		INC2 R11, R6
0DD4	3300		MOVE $00, R3
0DD6	0011		DEC R0, R1
0DD8	CC12		SE R12, R1
0DDA	0FB2		INC R15, R11
0DDC	06F7		XOR R6, R15
0DDE	3300		MOVE $00, R3
0DE0	FFFF		SUB R15, #$100
0DE2	3600		MOVE $00, R6
0DE4	0FB1		DEC R15, R11
0DE6	4C00		PUTB $C, (R0)+
0DE8	000F		GETA R0, $0
0DEA	B273		SET R2, #$73
0DEC	1001		CTRL $0, #$01
0DEE	7C40		MOVB (R4)+, R12
0DF0	0054		RET R5

0DF2	0001		DEC R0, R0
0DF4	00F0		DEC2 R0, R15
0DF6	0718		ADD R7, R1
0DF8	CD00		SLE R13, R0
0DFA	0FB3		INC2 R15, R11
0DFC	0707		XOR R7, R0
0DFE	0E10		DEC2 R14, R1
0E00	0FA8		ADD R15, R10
0E02	0FAA		ADDH R15, R10
0E04	FB10		SUB R11, #$11
0E06	70FB		MOVB (R15), R0
0E08	2060		JMP ($00C0)

0E0A	F006		BRA $0E05		; -> -$07(R0)

0E0C	6CFE		MOVB R12, (R15)
0E0E	0F10		DEC2 R15, R1
0E10	0FB4		MOVE R15, R11
0E12	0FAA		ADDH R15, R10
0E14	0D01		DEC R13, R0
0E16	0FB4		MOVE R15, R11
0E18	0DAE		GETB R10, $D
0E1A	1007		CTRL $0, #$07
0E1C	BD8C		SET R13, #$8C
0E1E	0102		INC R1, R0
0E20	0FB4		MOVE R15, R11
0E22	CD4B		SNZ R13
0E24	0FB7		XOR R15, R11
0E26	0718		ADD R7, R1
0E28	B510		SET R5, #$10
0E2A	024C		MHL R2, R4
0E2C	0000		HALT
0E2E	0FB2		INC R15, R11
0E30	FB10		SUB R11, #$11
0E32	708C		MOVB (R8), R0
0E34	0100		DEC2 R1, R0
0E36	0FB6		OR R15, R11
0E38	3420		MOVE $40, R4
0E3A	0DB0		DEC2 R13, R11
0E3C	F007		BRA $0E36		; -> -$08(R0)

0E3E	B7FE		SET R7, #$FE
0E40	1C01		CTRL $C, #$01
0E42	0FA4		MOVE R15, R10
0E44	0273		INC2 R2, R7
0E46	1004		CTRL $0, #$04
0E48	DC6B		MOVE R12, (R6)
0E4A	0007		XOR R0, R0
0E4C	2D09		MOVE R13, $12
0E4E	010F		GETA R0, $1
0E50	A600		ADD R6, #$01
0E52	0073		INC2 R0, R7
0E54	1001		CTRL $0, #$01
0E56	F007		BRA $0E50		; -> -$08(R0)

0E58	31FE		MOVE $1FC, R1
0E5A	1C01		CTRL $C, #$01
0E5C	0FA6		OR R15, R10
0E5E	0273		INC2 R2, R7
0E60	1005		CTRL $0, #$05
0E62	3320		MOVE $40, R3
0E64	0FA4		MOVE R15, R10
0E66	E550		
0E68	02C0		DEC2 R2, R12
0E6A	0107		XOR R1, R0
0E6C	3B0C		MOVE $18, R11
0E6E	010F		GETA R0, $1
0E70	1C0E		CTRL $C, #$0E
0E72	DBF0		MOVE R11, (R15)'
0E74	073E		GETB R3, $7
0E76	2C01		MOVE R12, $02
0E78	0F1C		MHL R15, R1
0E7A	02FE		GETB R15, $2
0E7C	2C01		MOVE R12, $02
0E7E	0F1A		ADDH R15, R1
0E80	00F1		DEC R0, R15
0E82	5FBE		MOVE (R11), R15
0E84	C0A0		SLE R0, R10
0E86	07BD		MLH R7, R11
0E88	8C01		LBI R12, #$01
0E8A	080F		GETA R0, $8
0E8C	16EC		CTRL $6, #$EC
0E8E	8B13		LBI R11, #$13
0E90	074E		GETB R4, $7
0E92	0C01		DEC R12, R0
0E94	0F1A		ADDH R15, R1
0E96	0EBE		GETB R11, $E
0E98	F007		BRA $0E92		; -> -$08(R0)

0E9A	51FE		MOVE (R15), R1
0E9C	2C01		MOVE R12, $02
0E9E	0F1A		ADDH R15, R1
0EA0	0DFE		GETB R15, $D
0EA2	2C01		MOVE R12, $02
0EA4	0F1C		MHL R15, R1
0EA6	08F1		DEC R8, R15
0EA8	5FBE		MOVE (R11), R15
0EAA	C0A0		SLE R0, R10
0EAC	07BD		MLH R7, R11
0EAE	8C01		LBI R12, #$01
0EB0	060F		GETA R0, $6
0EB2	16ED		CTRL $6, #$ED
0EB4	8B13		LBI R11, #$13
0EB6	0765		AND R7, R6
0EB8	EC12		
0EBA	0E07		XOR R14, R0
0EBC	65BA		MOVB R5, (R11)
0EBE	4013		PUTB $0, (R1)++++
0EC0	8E10		LBI R14, #$10
0EC2	060E		GETB R0, $6
0EC4	DBC0		MOVE R11, (R12)'
0EC6	A007		BRA $0ED0		; $08(R0)

0EC8	BDFE		SET R13, #$FE
0ECA	FB70		SUB R11, #$71
0ECC	10FB		CTRL $0, #$FB
0ECE	2060		JMP ($00C0)

0ED0	3310		MOVE $20, R3
0ED2	FFF6		SUB R15, #$F7
0ED4	3610		MOVE $20, R6
0ED6	0DB0		DEC2 R13, R11
0ED8	3530		MOVE $60, R5
0EDA	0B63		INC2 R11, R6
0EDC	ED2D		
0EDE	0607		XOR R6, R0
0EE0	8D35		LBI R13, #$35
0EE2	400F		PUTB $0, (R0)
0EE4	AAF8		ADD R10, #$F9
0EE6	4030		PUTB $0, (R3)+
0EE8	C0A0		SLE R0, R10
0EEA	07BD		MLH R7, R11
0EEC	FA40		SUB R10, #$41
0EEE	1000		CTRL $0, #$00
0EF0	07BD		MLH R7, R11
0EF2	3440		MOVE $80, R4
0EF4	0B63		INC2 R11, R6
0EF6	7440		MOVB (R4)+, R4
0EF8	08FB		ADDH2 R8, R15
0EFA	2030		JMP ($0060)

0EFC	3330		MOVE $60, R3
0EFE	FFFF		SUB R15, #$100
0F00	3630		MOVE $60, R6
0F02	0FAA		ADDH R15, R10
0F04	BC00		SET R12, #$00
0F06	0038		ADD R0, R3
0F08	0B0F		GETA R0, $B
0F0A	B707		SET R7, #$07
0F0C	89FE		LBI R9, #$FE
0F0E	BC40		SET R12, #$40
0F10	00FE		GETB R15, $0
0F12	A430		ADD R4, #$31
0F14	0100		DEC2 R1, R0
0F16	F007		BRA $0F10		; -> -$08(R0)

0F18	A1FE		ADD R1, #$FF
0F1A	CD00		SLE R13, R0
0F1C	0FB3		INC2 R15, R11
0F1E	0798		ADD R7, R9
0F20	0E10		DEC2 R14, R1
0F22	0FA8		ADD R15, R10
0F24	0FAA		ADDH R15, R10
0F26	FB10		SUB R11, #$11
0F28	70FB		MOVB (R15), R0
0F2A	2060		JMP ($00C0)

0F2C	F006		BRA $0F27		; -> -$07(R0)

0F2E	6CFE		MOVB R12, (R15)
0F30	FA10		SUB R10, #$11
0F32	3010		MOVE $20, R0
0F34	07BD		MLH R7, R11
0F36	4C01		PUTB $C, (R0)++
0F38	080F		GETA R0, $8
0F3A	B40F		SET R4, #$0F
0F3C	100F		CTRL $0, #$0F
0F3E	B40F		SET R4, #$0F
0F40	AAFE		ADD R10, #$FF
0F42	CDCB		SNZ R13
0F44	0FB7		XOR R15, R11
0F46	07AC		MHL R7, R10
0F48	3320		MOVE $40, R3
0F4A	FFFF		SUB R15, #$100
0F4C	7620		MOVB (R2)+, R6
0F4E	0874		MOVE R8, R7
0F50	2008		JMP ($0010)

0F52	8C00		LBI R12, #$00
0F54	000F		GETA R0, $0
0F56	B2FE		SET R2, #$FE
0F58	4C03		PUTB $C, (R0)++++
0F5A	000F		GETA R0, $0
0F5C	A44C		ADD R4, #$4D
0F5E	0104		MOVE R1, R0
0F60	0FAC		MHL R15, R10
0F62	4C01		PUTB $C, (R0)++
0F64	060F		GETA R0, $6
0F66	B634		SET R6, #$34
0F68	100D		CTRL $0, #$0D
0F6A	B0FB		SET R0, #$FB
0F6C	1070		CTRL $0, #$70
0F6E	FB20		SUB R11, #$21
0F70	60F0		MOVB R0, (R15)+
0F72	066C		MHL R6, R6
0F74	0C01		DEC R12, R0
0F76	0DB0		DEC2 R13, R11
0F78	0FB4		MOVE R15, R11
0F7A	3C1C		MOVE $38, R12
0F7C	0BB4		MOVE R11, R11
0F7E	F03B		BRA $0F44		; -> -$3C(R0)

0F80	CEFE		SNBC R14, R15
0F82	3CA1		MOVE $142, R12
0F84	0BB4		MOVE R11, R11
0F86	F03B		BRA $0F4C		; -> -$3C(R0)

0F88	CEFE		SNBC R14, R15
0F8A	B510		SET R5, #$10
0F8C	240C		MOVE R4, $18
0F8E	010F		GETA R0, $1
0F90	1A0B		CTRL $A, #$0B
0F92	5DF1		MOVE (R15)+, R13
0F94	0BC6		OR R11, R12
0F96	4B04		PUTB $B, (R0)-
0F98	000F		GETA R0, $0
0F9A	170C		CTRL $7, #$0C
0F9C	010F		GETA R0, $1
0F9E	1A0D		CTRL $A, #$0D
0FA0	B00F		SET R0, #$0F
0FA2	100F		CTRL $0, #$0F
0FA4	1A0B		CTRL $A, #$0B
0FA6	63F1		MOVB R3, (R15)++
0FA8	0BC6		OR R11, R12
0FAA	4B04		PUTB $B, (R0)-
0FAC	050F		GETA R0, $5
0FAE	1732		CTRL $7, #$32
0FB0	000B		ADDH2 R0, R0
0FB2	A034		BRA $0FE9		; $35(R0)

0FB4	000F		GETA R0, $0
0FB6	1AF1		CTRL $A, #$F1
0FB8	0BC6		OR R11, R12
0FBA	4B02		PUTB $B, (R0)+++
0FBC	120F		CTRL $2, #$0F
0FBE	1849		CTRL $8, #$49
0FC0	070A		ADDH R7, R0
0FC2	00F0		DEC2 R0, R15
0FC4	C510		SLE R5, R1
0FC6	0B40		DEC2 R11, R4
0FC8	C081		SLT R0, R8
0FCA	07EE		GETB R14, $7
0FCC	1C01		CTRL $C, #$01
0FCE	0F1A		ADDH R15, R1
0FD0	1FF1		CTRL $F, #$F1
0FD2	0BC6		OR R11, R12
0FD4	B510		SET R5, #$10
0FD6	244B		MOVE R4, $96
0FD8	040A		ADDH R4, R0
0FDA	0F17		XOR R15, R1
0FDC	B510		SET R5, #$10
0FDE	2438		MOVE R4, $70
0FE0	4000		PUTB $0, (R0)+
0FE2	A407		ADD R4, #$08
0FE4	F5FE		SUB R5, #$FF
0FE6	7CF1		MOVB (R15)++, R12
0FE8	0FFE		GETB R15, $F
0FEA	3820		MOVE $40, R8
0FEC	00A4		RET R10

0FEE	07FA		ADDH R7, R15
0FF0	7CF1		MOVB (R15)++, R12
0FF2	10FE		CTRL $0, #$FE
0FF4	3810		MOVE $20, R8
0FF6	00A4		RET R10

0FF8	07FF		GETA R15, $7
0FFA	7CF1		MOVB (R15)++, R12
0FFC	11FE		CTRL $1, #$FE
0FFE	FB10		SUB R11, #$11
1000	60FC		MOVB R0, (R15)
1002	7000		MOVB (R0)+, R0
1004	B510		SET R5, #$10
1006	24FB		MOVE R4, $1F6
1008	5020		MOVE (R2)', R0
100A	3320		MOVE $40, R3
100C	0B00		DEC2 R11, R0
100E	BC00		SET R12, #$00
1010	02DC		MHL R2, R13
1012	D500		MOVE R5, (R0)'
1014	0859		SUB R8, R5
1016	BC01		SET R12, #$01
1018	02DC		MHL R2, R13
101A	C600		SLE R6, R0
101C	0859		SUB R8, R5
101E	BC07		SET R12, #$07
1020	02DC		MHL R2, R13
1022	C100		SLE R1, R0
1024	0859		SUB R8, R5
1026	BC05		SET R12, #$05
1028	02DC		MHL R2, R13
102A	E200		
102C	0859		SUB R8, R5
102E	BC06		SET R12, #$06
1030	02DC		MHL R2, R13
1032	D800		MOVE R8, (R0)'
1034	0859		SUB R8, R5
1036	BC08		SET R12, #$08
1038	02BC		MHL R2, R11
103A	0008		ADD R0, R0
103C	DC4B		MOVE R12, (R4)
103E	0008		ADD R0, R0
1040	59BC		MOVE (R11), R9
1042	E008		
1044	DCF1		MOVE R12, (R15)+
1046	0008		ADD R0, R0
1048	59BC		MOVE (R11), R9
104A	D008 DCF2	JMP $DCF2

104E	0008		ADD R0, R0
1050	59BC		MOVE (R11), R9
1052	C008		SGT R0, R0
1054	DCF3		MOVE R12, (R15)++
1056	0008		ADD R0, R0
1058	59BC		MOVE (R11), R9
105A	B008		SET R0, #$08
105C	DCF4		MOVE R12, (R15)~
105E	0008		ADD R0, R0
1060	59BC		MOVE (R11), R9
1062	A008		BRA $106D		; $09(R0)

1064	DCF5		MOVE R12, (R15)-
1066	0008		ADD R0, R0
1068	59BC		MOVE (R11), R9
106A	9008		CLR R0, #$08
106C	DCF6		MOVE R12, (R15)-~
106E	0008		ADD R0, R0
1070	59BC		MOVE (R11), R9
1072	8008		LBI R0, #$08
1074	DCF7		MOVE R12, (R15)--
1076	0008		ADD R0, R0
1078	59BC		MOVE (R11), R9
107A	7008		MOVB (R0), R0
107C	DCF8		MOVE R12, (R15)
107E	0008		ADD R0, R0
1080	59BC		MOVE (R11), R9
1082	6008		MOVB R0, (R0)
1084	DCF9		MOVE R12, (R15)
1086	0008		ADD R0, R0
1088	59BC		MOVE (R11), R9
108A	5008		MOVE (R0), R0
108C	DC61		MOVE R12, (R6)+
108E	0008		ADD R0, R0
1090	59BC		MOVE (R11), R9
1092	4008		PUTB $0, (R0)
1094	DC5C		MOVE R12, (R5)
1096	0008		ADD R0, R0
1098	59BC		MOVE (R11), R9
109A	3008		MOVE $10, R0
109C	DC60		MOVE R12, (R6)'
109E	0008		ADD R0, R0
10A0	59BC		MOVE (R11), R9
10A2	2008		JMP ($0010)

10A4	DCF0		MOVE R12, (R15)'
10A6	0008		ADD R0, R0
10A8	59BC		MOVE (R11), R9
10AA	1008		CTRL $0, #$08
10AC	DD4E		MOVE R13, (R4)
10AE	0008		ADD R0, R0
10B0	5BFE		MOVE (R15), R11
10B2	C300		SLE R3, R0
10B4	0B00		DEC2 R11, R0
10B6	BC02		SET R12, #$02
10B8	0233		INC2 R2, R3
10BA	200B		JMP ($0016)

10BC	22BC		MOVE R2, $178
10BE	4002		PUTB $0, (R0)+++
10C0	DCE4		MOVE R12, (R14)~
10C2	0108		ADD R1, R0
10C4	67BC		MOVB R7, (R11)
10C6	4102		PUTB $1, (R0)+++
10C8	DDD3		MOVE R13, (R13)++
10CA	0108		ADD R1, R0
10CC	69FE		MOVB R9, (R15)
10CE	E300		
10D0	00FE		GETB R15, $0
10D2	BC01		SET R12, #$01
10D4	0239		SUB R2, R3
10D6	200B		JMP ($0016)

10D8	A408		ADD R4, #$09
10DA	82FE		LBI R2, #$FE
10DC	DDD5		MOVE R13, (R13)-
10DE	0208		ADD R2, R0
10E0	733A		MOVB (R3), R3
10E2	200B		JMP ($0016)

10E4	6CFE		MOVB R12, (R15)
10E6	DDC6		MOVE R13, (R12)-~
10E8	0208		ADD R2, R0
10EA	783B		MOVB (R3), R8
10EC	200B		JMP ($0016)

10EE	6CFE		MOVB R12, (R15)
10F0	DDD5		MOVE R13, (R13)-
10F2	0308		ADD R3, R0
10F4	7D3A		MOVB (R3), R13
10F6	020B		ADDH2 R2, R0
10F8	A2FE		ADD R2, #$FF
10FA	DDC6		MOVE R13, (R12)-~
10FC	0308		ADD R3, R0
10FE	823B		LBI R2, #$3B
1100	020B		ADDH2 R2, R0
1102	A2FE		ADD R2, #$FF
1104	7012		MOVB (R1)+++, R0
1106	0408		ADD R4, R0
1108	8808		LBI R8, #$08
110A	8808		LBI R8, #$08
110C	BE08		SET R14, #$08
110E	BE00		SET R14, #$00
1110	7012		MOVB (R1)+++, R0
1112	0508		ADD R5, R0
1114	BE08		SET R14, #$08
1116	8E08		LBI R14, #$08
1118	BE08		SET R14, #$08
111A	BE00		SET R14, #$00
111C	1A01		CTRL $A, #$01
111E	0ED9		SUB R14, R13
1120	04C9		SUB R4, R12
1122	090E		GETB R0, $9
1124	D908		MOVE R9, (R0)
1126	963F		CLR R6, #$3F
1128	060E		GETB R0, $6
112A	D9FE		MOVE R9, (R15)
112C	C80F		SNBSH R8, R0
112E	0ED9		SUB R14, R13
1130	08BE		GETB R11, $8
1132	0C00		DEC2 R12, R0
1134	0C62		INC R12, R6
1136	0ED9		SUB R14, R13
1138	3C50		MOVE $A0, R12
113A	1081		CTRL $0, #$81
113C	C70A		SNE R7, R0
113E	1080		CTRL $0, #$80
1140	3C10		MOVE $20, R12
1142	1081		CTRL $0, #$81
1144	0C00		DEC2 R12, R0
1146	0F24		MOVE R15, R2
1148	0C62		INC R12, R6
114A	C620		SLE R6, R2
114C	77E6		MOVB (R14)---, R7
114E	CA0A		SNE R10, R0
1150	0F24		MOVE R15, R2
1152	08B1		DEC R8, R11
1154	2507		MOVE R5, $0E
1156	0F25		AND R15, R2
1158	58FE		MOVE (R15), R8
115A	C702		SE R7, R0
115C	0F25		AND R15, R2
115E	3F0A		MOVE $14, R15
1160	0F24		MOVE R15, R2
1162	B320		SET R3, #$20
1164	7C32		MOVB (R3)+++, R12
1166	000F		GETA R0, $0
1168	24F6		MOVE R4, $1EC
116A	0001		DEC R0, R0
116C	F920		SUB R9, #$21
116E	0025		AND R0, R2
1170	070F		GETA R0, $7
1172	2500		MOVE R5, $00
1174	C702		SE R7, R0
1176	0F25		AND R15, R2
1178	C70C		SNS R7
117A	0168		ADD R1, R6
117C	7012		MOVB (R1)+++, R0
117E	0908		ADD R9, R0
1180	C408		SGT R4, R0
1182	C408		SGT R4, R0
1184	DF08		MOVE R15, (R0)
1186	DF00		MOVE R15, (R0)'
1188	7012		MOVB (R1)+++, R0
118A	0A08		ADD R10, R0
118C	DF08		MOVE R15, (R0)
118E	CA08		SGT R10, R0
1190	DF08		MOVE R15, (R0)
1192	DF00		MOVE R15, (R0)'
1194	0907		XOR R9, R0
1196	0F24		MOVE R15, R2
1198	0000		HALT
119A	1A01		CTRL $A, #$01
119C	0F2B		ADDH2 R15, R2
119E	09C7		XOR R9, R12
11A0	260F		MOVE R6, $1E
11A2	24C7		MOVE R4, $18E
11A4	120F		CTRL $2, #$0F
11A6	24C7		MOVE R4, $18E
11A8	0C0F		GETA R0, $C
11AA	24CC		MOVE R4, $198
11AC	000F		GETA R0, $0
11AE	2708		MOVE R7, $10
11B0	DCCA		MOVE R12, (R12)
11B2	080F		GETA R0, $8
11B4	2708		MOVE R7, $10
11B6	DFFE		MOVE R15, (R15)
11B8	0C00		DEC2 R12, R0
11BA	0F13		INC2 R15, R1
11BC	0F27		XOR R15, R2
11BE	DDC6		MOVE R13, (R12)-~
11C0	0608		ADD R6, R0
11C2	FDDD		SUB R13, #$DE
11C4	D307		MOVE R3, (R0)--
11C6	08FD		MLH R8, R15
11C8	DAF0		MOVE R10, (R15)'
11CA	0808		ADD R8, R0
11CC	FDD8		SUB R13, #$D9
11CE	F908		SUB R9, #$09
11D0	08FD		MLH R8, R15
11D2	7BF0		MOVB (R15)+, R11
11D4	0872		INC R8, R7
11D6	0008		ADD R0, R0
11D8	7AF0		MOVB (R15)+, R10
11DA	0833		INC2 R8, R3
11DC	200B		JMP ($0016)

11DE	42F8		PUTB $2, (R15)
11E0	2000		JMP ($0000)

11E2	F820		SUB R8, #$21
11E4	00EE		GETB R14, $0
11E6	2000		JMP ($0000)

11E8	08FD		MLH R8, R15
11EA	B910		SET R9, #$10
11EC	1408		CTRL $4, #$08
11EE	FDFE		SUB R13, #$FF
11F0	B880		SET R8, #$80
11F2	1408		CTRL $4, #$08
11F4	FDFE		SUB R13, #$FF
11F6	BA04		SET R10, #$04
11F8	15FE		CTRL $5, #$FE
11FA	DD40		MOVE R13, (R4)'
11FC	0B09		SUB R11, R0
11FE	035D		MLH R3, R5
1200	060B		ADDH2 R6, R0
1202	0C20		DEC2 R12, R2
1204	090E		GETB R0, $9
1206	7980		MOVB (R8)+, R9
1208	0B09		SUB R11, R0
120A	0EFE		GETB R15, $E
120C	D70A		MOVE R7, (R0)
120E	0BC7		XOR R11, R12
1210	0610		DEC2 R6, R1
1212	80C0		LBI R0, #$C0
1214	0209		SUB R2, R0
1216	0EC7		XOR R14, R12
1218	0C01		DEC R12, R0
121A	68FE		MOVB R8, (R15)
121C	FB10		SUB R11, #$11
121E	60FB		MOVB R0, (R15)
1220	2050		JMP ($00A0)

1222	FC70		SUB R12, #$71
1224	00FE		GETB R15, $0
1226	3C01		MOVE $02, R12
1228	0F5A		ADDH R15, R5
122A	F009		BRA $1222		; -> -$0A(R0)

122C	19FE		CTRL $9, #$FE
122E	3C02		MOVE $04, R12
1230	0F5A		ADDH R15, R5
1232	300C		MOVE $18, R0
1234	0F24		MOVE R15, R2
1236	3320		MOVE $40, R3
1238	0F24		MOVE R15, R2
123A	301C		MOVE $38, R0
123C	0EB0		DEC2 R14, R11
123E	D708		MOVE R7, (R0)
1240	00E7		XOR R0, R14
1242	0400		DEC2 R4, R0
1244	E70C		
1246	06AC		MHL R6, R10
1248	0037		XOR R0, R3
124A	06BB		ADDH2 R6, R11
124C	8006		LBI R0, #$06
124E	8557		LBI R5, #$57
1250	3809		MOVE $12, R8
1252	A7FE		ADD R7, #$FF
1254	E708		
1256	06E7		XOR R6, R14
1258	1678		CTRL $6, #$78
125A	E70C		
125C	0EE8		ADD R14, R14
125E	400E		PUTB $0, (R0)
1260	0934		MOVE R9, R3
1262	BC00		SET R12, #$00
1264	31F0		MOVE $1E0, R1
1266	0953		INC2 R9, R5
1268	E70C		
126A	2EE7		MOVE R14, $1CE
126C	0080		DEC2 R0, R8
126E	BA80		SET R10, #$80
1270	0EE7		XOR R14, R14
1272	000E		GETB R0, $0
1274	E70C		
1276	0EBB		ADDH2 R14, R11
1278	800E		LBI R0, #$0E
127A	E946		
127C	2E09		MOVE R14, $12
127E	4EAC		PUTB $E, (R10)
1280	022F		GETA R2, $2
1282	32BF		MOVE $17E, R2
1284	062E		GETB R2, $6
1286	E946		
1288	2E09		MOVE R14, $12
128A	4EAC		PUTB $E, (R10)
128C	002F		GETA R2, $0
128E	30BF		MOVE $17E, R0
1290	022E		GETB R2, $2
1292	E946		
1294	2E09		MOVE R14, $12
1296	4E89		PUTB $E, (R8)
1298	072E		GETB R2, $7
129A	0000		HALT
129C	E70A		
129E	2EE7		MOVE R14, $1CE
12A0	122E		CTRL $2, #$2E
12A2	E70C		
12A4	2EFE		MOVE R14, $1FC
12A6	B801		SET R8, #$01
12A8	3109		MOVE $12, R1
12AA	5CFE		MOVE (R15), R12
12AC	E708		
12AE	0EE7		XOR R14, R14
12B0	0088		ADD R0, R8
12B2	E700		
12B4	88E7		LBI R8, #$E7
12B6	0C0E		GETB R0, $C
12B8	BB80		SET R11, #$80
12BA	0EEC		MHL R14, R14
12BC	0136		OR R1, R3
12BE	0966		OR R9, R6
12C0	BE01		SET R14, #$01
12C2	31B9		MOVE $172, R1
12C4	0131		DEC R1, R3
12C6	0966		OR R9, R6
12C8	BE02		SET R14, #$02
12CA	31FE		MOVE $1FC, R1
12CC	BBFC		SET R11, #$FC
12CE	31E7		MOVE $1CE, R1
12D0	080E		GETB R0, $8
12D2	E702		
12D4	0EE7		XOR R14, R14
12D6	0C16		OR R12, R1
12D8	E702		
12DA	50E7		MOVE (R14)--, R0
12DC	0048		ADD R0, R4
12DE	E702		
12E0	16E7		CTRL $6, #$E7
12E2	0040		DEC2 R0, R4
12E4	E702		
12E6	16E7		CTRL $6, #$E7
12E8	0038		ADD R0, R3
12EA	E702		
12EC	0EE7		XOR R14, R14
12EE	0C1E		GETB R1, $C
12F0	E708		
12F2	16E7		CTRL $6, #$E7
12F4	0070		DEC2 R0, R7
12F6	E702		
12F8	16E7		CTRL $6, #$E7
12FA	0068		ADD R0, R6
12FC	E702		
12FE	16E7		CTRL $6, #$E7
1300	0060		DEC2 R0, R6
1302	E702		
1304	16E7		CTRL $6, #$E7
1306	0058		ADD R0, R5
1308	E70C		
130A	26EC		MOVE R6, $1D8
130C	0031		DEC R0, R3
130E	098B		ADDH2 R9, R8
1310	ED03		
1312	3109		MOVE $12, R1
1314	90FE		CLR R0, #$FE
1316	E708		
1318	1EE7		CTRL $E, #$E7
131A	1626		CTRL $6, #$26
131C	F009		BRA $1314		; -> -$0A(R0)

131E	92FE		CLR R2, #$FE
1320	E716		
1322	1EFE		CTRL $E, #$FE
1324	E70C		
1326	0EB8		ADD R14, R11
1328	0231		DEC R2, R3
132A	0998		ADD R9, R9
132C	BE80		SET R14, #$80
132E	0EFE		GETB R15, $E
1330	B880		SET R8, #$80
1332	3709		MOVE $12, R7
1334	9DFE		CLR R13, #$FE
1336	BE80		SET R14, #$80
1338	0EFE		GETB R15, $E
133A	E708		
133C	0ECC		MHL R14, R12
133E	080E		GETB R0, $8
1340	BF09		SET R15, #$09
1342	A3E7		ADD R3, #$E8
1344	1400		CTRL $4, #$00
1346	301A		MOVE $34, R0
1348	0EBA		ADDH R14, R11
134A	B00E		SET R0, #$0E
134C	00FE		GETB R15, $0
134E	46A6		PUTB $6, (R10)---
1350	C4EF		SNBSH R4, R14
1352	8645		LBI R6, #$45
1354	8B3D		LBI R11, #$3D
1356	C5DB		SNZ R5
1358	82BF		LBI R2, #$BF
135A	F1D3		SUB R1, #$D4
135C	67E5		MOVB R7, (R14)--
135E	4437		PUTB $4, (R3)----
1360	9962		CLR R9, #$62
1362	4FA9		PUTB $F, (R10)
1364	39C4		MOVE $188, R9
1366	C22D		SNBS R2, R2
1368	B889		SET R8, #$89
136A	19A7		CTRL $9, #$A7
136C	7DCD		MOVB (R12), R13
136E	46D4		PUTB $6, (R13)-
1370	5655		MOVE (R5)-, R6
1372	7D27		MOVB (R2)----, R13
1374	917A		CLR R1, #$7A
1376	C63D		SNBS R6, R3
1378	20D2		JMP ($01A4)

137A	0D5E		GETB R5, $D
137C	E18A		
137E	4521		PUTB $5, (R2)++
1380	2A3F		MOVE R10, $7E
1382	3063		MOVE $C6, R0
1384	FBCA		SUB R11, #$CB
1386	C33F		SNBSH R3, R3
1388	931E		CLR R3, #$1E
138A	00B5		AND R0, R11
138C	BF01		SET R15, #$01
138E	40C9		PUTB $0, (R12)
1390	0FDA		ADDH R15, R13
1392	A221		ADD R2, #$22
1394	68C2		MOVB R8, (R12)+++
1396	4F00		PUTB $F, (R0)+
1398	0000		HALT
139A	0000		HALT
139C	0000		HALT
139E	C080		SLE R0, R8
13A0	0000		HALT
13A2	0000		HALT
13A4	0000		HALT
13A6	300C		MOVE $18, R0
13A8	0C5C		MHL R12, R5
13AA	DD3F		MOVE R13, (R3)
13AC	0009		SUB R0, R0
13AE	E672		
13B0	0001		DEC R0, R0
13B2	7310		MOVB (R1)+, R3
13B4	0234		MOVE R2, R3
13B6	100D		CTRL $0, #$0D
13B8	A634		ADD R6, #$35
13BA	000D		MLH R0, R0
13BC	A93C		ADD R9, #$3D
13BE	800D		LBI R0, #$0D
13C0	A8F8		ADD R8, #$F9
13C2	1000		CTRL $0, #$00
13C4	3410		MOVE $20, R4
13C6	0C5C		MHL R12, R5
13C8	300E		MOVE $1C, R0
13CA	0C5C		MHL R12, R5
13CC	3300		MOVE $00, R3
13CE	0003		INC2 R0, R0
13D0	4000		PUTB $0, (R0)+
13D2	0002		INC R0, R0
13D4	86FE		LBI R6, #$FE
13D6	280A		MOVE R8, $14
13D8	0273		INC2 R2, R7
13DA	1003		CTRL $0, #$03
13DC	3300		MOVE $00, R3
13DE	83E0		LBI R3, #$E0
13E0	3400		MOVE $00, R4
13E2	0DB5		AND R13, R11
13E4	3300		MOVE $00, R3
13E6	09FA		ADDH R9, R15
13E8	3400		MOVE $00, R4
13EA	0DB7		XOR R13, R11
13EC	3A80		MOVE $100, R10
13EE	0ED7		XOR R14, R13
13F0	F02F		BRA $13C2		; -> -$30(R0)

13F2	EAFE		
13F4	3B80		MOVE $100, R11
13F6	0ED6		OR R14, R13
13F8	DDFF		MOVE R13, (R15)
13FA	0047		XOR R0, R4
13FC	EA3B		
13FE	200D		JMP ($001A)

1400	BFF0		SET R15, #$F0
1402	3BD8		MOVE $1B0, R11
1404	4000		PUTB $0, (R0)+
1406	0002		INC R0, R0
1408	FDFE		SUB R13, #$FF
140A	280A		MOVE R8, $14
140C	1E73		CTRL $E, #$73
140E	1004		CTRL $0, #$04
1410	3A10		MOVE $20, R10
1412	0DBF		GETA R11, $D
1414	F16B		SUB R1, #$6C
1416	FCFE		SUB R12, #$FF
1418	7310		MOVB (R1)+, R3
141A	0134		MOVE R1, R3
141C	100C		CTRL $0, #$0C
141E	5CF1		MOVE (R15)+, R12
1420	2FE2		MOVE R15, $1C4
1422	3500		MOVE $00, R5
1424	0DBB		ADDH2 R13, R11
1426	3600		MOVE $00, R6
1428	0EDB		ADDH2 R14, R13
142A	C400		SLE R4, R0
142C	0EDB		ADDH2 R14, R13
142E	100A		CTRL $0, #$0A
1430	1C0C		CTRL $C, #$0C
1432	010D		MLH R1, R0
1434	BB0E		SET R11, #$0E
1436	DBFE		MOVE R11, (R15)
1438	300E		MOVE $1C, R0
143A	0C5C		MHL R12, R5
143C	F16B		SUB R1, #$6C
143E	FCFE		SUB R12, #$FF
1440	3410		MOVE $20, R4
1442	0C5C		MHL R12, R5
1444	3510		MOVE $20, R5
1446	0EB4		MOVE R14, R11
1448	0C00		DEC2 R12, R0
144A	0C63		INC2 R12, R6
144C	0EB6		OR R14, R11
144E	3006		MOVE $0C, R0
1450	0EB0		DEC2 R14, R11
1452	3300		MOVE $00, R3
1454	0001		DEC R0, R0
1456	CC00		SLE R12, R0
1458	0C63		INC2 R12, R6
145A	0A4A		ADDH R10, R4
145C	C410		SLE R4, R1
145E	0EC2		INC R14, R12
1460	100A		CTRL $0, #$0A
1462	3434		MOVE $68, R4
1464	100E		CTRL $0, #$0E
1466	C4FE		SNBC R4, R15
1468	3410		MOVE $20, R4
146A	0DA6		OR R13, R10
146C	3C80		MOVE $100, R12
146E	0DA8		ADD R13, R10
1470	0C00		DEC2 R12, R0
1472	0DAA		ADDH R13, R10
1474	0C63		INC2 R12, R6
1476	7320		MOVB (R2)+, R3
1478	0036		OR R0, R3
147A	200D		JMP ($001A)

147C	A9F0		ADD R9, #$F1
147E	0A44		MOVE R10, R4
1480	3F01		MOVE $02, R15
1482	0DAA		ADDH R13, R10
1484	C004		SS R0
1486	0A48		ADD R10, R4
1488	F920		SUB R9, #$21
148A	00EC		MHL R0, R14
148C	4000		PUTB $0, (R0)+
148E	0A40		DEC2 R10, R4
1490	300E		MOVE $1C, R0
1492	0C5C		MHL R12, R5
1494	D708		MOVE R7, (R0)
1496	0030		DEC2 R0, R3
1498	020E		GETB R0, $2
149A	BAF1		SET R10, #$F1
149C	23F8		MOVE R3, $1F0
149E	3BC0		MOVE $180, R11
14A0	0DA8		ADD R13, R10
14A2	300E		MOVE $1C, R0
14A4	0C5C		MHL R12, R5
14A6	B310		SET R3, #$10
14A8	07DC		MHL R7, R13
14AA	FF02		SUB R15, #$03
14AC	0A7F		GETA R7, $A
14AE	3008		MOVE $10, R0
14B0	00FE		GETB R15, $0
14B2	7310		MOVB (R1)+, R3
14B4	01F1		DEC R1, R15
14B6	6BFC		MOVB R11, (R15)
14B8	F12F		SUB R1, #$30
14BA	E2FE		
14BC	B310		SET R3, #$10
14BE	07FE		GETB R15, $7
14C0	0F10		DEC2 R15, R1
14C2	0DBB		ADDH2 R13, R11
14C4	0EDB		ADDH2 R14, R13
14C6	C081		SLT R0, R8
14C8	0A7F		GETA R7, $A
14CA	7310		MOVB (R1)+, R3
14CC	02DD		MLH R2, R13
14CE	FE00		SUB R14, #$01
14D0	0A60		DEC2 R10, R6
14D2	F03B		BRA $1498		; -> -$3C(R0)

14D4	D8FE		MOVE R8, (R15)
14D6	0C00		DEC2 R12, R0
14D8	0ECC		MHL R14, R12
14DA	0B7C		MHL R11, R7
14DC	C500		SLE R5, R0
14DE	0EE6		OR R14, R14
14E0	C081		SLT R0, R8
14E2	0A78		ADD R10, R7
14E4	3400		MOVE $00, R4
14E6	0ECD		MLH R14, R12
14E8	3C02		MOVE $04, R12
14EA	0ECF		GETA R12, $E
14EC	3004		MOVE $08, R0
14EE	0EC8		ADD R14, R12
14F0	0C01		DEC R12, R0
14F2	0ECD		MLH R14, R12
14F4	0B67		XOR R11, R6
14F6	3C01		MOVE $02, R12
14F8	0ECF		GETA R12, $E
14FA	F00A		BRA $14F1		; -> -$0B(R0)

14FC	AAFE		ADD R10, #$FF
14FE	1C01		CTRL $C, #$01
1500	0DAB		ADDH2 R13, R10
1502	00ED		MLH R0, R14
1504	3106		MOVE $0C, R1
1506	0AC5		AND R10, R12
1508	0C00		DEC2 R12, R0
150A	0ECC		MHL R14, R12
150C	0B7C		MHL R11, R7
150E	DD99		MOVE R13, (R9)
1510	000A		ADDH R0, R0
1512	BEDA		SET R14, #$DA
1514	9001		CLR R0, #$01
1516	0ABE		GETB R11, $A
1518	1C00		CTRL $C, #$00
151A	0ED9		SUB R14, R13
151C	013B		ADDH2 R1, R3
151E	F00E		BRA $1511		; -> -$0F(R0)

1520	D933		MOVE R9, (R3)++
1522	100B		CTRL $0, #$0B
1524	8236		LBI R2, #$36
1526	100E		CTRL $0, #$0E
1528	D836		MOVE R8, (R3)-~
152A	100E		CTRL $0, #$0E
152C	D836		MOVE R8, (R3)-~
152E	100E		CTRL $0, #$0E
1530	D878		MOVE R8, (R7)
1532	1000		CTRL $0, #$00
1534	0ABE		GETB R11, $A
1536	C500		SLE R5, R0
1538	0EE6		OR R14, R14
153A	C081		SLT R0, R8
153C	0AA5		AND R10, R10
153E	3400		MOVE $00, R4
1540	0ECD		MLH R14, R12
1542	3C02		MOVE $04, R12
1544	0ECF		GETA R12, $E
1546	3004		MOVE $08, R0
1548	0EC8		ADD R14, R12
154A	2C01		MOVE R12, $02
154C	0ECD		MLH R14, R12
154E	043C		MHL R4, R3
1550	000E		GETB R0, $0
1552	CFFE		SNBC R15, R15
1554	3004		MOVE $08, R0
1556	0EC8		ADD R14, R12
1558	0901		DEC R9, R0
155A	0EE6		OR R14, R14
155C	0000		HALT
155E	0901		DEC R9, R0
1560	0B65		AND R11, R6
1562	0000		HALT
1564	1C02		CTRL $C, #$02
1566	0B7C		MHL R11, R7
1568	003B		ADDH2 R0, R3
156A	F00B		BRA $1560		; -> -$0C(R0)

156C	7C75		MOVB (R7)--, R12
156E	2001		JMP ($0002)

1570	3CD2		MOVE $1A4, R12
1572	05FA		ADDH R5, R15
1574	2B00		MOVE R11, $00
1576	05FB		ADDH2 R5, R15
1578	05F0		DEC2 R5, R15
157A	3BD8		MOVE $1B0, R11
157C	2C01		MOVE R12, $02
157E	0ECD		MLH R14, R12
1580	043C		MHL R4, R3
1582	000E		GETB R0, $0
1584	CF30		SLE R15, R3
1586	040E		GETB R0, $4
1588	C8FE		SNBC R8, R15
158A	F13B		SUB R1, #$3C
158C	B4FE		SET R4, #$FE
158E	F03B		BRA $1554		; -> -$3C(R0)

1590	D6FE		MOVE R6, (R15)
1592	300C		MOVE $18, R0
1594	0FA4		MOVE R15, R10
1596	F12F		SUB R1, #$30
1598	E2FE		
159A	CD02		SE R13, R0
159C	0ED5		AND R14, R13
159E	0AD7		XOR R10, R13
15A0	F10A		SUB R1, #$0B
15A2	FCFE		SUB R12, #$FF
15A4	FB40		SUB R11, #$41
15A6	50F9		MOVE (R15), R0
15A8	4020		PUTB $0, (R2)+
15AA	F00A		BRA $15A1		; -> -$0B(R0)

15AC	E9FE		
15AE	CD03		SZ R13
15B0	0ED5		AND R14, R13
15B2	0AFC		MHL R10, R15
15B4	CE40		SLE R14, R4
15B6	0DBB		ADDH2 R13, R11
15B8	0B0F		GETA R0, $B
15BA	F12F		SUB R1, #$30
15BC	E2FE		
15BE	F10A		SUB R1, #$0B
15C0	FCFE		SUB R12, #$FF
15C2	FB30		SUB R11, #$31
15C4	40F8		PUTB $0, (R15)
15C6	3020		MOVE $40, R0
15C8	C0A0		SLE R0, R10
15CA	0B0F		GETA R0, $B
15CC	FA30		SUB R10, #$31
15CE	5000		MOVE (R0)', R0
15D0	0B0F		GETA R0, $B
15D2	3510		MOVE $20, R5
15D4	0EB4		MOVE R14, R11
15D6	C410		SLE R4, R1
15D8	0EC2		INC R14, R12
15DA	080A		ADDH R8, R0
15DC	F264		SUB R2, #$65
15DE	4000		PUTB $0, (R0)+
15E0	00FB		ADDH2 R0, R15
15E2	2010		JMP ($0020)

15E4	3006		MOVE $0C, R0
15E6	0EB0		DEC2 R14, R11
15E8	3440		MOVE $80, R4
15EA	0EB5		AND R14, R11
15EC	3420		MOVE $40, R4
15EE	0EB4		MOVE R14, R11
15F0	3004		MOVE $08, R0
15F2	0EB0		DEC2 R14, R11
15F4	300E		MOVE $1C, R0
15F6	0FA4		MOVE R15, R10
15F8	3250		MOVE $A0, R2
15FA	0EB6		OR R14, R11
15FC	3650		MOVE $A0, R6
15FE	0EB4		MOVE R14, R11
1600	3520		MOVE $40, R5
1602	0DBB		ADDH2 R13, R11
1604	3720		MOVE $40, R7
1606	0EDB		ADDH2 R14, R13
1608	C082		SE R0, R8
160A	0B0F		GETA R0, $B
160C	3620		MOVE $40, R6
160E	0EB4		MOVE R14, R11
1610	C0A0		SLE R0, R10
1612	0B0F		GETA R0, $B
1614	FA20		SUB R10, #$21
1616	5018		MOVE (R1), R0
1618	0B0F		GETA R0, $B
161A	FC80		SUB R12, #$81
161C	00FE		GETB R15, $0
161E	3CD7		MOVE $1AE, R12
1620	0BB4		MOVE R11, R11
1622	F03B		BRA $15E8		; -> -$3C(R0)

1624	D0FE		JMP (R15)
1626	300C		MOVE $18, R0
1628	0FA4		MOVE R15, R10
162A	301C		MOVE $38, R0
162C	0EB0		DEC2 R14, R11
162E	3A80		MOVE $100, R10
1630	0ED6		OR R14, R13
1632	D708		MOVE R7, (R0)
1634	00F1		DEC R0, R15
1636	23F8		MOVE R3, $1F0
1638	3B80		MOVE $100, R11
163A	0ED6		OR R14, R13
163C	3540		MOVE $80, R5
163E	0DA9		SUB R13, R10
1640	3520		MOVE $40, R5
1642	0DA6		OR R13, R10
1644	ED40		
1646	000B		ADDH2 R0, R0
1648	2B37		MOVE R11, $6E
164A	400E		PUTB $0, (R0)
164C	DB3F		MOVE R11, (R3)
164E	010D		MLH R1, R0
1650	AA36		ADD R10, #$37
1652	200E		JMP ($001C)

1654	DBFE		MOVE R11, (R15)
1656	3440		MOVE $80, R4
1658	0ED8		ADD R14, R13
165A	3510		MOVE $20, R5
165C	0EC4		MOVE R14, R12
165E	FB30		SUB R11, #$31
1660	1036		CTRL $0, #$36
1662	300E		MOVE $1C, R0
1664	D8C4		MOVE R8, (R12)~
1666	300E		MOVE $1C, R0
1668	C208		SGT R2, R0
166A	3BD2		MOVE $1A4, R11
166C	3430		MOVE $60, R4
166E	0EC4		MOVE R14, R12
1670	6440		MOVB R4, (R4)+
1672	0000		HALT
1674	0C00		DEC2 R12, R0
1676	0EB6		OR R14, R11
1678	0DAA		ADDH R13, R10
167A	3410		MOVE $20, R4
167C	0EB4		MOVE R14, R11
167E	3C00		MOVE $00, R12
1680	0ED8		ADD R14, R13
1682	3004		MOVE $08, R0
1684	0EB0		DEC2 R14, R11
1686	300E		MOVE $1C, R0
1688	0FA4		MOVE R15, R10
168A	0507		XOR R5, R0
168C	0FA4		MOVE R15, R10
168E	0B5D		MLH R11, R5
1690	F00B		BRA $1686		; -> -$0C(R0)

1692	4DFE		PUTB $D, (R15)
1694	0507		XOR R5, R0
1696	0FA4		MOVE R15, R10
1698	0B59		SUB R11, R5
169A	C708		SGT R7, R0
169C	0FA4		MOVE R15, R10
169E	FB00		SUB R11, #$01
16A0	1030		CTRL $0, #$30
16A2	1C0E		CTRL $C, #$0E
16A4	B0D7		SET R0, #$D7
16A6	0200		DEC2 R2, R0
16A8	301A		MOVE $34, R0
16AA	0EBA		ADDH R14, R11
16AC	FB10		SUB R11, #$11
16AE	00FC		MHL R0, R15
16B0	8000		LBI R0, #$00
16B2	3F47		MOVE $8E, R15
16B4	7D1A		MOVB (R1), R13
16B6	894A		LBI R9, #$4A
16B8	74E3		MOVB (R14)++++, R4
16BA	4239		PUTB $2, (R3)
16BC	4BB8		PUTB $B, (R11)
16BE	34C7		MOVE $18E, R4
16C0	83F0		LBI R3, #$F0
16C2	FB00		SUB R11, #$01
16C4	8009		LBI R0, #$09
16C6	050F		GETA R0, $5
16C8	1400		CTRL $4, #$00
16CA	003C		MHL R0, R3
16CC	010F		GETA R0, $1
16CE	16FE		CTRL $6, #$FE
16D0	3801		MOVE $02, R8
16D2	0F1B		ADDH2 R15, R1
16D4	0B6E		GETB R6, $B
16D6	0602		INC R6, R0
16D8	0F17		XOR R15, R1
16DA	0F14		MOVE R15, R1
16DC	0602		INC R6, R0
16DE	0F14		MOVE R15, R1
16E0	0F14		MOVE R15, R1
16E2	0210		DEC2 R2, R1
16E4	0F1A		ADDH R15, R1
16E6	0000		HALT
16E8	C001		SLT R0, R0
16EA	0B68		ADD R11, R6
16EC	FC00		SUB R12, #$01
16EE	0000		HALT
16F0	0000		HALT
16F2	0000		HALT
16F4	0000		HALT
16F6	0000		HALT
16F8	0000		HALT
16FA	0000		HALT
16FC	0000		HALT
16FE	0000		HALT
1700	0000		HALT
1702	0000		HALT
1704	0000		HALT
1706	0000		HALT
1708	0000		HALT
170A	0000		HALT
170C	0000		HALT
170E	0000		HALT
1710	0000		HALT
1712	0000		HALT
1714	0000		HALT
1716	0000		HALT
1718	0000		HALT
171A	0000		HALT
171C	0000		HALT
171E	0000		HALT
1720	0000		HALT
1722	0000		HALT
1724	0000		HALT
1726	0000		HALT
1728	0000		HALT
172A	0000		HALT
172C	0000		HALT
172E	0000		HALT
1730	0000		HALT
1732	0000		HALT
1734	0000		HALT
1736	0000		HALT
1738	0000		HALT
173A	0000		HALT
173C	0000		HALT
173E	0000		HALT
1740	0000		HALT
1742	0000		HALT
1744	0000		HALT
1746	0000		HALT
1748	0000		HALT
174A	0000		HALT
174C	0000		HALT
174E	0000		HALT
1750	0000		HALT
1752	0000		HALT
1754	0000		HALT
1756	0000		HALT
1758	0000		HALT
175A	0000		HALT
175C	0000		HALT
175E	0000		HALT
1760	0000		HALT
1762	0000		HALT
1764	0000		HALT
1766	0000		HALT
1768	0000		HALT
176A	0000		HALT
176C	0000		HALT
176E	0000		HALT
1770	0000		HALT
1772	0000		HALT
1774	0000		HALT
1776	0000		HALT
1778	0000		HALT
177A	0000		HALT
177C	0000		HALT
177E	0000		HALT
1780	0000		HALT
1782	0000		HALT
1784	0000		HALT
1786	0000		HALT
1788	0000		HALT
178A	0000		HALT
178C	F00B		BRA $1782		; -> -$0C(R0)

178E	6100		MOVB R1, (R0)+
1790	F00B		BRA $1786		; -> -$0C(R0)

1792	4A00		PUTB $A, (R0)+
1794	F00B		BRA $178A		; -> -$0C(R0)

1796	4500		PUTB $5, (R0)+
1798	F00B		BRA $178E		; -> -$0C(R0)

179A	1300		CTRL $3, #$00
179C	F00A		BRA $1793		; -> -$0B(R0)

179E	C900		SLE R9, R0
17A0	F00A		BRA $1797		; -> -$0B(R0)

17A2	6B00		MOVB R11, (R0)+
17A4	F00A		BRA $179B		; -> -$0B(R0)

17A6	5300		MOVE (R0)', R3
17A8	F00A		BRA $179F		; -> -$0B(R0)

17AA	2900		MOVE R9, $00
17AC	F009		BRA $17A4		; -> -$0A(R0)

17AE	D300		MOVE R3, (R0)'
17B0	F009		BRA $17A8		; -> -$0A(R0)

17B2	1700		CTRL $7, #$00
17B4	F009		BRA $17AC		; -> -$0A(R0)

17B6	1300		CTRL $3, #$00
17B8	F008		BRA $17B1		; -> -$09(R0)

17BA	0200		DEC2 R2, R0
17BC	F007		BRA $17B6		; -> -$08(R0)

17BE	C500		SLE R5, R0
17C0	F006		BRA $17BB		; -> -$07(R0)

17C2	4700		PUTB $7, (R0)+
17C4	F006		BRA $17BF		; -> -$07(R0)

17C6	4200		PUTB $2, (R0)+
17C8	F006		BRA $17C3		; -> -$07(R0)

17CA	1A00		CTRL $A, #$00
17CC	F006		BRA $17C7		; -> -$07(R0)

17CE	0900		DEC2 R9, R0
17D0	F005		BRA $17CC		; -> -$06(R0)

17D2	F400		SUB R4, #$01
17D4	F005		BRA $17D0		; -> -$06(R0)

17D6	ED00		
17D8	F005		BRA $17D4		; -> -$06(R0)

17DA	E800		
17DC	F005		BRA $17D8		; -> -$06(R0)

17DE	E600		
17E0	F005		BRA $17DC		; -> -$06(R0)

17E2	E100		
17E4	F005		BRA $17E0		; -> -$06(R0)

17E6	DF00		MOVE R15, (R0)'
17E8	F004		BRA $17E5		; -> -$05(R0)

17EA	9A00		CLR R10, #$00
17EC	F004		BRA $17E9		; -> -$05(R0)

17EE	6F00		MOVB R15, (R0)+
17F0	F004		BRA $17ED		; -> -$05(R0)

17F2	6C00		MOVB R12, (R0)+
17F4	F004		BRA $17F1		; -> -$05(R0)

17F6	4000		PUTB $0, (R0)+
17F8	F004		BRA $17F5		; -> -$05(R0)

17FA	3C00		MOVE $00, R12
17FC	0410		DEC2 R4, R1
17FE	7284		MOVB (R8)-, R2
1800	0963		INC2 R9, R6
1802	0F24		MOVE R15, R2
1804	0000		HALT
1806	0963		INC2 R9, R6
1808	0F8A		ADDH R15, R8
180A	0000		HALT
180C	050E		GETB R0, $5
180E	103A		CTRL $0, #$3A
1810	1291		CTRL $2, #$91
1812	093F		GETA R3, $9
1814	05C0		DEC2 R5, R12
1816	0040		DEC2 R0, R4
1818	0901		DEC R9, R0
181A	0B6E		GETB R6, $B
181C	0000		HALT
181E	0903		INC2 R9, R0
1820	0F7A		ADDH R15, R7
1822	00F0		DEC2 R0, R15
1824	0910		DEC2 R9, R1
1826	0F5C		MHL R15, R5
1828	0040		DEC2 R0, R4
182A	0912		INC R9, R1
182C	0FA1		DEC R15, R10
182E	0040		DEC2 R0, R4
1830	7310		MOVB (R1)+, R3
1832	040C		MHL R4, R0
1834	020F		GETA R0, $2
1836	7F0B		MOVB (R0), R15
1838	690C		MOVB R9, (R0)
183A	010F		GETA R0, $1
183C	700B		MOVB (R0), R0
183E	6C3A		MOVB R12, (R3)
1840	020F		GETA R0, $2
1842	6EDC		MOVB R14, (R13)
1844	7D00		MOVB (R0)+, R13
1846	0C2B		ADDH2 R12, R2
1848	3370		MOVE $E0, R3
184A	0C98		ADD R12, R9
184C	F15F		SUB R1, #$60
184E	F8FE		SUB R8, #$FF
1850	DD7D		MOVE R13, (R7)
1852	000C		MHL R0, R0
1854	41FE		PUTB $1, (R15)
1856	7310		MOVB (R1)+, R3
1858	013C		MHL R1, R3
185A	110F		CTRL $1, #$0F
185C	6D33		MOVB R13, (R3)++++
185E	200F		JMP ($001E)

1860	5CFE		MOVE (R15), R12
1862	DC7D		MOVE R12, (R7)
1864	000C		MHL R0, R0
1866	3B3F		MOVE $7E, R11
1868	010F		GETA R0, $1
186A	6DC0		MOVB R13, (R12)+
186C	825F		LBI R2, #$5F
186E	F4F1		SUB R4, #$F2
1870	0BF2		INC R11, R15
1872	F00C		BRA $1867		; -> -$0D(R0)

1874	31FE		MOVE $1FC, R1
1876	7310		MOVB (R1)+, R3
1878	01DD		MLH R1, R13
187A	6B00		MOVB R11, (R0)+
187C	0C98		ADD R12, R9
187E	7310		MOVB (R1)+, R3
1880	01FE		GETB R15, $1
1882	3370		MOVE $E0, R3
1884	0004		NOP
1886	4070		PUTB $0, (R7)+
1888	0002		INC R0, R0
188A	00FE		GETB R15, $0
188C	280C		MOVE R8, $18
188E	4F3A		PUTB $F, (R3)
1890	400B		PUTB $0, (R0)
1892	A33A		ADD R3, #$3B
1894	040F		GETA R0, $4
1896	98FE		CLR R8, #$FE
1898	7310		MOVB (R1)+, R3
189A	04F0		DEC2 R4, R15
189C	0C8B		ADDH2 R12, R8
189E	3370		MOVE $E0, R3
18A0	0003		INC2 R0, R0
18A2	4070		PUTB $0, (R7)+
18A4	0002		INC R0, R0
18A6	00FE		GETB R15, $0
18A8	280C		MOVE R8, $18
18AA	65DA		MOVB R5, (R13)
18AC	F003		BRA $18AA		; -> -$04(R0)

18AE	5FF4		MOVE (R15)~, R15
18B0	D8F9		MOVE R8, (R15)
18B2	035F		GETA R5, $3
18B4	F41C		SUB R4, #$1D
18B6	0010		DEC2 R0, R1
18B8	3D03		MOVE $06, R13
18BA	1C00		CTRL $C, #$00
18BC	0B56		OR R11, R5
18BE	033A		ADDH R3, R3
18C0	400B		PUTB $0, (R0)
18C2	A33A		ADD R3, #$3B
18C4	080F		GETA R0, $8
18C6	98F0		CLR R8, #$F0
18C8	0C4C		MHL R12, R4
18CA	3370		MOVE $E0, R3
18CC	0004		NOP
18CE	3B01		MOVE $02, R11
18D0	0B6D		MLH R11, R6
18D2	4070		PUTB $0, (R7)+
18D4	0002		INC R0, R0
18D6	51FE		MOVE (R15), R1
18D8	280C		MOVE R8, $18
18DA	7373		MOVB (R7)++++, R3
18DC	1004		CTRL $0, #$04
18DE	3A02		MOVE $04, R10
18E0	0B6D		MLH R11, R6
18E2	F00C		BRA $18D7		; -> -$0D(R0)

18E4	8BFE		LBI R11, #$FE
18E6	3B02		MOVE $04, R11
18E8	0B6D		MLH R11, R6
18EA	3370		MOVE $E0, R3
18EC	0005		AND R0, R0
18EE	4070		PUTB $0, (R7)+
18F0	0002		INC R0, R0
18F2	02FE		GETB R15, $2
18F4	280C		MOVE R8, $18
18F6	813A		LBI R1, #$3A
18F8	010F		GETA R0, $1
18FA	9873		CLR R8, #$73
18FC	1005		CTRL $0, #$05
18FE	F00C		BRA $18F3		; -> -$0D(R0)

1900	8BFE		LBI R11, #$FE
1902	3370		MOVE $E0, R3
1904	0006		OR R0, R0
1906	4070		PUTB $0, (R7)+
1908	0002		INC R0, R0
190A	05FE		GETB R15, $5
190C	280C		MOVE R8, $18
190E	9473		CLR R4, #$73
1910	1006		CTRL $0, #$06
1912	3A20		MOVE $40, R10
1914	0BA1		DEC R11, R10
1916	DC6B		MOVE R12, (R6)
1918	000C		MHL R0, R0
191A	92FE		CLR R2, #$FE
191C	DC40		MOVE R12, (R4)'
191E	000C		MHL R0, R0
1920	9CF0		CLR R12, #$F0
1922	5FF4		MOVE (R15)~, R15
1924	7310		MOVB (R1)+, R3
1926	01FE		GETB R15, $1
1928	F15F		SUB R1, #$60
192A	F6FE		SUB R6, #$FF
192C	F00C		BRA $1921		; -> -$0D(R0)

192E	8EFE		LBI R14, #$FE
1930	3B02		MOVE $04, R11
1932	0B6D		MLH R11, R6
1934	3B01		MOVE $02, R11
1936	0B6D		MLH R11, R6
1938	CDF0		SLE R13, R15
193A	0F7A		ADDH R15, R7
193C	0CF1		DEC R12, R15
193E	0D02		INC R13, R0
1940	0F7A		ADDH R15, R7
1942	0F7B		ADDH2 R15, R7
1944	280C		MOVE R8, $18
1946	F1CD		SUB R1, #$CE
1948	400F		PUTB $0, (R0)
194A	5C0C		MOVE (R0), R12
194C	F10D		SUB R1, #$0E
194E	0F0F		GETA R0, $F
1950	5C0F		MOVE (R0), R12
1952	5D28		MOVE (R2), R13
1954	0CF1		DEC R12, R15
1956	3920		MOVE $40, R9
1958	0BA1		DEC R11, R10
195A	5FF4		MOVE (R15)~, R15
195C	3904		MOVE $08, R9
195E	0F98		ADD R15, R9
1960	5FF4		MOVE (R15)~, R15
1962	3808		MOVE $10, R8
1964	0F98		ADD R15, R9
1966	0CC7		XOR R12, R12
1968	3A01		MOVE $02, R10
196A	0B6D		MLH R11, R6
196C	3310		MOVE $20, R3
196E	0B82		INC R11, R8
1970	3F01		MOVE $02, R15
1972	103D		CTRL $0, #$3D
1974	CAF0		SLE R10, R15
1976	103D		CTRL $0, #$3D
1978	0CC0		DEC2 R12, R12
197A	7310		MOVB (R1)+, R3
197C	03F0		DEC2 R3, R15
197E	0CB8		ADD R12, R11
1980	7BF0		MOVB (R15)+, R11
1982	0049		SUB R0, R4
1984	0101		DEC R1, R0
1986	0000		HALT
1988	7A40		MOVB (R4)+, R10
198A	00F0		DEC2 R0, R15
198C	1006		CTRL $0, #$06
198E	3B20		MOVE $40, R11
1990	0BA4		MOVE R11, R10
1992	3902		MOVE $04, R9
1994	0B6D		MLH R11, R6
1996	0CCF		GETA R12, $C
1998	3801		MOVE $02, R8
199A	0F98		ADD R15, R9
199C	0CDB		ADDH2 R12, R13
199E	0C01		DEC R12, R0
19A0	0B80		DEC2 R11, R8
19A2	0EDA		ADDH R14, R13
19A4	F183		SUB R1, #$84
19A6	F2FE		SUB R2, #$FF
19A8	3802		MOVE $04, R8
19AA	0B6D		MLH R11, R6
19AC	1006		CTRL $0, #$06
19AE	3A10		MOVE $20, R10
19B0	0BA1		DEC R11, R10
19B2	F03B		BRA $1978		; -> -$3C(R0)

19B4	BAFE		SET R10, #$FE
19B6	0C01		DEC R12, R0
19B8	0B80		DEC2 R11, R8
19BA	0EDA		ADDH R14, R13
19BC	3340		MOVE $80, R3
19BE	000A		ADDH R0, R0
19C0	3310		MOVE $20, R3
19C2	0B82		INC R11, R8
19C4	7BF0		MOVB (R15)+, R11
19C6	0049		SUB R0, R4
19C8	0101		DEC R1, R0
19CA	0000		HALT
19CC	7310		MOVB (R1)+, R3
19CE	0337		XOR R3, R3
19D0	400E		PUTB $0, (R0)
19D2	DBC0		MOVE R11, (R12)'
19D4	010C		MHL R1, R0
19D6	E2F1		
19D8	17E4		CTRL $7, #$E4
19DA	F183		SUB R1, #$84
19DC	F2FE		SUB R2, #$FF
19DE	F010		BRA $19CF		; -> -$11(R0)

19E0	06FE		GETB R15, $6
19E2	3C01		MOVE $02, R12
19E4	0B02		INC R11, R0
19E6	C300		SLE R3, R0
19E8	0B00		DEC2 R11, R0
19EA	3310		MOVE $20, R3
19EC	0F24		MOVE R15, R2
19EE	3350		MOVE $A0, R3
19F0	0200		DEC2 R2, R0
19F2	7450		MOVB (R5)+, R4
19F4	0033		INC2 R0, R3
19F6	5006		MOVE (R0)-~, R0
19F8	0074		RET R7

19FA	5002		MOVE (R0)+', R0
19FC	3908		MOVE $10, R9
19FE	0B6C		MHL R11, R6
1A00	0D1E		GETB R1, $D
1A02	F15F		SUB R1, #$60
1A04	E8FE		
1A06	4C01		PUTB $C, (R0)++
1A08	040F		GETA R0, $4
1A0A	7FCD		MOVB (R12), R15
1A0C	F00F		BRA $19FE		; -> -$10(R0)

1A0E	7A0D		MOVB (R0), R10
1A10	0D0D		MLH R13, R0
1A12	020F		GETA R0, $2
1A14	7A0F		MOVB (R0), R10
1A16	7B20		MOVB (R2)+, R11
1A18	0D12		INC R13, R1
1A1A	F15F		SUB R1, #$60
1A1C	F2FE		SUB R2, #$FF
1A1E	4C01		PUTB $C, (R0)++
1A20	060F		GETA R0, $6
1A22	82FE		LBI R2, #$FE
1A24	CD40		SLE R13, R4
1A26	0F5C		MHL R15, R5
1A28	0D1A		ADDH R13, R1
1A2A	0D0F		GETA R0, $D
1A2C	0F5C		MHL R15, R5
1A2E	0F5D		MLH R15, R5
1A30	200D		JMP ($001A)

1A32	1EFE		CTRL $E, #$FE
1A34	3350		MOVE $A0, R3
1A36	0F5C		MHL R15, R5
1A38	7450		MOVB (R5)+, R4
1A3A	08FE		GETB R15, $8
1A3C	7C90		MOVB (R9)+, R12
1A3E	10FE		CTRL $0, #$FE
1A40	F153		SUB R1, #$54
1A42	FCFE		SUB R12, #$FF
1A44	3980		MOVE $100, R9
1A46	00A4		RET R10

1A48	5FDA		MOVE (R13), R15
1A4A	DD00		MOVE R13, (R0)'
1A4C	0C10		DEC2 R12, R1
1A4E	311C		MOVE $38, R1
1A50	010F		GETA R0, $1
1A52	9B0D		CLR R11, #$0D
1A54	7520		MOVB (R2)+, R5
1A56	0034		RET R3

1A58	200F		JMP ($001E)

1A5A	72E5		MOVB (R14)--, R2
1A5C	000C		MHL R0, R0
1A5E	C001		SLT R0, R0
1A60	5FDC		MOVE (R13), R15
1A62	2C01		MOVE R12, $02
1A64	0F74		MOVE R15, R7
1A66	042C		MHL R4, R2
1A68	010F		GETA R0, $1
1A6A	7606		MOVB (R0)---, R6
1A6C	3920		MOVE $40, R9
1A6E	0F9A		ADDH R15, R9
1A70	120E		CTRL $2, #$0E
1A72	3980		MOVE $100, R9
1A74	0F99		SUB R15, R9
1A76	0D8B		ADDH2 R13, R8
1A78	3901		MOVE $02, R9
1A7A	0F98		ADD R15, R9
1A7C	0D54		MOVE R13, R5
1A7E	3920		MOVE $40, R9
1A80	0BA1		DEC R11, R10
1A82	0D70		DEC2 R13, R7
1A84	3904		MOVE $08, R9
1A86	0F98		ADD R15, R9
1A88	0E1E		GETB R1, $E
1A8A	3908		MOVE $10, R9
1A8C	0F98		ADD R15, R9
1A8E	0EA6		OR R14, R10
1A90	3902		MOVE $04, R9
1A92	0B6D		MLH R11, R6
1A94	0F4F		GETA R4, $F
1A96	DC02		MOVE R12, (R0)+'
1A98	0F0D		MLH R15, R0
1A9A	77DC		MOVB (R13), R7
1A9C	090F		GETA R0, $9
1A9E	11F7		CTRL $1, #$F7
1AA0	DC0B		MOVE R12, (R0)
1AA2	0F0D		MLH R15, R0
1AA4	57F0		MOVE (R15)', R7
1AA6	0FF5		AND R15, R15
1AA8	DD0B		MOVE R13, (R0)
1AAA	0F0F		GETA R0, $F
1AAC	F5FE		SUB R5, #$FF
1AAE	3B20		MOVE $40, R11
1AB0	0BA4		MOVE R11, R10
1AB2	0C01		DEC R12, R0
1AB4	0B80		DEC2 R11, R8
1AB6	0EDA		ADDH R14, R13
1AB8	F183		SUB R1, #$84
1ABA	F2FE		SUB R2, #$FF
1ABC	0C01		DEC R12, R0
1ABE	0F96		OR R15, R9
1AC0	0B63		INC2 R11, R6
1AC2	F110		SUB R1, #$11
1AC4	48FE		PUTB $8, (R15)
1AC6	3510		MOVE $20, R5
1AC8	0F96		OR R15, R9
1ACA	3410		MOVE $20, R4
1ACC	0B80		DEC2 R11, R8
1ACE	3410		MOVE $20, R4
1AD0	0B7D		MLH R11, R7
1AD2	F111		SUB R1, #$12
1AD4	13FE		CTRL $3, #$FE
1AD6	3940		MOVE $80, R9
1AD8	0F99		SUB R15, R9
1ADA	0FFC		MHL R15, R15
1ADC	F011		BRA $1ACC		; -> -$12(R0)

1ADE	70FE		MOVB (R15), R0
1AE0	DC02		MOVE R12, (R0)+'
1AE2	0F0D		MLH R15, R0
1AE4	77DC		MOVB (R13), R7
1AE6	090F		GETA R0, $9
1AE8	11F7		CTRL $1, #$F7
1AEA	F00F		BRA $1ADC		; -> -$10(R0)

1AEC	F5FE		SUB R5, #$FF
1AEE	3A20		MOVE $40, R10
1AF0	0BA1		DEC R11, R10
1AF2	3B20		MOVE $40, R11
1AF4	0BA4		MOVE R11, R10
1AF6	0C01		DEC R12, R0
1AF8	0B80		DEC2 R11, R8
1AFA	0EDA		ADDH R14, R13
1AFC	F183		SUB R1, #$84
1AFE	F2FE		SUB R2, #$FF
1B00	3A80		MOVE $100, R10
1B02	0F99		SUB R15, R9
1B04	3310		MOVE $20, R3
1B06	0F24		MOVE R15, R2
1B08	4C01		PUTB $C, (R0)++
1B0A	000B		ADDH2 R0, R0
1B0C	634C		MOVB R3, (R4)
1B0E	0102		INC R1, R0
1B10	0DB0		DEC2 R13, R11
1B12	F00D		BRA $1B06		; -> -$0E(R0)

1B14	20FE		JMP ($01FC)

1B16	3510		MOVE $20, R5
1B18	0F72		INC R15, R7
1B1A	7550		MOVB (R5)+, R5
1B1C	18F8		CTRL $8, #$F8
1B1E	1050		CTRL $0, #$50
1B20	7C15		MOVB (R1)--, R12
1B22	00FB		ADDH2 R0, R15
1B24	4010		PUTB $0, (R1)+
1B26	7310		MOVB (R1)+, R3
1B28	017C		MHL R1, R7
1B2A	1E00		CTRL $E, #$00
1B2C	7310		MOVB (R1)+, R3
1B2E	0134		MOVE R1, R3
1B30	100B		CTRL $0, #$0B
1B32	633A		MOVB R3, (R3)
1B34	040F		GETA R0, $4
1B36	6EF1		MOVB R14, (R15)++
1B38	5FE2		MOVE (R14)+', R15
1B3A	3C02		MOVE $04, R12
1B3C	0B02		INC R11, R0
1B3E	C300		SLE R3, R0
1B40	0B00		DEC2 R11, R0
1B42	3520		MOVE $40, R5
1B44	0F72		INC R15, R7
1B46	3370		MOVE $E0, R3
1B48	0E04		MOVE R14, R0
1B4A	F111		SUB R1, #$12
1B4C	51FE		MOVE (R15), R1
1B4E	3840		MOVE $80, R8
1B50	0F98		ADD R15, R9
1B52	0DAE		GETB R10, $D
1B54	3520		MOVE $40, R5
1B56	0FB8		ADD R15, R11
1B58	F00D		BRA $1B4C		; -> -$0E(R0)

1B5A	B2FE		SET R2, #$FE
1B5C	3320		MOVE $40, R3
1B5E	0580		DEC2 R5, R8
1B60	3330		MOVE $60, R3
1B62	05C0		DEC2 R5, R12
1B64	FB60		SUB R11, #$61
1B66	1030		CTRL $0, #$30
1B68	0A00		DEC2 R10, R0
1B6A	15FB		CTRL $5, #$FB
1B6C	5010		MOVE (R1)', R0
1B6E	FB10		SUB R11, #$11
1B70	6030		MOVB R0, (R3)+
1B72	0800		DEC2 R8, R0
1B74	1EFA		CTRL $E, #$FA
1B76	1050		CTRL $0, #$50
1B78	180D		CTRL $8, #$0D
1B7A	BFFB		SET R15, #$FB
1B7C	5010		MOVE (R1)', R0
1B7E	FB10		SUB R11, #$11
1B80	60F9		MOVB R0, (R15)
1B82	5060		MOVE (R6)', R0
1B84	3910		MOVE $20, R9
1B86	0F98		ADD R15, R9
1B88	0DCF		GETA R12, $D
1B8A	FB00		SUB R11, #$01
1B8C	20F8		JMP ($01F0)

1B8E	0050		DEC2 R0, R5
1B90	FA00		SUB R10, #$01
1B92	3000		MOVE $00, R0
1B94	0E10		DEC2 R14, R1
1B96	9450		CLR R4, #$50
1B98	0000		HALT
1B9A	F820		SUB R8, #$21
1B9C	50FE		MOVE (R15), R0
1B9E	F810		SUB R8, #$11
1BA0	50FA		MOVE (R15), R0
1BA2	1040		CTRL $0, #$40
1BA4	200D		JMP ($001A)

1BA6	E3DC		
1BA8	FF00		SUB R15, #$01
1BAA	0DDA		ADDH R13, R13
1BAC	DC1E		MOVE R12, (R1)
1BAE	000D		MLH R0, R0
1BB0	DA73		MOVE R10, (R7)++
1BB2	1001		CTRL $0, #$01
1BB4	3410		MOVE $20, R4
1BB6	0FB6		OR R15, R11
1BB8	3440		MOVE $80, R4
1BBA	0FBA		ADDH R15, R11
1BBC	3910		MOVE $20, R9
1BBE	0F98		ADD R15, R9
1BC0	8FEE		LBI R15, #$EE
1BC2	F00B		BRA $1BB8		; -> -$0C(R0)

1BC4	F4FE		SUB R4, #$FF
1BC6	3A40		MOVE $80, R10
1BC8	0F98		ADD R15, R9
1BCA	3420		MOVE $40, R4
1BCC	0FB8		ADD R15, R11
1BCE	F00D		BRA $1BC2		; -> -$0E(R0)

1BD0	A1FE		ADD R1, #$FF
1BD2	093F		GETA R3, $9
1BD4	05C0		DEC2 R5, R12
1BD6	0040		DEC2 R0, R4
1BD8	3920		MOVE $40, R9
1BDA	0F9A		ADDH R15, R9
1BDC	1225		CTRL $2, #$25
1BDE	3920		MOVE $40, R9
1BE0	0F99		SUB R15, R9
1BE2	0E0E		GETB R0, $E
1BE4	3B40		MOVE $80, R11
1BE6	0F98		ADD R15, R9
1BE8	3B10		MOVE $20, R11
1BEA	0F98		ADD R15, R9
1BEC	3510		MOVE $20, R5
1BEE	0FB6		OR R15, R11
1BF0	3540		MOVE $80, R5
1BF2	0FBA		ADDH R15, R11
1BF4	DCFF		MOVE R12, (R15)
1BF6	000D		MLH R0, R0
1BF8	A1DC		ADD R1, #$DD
1BFA	1E00		CTRL $E, #$00
1BFC	0DA1		DEC R13, R10
1BFE	FA10		SUB R10, #$11
1C00	4020		PUTB $0, (R2)+
1C02	0DA1		DEC R13, R10
1C04	F00D		BRA $1BF8		; -> -$0E(R0)

1C06	AEFE		ADD R14, #$FF
1C08	3A20		MOVE $40, R10
1C0A	0F99		SUB R15, R9
1C0C	3810		MOVE $20, R8
1C0E	0F98		ADD R15, R9
1C10	0E0B		ADDH2 R14, R0
1C12	F08F		BRA $1B84		; -> -$90(R0)

1C14	EEFE		
1C16	3940		MOVE $80, R9
1C18	0F98		ADD R15, R9
1C1A	0BF4		MOVE R11, R15
1C1C	F011		BRA $1C0C		; -> -$12(R0)

1C1E	70FE		MOVB (R15), R0
1C20	F900		SUB R9, #$01
1C22	30FB		MOVE $1F6, R0
1C24	7050		MOVB (R5)+, R0
1C26	F970		SUB R9, #$71
1C28	0094		RET R9

1C2A	7000		MOVB (R0)+, R0
1C2C	003A		ADDH R0, R3
1C2E	100F		CTRL $0, #$0F
1C30	983C		CLR R8, #$3C
1C32	3B0B		MOVE $16, R11
1C34	B4F8		SET R4, #$F8
1C36	2070		JMP ($00E0)

1C38	F00D		BRA $1C2C		; -> -$0E(R0)

1C3A	CFFE		SNBC R15, R15
1C3C	DD0C		MOVE R13, (R0)
1C3E	0F0F		GETA R0, $F
1C40	F533		SUB R5, #$34
1C42	7011		MOVB (R1)++, R0
1C44	70F1		MOVB (R15)++, R0
1C46	1151		CTRL $1, #$51
1C48	1C12		CTRL $C, #$12
1C4A	0FA1		DEC R15, R10
1C4C	0033		INC2 R0, R3
1C4E	100F		CTRL $0, #$0F
1C50	A133		ADD R1, #$34
1C52	200B		JMP ($0016)

1C54	8233		LBI R2, #$33
1C56	500B		MOVE (R0), R0
1C58	A0FE		BRA $1D59		; $FF(R0)

1C5A	DD40		MOVE R13, (R4)'
1C5C	000E		GETB R0, $0
1C5E	38FE		MOVE $1FC, R8
1C60	7310		MOVB (R1)+, R3
1C62	02B3		INC2 R2, R11
1C64	2003		JMP ($0006)

1C66	FA20		SUB R10, #$21
1C68	5020		MOVE (R2)', R0
1C6A	0E3E		GETB R3, $E
1C6C	F00E		BRA $1C5F		; -> -$0F(R0)

1C6E	2DFE		MOVE R13, $1FC
1C70	BBF0		SET R11, #$F0
1C72	0089		SUB R0, R8
1C74	0101		DEC R1, R0
1C76	0000		HALT
1C78	F00E		BRA $1C6B		; -> -$0F(R0)

1C7A	30FE		MOVE $1FC, R0
1C7C	F183		SUB R1, #$84
1C7E	F2FE		SUB R2, #$FF
1C80	0C01		DEC R12, R0
1C82	0F96		OR R15, R9
1C84	0B63		INC2 R11, R6
1C86	3510		MOVE $20, R5
1C88	0F72		INC R15, R7
1C8A	7510		MOVB (R1)+, R5
1C8C	04FB		ADDH2 R4, R15
1C8E	2010		JMP ($0020)

1C90	3550		MOVE $A0, R5
1C92	0F76		OR R15, R7
1C94	F820		SUB R8, #$21
1C96	50BC		MOVE (R11), R0
1C98	FF00		SUB R15, #$01
1C9A	3360		MOVE $C0, R3
1C9C	0013		INC2 R0, R1
1C9E	F950		SUB R9, #$51
1CA0	6035		MOVB R0, (R3)--
1CA2	300B		MOVE $16, R0
1CA4	6335		MOVB R3, (R3)--
1CA6	400D		PUTB $0, (R0)
1CA8	AEF9		ADD R14, #$FA
1CAA	4030		PUTB $0, (R3)+
1CAC	FA40		SUB R10, #$41
1CAE	5010		MOVE (R1)', R0
1CB0	1092		CTRL $0, #$92
1CB2	3520		MOVE $40, R5
1CB4	0B63		INC2 R11, R6
1CB6	9450		CLR R4, #$50
1CB8	0013		INC2 R0, R1
1CBA	F820		SUB R8, #$21
1CBC	5034		MOVE (R3)~, R0
1CBE	200B		JMP ($0016)

1CC0	63F1		MOVB R3, (R15)++
1CC2	1048		CTRL $0, #$48
1CC4	3550		MOVE $A0, R5
1CC6	0B63		INC2 R11, R6
1CC8	3310		MOVE $20, R3
1CCA	0FA1		DEC R15, R10
1CCC	3320		MOVE $40, R3
1CCE	0B82		INC R11, R8
1CD0	3300		MOVE $00, R3
1CD2	0BA0		DEC2 R11, R10
1CD4	DD40		MOVE R13, (R4)'
1CD6	000E		GETB R0, $0
1CD8	75FE		MOVB (R15), R5
1CDA	7310		MOVB (R1)+, R3
1CDC	02B3		INC2 R2, R11
1CDE	2003		JMP ($0006)

1CE0	FA20		SUB R10, #$21
1CE2	0020		DEC2 R0, R2
1CE4	0EA4		MOVE R14, R10
1CE6	F00E		BRA $1CD9		; -> -$0F(R0)

1CE8	6AFE		MOVB R10, (R15)
1CEA	FB60		SUB R11, #$61
1CEC	10FB		CTRL $0, #$FB
1CEE	7020		MOVB (R2)+, R0
1CF0	F110		SUB R1, #$11
1CF2	35FE		MOVE $1FC, R5
1CF4	3330		MOVE $60, R3
1CF6	014A		ADDH R1, R4
1CF8	7540		MOVB (R4)+, R5
1CFA	0049		SUB R0, R4
1CFC	0102		INC R1, R0
1CFE	0000		HALT
1D00	FB20		SUB R11, #$21
1D02	10FA		CTRL $0, #$FA
1D04	4030		PUTB $0, (R3)+
1D06	0010		DEC2 R0, R1
1D08	1FF8		CTRL $F, #$F8
1D0A	1040		CTRL $0, #$40
1D0C	FA10		SUB R10, #$11
1D0E	5020		MOVE (R2)', R0
1D10	0EA1		DEC R14, R10
1D12	1D01		CTRL $D, #$01
1D14	103E		CTRL $0, #$3E
1D16	0410		DEC2 R4, R1
1D18	0E98		ADD R14, R9
1D1A	B410		SET R4, #$10
1D1C	0074		RET R7

1D1E	2002		JMP ($0004)

1D20	DCFF		MOVE R12, (R15)
1D22	000E		GETB R0, $0
1D24	A1DC		ADD R1, #$DD
1D26	1E00		CTRL $E, #$00
1D28	0EA1		DEC R14, R10
1D2A	7540		MOVB (R4)+, R5
1D2C	00F0		DEC2 R0, R15
1D2E	0E80		DEC2 R14, R8
1D30	8901		LBI R9, #$01
1D32	0000		HALT
1D34	0034		RET R3

1D36	100F		CTRL $0, #$0F
1D38	96FB		CLR R6, #$FB
1D3A	1060		CTRL $0, #$60
1D3C	FB20		SUB R11, #$21
1D3E	70F0		MOVB (R15)+, R0
1D40	0E6D		MLH R14, R6
1D42	8901		LBI R9, #$01
1D44	0000		HALT
1D46	00FE		GETB R15, $0
1D48	F011		BRA $1D38		; -> -$12(R0)

1D4A	70FE		MOVB (R15), R0
1D4C	DD0C		MOVE R13, (R0)
1D4E	0F0F		GETA R0, $F
1D50	F533		SUB R5, #$34
1D52	7011		MOVB (R1)++, R0
1D54	70F1		MOVB (R15)++, R0
1D56	1151		CTRL $1, #$51
1D58	1C12		CTRL $C, #$12
1D5A	0FA1		DEC R15, R10
1D5C	000C		MHL R0, R0
1D5E	000F		GETA R0, $0
1D60	8B10		LBI R11, #$10
1D62	3D33		MOVE $66, R13
1D64	100F		CTRL $0, #$0F
1D66	A133		ADD R1, #$34
1D68	200B		JMP ($0016)

1D6A	8233		LBI R2, #$33
1D6C	500B		MOVE (R0), R0
1D6E	A0FE		BRA $1E6F		; $FF(R0)

1D70	3F01		MOVE $02, R15
1D72	0F8B		ADDH2 R15, R8
1D74	CAF0		SLE R10, R15
1D76	0F8B		ADDH2 R15, R8
1D78	0EC2		INC R14, R12
1D7A	7310		MOVB (R1)+, R3
1D7C	02B3		INC2 R2, R11
1D7E	2003		JMP ($0006)

1D80	F00E		BRA $1D73		; -> -$0F(R0)

1D82	B8FE		SET R8, #$FE
1D84	DC40		MOVE R12, (R4)'
1D86	0010		DEC2 R0, R1
1D88	0234		MOVE R2, R3
1D8A	200F		JMP ($001E)

1D8C	90BB		CLR R0, #$BB
1D8E	F000		BRA $1D8F		; -> -$01(R0)

1D90	8901		LBI R9, #$01
1D92	0100		DEC2 R1, R0
1D94	00F1		DEC R0, R15
1D96	83F2		LBI R3, #$F2
1D98	0C01		DEC R12, R0
1D9A	0F96		OR R15, R9
1D9C	0B63		INC2 R11, R6
1D9E	3510		MOVE $20, R5
1DA0	0F72		INC R15, R7
1DA2	7510		MOVB (R1)+, R5
1DA4	04FB		ADDH2 R4, R15
1DA6	5010		MOVE (R1)', R0
1DA8	3530		MOVE $60, R5
1DAA	0F76		OR R15, R7
1DAC	F850		SUB R8, #$51
1DAE	3073		MOVE $E6, R0
1DB0	1013		CTRL $0, #$13
1DB2	3C00		MOVE $00, R12
1DB4	0F9A		ADDH R15, R9
1DB6	F00E		BRA $1DA9		; -> -$0F(R0)

1DB8	E7FE		
1DBA	3420		MOVE $40, R4
1DBC	0FB8		ADD R15, R11
1DBE	3520		MOVE $40, R5
1DC0	0F72		INC R15, R7
1DC2	3370		MOVE $E0, R3
1DC4	0F41		DEC R15, R4
1DC6	F111		SUB R1, #$12
1DC8	51FE		MOVE (R15), R1
1DCA	3520		MOVE $40, R5
1DCC	0FB8		ADD R15, R11
1DCE	3901		MOVE $02, R9
1DD0	0F9A		ADDH R15, R9
1DD2	0EDD		MLH R14, R13
1DD4	3802		MOVE $04, R8
1DD6	0F9A		ADDH R15, R9
1DD8	0EF3		INC2 R14, R15
1DDA	3B02		MOVE $04, R11
1DDC	0F9A		ADDH R15, R9
1DDE	3540		MOVE $80, R5
1DE0	0FBA		ADDH R15, R11
1DE2	F00E		BRA $1DD5		; -> -$0F(R0)

1DE4	F7FE		SUB R7, #$FF
1DE6	3320		MOVE $40, R3
1DE8	10CE		CTRL $0, #$CE
1DEA	F111		SUB R1, #$12
1DEC	01FE		GETB R15, $1
1DEE	9440		CLR R4, #$40
1DF0	0000		HALT
1DF2	F820		SUB R8, #$21
1DF4	40F8		PUTB $0, (R15)
1DF6	1040		CTRL $0, #$40
1DF8	3902		MOVE $04, R9
1DFA	0F9A		ADDH R15, R9
1DFC	0EDD		MLH R14, R13
1DFE	FA10		SUB R10, #$11
1E00	5020		MOVE (R2)', R0
1E02	0F05		AND R15, R0
1E04	DDFF		MOVE R13, (R15)
1E06	000F		GETA R0, $0
1E08	07FE		GETB R15, $7
1E0A	3A08		MOVE $10, R10
1E0C	0F9A		ADDH R15, R9
1E0E	3320		MOVE $40, R3
1E10	10CE		CTRL $0, #$CE
1E12	2B03		MOVE R11, $06
1E14	0F92		INC R15, R9
1E16	0439		SUB R4, R3
1E18	040F		GETA R0, $4
1E1A	9A0F		CLR R10, #$0F
1E1C	1BFE		CTRL $B, #$FE
1E1E	0D03		INC2 R13, R0
1E20	0F92		INC R15, R9
1E22	103A		CTRL $0, #$3A
1E24	200F		JMP ($001E)

1E26	23FE		MOVE R3, $1FC
1E28	3808		MOVE $10, R8
1E2A	0F9A		ADDH R15, R9
1E2C	0EF3		INC2 R14, R15
1E2E	3B08		MOVE $10, R11
1E30	0F9A		ADDH R15, R9
1E32	F00E		BRA $1E25		; -> -$0F(R0)

1E34	DDFE		MOVE R13, (R15)
1E36	0D03		INC2 R13, R0
1E38	0F92		INC R15, R9
1E3A	103A		CTRL $0, #$3A
1E3C	080F		GETA R0, $8
1E3E	253A		MOVE R5, $74
1E40	010F		GETA R0, $1
1E42	9AF0		CLR R10, #$F0
1E44	0EDD		MLH R14, R13
1E46	3A04		MOVE $08, R10
1E48	0F9A		ADDH R15, R9
1E4A	3410		MOVE $20, R4
1E4C	0FB6		OR R15, R11
1E4E	3310		MOVE $20, R3
1E50	10CE		CTRL $0, #$CE
1E52	7540		MOVB (R4)+, R5
1E54	0035		AND R0, R3
1E56	200B		JMP ($0016)

1E58	6335		MOVB R3, (R3)--
1E5A	600D		MOVB R0, (R0)
1E5C	AEF9		ADD R14, #$FA
1E5E	6020		MOVB R0, (R2)+
1E60	FA60		SUB R10, #$61
1E62	4018		PUTB $0, (R1)
1E64	0F38		ADD R15, R3
1E66	0C01		DEC R12, R0
1E68	0B63		INC2 R11, R6
1E6A	0F96		OR R15, R9
1E6C	F00F		BRA $1E5E		; -> -$10(R0)

1E6E	FCFE		SUB R12, #$FF
1E70	9440		CLR R4, #$40
1E72	0000		HALT
1E74	F820		SUB R8, #$21
1E76	4034		PUTB $0, (R3)-
1E78	200B		JMP ($0016)

1E7A	6335		MOVB R3, (R3)--
1E7C	100F		CTRL $0, #$0F
1E7E	B6F0		SET R6, #$F0
1E80	0F14		MOVE R15, R1
1E82	3360		MOVE $C0, R3
1E84	0F47		XOR R15, R4
1E86	3460		MOVE $C0, R4
1E88	0FB4		MOVE R15, R11
1E8A	F010		BRA $1E7B		; -> -$11(R0)

1E8C	D6FE		MOVE R6, (R15)
1E8E	3520		MOVE $40, R5
1E90	0F90		DEC2 R15, R9
1E92	F110		SUB R1, #$11
1E94	35FE		MOVE $1FC, R5
1E96	F111		SUB R1, #$12
1E98	13FE		CTRL $3, #$FE
1E9A	F011		BRA $1E8A		; -> -$12(R0)

1E9C	70FE		MOVB (R15), R0
1E9E	DC02		MOVE R12, (R0)+'
1EA0	0F0F		GETA R0, $F
1EA2	56DC		MOVE (R13), R6
1EA4	090F		GETA R0, $9
1EA6	11FB		CTRL $1, #$FB
1EA8	F00F		BRA $1E9A		; -> -$10(R0)

1EAA	F5FE		SUB R5, #$FF
1EAC	3B20		MOVE $40, R11
1EAE	0BA4		MOVE R11, R10
1EB0	0C01		DEC R12, R0
1EB2	0B80		DEC2 R11, R8
1EB4	0EDA		ADDH R14, R13
1EB6	F183		SUB R1, #$84
1EB8	F2FE		SUB R2, #$FF
1EBA	3510		MOVE $20, R5
1EBC	0F72		INC R15, R7
1EBE	7510		MOVB (R1)+, R5
1EC0	040C		MHL R4, R0
1EC2	010F		GETA R0, $1
1EC4	960B		CLR R6, #$0B
1EC6	6335		MOVB R3, (R3)--
1EC8	500F		MOVE (R0), R0
1ECA	76F8		MOVB (R15), R6
1ECC	1050		CTRL $0, #$50
1ECE	FB50		SUB R11, #$51
1ED0	107C		CTRL $0, #$7C
1ED2	1500		CTRL $5, #$00
1ED4	7C1E		MOVB (R1), R12
1ED6	01FE		GETB R15, $1
1ED8	3520		MOVE $40, R5
1EDA	0F72		INC R15, R7
1EDC	3370		MOVE $E0, R3
1EDE	0FC5		AND R15, R12
1EE0	F111		SUB R1, #$12
1EE2	51FE		MOVE (R15), R1
1EE4	FB70		SUB R11, #$71
1EE6	1030		CTRL $0, #$30
1EE8	0A00		DEC2 R10, R0
1EEA	15FB		CTRL $5, #$FB
1EEC	4010		PUTB $0, (R1)+
1EEE	FB10		SUB R11, #$11
1EF0	7030		MOVB (R3)+, R0
1EF2	0800		DEC2 R8, R0
1EF4	1EFA		CTRL $E, #$FA
1EF6	1040		CTRL $0, #$40
1EF8	180F		CTRL $8, #$0F
1EFA	7FFB		MOVB (R15), R15
1EFC	4010		PUTB $0, (R1)+
1EFE	FB10		SUB R11, #$11
1F00	70F9		MOVB (R15), R0
1F02	4070		PUTB $0, (R7)+
1F04	3640		MOVE $80, R6
1F06	0EDB		ADDH2 R14, R13
1F08	3520		MOVE $40, R5
1F0A	0B63		INC2 R11, R6
1F0C	3940		MOVE $80, R9
1F0E	0F98		ADD R15, R9
1F10	0F98		ADD R15, R9
1F12	3300		MOVE $00, R3
1F14	0006		OR R0, R0
1F16	F800		SUB R8, #$01
1F18	20C0		JMP ($0180)

1F1A	A00F		BRA $1F2C		; $10(R0)

1F1C	E535		
1F1E	700D		MOVB (R0), R0
1F20	AEFA		ADD R14, #$FB
1F22	7000		MOVB (R0)+, R0
1F24	100F		CTRL $0, #$0F
1F26	E589		
1F28	0500		DEC2 R5, R0
1F2A	0000		HALT
1F2C	B320		SET R3, #$20
1F2E	06FE		GETB R15, $6
1F30	3B40		MOVE $80, R11
1F32	0F98		ADD R15, R9
1F34	3570		MOVE $E0, R5
1F36	0DAE		GETB R10, $D
1F38	F970		SUB R9, #$71
1F3A	20FA		JMP ($01F4)

1F3C	7040		MOVB (R4)+, R0
1F3E	100F		CTRL $0, #$0F
1F40	E537		
1F42	400E		PUTB $0, (R0)
1F44	DB94		MOVE R11, (R9)~
1F46	4000		PUTB $0, (R0)+
1F48	00F8		ADD R0, R15
1F4A	2040		JMP ($0080)

1F4C	F810		SUB R8, #$11
1F4E	40FA		PUTB $0, (R15)
1F50	1050		CTRL $0, #$50
1F52	280F		MOVE R8, $1E
1F54	B03A		SET R0, #$3A
1F56	400F		PUTB $0, (R0)
1F58	9834		CLR R8, #$34
1F5A	200B		JMP ($0016)

1F5C	63F0		MOVB R3, (R15)+
1F5E	0F6C		MHL R15, R6
1F60	BCFF		SET R12, #$FF
1F62	00B3		INC2 R0, R11
1F64	2001		JMP ($0002)

1F66	3420		MOVE $40, R4
1F68	0B63		INC2 R11, R6
1F6A	DCFF		MOVE R12, (R15)
1F6C	000F		GETA R0, $0
1F6E	6CDC		MOVB R12, (R13)
1F70	1E00		CTRL $E, #$00
1F72	0F6C		MHL R15, R6
1F74	7310		MOVB (R1)+, R3
1F76	01FA		ADDH R1, R15
1F78	1050		CTRL $0, #$50
1F7A	200F		JMP ($001E)

1F7C	6CDC		MOVB R12, (R13)
1F7E	FF00		SUB R15, #$01
1F80	0F6C		MHL R15, R6
1F82	DC1E		MOVE R12, (R1)
1F84	000F		GETA R0, $0
1F86	6CF0		MOVB R12, (R15)+
1F88	0F72		INC R15, R7
1F8A	3940		MOVE $80, R9
1F8C	0F98		ADD R15, R9
1F8E	0FE9		SUB R15, R14
1F90	0D01		DEC R13, R0
1F92	0F96		OR R15, R9
1F94	0B63		INC2 R11, R6
1F96	2011		JMP ($0022)

1F98	7035		MOVB (R3)--, R0
1F9A	100F		CTRL $0, #$0F
1F9C	9634		CLR R6, #$34
1F9E	100B		CTRL $0, #$0B
1FA0	80F1		LBI R0, #$F1
1FA2	1113		CTRL $1, #$13
1FA4	3510		MOVE $20, R5
1FA6	0B80		DEC2 R11, R8
1FA8	4C01		PUTB $C, (R0)++
1FAA	0410		DEC2 R4, R1
1FAC	4506		PUTB $5, (R0)---
1FAE	0110		DEC2 R1, R1
1FB0	450E		PUTB $5, (R0)
1FB2	DBCD		MOVE R11, (R12)
1FB4	0010		DEC2 R0, R1
1FB6	440F		PUTB $4, (R0)
1FB8	EFD5		
1FBA	1000		CTRL $0, #$00
1FBC	C001		SLT R0, R0
1FBE	0FD4		MOVE R15, R13
1FC0	3940		MOVE $80, R9
1FC2	0F99		SUB R15, R9
1FC4	0FFC		MHL R15, R15
1FC6	F011		BRA $1FB6		; -> -$12(R0)

1FC8	70FE		MOVB (R15), R0
1FCA	3A40		MOVE $80, R10
1FCC	0F99		SUB R15, R9
1FCE	3C1C		MOVE $38, R12
1FD0	0BB4		MOVE R11, R11
1FD2	3360		MOVE $C0, R3
1FD4	0FC8		ADD R15, R12
1FD6	3460		MOVE $C0, R4
1FD8	0FB4		MOVE R15, R11
1FDA	F010		BRA $1FCB		; -> -$11(R0)

1FDC	D6FE		MOVE R6, (R15)
1FDE	4901		PUTB $9, (R0)++
1FE0	0000		HALT
1FE2	003C		MHL R0, R3
1FE4	360B		MOVE $16, R6
1FE6	B4F0		SET R4, #$F0
1FE8	1006		CTRL $0, #$06
1FEA	3C3C		MOVE $78, R12
1FEC	0BB4		MOVE R11, R11
1FEE	F010		BRA $1FDF		; -> -$11(R0)

1FF0	24FE		MOVE R4, $1FC
1FF2	0C01		DEC R12, R0
1FF4	0B63		INC2 R11, R6
1FF6	0F96		OR R15, R9
1FF8	F110		SUB R1, #$11
1FFA	2BFE		MOVE R11, $1FC
1FFC	3C1C		MOVE $38, R12
1FFE	0BB4		MOVE R11, R11
2000	F011		BRA $1FF0		; -> -$12(R0)

2002	70FE		MOVB (R15), R0
2004	3C35		MOVE $6A, R12
2006	0BB4		MOVE R11, R11
2008	F010		BRA $1FF9		; -> -$11(R0)

200A	24FE		MOVE R4, $1FC
200C	3A10		MOVE $20, R10
200E	0BA1		DEC R11, R10
2010	3880		MOVE $100, R8
2012	00A4		RET R10

2014	1011		CTRL $0, #$11
2016	3C40		MOVE $80, R12
2018	0BA2		INC R11, R10
201A	F110		SUB R1, #$11
201C	2BFE		MOVE R11, $1FC
201E	F08F		BRA $1F90		; -> -$90(R0)

2020	EEFE		
2022	3908		MOVE $10, R9
2024	0B6C		MHL R11, R6
2026	101B		CTRL $0, #$1B
2028	CD00		SLE R13, R0
202A	0BB4		MOVE R11, R11
202C	8FEE		LBI R15, #$EE
202E	3C80		MOVE $100, R12
2030	0BB5		AND R11, R11
2032	F08F		BRA $1FA4		; -> -$90(R0)

2034	EEFE		
2036	F110		SUB R1, #$11
2038	2BFE		MOVE R11, $1FC
203A	F03B		BRA $2000		; -> -$3C(R0)

203C	DEFE		MOVE R14, (R15)
203E	0901		DEC R9, R0
2040	0B80		DEC2 R11, R8
2042	0000		HALT
2044	3C3D		MOVE $7A, R12
2046	0BB4		MOVE R11, R11
2048	0C01		DEC R12, R0
204A	0B6C		MHL R11, R6
204C	0F70		DEC2 R15, R7
204E	F110		SUB R1, #$11
2050	2BFE		MOVE R11, $1FC
2052	F05F		BRA $1FF4		; -> -$60(R0)

2054	E2FE		
2056	3B20		MOVE $40, R11
2058	0BA1		DEC R11, R10
205A	3B08		MOVE $10, R11
205C	0B6C		MHL R11, R6
205E	FC80		SUB R12, #$81
2060	00FE		GETB R15, $0
2062	1C00		CTRL $C, #$00
2064	0BB4		MOVE R11, R11
2066	0CF0		DEC2 R12, R15
2068	1024		CTRL $0, #$24
206A	3510		MOVE $20, R5
206C	0F96		OR R15, R9
206E	B410		SET R4, #$10
2070	01DD		MLH R1, R13
2072	3606		MOVE $0C, R6
2074	103E		CTRL $0, #$3E
2076	BAB0		SET R10, #$B0
2078	00F0		DEC2 R0, R15
207A	1046		CTRL $0, #$46
207C	DD37		MOVE R13, (R3)--
207E	0610		DEC2 R6, R1
2080	44BA		PUTB $4, (R11)
2082	A000		BRA $2085		; $01(R0)

2084	F010		BRA $2075		; -> -$11(R0)

2086	46FE		PUTB $6, (R15)
2088	BA90		SET R10, #$90
208A	00FE		GETB R15, $0
208C	FC80		SUB R12, #$81
208E	00FE		GETB R15, $0
2090	3480		MOVE $100, R4
2092	0FB4		MOVE R15, R11
2094	3550		MOVE $A0, R5
2096	0F76		OR R15, R7
2098	3520		MOVE $40, R5
209A	0F72		INC R15, R7
209C	3530		MOVE $60, R5
209E	0B63		INC2 R11, R6
20A0	3540		MOVE $80, R5
20A2	0DAE		GETB R10, $D
20A4	F940		SUB R9, #$41
20A6	30FA		MOVE $1F4, R0
20A8	4050		PUTB $0, (R5)+
20AA	1010		CTRL $0, #$10
20AC	5B8C		MOVE (R8), R11
20AE	0104		MOVE R1, R0
20B0	0B63		INC2 R11, R6
20B2	F010		BRA $20A3		; -> -$11(R0)

20B4	60FE		MOVB R0, (R15)
20B6	8C01		LBI R12, #$01
20B8	040F		GETA R0, $4
20BA	743A		MOVB (R3), R4
20BC	200F		JMP ($001E)

20BE	98FE		CLR R8, #$FE
20C0	3370		MOVE $E0, R3
20C2	10D6		CTRL $0, #$D6
20C4	F111		SUB R1, #$12
20C6	51FE		MOVE (R15), R1
20C8	3820		MOVE $40, R8
20CA	0F98		ADD R15, R9
20CC	107A		CTRL $0, #$7A
20CE	0D01		DEC R13, R0
20D0	0F9D		MLH R15, R9
20D2	0EDB		ADDH2 R14, R13
20D4	2810		MOVE R8, $20
20D6	9E1C		CLR R14, #$1C
20D8	080F		GETA R0, $8
20DA	A100		ADD R1, #$01
20DC	FB30		SUB R11, #$31
20DE	10F8		CTRL $0, #$F8
20E0	3050		MOVE $A0, R0
20E2	7310		MOVB (R1)+, R3
20E4	09DD		MLH R9, R13
20E6	FF00		SUB R15, #$01
20E8	1077		CTRL $0, #$77
20EA	3A20		MOVE $40, R10
20EC	0BA4		MOVE R11, R10
20EE	7310		MOVB (R1)+, R3
20F0	01F0		DEC2 R1, R15
20F2	10BA		CTRL $0, #$BA
20F4	F810		SUB R8, #$11
20F6	5034		MOVE (R3)~, R0
20F8	100B		CTRL $0, #$0B
20FA	630D		MOVB R3, (R0)
20FC	010F		GETA R0, $1
20FE	9D0E		CLR R13, #$0E
2100	DB28		MOVE R11, (R2)
2102	104C		CTRL $0, #$4C
2104	3510		MOVE $20, R5
2106	0F96		OR R15, R9
2108	1C08		CTRL $C, #$08
210A	0FA1		DEC R15, R10
210C	0073		INC2 R0, R7
210E	1009		CTRL $0, #$09
2110	DDFF		MOVE R13, (R15)
2112	0010		DEC2 R0, R1
2114	8D3A		LBI R13, #$3A
2116	200B		JMP ($0016)

2118	A4FE		ADD R4, #$FF
211A	7310		MOVB (R1)+, R3
211C	0134		MOVE R1, R3
211E	100F		CTRL $0, #$0F
2120	96F0		CLR R6, #$F0
2122	104C		CTRL $0, #$4C
2124	3360		MOVE $C0, R3
2126	0E62		INC R14, R6
2128	3460		MOVE $C0, R4
212A	0FB4		MOVE R15, R11
212C	FB30		SUB R11, #$31
212E	1035		CTRL $0, #$35
2130	500F		MOVE (R0), R0
2132	76F8		MOVB (R15), R6
2134	3050		MOVE $A0, R0
2136	7310		MOVB (R1)+, R3
2138	13F0		CTRL $3, #$F0
213A	10BA		CTRL $0, #$BA
213C	FB00		SUB R11, #$01
213E	10FB		CTRL $0, #$FB
2140	3010		MOVE $20, R0
2142	F830		SUB R8, #$31
2144	5035		MOVE (R3)-, R0
2146	600B		MOVB R0, (R0)
2148	6335		MOVB R3, (R3)--
214A	100F		CTRL $0, #$0F
214C	96FE		CLR R6, #$FE
214E	FB20		SUB R11, #$21
2150	1073		CTRL $0, #$73
2152	4002		PUTB $0, (R0)+++
2154	FA40		SUB R10, #$41
2156	6000		MOVB R0, (R0)+
2158	10F7		CTRL $0, #$F7
215A	7540		MOVB (R4)+, R5
215C	00F8		ADD R0, R15
215E	1040		CTRL $0, #$40
2160	FA10		SUB R10, #$11
2162	6010		MOVB R0, (R1)+
2164	10A7		CTRL $0, #$A7
2166	FB10		SUB R11, #$11
2168	00FE		GETB R15, $0
216A	F960		SUB R9, #$61
216C	20F9		JMP ($01F2)

216E	4060		PUTB $0, (R6)+
2170	F010		BRA $2161		; -> -$11(R0)

2172	BCFE		SET R12, #$FE
2174	7540		MOVB (R4)+, R5
2176	00FE		GETB R15, $0
2178	FB70		SUB R11, #$71
217A	10F8		CTRL $0, #$F8
217C	7040		MOVB (R4)+, R0
217E	FA70		SUB R10, #$71
2180	3018		MOVE $30, R0
2182	10EE		CTRL $0, #$EE
2184	3520		MOVE $40, R5
2186	0B63		INC2 R11, R6
2188	3570		MOVE $E0, R5
218A	0DAE		GETB R10, $D
218C	F970		SUB R9, #$71
218E	20FA		JMP ($01F4)

2190	7040		MOVB (R4)+, R0
2192	1010		CTRL $0, #$10
2194	EE94		
2196	4000		PUTB $0, (R0)+
2198	00F8		ADD R0, R15
219A	1040		CTRL $0, #$40
219C	F820		SUB R8, #$21
219E	4034		PUTB $0, (R3)-
21A0	200B		JMP ($0016)

21A2	63DC		MOVB R3, (R13)
21A4	FF00		SUB R15, #$01
21A6	1060		CTRL $0, #$60
21A8	F010		BRA $2199		; -> -$11(R0)

21AA	BAFE		SET R10, #$FE
21AC	0D01		DEC R13, R0
21AE	0F96		OR R15, R9
21B0	0B63		INC2 R11, R6
21B2	1811		CTRL $8, #$11
21B4	7035		MOVB (R3)--, R0
21B6	100B		CTRL $0, #$0B
21B8	63FE		MOVB R3, (R15)
21BA	3710		MOVE $20, R7
21BC	0EDB		ADDH2 R14, R13
21BE	DCFF		MOVE R12, (R15)
21C0	0010		DEC2 R0, R1
21C2	E9DC		
21C4	1E00		CTRL $E, #$00
21C6	10E9		CTRL $0, #$E9
21C8	C410		SLE R4, R1
21CA	0F96		OR R15, R9
21CC	1010		CTRL $0, #$10
21CE	DDF0		MOVE R13, (R15)'
21D0	1170		CTRL $1, #$70
21D2	4901		PUTB $9, (R0)++
21D4	0000		HALT
21D6	FF31		SUB R15, #$32
21D8	000F		GETA R0, $0
21DA	B4FE		SET R4, #$FE
21DC	3904		MOVE $08, R9
21DE	0F98		ADD R15, R9
21E0	0FF9		SUB R15, R15
21E2	3A40		MOVE $80, R10
21E4	0F99		SUB R15, R9
21E6	3C1C		MOVE $38, R12
21E8	0BB4		MOVE R11, R11
21EA	3100		MOVE $00, R1
21EC	0FB4		MOVE R15, R11
21EE	FB10		SUB R11, #$11
21F0	002C		MHL R0, R2
21F2	000F		GETA R0, $0
21F4	BC00		SET R12, #$00
21F6	1C00		CTRL $C, #$00
21F8	0FBD		MLH R15, R11
21FA	0035		AND R0, R3
21FC	400F		PUTB $0, (R0)
21FE	BCF0		SET R12, #$F0
2200	10B5		CTRL $0, #$B5
2202	FB60		SUB R11, #$61
2204	1075		CTRL $0, #$75
2206	4000		PUTB $0, (R0)+
2208	F860		SUB R8, #$61
220A	40FA		PUTB $0, (R15)
220C	6050		MOVB R0, (R5)+
220E	0011		DEC R0, R1
2210	0AFC		MHL R10, R15
2212	8000		LBI R0, #$00
2214	F960		SUB R9, #$61
2216	50F9		MOVE (R15), R0
2218	4060		PUTB $0, (R6)+
221A	3460		MOVE $C0, R4
221C	0FBA		ADDH R15, R11
221E	3A02		MOVE $04, R10
2220	0F9A		ADDH R15, R9
2222	FC80		SUB R12, #$81
2224	00FE		GETB R15, $0
2226	FB00		SUB R11, #$01
2228	8035		LBI R0, #$35
222A	500B		MOVE (R0), R0
222C	6333		MOVB R3, (R3)++++
222E	3001		MOVE $02, R0
2230	4A75		PUTB $A, (R7)--
2232	7000		MOVB (R0)+, R0
2234	4901		PUTB $9, (R0)++
2236	0200		DEC2 R2, R0
2238	00FE		GETB R15, $0
223A	FB20		SUB R11, #$21
223C	1039		CTRL $0, #$39
223E	020B		ADDH2 R2, R0
2240	6D11		MOVB R13, (R1)++
2242	3BFE		MOVE $1FC, R11
2244	FA70		SUB R10, #$71
2246	3000		MOVE $00, R0
2248	101F		CTRL $0, #$1F
224A	F810		SUB R8, #$11
224C	70FA		MOVB (R15), R0
224E	1050		CTRL $0, #$50
2250	2011		JMP ($0022)

2252	35DC		MOVE $1B8, R5
2254	FF00		SUB R15, #$01
2256	1135		CTRL $1, #$35
2258	DC1E		MOVE R12, (R1)
225A	0011		DEC R0, R1
225C	3575		MOVE $EA, R5
225E	7000		MOVB (R0)+, R0
2260	B410		SET R4, #$10
2262	0074		RET R7

2264	2002		JMP ($0004)

2266	F011		BRA $2256		; -> -$12(R0)

2268	1DFE		CTRL $D, #$FE
226A	8901		LBI R9, #$01
226C	0000		HALT
226E	0034		RET R3

2270	100B		CTRL $0, #$0B
2272	63FC		MOVB R3, (R15)
2274	0000		HALT
2276	7310		MOVB (R1)+, R3
2278	0430		DEC2 R4, R3
227A	0A00		DEC2 R10, R0
227C	FF73		SUB R15, #$74
227E	1001		CTRL $0, #$01
2280	FB60		SUB R11, #$61
2282	20FB		JMP ($01F6)

2284	7010		MOVB (R1)+, R0
2286	F970		SUB R9, #$71
2288	60FA		MOVB R0, (R15)
228A	7030		MOVB (R3)+, R0
228C	0010		DEC2 R0, R1
228E	1FDC		CTRL $F, #$DC
2290	FF00		SUB R15, #$01
2292	1135		CTRL $1, #$35
2294	DC1E		MOVE R12, (R1)
2296	0011		DEC R0, R1
2298	35FA		MOVE $1F4, R5
229A	1050		CTRL $0, #$50
229C	2011		JMP ($0022)

229E	35F0		MOVE $1E0, R5
22A0	1130		CTRL $1, #$30
22A2	BC01		SET R12, #$01
22A4	02E3		INC2 R2, R14
22A6	0000		HALT
22A8	B910		SET R9, #$10
22AA	1111		CTRL $1, #$11
22AC	54FE		MOVE (R15), R4
22AE	8D01		LBI R13, #$01
22B0	0C10		DEC2 R12, R1
22B2	4020		PUTB $0, (R2)+
22B4	116E		CTRL $1, #$6E
22B6	8D01		LBI R13, #$01
22B8	0C10		DEC2 R12, R1
22BA	4720		PUTB $7, (R2)+
22BC	116E		CTRL $1, #$6E
22BE	8D01		LBI R13, #$01
22C0	0C0E		GETB R0, $C
22C2	DA28		MOVE R10, (R2)
22C4	116C		CTRL $1, #$6C
22C6	3980		MOVE $100, R9
22C8	00A4		RET R10

22CA	116E		CTRL $1, #$6E
22CC	B510		SET R5, #$10
22CE	040E		GETB R0, $4
22D0	100F		CTRL $0, #$0F
22D2	9D0E		CLR R13, #$0E
22D4	DBFC		MOVE R11, (R15)
22D6	8000		LBI R0, #$00
22D8	3A10		MOVE $20, R10
22DA	0F99		SUB R15, R9
22DC	FC70		SUB R12, #$71
22DE	00FE		GETB R15, $0
22E0	3520		MOVE $40, R5
22E2	0F72		INC R15, R7
22E4	2C01		MOVE R12, $02
22E6	0F9F		GETA R9, $F
22E8	08B3		INC2 R8, R11
22EA	2029		JMP ($0052)

22EC	3310		MOVE $20, R3
22EE	05CC		MHL R5, R12
22F0	6C10		MOVB R12, (R1)+
22F2	0000		HALT
22F4	7C6B		MOVB (R6), R12
22F6	1273		CTRL $2, #$73
22F8	1012		CTRL $0, #$12
22FA	3820		MOVE $40, R8
22FC	0BA1		DEC R11, R10
22FE	1184		CTRL $1, #$84
2300	3B20		MOVE $40, R11
2302	0BA1		DEC R11, R10
2304	F011		BRA $22F4		; -> -$12(R0)

2306	8FFE		LBI R15, #$FE
2308	3410		MOVE $20, R4
230A	0FB6		OR R15, R11
230C	3910		MOVE $20, R9
230E	0F99		SUB R15, R9
2310	118D		CTRL $1, #$8D
2312	3A04		MOVE $08, R10
2314	0F6E		GETB R6, $F
2316	F15F		SUB R1, #$60
2318	E2FE		
231A	3510		MOVE $20, R5
231C	0FB6		OR R15, R11
231E	0C01		DEC R12, R0
2320	0F1A		ADDH R15, R1
2322	0F9B		ADDH2 R15, R9
2324	F15F		SUB R1, #$60
2326	E6FE		
2328	3500		MOVE $00, R5
232A	0F9B		ADDH2 R15, R9
232C	F970		SUB R9, #$71
232E	70F9		MOVB (R15), R0
2330	3030		MOVE $60, R0
2332	F960		SUB R9, #$61
2334	6035		MOVB R0, (R3)--
2336	500F		MOVE (R0), R0
2338	76FE		MOVB (R15), R6
233A	F870		SUB R8, #$71
233C	0036		OR R0, R3
233E	600E		MOVB R0, (R0)
2340	DBF8		MOVE R11, (R15)
2342	3050		MOVE $A0, R0
2344	C430		SLE R4, R3
2346	1042		CTRL $0, #$42
2348	0011		DEC R0, R1
234A	9DF9		CLR R13, #$F9
234C	4040		PUTB $0, (R4)+
234E	3520		MOVE $40, R5
2350	0F9F		GETA R9, $F
2352	F970		SUB R9, #$71
2354	20C0		JMP ($0180)

2356	0411		DEC R4, R1
2358	B5FE		SET R5, #$FE
235A	FA60		SUB R10, #$61
235C	7000		MOVB (R0)+, R0
235E	11B5		CTRL $1, #$B5
2360	F970		SUB R9, #$71
2362	6036		MOVB R0, (R3)---
2364	400E		PUTB $0, (R0)
2366	DBF0		MOVE R11, (R15)'
2368	11AD		CTRL $1, #$AD
236A	3440		MOVE $80, R4
236C	0F1A		ADDH R15, R1
236E	F15F		SUB R1, #$60
2370	E6FE		
2372	4C12		PUTB $C, (R1)+++
2374	000F		GETA R0, $0
2376	A138		ADD R1, #$39
2378	100F		CTRL $0, #$0F
237A	9910		CLR R9, #$10
237C	06FE		GETB R15, $6
237E	F110		SUB R1, #$11
2380	2BFE		MOVE R11, $1FC
2382	3A10		MOVE $20, R10
2384	0BA1		DEC R11, R10
2386	3B02		MOVE $04, R11
2388	0F6E		GETB R6, $F
238A	F05F		BRA $232C		; -> -$60(R0)

238C	DCFE		MOVE R12, (R15)
238E	0963		INC2 R9, R6
2390	0F24		MOVE R15, R2
2392	0000		HALT
2394	0963		INC2 R9, R6
2396	0F8A		ADDH R15, R8
2398	0000		HALT
239A	050E		GETB R0, $5
239C	103A		CTRL $0, #$3A
239E	1291		CTRL $2, #$91
23A0	3A08		MOVE $10, R10
23A2	0B6C		MHL R11, R6
23A4	3A02		MOVE $04, R10
23A6	0F6E		GETB R6, $F
23A8	0C01		DEC R12, R0
23AA	0F70		DEC2 R15, R7
23AC	0B6C		MHL R11, R6
23AE	3B02		MOVE $04, R11
23B0	0B6D		MLH R11, R6
23B2	3B01		MOVE $02, R11
23B4	0B6D		MLH R11, R6
23B6	0912		INC R9, R1
23B8	0FA1		DEC R15, R10
23BA	0040		DEC2 R0, R4
23BC	0907		XOR R9, R0
23BE	05C0		DEC2 R5, R12
23C0	0040		DEC2 R0, R4
23C2	3B01		MOVE $02, R11
23C4	0B6C		MHL R11, R6
23C6	3310		MOVE $20, R3
23C8	0F24		MOVE R15, R2
23CA	4C01		PUTB $C, (R0)++
23CC	040D		MLH R4, R0
23CE	B539		SET R5, #$39
23D0	800D		LBI R0, #$0D
23D2	BF11		SET R15, #$11
23D4	EFFE		
23D6	4C01		PUTB $C, (R0)++
23D8	060D		MLH R6, R0
23DA	B7F0		SET R7, #$F0
23DC	0CF1		DEC R12, R15
23DE	3320		MOVE $40, R3
23E0	0F5C		MHL R15, R5
23E2	8C10		LBI R12, #$10
23E4	0010		DEC2 R0, R1
23E6	CE74		SS R14
23E8	2008		JMP ($0010)

23EA	F00C		BRA $23DF		; -> -$0D(R0)

23EC	F1FE		SUB R1, #$FF
23EE	3A20		MOVE $40, R10
23F0	0BA1		DEC R11, R10
23F2	3A20		MOVE $40, R10
23F4	0F9A		ADDH R15, R9
23F6	3B20		MOVE $40, R11
23F8	0BA4		MOVE R11, R10
23FA	0C01		DEC R12, R0
23FC	0B80		DEC2 R11, R8
23FE	0EDA		ADDH R14, R13
2400	F183		SUB R1, #$84
2402	F2FE		SUB R2, #$FF
2404	3820		MOVE $40, R8
2406	0F9A		ADDH R15, R9
2408	121D		CTRL $2, #$1D
240A	3310		MOVE $20, R3
240C	0F24		MOVE R15, R2
240E	4C01		PUTB $C, (R0)++
2410	000B		ADDH2 R0, R0
2412	634C		MOVB R3, (R4)
2414	0102		INC R1, R0
2416	0DB0		DEC2 R13, R11
2418	F00D		BRA $240C		; -> -$0E(R0)

241A	20FE		JMP ($01FC)

241C	3510		MOVE $20, R5
241E	0F72		INC R15, R7
2420	7530		MOVB (R3)+, R5
2422	18F8		CTRL $8, #$F8
2424	1030		CTRL $0, #$30
2426	3410		MOVE $20, R4
2428	0B63		INC2 R11, R6
242A	3A04		MOVE $08, R10
242C	0F6E		GETB R6, $F
242E	F15F		SUB R1, #$60
2430	E2FE		
2432	3C02		MOVE $04, R12
2434	0B02		INC R11, R0
2436	C300		SLE R3, R0
2438	0B00		DEC2 R11, R0
243A	0C01		DEC R12, R0
243C	0F96		OR R15, R9
243E	0B63		INC2 R11, R6
2440	3520		MOVE $40, R5
2442	0F72		INC R15, R7
2444	8901		LBI R9, #$01
2446	2100		MOVE R1, $00
2448	F0FE		BRA $234B		; -> -$FF(R0)

244A	3520		MOVE $40, R5
244C	0F72		INC R15, R7
244E	AD02		ADD R13, #$03
2450	1E26		CTRL $E, #$26
2452	2012		JMP ($0024)

2454	8C39		LBI R12, #$39
2456	8000		LBI R0, #$00
2458	A412		ADD R4, #$13
245A	8CFE		LBI R12, #$FE
245C	3A40		MOVE $80, R10
245E	0BA1		DEC R11, R10
2460	F177		SUB R1, #$78
2462	FAFE		SUB R10, #$FF
2464	3B40		MOVE $80, R11
2466	0BA1		DEC R11, R10
2468	8D01		LBI R13, #$01
246A	0C0E		GETB R0, $C
246C	DA28		MOVE R10, (R2)
246E	128A		CTRL $2, #$8A
2470	B510		SET R5, #$10
2472	24B5		MOVE R4, $16A
2474	301C		MOVE $38, R0
2476	F830		SUB R8, #$31
2478	10F9		CTRL $0, #$F9
247A	5050		MOVE (R5)', R0
247C	F900		SUB R9, #$01
247E	00FB		ADDH2 R0, R15
2480	4010		PUTB $0, (R1)+
2482	DC40		MOVE R12, (R4)'
2484	0012		INC R0, R1
2486	4573		PUTB $5, (R7)++++
2488	5001		MOVE (R0)+, R0
248A	7310		MOVB (R1)+, R3
248C	01FA		ADDH R1, R15
248E	1030		CTRL $0, #$30
2490	1012		CTRL $0, #$12
2492	41FA		PUTB $1, (R15)
2494	5000		MOVE (R0)', R0
2496	2012		JMP ($0024)

2498	25FB		MOVE R5, $1F6
249A	1040		CTRL $0, #$40
249C	F950		SUB R9, #$51
249E	4038		PUTB $0, (R3)
24A0	200F		JMP ($001E)

24A2	9A12		CLR R10, #$12
24A4	62FE		MOVB R2, (R15)
24A6	3320		MOVE $40, R3
24A8	0580		DEC2 R5, R8
24AA	3340		MOVE $80, R3
24AC	0040		DEC2 R0, R4
24AE	FA50		SUB R10, #$51
24B0	4000		PUTB $0, (R0)+
24B2	125E		CTRL $2, #$5E
24B4	9450		CLR R4, #$50
24B6	0000		HALT
24B8	F00B		BRA $24AE		; -> -$0C(R0)

24BA	F4FE		SUB R4, #$FF
24BC	9440		CLR R4, #$40
24BE	0000		HALT
24C0	F08F		BRA $2432		; -> -$90(R0)

24C2	EEFE		
24C4	3520		MOVE $40, R5
24C6	0B63		INC2 R11, R6
24C8	3300		MOVE $00, R3
24CA	0006		OR R0, R0
24CC	F800		SUB R8, #$01
24CE	20C0		JMP ($0180)

24D0	A012		BRA $24E5		; $13(R0)

24D2	84FB		LBI R4, #$FB
24D4	4050		PUTB $0, (R5)+
24D6	3640		MOVE $80, R6
24D8	0EDB		ADDH2 R14, R13
24DA	F800		SUB R8, #$01
24DC	40C0		PUTB $0, (R12)+
24DE	A012		BRA $24F3		; $13(R0)

24E0	8435		LBI R4, #$35
24E2	700D		MOVB (R0), R0
24E4	AEFA		ADD R14, #$FB
24E6	7000		MOVB (R0)+, R0
24E8	1012		CTRL $0, #$12
24EA	8489		LBI R4, #$89
24EC	0500		DEC2 R5, R0
24EE	0000		HALT
24F0	B320		SET R3, #$20
24F2	0694		MOVE R6, R9
24F4	5000		MOVE (R0)', R0
24F6	00F8		ADD R0, R15
24F8	2050		JMP ($00A0)

24FA	BCFF		SET R12, #$FF
24FC	00B3		INC2 R0, R11
24FE	2001		JMP ($0002)

2500	3420		MOVE $40, R4
2502	0B63		INC2 R11, R6
2504	F012		BRA $24F3		; -> -$13(R0)

2506	25FE		MOVE R5, $1FC
2508	3A40		MOVE $80, R10
250A	0F99		SUB R15, R9
250C	3C1C		MOVE $38, R12
250E	0BB4		MOVE R11, R11
2510	F00F		BRA $2502		; -> -$10(R0)

2512	C8FE		SNBC R8, R15
2514	3A10		MOVE $20, R10
2516	0F99		SUB R15, R9
2518	3820		MOVE $40, R8
251A	0F9A		ADDH R15, R9
251C	0FC8		ADD R15, R12
251E	F011		BRA $250E		; -> -$12(R0)

2520	70FE		MOVB (R15), R0
2522	F9F9		SUB R9, #$FA
2524	F900		SUB R9, #$01
2526	9989		CLR R9, #$89
2528	F0F9		BRA $2430		; -> -$FA(R0)

252A	03E8		ADD R3, R14
252C	0000		HALT
252E	01F1		DEC R1, R15
2530	F0FE		BRA $2433		; -> -$FF(R0)

2532	3820		MOVE $40, R8
2534	0DBF		GETA R11, $D
2536	12A0		CTRL $2, #$A0
2538	3C93		MOVE $126, R12
253A	0BB4		MOVE R11, R11
253C	F03B		BRA $2502		; -> -$3C(R0)

253E	CEFE		SNBC R14, R15
2540	B310		SET R3, #$10
2542	07F1		DEC R7, R15
2544	8FEC		LBI R15, #$EC
2546	FB20		SUB R11, #$21
2548	10FE		CTRL $0, #$FE
254A	3310		MOVE $20, R3
254C	0B42		INC R11, R4
254E	B610		SET R6, #$10
2550	00DE		GETB R13, $0
2552	1000		CTRL $0, #$00
2554	12B9		CTRL $2, #$B9
2556	7820		MOVB (R2)+, R8
2558	1512		CTRL $5, #$12
255A	B4FE		SET R4, #$FE
255C	DE00		MOVE R14, (R0)'
255E	4212		PUTB $2, (R1)+++
2560	B473		SET R4, #$73
2562	1042		CTRL $0, #$42
2564	F117		SUB R1, #$18
2566	F4FE		SUB R4, #$FF
2568	3310		MOVE $20, R3
256A	0B42		INC R11, R4
256C	B610		SET R6, #$10
256E	00F1		DEC R0, R15
2570	12C1		CTRL $2, #$C1
2572	B320		SET R3, #$20
2574	02ED		MLH R2, R14
2576	FF00		SUB R15, #$01
2578	12A5		CTRL $2, #$A5
257A	3520		MOVE $40, R5
257C	0B65		AND R11, R6
257E	F03B		BRA $2544		; -> -$3C(R0)

2580	D8FE		MOVE R8, (R15)
2582	300C		MOVE $18, R0
2584	0C5C		MHL R12, R5
2586	DE10		MOVE R14, (R1)'
2588	0013		INC2 R0, R1
258A	8E34		LBI R14, #$34
258C	100D		CTRL $0, #$0D
258E	B978		SET R9, #$78
2590	0814		MOVE R8, R1
2592	1385		CTRL $3, #$85
2594	7B08		MOVB (R0), R11
2596	14DC		CTRL $4, #$DC
2598	0000		HALT
259A	1385		CTRL $3, #$85
259C	7840		MOVB (R4)+, R8
259E	1413		CTRL $4, #$13
25A0	27FE		MOVE R7, $1FC
25A2	7840		MOVB (R4)+, R8
25A4	1512		CTRL $5, #$12
25A6	D8FE		MOVE R8, (R15)
25A8	F16B		SUB R1, #$6C
25AA	E2FE		
25AC	C087		SBSH R0, R8
25AE	139A		CTRL $3, #$9A
25B0	7910		MOVB (R1)+, R9
25B2	1112		CTRL $1, #$12
25B4	D8FE		MOVE R8, (R15)
25B6	7980		MOVB (R8)+, R9
25B8	1513		CTRL $5, #$13
25BA	25FE		MOVE R5, $1FC
25BC	D500		MOVE R5, (R0)'
25BE	0CC0		DEC2 R12, R12
25C0	0113		INC2 R1, R1
25C2	9E79		CLR R14, #$79
25C4	1014		CTRL $0, #$14
25C6	1310		CTRL $3, #$10
25C8	7C02		MOVB (R0)+++, R12
25CA	0279		SUB R2, R7
25CC	0214		MOVE R2, R1
25CE	12FB		CTRL $2, #$FB
25D0	5C01		MOVE (R0)+, R12
25D2	1C06		CTRL $C, #$06
25D4	7980		MOVB (R8)+, R9
25D6	1112		CTRL $1, #$12
25D8	F5FE		SUB R5, #$FF
25DA	4C01		PUTB $C, (R0)++
25DC	080E		GETB R0, $8
25DE	DB78		MOVE R11, (R7)
25E0	0815		AND R8, R1
25E2	12F5		CTRL $2, #$F5
25E4	4C00		PUTB $C, (R0)+
25E6	090F		GETA R0, $9
25E8	13FE		CTRL $3, #$FE
25EA	5D01		MOVE (R0)+, R13
25EC	1604		CTRL $6, #$04
25EE	2812		MOVE R8, $24
25F0	FB78		SUB R11, #$79
25F2	2010		JMP ($0020)

25F4	130E		CTRL $3, #$0E
25F6	7820		MOVB (R2)+, R8
25F8	1013		CTRL $0, #$13
25FA	0CFE		GETB R15, $C
25FC	7901		MOVB (R0)++, R9
25FE	1113		CTRL $1, #$13
2600	03FE		GETB R15, $3
2602	7C03		MOVB (R0)++++, R12
2604	02FE		GETB R15, $2
2606	7520		MOVB (R2)+, R5
2608	0476		OR R4, R7
260A	2006		JMP ($000C)

260C	D420		MOVE R4, (R2)'
260E	1618		CTRL $6, #$18
2610	130C		CTRL $3, #$0C
2612	7520		MOVB (R2)+, R5
2614	16BC		CTRL $6, #$BC
2616	1E00		CTRL $E, #$00
2618	F113		SUB R1, #$14
261A	90FE		CLR R0, #$FE
261C	F013		BRA $260A		; -> -$14(R0)

261E	25FE		MOVE R5, $1FC
2620	7980		MOVB (R8)+, R9
2622	1413		CTRL $4, #$13
2624	27FE		MOVE R7, $1FC
2626	5D01		MOVE (R0)+, R13
2628	2404		MOVE R4, $08
262A	2013		JMP ($0026)

262C	277A		MOVE R7, $F4
262E	8014		LBI R0, #$14
2630	5C02		MOVE (R0)+', R12
2632	1E26		CTRL $E, #$26
2634	5F10		MOVE (R1)', R15
2636	241C		MOVE R4, $38
2638	7C03		MOVB (R0)++++, R12
263A	02FB		ADDH2 R2, R15
263C	2010		JMP ($0020)

263E	F177		SUB R1, #$78
2640	F6FE		SUB R6, #$FF
2642	3300		MOVE $00, R3
2644	1325		CTRL $3, #$25
2646	F013		BRA $2634		; -> -$14(R0)

2648	93FE		CLR R3, #$FE
264A	5C01		MOVE (R0)+, R12
264C	2108		MOVE R1, $10
264E	7801		MOVB (R0)++, R8
2650	1113		CTRL $1, #$13
2652	2DFE		MOVE R13, $1FC
2654	7C03		MOVB (R0)++++, R12
2656	02F1		DEC R2, R15
2658	1390		CTRL $3, #$90
265A	7840		MOVB (R4)+, R8
265C	1413		CTRL $4, #$13
265E	85FE		LBI R5, #$FE
2660	7820		MOVB (R2)+, R8
2662	1013		CTRL $0, #$13
2664	85FE		LBI R5, #$FE
2666	3A20		MOVE $40, R10
2668	0ED6		OR R14, R13
266A	7C04		MOVB (R0)-, R12
266C	027B		ADDH2 R2, R7
266E	0403		INC2 R4, R0
2670	5C01		MOVE (R0)+, R12
2672	081A		ADDH R8, R1
2674	7A80		MOVB (R8)+, R10
2676	03F1		DEC R3, R15
2678	1390		CTRL $3, #$90
267A	7B80		MOVB (R8)+, R11
267C	0378		ADD R3, R7
267E	0210		DEC2 R2, R1
2680	1355		CTRL $3, #$55
2682	7520		MOVB (R2)+, R5
2684	0433		INC2 R4, R3
2686	0004		NOP
2688	00F9		SUB R0, R15
268A	3030		MOVE $60, R0
268C	B630		SET R6, #$30
268E	0377		XOR R3, R7
2690	0006		OR R0, R0
2692	C084		SS R0
2694	1346		CTRL $3, #$46
2696	7910		MOVB (R1)+, R9
2698	1413		CTRL $4, #$13
269A	AFFE		ADD R15, #$FF
269C	B430		SET R4, #$30
269E	069C		MHL R6, R9
26A0	01CA		ADDH R1, R12
26A2	1C9C		CTRL $C, #$9C
26A4	02CD		MLH R2, R12
26A6	26F0		MOVE R6, $1E0
26A8	1382		CTRL $3, #$82
26AA	7520		MOVB (R2)+, R5
26AC	0E79		SUB R14, R7
26AE	1014		CTRL $0, #$14
26B0	136B		CTRL $3, #$6B
26B2	9C01		CLR R12, #$01
26B4	4D21		PUTB $D, (R2)++
26B6	B500		SET R5, #$00
26B8	2536		MOVE R5, $6C
26BA	000E		GETB R0, $0
26BC	DBE4		MOVE R11, (R14)~
26BE	004D		MLH R0, R4
26C0	0813		INC2 R8, R1
26C2	63B4		MOVB R3, (R11)-
26C4	004D		MLH R0, R4
26C6	1C01		CTRL $C, #$01
26C8	0F1A		ADDH R15, R1
26CA	1CF1		CTRL $C, #$F1
26CC	0BC6		OR R11, R12
26CE	8B03		LBI R11, #$03
26D0	350F		MOVE $1E, R5
26D2	18F0		CTRL $8, #$F0
26D4	1382		CTRL $3, #$82
26D6	B530		SET R5, #$30
26D8	2536		MOVE R5, $6C
26DA	300E		MOVE $1C, R0
26DC	DBF1		MOVE R11, (R15)+
26DE	13AF		CTRL $3, #$AF
26E0	B430		SET R4, #$30
26E2	4DC5		PUTB $D, (R12)--
26E4	000F		GETA R0, $0
26E6	2234		MOVE R2, $68
26E8	000F		GETA R0, $0
26EA	1AC0		CTRL $A, #$C0
26EC	8113		LBI R1, #$13
26EE	7D1C		MOVB (R1), R13
26F0	010F		GETA R0, $1
26F2	1A06		CTRL $A, #$06
26F4	0F10		DEC2 R15, R1
26F6	0F1A		ADDH R15, R1
26F8	0F22		INC R15, R2
26FA	F10B		SUB R1, #$0C
26FC	C6FE		SNBC R6, R15
26FE	8B04		LBI R11, #$04
2700	390F		MOVE $1E, R9
2702	17FE		CTRL $7, #$FE
2704	7C0B		MOVB (R0), R12
2706	02F1		DEC R2, R15
2708	1390		CTRL $3, #$90
270A	3510		MOVE $20, R5
270C	0C5C		MHL R12, R5
270E	4901		PUTB $9, (R0)++
2710	0000		HALT
2712	003A		ADDH R0, R3
2714	400E		PUTB $0, (R0)
2716	D73B		MOVE R7, (R3)
2718	200E		JMP ($001C)

271A	D6FE		MOVE R6, (R15)
271C	300E		MOVE $1C, R0
271E	0C5C		MHL R12, R5
2720	FB00		SUB R11, #$01
2722	80D3		LBI R0, #$D3
2724	0000		HALT
2726	7910		MOVB (R1)+, R9
2728	1113		CTRL $1, #$13
272A	93FE		CLR R3, #$FE
272C	DD00		MOVE R13, (R0)'
272E	0C13		INC2 R12, R1
2730	9EFC		CLR R14, #$FC
2732	0000		HALT
2734	3300		MOVE $00, R3
2736	F3F0		SUB R3, #$F1
2738	7400		MOVB (R0)+, R4
273A	0CFE		GETB R15, $C
273C	3820		MOVE $40, R8
273E	0ED6		OR R14, R13
2740	13A8		CTRL $3, #$A8
2742	3B20		MOVE $40, R11
2744	0ED6		OR R14, R13
2746	3510		MOVE $20, R5
2748	0C5C		MHL R12, R5
274A	4901		PUTB $9, (R0)++
274C	0000		HALT
274E	00FE		GETB R15, $0
2750	3840		MOVE $80, R8
2752	0BA1		DEC R11, R10
2754	8FEA		LBI R15, #$EA
2756	3B40		MOVE $80, R11
2758	0BA1		DEC R11, R10
275A	F05F		BRA $26FC		; -> -$60(R0)

275C	DCFE		MOVE R12, (R15)
275E	300C		MOVE $18, R0
2760	1092		CTRL $0, #$92
2762	1C01		CTRL $C, #$01
2764	0F1A		ADDH R15, R1
2766	1C78		CTRL $C, #$78
2768	0414		MOVE R4, R1
276A	13B9		CTRL $3, #$B9
276C	1C01		CTRL $C, #$01
276E	0F1A		ADDH R15, R1
2770	06FE		GETB R15, $6
2772	1C01		CTRL $C, #$01
2774	0F1C		MHL R15, R1
2776	27F1		MOVE R7, $1E2
2778	5FBE		MOVE (R11), R15
277A	1C00		CTRL $C, #$00
277C	0ED9		SUB R14, R13
277E	26FE		MOVE R6, $1FC
2780	3F01		MOVE $02, R15
2782	0ED9		SUB R14, R13
2784	C082		SE R0, R8
2786	13C8		CTRL $3, #$C8
2788	1E10		CTRL $E, #$10
278A	0F14		MOVE R15, R1
278C	1CF0		CTRL $C, #$F0
278E	13C0		CTRL $3, #$C0
2790	0C03		INC2 R12, R0
2792	0F20		DEC2 R15, R2
2794	0F14		MOVE R15, R1
2796	3C00		MOVE $00, R12
2798	0F1F		GETA R1, $F
279A	1C01		CTRL $C, #$01
279C	0F1A		ADDH R15, R1
279E	06F1		DEC R6, R15
27A0	5FC0		MOVE (R12)', R15
27A2	CE00		SLE R14, R0
27A4	0F22		INC R15, R2
27A6	13D7		CTRL $3, #$D7
27A8	0E10		DEC2 R14, R1
27AA	0F18		ADD R15, R1
27AC	0EDB		ADDH2 R14, R13
27AE	C430		SLE R4, R3
27B0	0F18		ADD R15, R1
27B2	0813		INC2 R8, R1
27B4	DF4F		MOVE R15, (R4)
27B6	2026		JMP ($004C)

27B8	0EDA		ADDH R14, R13
27BA	F013		BRA $27A8		; -> -$14(R0)

27BC	B1FE		SET R1, #$FE
27BE	3530		MOVE $60, R5
27C0	0F18		ADD R15, R1
27C2	300E		MOVE $1C, R0
27C4	1092		CTRL $0, #$92
27C6	300C		MOVE $18, R0
27C8	108C		CTRL $0, #$8C
27CA	3310		MOVE $20, R3
27CC	0B3E		GETB R3, $B
27CE	DE20		MOVE R14, (R2)'
27D0	0013		INC2 R0, R1
27D2	F4B8		SUB R4, #$B9
27D4	2015		JMP ($002A)

27D6	13F0		CTRL $3, #$F0
27D8	EE00		
27DA	4213		PUTB $2, (R1)++++
27DC	F0B3		BRA $272A		; -> -$B4(R0)

27DE	1042		CTRL $0, #$42
27E0	F117		SUB R1, #$18
27E2	F4FE		SUB R4, #$FF
27E4	F013		BRA $27D2		; -> -$14(R0)

27E6	E5FE		
27E8	7310		MOVB (R1)+, R3
27EA	0233		INC2 R2, R3
27EC	200B		JMP ($0016)

27EE	56FA		MOVE (R15), R6
27F0	1020		CTRL $0, #$20
27F2	1013		CTRL $0, #$13
27F4	E730		
27F6	0E10		DEC2 R14, R1
27F8	8CFE		LBI R12, #$FE
27FA	3C00		MOVE $00, R12
27FC	0F40		DEC2 R15, R4
27FE	F014		BRA $27EB		; -> -$15(R0)

2800	03FE		GETB R15, $3
2802	3C80		MOVE $100, R12
2804	0F40		DEC2 R15, R4
2806	091B		ADDH2 R9, R1
2808	0F24		MOVE R15, R2
280A	0000		HALT
280C	3510		MOVE $20, R5
280E	0EB4		MOVE R14, R11
2810	1C01		CTRL $C, #$01
2812	0F26		OR R15, R2
2814	0878		ADD R8, R7
2816	0B07		XOR R11, R0
2818	1419		CTRL $4, #$19
281A	3330		MOVE $60, R3
281C	0012		INC R0, R1
281E	7840		MOVB (R4)+, R8
2820	0714		MOVE R7, R1
2822	1DFE		CTRL $D, #$FE
2824	7510		MOVB (R1)+, R5
2826	0872		INC R8, R7
2828	3000		MOVE $00, R0
282A	3510		MOVE $20, R5
282C	0EB4		MOVE R14, R11
282E	F014		BRA $281B		; -> -$15(R0)

2830	1DFE		CTRL $D, #$FE
2832	3530		MOVE $60, R5
2834	0EBE		GETB R11, $E
2836	3A40		MOVE $80, R10
2838	0F40		DEC2 R15, R4
283A	3540		MOVE $80, R5
283C	0EBE		GETB R11, $E
283E	3006		MOVE $0C, R0
2840	0EB0		DEC2 R14, R11
2842	3520		MOVE $40, R5
2844	0EB4		MOVE R14, R11
2846	3006		MOVE $0C, R0
2848	0EB0		DEC2 R14, R11
284A	B560		SET R5, #$60
284C	00B5		AND R0, R11
284E	2008		JMP ($0010)

2850	F920		SUB R9, #$21
2852	4034		PUTB $0, (R3)-
2854	200F		JMP ($001E)

2856	24C4		MOVE R4, $188
2858	600E		MOVB R0, (R0)
285A	DB28		MOVE R11, (R2)
285C	1433		CTRL $4, #$33
285E	8440		LBI R4, #$40
2860	0010		DEC2 R0, R1
2862	80F0		LBI R0, #$F0
2864	14AE		CTRL $4, #$AE
2866	3940		MOVE $80, R9
2868	0F40		DEC2 R15, R4
286A	144B		CTRL $4, #$4B
286C	09FE		GETB R15, $9
286E	10CE		CTRL $0, #$CE
2870	0000		HALT
2872	09FE		GETB R15, $9
2874	0F41		DEC R15, R4
2876	0000		HALT
2878	3980		MOVE $100, R9
287A	0F40		DEC2 R15, R4
287C	1445		CTRL $4, #$45
287E	3370		MOVE $E0, R3
2880	14CA		CTRL $4, #$CA
2882	3470		MOVE $E0, R4
2884	0F3E		GETB R3, $F
2886	F014		BRA $2873		; -> -$15(R0)

2888	5AFE		MOVE (R15), R10
288A	3370		MOVE $E0, R3
288C	14DD		CTRL $4, #$DD
288E	3470		MOVE $E0, R4
2890	0F3E		GETB R3, $F
2892	F014		BRA $287F		; -> -$15(R0)

2894	5AFE		MOVE (R15), R10
2896	3C44		MOVE $88, R12
2898	0F28		ADD R15, R2
289A	3980		MOVE $100, R9
289C	0F40		DEC2 R15, R4
289E	1456		CTRL $4, #$56
28A0	3370		MOVE $E0, R3
28A2	14B2		CTRL $4, #$B2
28A4	3470		MOVE $E0, R4
28A6	0F3E		GETB R3, $F
28A8	F014		BRA $2895		; -> -$15(R0)

28AA	5AFE		MOVE (R15), R10
28AC	3370		MOVE $E0, R3
28AE	14BE		CTRL $4, #$BE
28B0	3470		MOVE $E0, R4
28B2	0F3E		GETB R3, $F
28B4	3570		MOVE $E0, R5
28B6	0EDB		ADDH2 R14, R13
28B8	3510		MOVE $20, R5
28BA	0F26		OR R15, R2
28BC	3440		MOVE $80, R4
28BE	0F30		DEC2 R15, R3
28C0	B470		SET R4, #$70
28C2	02F9		SUB R2, R15
28C4	1030		CTRL $0, #$30
28C6	B410		SET R4, #$10
28C8	00F9		SUB R0, R15
28CA	2040		JMP ($0080)

28CC	3670		MOVE $E0, R6
28CE	0EDB		ADDH2 R14, R13
28D0	FA70		SUB R10, #$71
28D2	6008		MOVB R0, (R0)
28D4	1460		CTRL $4, #$60
28D6	3770		MOVE $E0, R7
28D8	0EDB		ADDH2 R14, R13
28DA	3760		MOVE $C0, R7
28DC	0EDB		ADDH2 R14, R13
28DE	3460		MOVE $C0, R4
28E0	0F38		ADD R15, R3
28E2	0C01		DEC R12, R0
28E4	0F36		OR R15, R3
28E6	0F24		MOVE R15, R2
28E8	0C03		INC2 R12, R0
28EA	0F32		INC R15, R3
28EC	0F36		OR R15, R3
28EE	0F10		DEC2 R15, R1
28F0	0F32		INC R15, R3
28F2	0F30		DEC2 R15, R3
28F4	3510		MOVE $20, R5
28F6	0F36		OR R15, R3
28F8	7510		MOVB (R1)+, R5
28FA	0035		AND R0, R3
28FC	200F		JMP ($001E)

28FE	32B5		MOVE $16A, R2
2900	2000		JMP ($0000)

2902	3100		MOVE $00, R1
2904	0F3E		GETB R3, $F
2906	3510		MOVE $20, R5
2908	0F36		OR R15, R3
290A	3520		MOVE $40, R5
290C	0F32		INC R15, R3
290E	1C03		CTRL $C, #$03
2910	0F3A		ADDH R15, R3
2912	006C		MHL R0, R6
2914	0300		DEC2 R3, R0
2916	008C		MHL R0, R8
2918	0300		DEC2 R3, R0
291A	0F3A		ADDH R15, R3
291C	0F10		DEC2 R15, R1
291E	0F32		INC R15, R3
2920	0F30		DEC2 R15, R3
2922	0F10		DEC2 R15, R1
2924	0F34		MOVE R15, R3
2926	0EDB		ADDH2 R14, R13
2928	C084		SS R0
292A	147A		CTRL $4, #$7A
292C	0F10		DEC2 R15, R1
292E	0F36		OR R15, R3
2930	0F30		DEC2 R15, R3
2932	0F10		DEC2 R15, R1
2934	0F38		ADD R15, R3
2936	0EDB		ADDH2 R14, R13
2938	C084		SS R0
293A	1474		CTRL $4, #$74
293C	3520		MOVE $40, R5
293E	0F24		MOVE R15, R2
2940	3C44		MOVE $88, R12
2942	0F28		ADD R15, R2
2944	2C01		MOVE R12, $02
2946	0F29		SUB R15, R2
2948	02C7		XOR R2, R12
294A	0A0F		GETA R0, $A
294C	28E7		MOVE R8, $1CE
294E	0C00		DEC2 R12, R0
2950	3720		MOVE $40, R7
2952	0F30		DEC2 R15, R3
2954	3770		MOVE $E0, R7
2956	0EDB		ADDH2 R14, R13
2958	C084		SS R0
295A	14A2		CTRL $4, #$A2
295C	3520		MOVE $40, R5
295E	0B65		AND R11, R6
2960	F03B		BRA $2926		; -> -$3C(R0)

2962	D8FE		MOVE R8, (R15)
2964	D708		MOVE R7, (R0)
2966	00E7		XOR R0, R14
2968	0600		DEC2 R6, R0
296A	C084		SS R0
296C	1483		CTRL $4, #$83
296E	C001		SLT R0, R0
2970	148E		CTRL $4, #$8E
2972	FA10		SUB R10, #$11
2974	2000		JMP ($0000)

2976	148E		CTRL $4, #$8E
2978	F014		BRA $2965		; -> -$15(R0)

297A	83FE		LBI R3, #$FE
297C	D708		MOVE R7, (R0)
297E	00E7		XOR R0, R14
2980	0600		DEC2 R6, R0
2982	C082		SE R0, R8
2984	1483		CTRL $4, #$83
2986	C001		SLT R0, R0
2988	148E		CTRL $4, #$8E
298A	FA10		SUB R10, #$11
298C	2000		JMP ($0000)

298E	148E		CTRL $4, #$8E
2990	F014		BRA $297D		; -> -$15(R0)

2992	83FE		LBI R3, #$FE
2994	1430		CTRL $4, #$30
2996	10CE		CTRL $0, #$CE
2998	0024		RET R2

299A	300F		MOVE $1E, R0
299C	4100		PUTB $1, (R0)+
299E	0DFE		GETB R15, $D
29A0	0F41		DEC R15, R4
29A2	10CE		CTRL $0, #$CE
29A4	1014		CTRL $0, #$14
29A6	830D		LBI R3, #$0D
29A8	FE10		SUB R14, #$11
29AA	CE0F		SNBSH R14, R0
29AC	4128		PUTB $1, (R2)
29AE	148E		CTRL $4, #$8E
29B0	FA10		SUB R10, #$11
29B2	2000		JMP ($0000)

29B4	148E		CTRL $4, #$8E
29B6	F014		BRA $29A3		; -> -$15(R0)

29B8	83FE		LBI R3, #$FE
29BA	1430		CTRL $4, #$30
29BC	10CE		CTRL $0, #$CE
29BE	0024		RET R2

29C0	300F		MOVE $1E, R0
29C2	4100		PUTB $1, (R0)+
29C4	0DFE		GETB R15, $D
29C6	0F41		DEC R15, R4
29C8	10CE		CTRL $0, #$CE
29CA	0014		RET R1

29CC	830D		LBI R3, #$0D
29CE	FE10		SUB R14, #$11
29D0	CE0F		SNBSH R14, R0
29D2	4128		PUTB $1, (R2)
29D4	148E		CTRL $4, #$8E
29D6	FA10		SUB R10, #$11
29D8	2000		JMP ($0000)

29DA	148E		CTRL $4, #$8E
29DC	F014		BRA $29C9		; -> -$15(R0)

29DE	83FE		LBI R3, #$FE
29E0	300C		MOVE $18, R0
29E2	0F88		ADD R15, R8
29E4	3320		MOVE $40, R3
29E6	0F88		ADD R15, R8
29E8	301C		MOVE $38, R0
29EA	0EB0		DEC2 R14, R11
29EC	D708		MOVE R7, (R0)
29EE	00E7		XOR R0, R14
29F0	0C08		ADD R12, R0
29F2	AC00		ADD R12, #$01
29F4	0608		ADD R6, R0
29F6	BB80		SET R11, #$80
29F8	08E7		XOR R8, R14
29FA	0808		ADD R8, R0
29FC	8557		LBI R5, #$57
29FE	2815		MOVE R8, $2A
2A00	5AFE		MOVE (R15), R10
2A02	E706		
2A04	70C0		MOVB (R12)+, R0
2A06	8215		LBI R2, #$15
2A08	31E7		MOVE $1CE, R1
2A0A	0678		ADD R6, R7
2A0C	C002		SE R0, R0
2A0E	152D		CTRL $5, #$2D
2A10	E700		
2A12	0830		DEC2 R8, R3
2A14	1A0E		CTRL $A, #$0E
2A16	BAF1		SET R10, #$F1
2A18	17E6		CTRL $7, #$E6
2A1A	301C		MOVE $38, R0
2A1C	0EB0		DEC2 R14, R11
2A1E	D708		MOVE R7, (R0)
2A20	00D7		XOR R0, R13
2A22	0400		DEC2 R4, R0
2A24	C700		SLE R7, R0
2A26	1080		CTRL $0, #$80
2A28	E70C		
2A2A	10E7		CTRL $0, #$E7
2A2C	0828		ADD R8, R2
2A2E	E716		
2A30	10E7		CTRL $0, #$E7
2A32	0030		DEC2 R0, R3
2A34	E700		
2A36	30FE		MOVE $1FC, R0
2A38	B880		SET R8, #$80
2A3A	0615		AND R6, R1
2A3C	24FE		MOVE R4, $1FC
2A3E	E70C		
2A40	10BA		CTRL $0, #$BA
2A42	8010		LBI R0, #$10
2A44	E708		
2A46	10FE		CTRL $0, #$FE
2A48	CC08		SGT R12, R0
2A4A	0EBF		GETA R11, $E
2A4C	1529		CTRL $5, #$29
2A4E	E714		
2A50	00FE		GETB R15, $0
2A52	301A		MOVE $34, R0
2A54	0EBA		ADDH R14, R11
2A56	300E		MOVE $1C, R0
2A58	0F88		ADD R15, R8
2A5A	C708		SGT R7, R0
2A5C	1080		CTRL $0, #$80
2A5E	F015		BRA $2A4A		; -> -$16(R0)

2A60	1CFE		CTRL $C, #$FE
2A62	E702		
2A64	08E7		XOR R8, R14
2A66	0C10		DEC2 R12, R1
2A68	E700		
2A6A	48E7		PUTB $8, (R14)----
2A6C	0210		DEC2 R2, R1
2A6E	E700		
2A70	40E7		PUTB $0, (R14)----
2A72	0210		DEC2 R2, R1
2A74	E700		
2A76	38E7		MOVE $1CE, R8
2A78	0210		DEC2 R2, R1
2A7A	E70C		
2A7C	18E7		CTRL $8, #$E7
2A7E	0810		DEC2 R8, R1
2A80	E700		
2A82	68E7		MOVB R8, (R14)----
2A84	0210		DEC2 R2, R1
2A86	E700		
2A88	60E7		MOVB R0, (R14)----
2A8A	0210		DEC2 R2, R1
2A8C	E700		
2A8E	58E7		MOVE (R14)--, R8
2A90	0210		DEC2 R2, R1
2A92	E700		
2A94	50E7		MOVE (R14)--, R0
2A96	0C20		DEC2 R12, R2
2A98	E708		
2A9A	18E7		CTRL $8, #$E7
2A9C	1620		CTRL $6, #$20
2A9E	AC00		ADD R12, #$01
2AA0	0806		OR R8, R0
2AA2	E702		
2AA4	08E7		XOR R8, R14
2AA6	0C10		DEC2 R12, R1
2AA8	E708		
2AAA	08BE		GETB R11, $8
2AAC	8010		LBI R0, #$10
2AAE	E700		
2AB0	10F0		CTRL $0, #$F0
2AB2	1524		CTRL $5, #$24
2AB4	C120		SLE R1, R2
2AB6	0000		HALT
2AB8	0000		HALT
2ABA	0000		HALT
2ABC	4080		PUTB $0, (R8)+
2ABE	0000		HALT
2AC0	0000		HALT
2AC2	0000		HALT
2AC4	45A5		PUTB $5, (R10)--
2AC6	2583		MOVE R5, $106
2AC8	CD70		SLE R13, R7
2ACA	A3D7		ADD R3, #$D8
2ACC	44B0		PUTB $4, (R11)+
2ACE	241F		MOVE R4, $3E
2AD0	BE76		SET R14, #$76
2AD2	C8B4		SS R8
2AD4	4325		PUTB $3, (R2)--
2AD6	2758		MOVE R7, $B0
2AD8	1062		CTRL $0, #$62
2ADA	4DD3		PUTB $D, (R13)++++
2ADC	461E		PUTB $6, (R1)
2ADE	F70A		SUB R7, #$0B
2AE0	4B85		PUTB $B, (R8)--
2AE2	1EB8		CTRL $E, #$B8
2AE4	45E7		PUTB $5, (R14)----
2AE6	33D4		MOVE $1A8, R3
2AE8	A3D7		ADD R3, #$D8
2AEA	0AD3		INC2 R10, R13
2AEC	44CB		PUTB $4, (R12)
2AEE	3C8C		MOVE $118, R12
2AF0	CCCC		SNS R12
2AF2	CCCD		SNBS R12, R12
2AF4	4327		PUTB $3, (R2)----
2AF6	679D		MOVB R7, (R9)
2AF8	B22D		SET R2, #$2D
2AFA	0E56		OR R14, R5
2AFC	408C		PUTB $0, (R8)
2AFE	9F95		CLR R15, #$95
2B00	0000		HALT
2B02	0000		HALT
2B04	4214		PUTB $2, (R1)-
2B06	19DB		CTRL $9, #$DB
2B08	0000		HALT
2B0A	0000		HALT
2B0C	3C00		MOVE $00, R12
2B0E	0F8F		GETA R8, $F
2B10	F015		BRA $2AFC		; -> -$16(R0)

2B12	8CFE		LBI R12, #$FE
2B14	3C01		MOVE $02, R12
2B16	0F8F		GETA R8, $F
2B18	300C		MOVE $18, R0
2B1A	0F88		ADD R15, R8
2B1C	3320		MOVE $40, R3
2B1E	0F88		ADD R15, R8
2B20	301C		MOVE $38, R0
2B22	0EB0		DEC2 R14, R11
2B24	D708		MOVE R7, (R0)
2B26	00E7		XOR R0, R14
2B28	0C40		DEC2 R12, R4
2B2A	9C00		CLR R12, #$00
2B2C	0600		DEC2 R6, R0
2B2E	BB80		SET R11, #$80
2B30	40E7		PUTB $0, (R14)----
2B32	0840		DEC2 R8, R4
2B34	8537		LBI R5, #$37
2B36	0815		AND R8, R1
2B38	F1FE		SUB R1, #$FF
2B3A	EC00		
2B3C	0715		AND R7, R1
2B3E	BDE7		SET R13, #$E7
2B40	0638		ADD R6, R3
2B42	C002		SE R0, R0
2B44	15BF		CTRL $5, #$BF
2B46	D704		MOVE R7, (R0)~
2B48	00E7		XOR R0, R14
2B4A	0C40		DEC2 R12, R4
2B4C	E702		
2B4E	40E7		PUTB $0, (R14)----
2B50	0C48		ADD R12, R4
2B52	E702		
2B54	10E7		CTRL $0, #$E7
2B56	0018		ADD R0, R1
2B58	E702		
2B5A	48E7		PUTB $8, (R14)----
2B5C	0020		DEC2 R0, R2
2B5E	E702		
2B60	48E7		PUTB $8, (R14)----
2B62	0028		ADD R0, R2
2B64	E702		
2B66	48E7		PUTB $8, (R14)----
2B68	0030		DEC2 R0, R3
2B6A	E702		
2B6C	48AC		PUTB $8, (R10)
2B6E	0040		DEC2 R0, R4
2B70	06E7		XOR R6, R14
2B72	0240		DEC2 R2, R4
2B74	E700		
2B76	40F0		PUTB $0, (R15)+
2B78	15E8		CTRL $5, #$E8
2B7A	BB80		SET R11, #$80
2B7C	06FE		GETB R15, $6
2B7E	3000		MOVE $00, R0
2B80	0EBA		ADDH R14, R11
2B82	D70C		MOVE R7, (R0)
2B84	0034		RET R3

2B86	100E		CTRL $0, #$0E
2B88	B430		SET R4, #$30
2B8A	180E		CTRL $8, #$0E
2B8C	B0F1		SET R0, #$F1
2B8E	17E6		CTRL $7, #$E6
2B90	3510		MOVE $20, R5
2B92	0EB4		MOVE R14, R11
2B94	3006		MOVE $0C, R0
2B96	0EB0		DEC2 R14, R11
2B98	3002		MOVE $04, R0
2B9A	0EBA		ADDH R14, R11
2B9C	D708		MOVE R7, (R0)
2B9E	00D7		XOR R0, R13
2BA0	0400		DEC2 R4, R0
2BA2	E70C		
2BA4	48C7		PUTB $8, (R12)----
2BA6	0810		DEC2 R8, R1
2BA8	80E7		LBI R0, #$E7
2BAA	1648		CTRL $6, #$48
2BAC	EC00		
2BAE	0715		AND R7, R1
2BB0	DDE7		MOVE R13, (R14)--
2BB2	0C40		DEC2 R12, R4
2BB4	BE80		SET R14, #$80
2BB6	40E7		PUTB $0, (R14)----
2BB8	0840		DEC2 R8, R4
2BBA	E700		
2BBC	48E7		PUTB $8, (R14)----
2BBE	1608		CTRL $6, #$08
2BC0	B880		SET R8, #$80
2BC2	0615		AND R6, R1
2BC4	E8FE		
2BC6	E70C		
2BC8	48BA		PUTB $8, (R11)
2BCA	8048		LBI R0, #$48
2BCC	E708		
2BCE	48FE		PUTB $8, (R15)
2BD0	CC08		SGT R12, R0
2BD2	0EBF		GETA R11, $E
2BD4	15ED		CTRL $5, #$ED
2BD6	D714		MOVE R7, (R1)~
2BD8	00FE		GETB R15, $0
2BDA	301A		MOVE $34, R0
2BDC	0EBA		ADDH R14, R11
2BDE	300E		MOVE $1C, R0
2BE0	0F88		ADD R15, R8
2BE2	4120		PUTB $1, (R2)+
2BE4	0000		HALT
2BE6	0000		HALT
2BE8	0000		HALT
2BEA	3A6B		MOVE $D6, R10
2BEC	D8C7		MOVE R8, (R12)--
2BEE	3D55		MOVE $AA, R13
2BF0	3E13		MOVE $26, R14
2BF2	3C2E		MOVE $5C, R12
2BF4	3BBE		MOVE $17C, R11
2BF6	AE94		ADD R14, #$95
2BF8	2B18		MOVE R11, $30
2BFA	3DD0		MOVE $1A0, R13
2BFC	0D00		DEC2 R13, R0
2BFE	D8A1		MOVE R8, (R10)+
2C00	BBDE		SET R11, #$DE
2C02	3F22		MOVE $44, R15
2C04	2222		MOVE R2, $44
2C06	2221		MOVE R2, $42
2C08	E449		
2C0A	402A		PUTB $0, (R2)
2C0C	AAAA		ADD R10, #$AB
2C0E	AAAA		ADD R10, #$AB
2C10	AAB5		ADD R10, #$B6
2C12	4058		PUTB $0, (R5)
2C14	B90C		SET R9, #$0C
2C16	0000		HALT
2C18	0000		HALT
2C1A	300C		MOVE $18, R0
2C1C	0F52		INC R15, R5
2C1E	3320		MOVE $40, R3
2C20	0F24		MOVE R15, R2
2C22	301C		MOVE $38, R0
2C24	0EB0		DEC2 R14, R11
2C26	D708		MOVE R7, (R0)
2C28	0085		AND R0, R8
2C2A	1F00		CTRL $F, #$00
2C2C	166A		CTRL $6, #$6A
2C2E	E706		
2C30	10C0		CTRL $0, #$C0
2C32	8416		LBI R4, #$16
2C34	66E7		MOVB R6, (R14)----
2C36	0618		ADD R6, R1
2C38	C082		SE R0, R8
2C3A	1663		CTRL $6, #$63
2C3C	E704		
2C3E	00E7		XOR R0, R14
2C40	0C10		DEC2 R12, R1
2C42	AC00		ADD R12, #$01
2C44	2C10		MOVE R12, $20
2C46	BB80		SET R11, #$80
2C48	10E7		CTRL $0, #$E7
2C4A	0810		DEC2 R8, R1
2C4C	E702		
2C4E	08E7		XOR R8, R14
2C50	1220		CTRL $2, #$20
2C52	E70C		
2C54	2089		JMP ($0112)

2C56	0324		MOVE R3, R2
2C58	0000		HALT
2C5A	AC07		ADD R12, #$08
2C5C	1820		CTRL $8, #$20
2C5E	B880		SET R8, #$80
2C60	2C16		MOVE R12, $2C
2C62	37FE		MOVE $1FC, R7
2C64	BA80		SET R10, #$80
2C66	10BA		CTRL $0, #$BA
2C68	8018		LBI R0, #$18
2C6A	F016		BRA $2C55		; -> -$17(R0)

2C6C	3CFE		MOVE $1FC, R12
2C6E	3300		MOVE $00, R3
2C70	0000		HALT
2C72	B700		SET R7, #$00
2C74	22B4		MOVE R2, $168
2C76	0022		INC R0, R2
2C78	E70A		
2C7A	18E7		CTRL $8, #$E7
2C7C	0200		DEC2 R2, R0
2C7E	E706		
2C80	10C0		CTRL $0, #$C0
2C82	0216		OR R2, R1
2C84	478F		PUTB $7, (R8)
2C86	1022		CTRL $0, #$22
2C88	0EDB		ADDH2 R14, R13
2C8A	F016		BRA $2C75		; -> -$17(R0)

2C8C	4AFE		PUTB $A, (R15)
2C8E	BA80		SET R10, #$80
2C90	00E7		XOR R0, R14
2C92	0000		HALT
2C94	BE80		SET R14, #$80
2C96	10E7		CTRL $0, #$E7
2C98	0010		DEC2 R0, R1
2C9A	E73E		
2C9C	23FE		MOVE R3, $1FC
2C9E	E702		
2CA0	24E7		MOVE R4, $1CE
2CA2	0024		RET R2

2CA4	E70C		
2CA6	2482		MOVE R4, $104
2CA8	1022		CTRL $0, #$22
2CAA	0001		DEC R0, R0
2CAC	AF00		ADD R15, #$01
2CAE	2423		MOVE R4, $46
2CB0	E708		
2CB2	24FE		MOVE R4, $1FC
2CB4	CC08		SGT R12, R0
2CB6	0EBF		GETA R11, $E
2CB8	165F		CTRL $6, #$5F
2CBA	D714		MOVE R7, (R1)~
2CBC	00FE		GETB R15, $0
2CBE	301A		MOVE $34, R0
2CC0	0EBA		ADDH R14, R11
2CC2	B00E		SET R0, #$0E
2CC4	2EFE		MOVE R14, $1FC
2CC6	D70E		MOVE R7, (R0)
2CC8	00F0		DEC2 R0, R15
2CCA	165A		CTRL $6, #$5A
2CCC	3CD0		MOVE $1A0, R12
2CCE	0BB4		MOVE R11, R11
2CD0	F03B		BRA $2C96		; -> -$3C(R0)

2CD2	D0FE		JMP (R15)
2CD4	40B1		PUTB $0, (R11)++
2CD6	7217		MOVB (R1)----, R2
2CD8	F7D1		SUB R7, #$D2
2CDA	CF7A		SNE R15, R7
2CDC	4117		PUTB $1, (R1)----
2CDE	1547		CTRL $5, #$47
2CE0	652B		MOVB R5, (R2)
2CE2	8300		LBI R3, #$00
2CE4	42AE		PUTB $2, (R10)
2CE6	AC50		ADD R12, #$51
2CE8	4816		PUTB $8, (R1)---
2CEA	F006		BRA $2CE5		; -> -$07(R0)

2CEC	C2B4		SS R2
2CEE	37FC		MOVE $1F8, R7
2CF0	B923		SET R9, #$23
2CF2	A29C		ADD R2, #$9D
2CF4	0C5C		MHL R12, R5
2CF6	0BBC		MHL R11, R11
2CF8	0000		HALT
2CFA	0000		HALT
2CFC	3BD2		MOVE $1A4, R11
2CFE	0DA6		OR R13, R10
2D00	0D06		OR R13, R0
2D02	0000		HALT
2D04	0000		HALT
2D06	3BD2		MOVE $1A4, R11
2D08	0D06		OR R13, R0
2D0A	0C66		OR R12, R6
2D0C	0008		ADD R0, R0
2D0E	3BD2		MOVE $1A4, R11
2D10	0E41		DEC R14, R4
2D12	0DC1		DEC R13, R12
2D14	0E42		INC R14, R4
2D16	0E92		INC R14, R9
2D18	0E42		INC R14, R4
2D1A	0000		HALT
2D1C	0000		HALT
2D1E	3BD2		MOVE $1A4, R11
2D20	0000		HALT
2D22	0000		HALT
2D24	0000		HALT
2D26	0000		HALT
2D28	0000		HALT
2D2A	0100		DEC2 R1, R0
2D2C	0000		HALT
2D2E	0000		HALT
2D30	0000		HALT
2D32	0000		HALT
2D34	0000		HALT
2D36	0000		HALT
2D38	034D		MLH R3, R4
2D3A	F05D		BRA $2CDE		; -> -$5E(R0)

2D3C	4040		PUTB $0, (R4)+
2D3E	4040		PUTB $0, (R4)+
2D40	4040		PUTB $0, (R4)+
2D42	4040		PUTB $0, (R4)+
2D44	4040		PUTB $0, (R4)+
2D46	4040		PUTB $0, (R4)+
2D48	4040		PUTB $0, (R4)+
2D4A	4040		PUTB $0, (R4)+
2D4C	4040		PUTB $0, (R4)+
2D4E	4040		PUTB $0, (R4)+
2D50	4040		PUTB $0, (R4)+
2D52	4040		PUTB $0, (R4)+
2D54	4040		PUTB $0, (R4)+
2D56	4040		PUTB $0, (R4)+
2D58	4040		PUTB $0, (R4)+
2D5A	4040		PUTB $0, (R4)+
2D5C	4040		PUTB $0, (R4)+
2D5E	4040		PUTB $0, (R4)+
2D60	4010		PUTB $0, (R1)+
2D62	4110		PUTB $1, (R1)+
2D64	0000		HALT
2D66	0000		HALT
2D68	0000		HALT
2D6A	A213		ADD R2, #$14
2D6C	79D5		MOVB (R13)--, R9
2D6E	0C01		DEC R12, R0
2D70	0DB0		DEC2 R13, R11
2D72	0B61		DEC R11, R6
2D74	3B01		MOVE $02, R11
2D76	0DB1		DEC R13, R11
2D78	0C01		DEC R12, R0
2D7A	0DAE		GETB R10, $D
2D7C	0DB0		DEC2 R13, R11
2D7E	3500		MOVE $00, R5
2D80	0EBE		GETB R11, $E
2D82	056D		MLH R5, R6
2D84	0EA6		OR R14, R10
2D86	167A		CTRL $6, #$7A
2D88	050B		ADDH2 R5, R0
2D8A	1080		CTRL $0, #$80
2D8C	16B1		CTRL $6, #$B1
2D8E	3400		MOVE $00, R4
2D90	0EBE		GETB R11, $E
2D92	FC80		SUB R12, #$81
2D94	00FE		GETB R15, $0
2D96	F18F		SUB R1, #$90
2D98	F2FE		SUB R2, #$FF
2D9A	FB50		SUB R11, #$51
2D9C	1035		CTRL $0, #$35
2D9E	100D		CTRL $0, #$0D
2DA0	B978		SET R9, #$78
2DA2	4814		PUTB $8, (R1)-
2DA4	16DF		CTRL $6, #$DF
2DA6	7911		MOVB (R1)++, R9
2DA8	1416		CTRL $4, #$16
2DAA	DFFE		MOVE R15, (R15)
2DAC	7A02		MOVB (R0)+++, R10
2DAE	1438		CTRL $4, #$38
2DB0	200D		JMP ($001A)

2DB2	BF16		SET R15, #$16
2DB4	E3FE		
2DB6	3C93		MOVE $126, R12
2DB8	0BB4		MOVE R11, R11
2DBA	F03B		BRA $2D80		; -> -$3C(R0)

2DBC	CEFE		SNBC R14, R15
2DBE	3C92		MOVE $124, R12
2DC0	0BB4		MOVE R11, R11
2DC2	F03B		BRA $2D88		; -> -$3C(R0)

2DC4	CEFE		SNBC R14, R15
2DC6	3A20		MOVE $40, R10
2DC8	0DBF		GETA R11, $D
2DCA	3B80		MOVE $100, R11
2DCC	0ED6		OR R14, R13
2DCE	0901		DEC R9, R0
2DD0	0DBD		MLH R13, R11
2DD2	0000		HALT
2DD4	FB10		SUB R11, #$11
2DD6	5033		MOVE (R3)++, R0
2DD8	0053		INC2 R0, R5
2DDA	EA34		
2DDC	000D		MLH R0, R0
2DDE	B5EC		SET R5, #$EC
2DE0	1706		CTRL $7, #$06
2DE2	2FEC		MOVE R15, $1D8
2DE4	F08F		BRA $2D56		; -> -$90(R0)

2DE6	D4FE		MOVE R4, (R15)
2DE8	B310		SET R3, #$10
2DEA	11FE		CTRL $1, #$FE
2DEC	7310		MOVB (R1)+, R3
2DEE	02DA		ADDH R2, R13
2DF0	FE00		SUB R14, #$01
2DF2	16F6		CTRL $6, #$F6
2DF4	3980		MOVE $100, R9
2DF6	0DBF		GETA R11, $D
2DF8	1708		CTRL $7, #$08
2DFA	DCFE		MOVE R12, (R15)
2DFC	003B		ADDH2 R0, R3
2DFE	D8FE		MOVE R8, (R15)
2E00	E520		
2E02	00C0		DEC2 R0, R12
2E04	8117		LBI R1, #$17
2E06	12ED		CTRL $2, #$ED
2E08	2B06		MOVE R11, $0C
2E0A	1700		CTRL $7, #$00
2E0C	F03B		BRA $2DD2		; -> -$3C(R0)

2E0E	D8FE		MOVE R8, (R15)
2E10	3B80		MOVE $100, R11
2E12	0DBF		GETA R11, $D
2E14	2C01		MOVE R12, $02
2E16	0ED3		INC2 R14, R13
2E18	04DC		MHL R4, R13
2E1A	FF00		SUB R15, #$01
2E1C	3BD8		MOVE $1B0, R11
2E1E	7310		MOVB (R1)+, R3
2E20	01F0		DEC2 R1, R15
2E22	23F0		MOVE R3, $1E0
2E24	3CA9		MOVE $152, R12
2E26	0BB4		MOVE R11, R11
2E28	F03B		BRA $2DEE		; -> -$3C(R0)

2E2A	CEFE		SNBC R14, R15
2E2C	3300		MOVE $00, R3
2E2E	5FCE		MOVE (R12), R15
2E30	F017		BRA $2E1A		; -> -$18(R0)

2E32	1CFE		CTRL $C, #$FE
2E34	3300		MOVE $00, R3
2E36	5FD0		MOVE (R13)', R15
2E38	300C		MOVE $18, R0
2E3A	1026		CTRL $0, #$26
2E3C	FD00		SUB R13, #$01
2E3E	00FE		GETB R15, $0
2E40	3510		MOVE $20, R5
2E42	0EB4		MOVE R14, R11
2E44	C708		SGT R7, R0
2E46	1080		CTRL $0, #$80
2E48	D716		MOVE R7, (R1)-~
2E4A	00D7		XOR R0, R13
2E4C	0C00		DEC2 R12, R0
2E4E	300E		MOVE $1C, R0
2E50	1026		CTRL $0, #$26
2E52	0000		HALT
2E54	0000		HALT
2E56	0000		HALT
2E58	0000		HALT
2E5A	0000		HALT
2E5C	0000		HALT
2E5E	0000		HALT
2E60	0000		HALT
2E62	0000		HALT
2E64	0000		HALT
2E66	0000		HALT
2E68	0000		HALT
2E6A	0000		HALT
2E6C	0000		HALT
2E6E	0000		HALT
2E70	0000		HALT
2E72	0000		HALT
2E74	0000		HALT
2E76	0000		HALT
2E78	0000		HALT
2E7A	0000		HALT
2E7C	0000		HALT
2E7E	0000		HALT
2E80	0000		HALT
2E82	0000		HALT
2E84	0000		HALT
2E86	0000		HALT
2E88	0000		HALT
2E8A	0000		HALT
2E8C	0000		HALT
2E8E	0000		HALT
2E90	0000		HALT
2E92	0000		HALT
2E94	0000		HALT
2E96	0000		HALT
2E98	0000		HALT
2E9A	0000		HALT
2E9C	0000		HALT
2E9E	0000		HALT
2EA0	0000		HALT
2EA2	0000		HALT
2EA4	0000		HALT
2EA6	0000		HALT
2EA8	0000		HALT
2EAA	0000		HALT
2EAC	0000		HALT
2EAE	0000		HALT
2EB0	0000		HALT
2EB2	0000		HALT
2EB4	0000		HALT
2EB6	0000		HALT
2EB8	0000		HALT
2EBA	0000		HALT
2EBC	0000		HALT
2EBE	0000		HALT
2EC0	0000		HALT
2EC2	0000		HALT
2EC4	0000		HALT
2EC6	0000		HALT
2EC8	0000		HALT
2ECA	0000		HALT
2ECC	0000		HALT
2ECE	0000		HALT
2ED0	0000		HALT
2ED2	0000		HALT
2ED4	0000		HALT
2ED6	0000		HALT
2ED8	0000		HALT
2EDA	0000		HALT
2EDC	0000		HALT
2EDE	0000		HALT
2EE0	0000		HALT
2EE2	0000		HALT
2EE4	0000		HALT
2EE6	0000		HALT
2EE8	0000		HALT
2EEA	0000		HALT
2EEC	0000		HALT
2EEE	0000		HALT
2EF0	0000		HALT
2EF2	0000		HALT
2EF4	0000		HALT
2EF6	0000		HALT
2EF8	0000		HALT
2EFA	0000		HALT
2EFC	0000		HALT
2EFE	0000		HALT
2F00	0000		HALT
2F02	0000		HALT
2F04	0000		HALT
2F06	0000		HALT
2F08	0000		HALT
2F0A	0000		HALT
2F0C	0000		HALT
2F0E	0000		HALT
2F10	0000		HALT
2F12	0000		HALT
2F14	0000		HALT
2F16	0000		HALT
2F18	0000		HALT
2F1A	0000		HALT
2F1C	0000		HALT
2F1E	0000		HALT
2F20	0000		HALT
2F22	0000		HALT
2F24	0000		HALT
2F26	0000		HALT
2F28	0000		HALT
2F2A	0000		HALT
2F2C	0000		HALT
2F2E	0000		HALT
2F30	0000		HALT
2F32	0000		HALT
2F34	0000		HALT
2F36	0000		HALT
2F38	0000		HALT
2F3A	0000		HALT
2F3C	0000		HALT
2F3E	0000		HALT
2F40	0000		HALT
2F42	0000		HALT
2F44	0000		HALT
2F46	0000		HALT
2F48	0000		HALT
2F4A	0000		HALT
2F4C	0000		HALT
2F4E	0000		HALT
2F50	0000		HALT
2F52	0000		HALT
2F54	0000		HALT
2F56	0000		HALT
2F58	0000		HALT
2F5A	0000		HALT
2F5C	0000		HALT
2F5E	0000		HALT
2F60	0000		HALT
2F62	0000		HALT
2F64	0000		HALT
2F66	0000		HALT
2F68	0000		HALT
2F6A	0000		HALT
2F6C	0000		HALT
2F6E	0000		HALT
2F70	0000		HALT
2F72	0000		HALT
2F74	0000		HALT
2F76	0000		HALT
2F78	0000		HALT
2F7A	0000		HALT
2F7C	0000		HALT
2F7E	0000		HALT
2F80	0000		HALT
2F82	0000		HALT
2F84	0000		HALT
2F86	0000		HALT
2F88	0000		HALT
2F8A	0000		HALT
2F8C	0000		HALT
2F8E	0000		HALT
2F90	0000		HALT
2F92	0000		HALT
2F94	0000		HALT
2F96	0000		HALT
2F98	0000		HALT
2F9A	0000		HALT
2F9C	0000		HALT
2F9E	0000		HALT
2FA0	0000		HALT
2FA2	0000		HALT
2FA4	0000		HALT
2FA6	0000		HALT
2FA8	0000		HALT
2FAA	0000		HALT
2FAC	0000		HALT
2FAE	0000		HALT
2FB0	0000		HALT
2FB2	0000		HALT
2FB4	F017		BRA $2F9E		; -> -$18(R0)

2FB6	1A00		CTRL $A, #$00
2FB8	F017		BRA $2FA2		; -> -$18(R0)

2FBA	1600		CTRL $6, #$00
2FBC	F016		BRA $2FA7		; -> -$17(R0)

2FBE	F400		SUB R4, #$01
2FC0	F016		BRA $2FAB		; -> -$17(R0)

2FC2	CB00		SLE R11, R0
2FC4	F016		BRA $2FAF		; -> -$17(R0)

2FC6	BF00		SET R15, #$00
2FC8	F016		BRA $2FB3		; -> -$17(R0)

2FCA	B700		SET R7, #$00
2FCC	F016		BRA $2FB7		; -> -$17(R0)

2FCE	0D00		DEC2 R13, R0
2FD0	F015		BRA $2FBC		; -> -$16(R0)

2FD2	8A00		LBI R10, #$00
2FD4	F015		BRA $2FC0		; -> -$16(R0)

2FD6	8600		LBI R6, #$00
2FD8	F014		BRA $2FC5		; -> -$15(R0)

2FDA	F000		BRA $2FDB		; -> -$01(R0)

2FDC	F014		BRA $2FC9		; -> -$15(R0)

2FDE	0100		DEC2 R1, R0
2FE0	F013		BRA $2FCE		; -> -$14(R0)

2FE2	FD00		SUB R13, #$01
2FE4	F013		BRA $2FD2		; -> -$14(R0)

2FE6	E300		
2FE8	F012		BRA $2FD7		; -> -$13(R0)

2FEA	C100		SLE R1, R0
2FEC	F012		BRA $2FDB		; -> -$13(R0)

2FEE	9900		CLR R9, #$00
2FF0	F011		BRA $2FE0		; -> -$12(R0)

2FF2	C700		SLE R7, R0
2FF4	F00D		BRA $2FE8		; -> -$0E(R0)

2FF6	E900		
2FF8	F00C		BRA $2FED		; -> -$0D(R0)

2FFA	0000		HALT
2FFC	0411		DEC R4, R1
2FFE	9828		CLR R8, #$28
3000	0963		INC2 R9, R6
3002	0FD6		OR R15, R13
3004	0000		HALT
3006	3410		MOVE $20, R4
3008	0FD6		OR R15, R13
300A	3420		MOVE $40, R4
300C	0FD8		ADD R15, R13
300E	3320		MOVE $40, R3
3010	10CE		CTRL $0, #$CE
3012	3340		MOVE $80, R3
3014	013F		GETA R3, $1
3016	3C40		MOVE $80, R12
3018	10CE		CTRL $0, #$CE
301A	0440		DEC2 R4, R4
301C	10CF		CTRL $0, #$CF
301E	10CE		CTRL $0, #$CE
3020	9B03		CLR R11, #$03
3022	0004		NOP
3024	B320		SET R3, #$20
3026	0539		SUB R5, R3
3028	100B		CTRL $0, #$0B
302A	6D18		MOVB R13, (R1)
302C	1AFE		CTRL $A, #$FE
302E	3902		MOVE $04, R9
3030	0B6D		MLH R11, R6
3032	196D		CTRL $9, #$6D
3034	DC33		MOVE R12, (R3)++
3036	0618		ADD R6, R1
3038	54DC		MOVE (R13), R4
303A	3A06		MOVE $0C, R10
303C	1962		CTRL $9, #$62
303E	7540		MOVB (R4)+, R5
3040	06F7		XOR R6, R15
3042	4007		PUTB $0, (R0)----
3044	3300		MOVE $00, R3
3046	0003		INC2 R0, R0
3048	F500		SUB R5, #$01
304A	4033		PUTB $0, (R3)++++
304C	101D		CTRL $0, #$1D
304E	47F8		PUTB $7, (R15)
3050	1040		CTRL $0, #$40
3052	1505		CTRL $5, #$05
3054	0FF3		INC2 R15, R15
3056	00FE		GETB R15, $0
3058	3880		MOVE $100, R8
305A	0FF5		AND R15, R15
305C	1834		CTRL $8, #$34
305E	8502		LBI R5, #$02
3060	0002		INC R0, R0
3062	86FE		LBI R6, #$FE
3064	B320		SET R3, #$20
3066	04FE		GETB R15, $4
3068	3510		MOVE $20, R5
306A	0FF3		INC2 R15, R15
306C	150E		CTRL $5, #$0E
306E	0FF9		SUB R15, R15
3070	00FE		GETB R15, $0
3072	3540		MOVE $80, R5
3074	0FF6		OR R15, R15
3076	F740		SUB R7, #$41
3078	0733		INC2 R7, R3
307A	100F		CTRL $0, #$0F
307C	F994		SUB R9, #$95
307E	4000		PUTB $0, (R0)+
3080	00F8		ADD R0, R15
3082	2040		JMP ($0080)

3084	B320		SET R3, #$20
3086	0138		ADD R1, R3
3088	400F		PUTB $0, (R0)
308A	F518		SUB R5, #$19
308C	4CFE		PUTB $C, (R15)
308E	8504		LBI R5, #$04
3090	0002		INC R0, R0
3092	8DFE		LBI R13, #$FE
3094	B320		SET R3, #$20
3096	06FE		GETB R15, $6
3098	3510		MOVE $20, R5
309A	0FD6		OR R15, R13
309C	1C00		CTRL $C, #$00
309E	0FF2		INC R15, R15
30A0	0673		INC2 R6, R7
30A2	1007		CTRL $0, #$07
30A4	3100		MOVE $00, R1
30A6	0FF7		XOR R15, R15
30A8	7310		MOVB (R1)+, R3
30AA	07FE		GETB R15, $7
30AC	DCFF		MOVE R12, (R15)
30AE	001C		MHL R0, R1
30B0	6BDC		MOVB R11, (R13)
30B2	3F00		MOVE $00, R15
30B4	1D1F		CTRL $D, #$1F
30B6	CC36		SBC R12, R3
30B8	0FF2		INC R15, R15
30BA	188C		CTRL $8, #$8C
30BC	DC3A		MOVE R12, (R3)
30BE	0018		ADD R0, R1
30C0	A7DC		ADD R7, #$DD
30C2	3B00		MOVE $00, R11
30C4	18C3		CTRL $8, #$C3
30C6	DC34		MOVE R12, (R3)~
30C8	0018		ADD R0, R1
30CA	98DC		CLR R8, #$DC
30CC	3500		MOVE $00, R5
30CE	189D		CTRL $8, #$9D
30D0	DCFE		MOVE R12, (R15)
30D2	0018		ADD R0, R1
30D4	A2DC		ADD R2, #$DD
30D6	5000		MOVE (R0)', R0
30D8	1CC6		CTRL $C, #$C6
30DA	DC31		MOVE R12, (R3)+
30DC	001D		MLH R0, R1
30DE	3FDC		MOVE $1B8, R15
30E0	3D00		MOVE $00, R13
30E2	1CE5		CTRL $C, #$E5
30E4	DC3E		MOVE R12, (R3)
30E6	001D		MLH R0, R1
30E8	09DC		MHL R9, R13
30EA	3600		MOVE $00, R6
30EC	1890		CTRL $8, #$90
30EE	DC3C		MOVE R12, (R3)
30F0	0018		ADD R0, R1
30F2	DEDC		MOVE R14, (R13)
30F4	3800		MOVE $00, R8
30F6	1893		CTRL $8, #$93
30F8	CD22		SE R13, R2
30FA	0FF2		INC R15, R15
30FC	188C		CTRL $8, #$8C
30FE	3350		MOVE $A0, R3
3100	0004		NOP
3102	4050		PUTB $0, (R5)+
3104	0002		INC R0, R0
3106	A5FE		ADD R5, #$FF
3108	2818		MOVE R8, $30
310A	8C9C		LBI R12, #$9C
310C	0300		DEC2 R3, R0
310E	0073		INC2 R0, R7
3110	1009		CTRL $0, #$09
3112	B320		SET R3, #$20
3114	04F0		DEC2 R4, R15
3116	1856		CTRL $8, #$56
3118	F10B		SUB R1, #$0C
311A	F2FE		SUB R2, #$FF
311C	F018		BRA $3105		; -> -$19(R0)

311E	56FE		MOVE (R15), R6
3120	7310		MOVB (R1)+, R3
3122	01F0		DEC2 R1, R15
3124	1856		CTRL $8, #$56
3126	BC50		SET R12, #$50
3128	00B3		INC2 R0, R11
312A	2001		JMP ($0002)

312C	F018		BRA $3115		; -> -$19(R0)

312E	90FE		CLR R0, #$FE
3130	BC4E		SET R12, #$4E
3132	00F1		DEC R0, R15
3134	0BF0		DEC2 R11, R15
3136	F018		BRA $311F		; -> -$19(R0)

3138	56FE		MOVE (R15), R6
313A	BC60		SET R12, #$60
313C	00F1		DEC R0, R15
313E	0BF0		DEC2 R11, R15
3140	F018		BRA $3129		; -> -$19(R0)

3142	56FE		MOVE (R15), R6
3144	3910		MOVE $20, R9
3146	0FDA		ADDH R15, R13
3148	1928		CTRL $9, #$28
314A	F019		BRA $3132		; -> -$1A(R0)

314C	58FE		MOVE (R15), R8
314E	7310		MOVB (R1)+, R3
3150	011C		MHL R1, R1
3152	010F		GETA R0, $1
3154	1A00		CTRL $A, #$00
3156	F10B		SUB R1, #$0C
3158	C6FE		SNBC R6, R15
315A	8B05		LBI R11, #$05
315C	000F		GETA R0, $0
315E	1733		CTRL $7, #$33
3160	4000		PUTB $0, (R0)+
3162	06FE		GETB R15, $6
3164	BC40		SET R12, #$40
3166	06ED		MLH R6, R14
3168	F000		BRA $3169		; -> -$01(R0)

316A	18BE		CTRL $8, #$BE
316C	3740		MOVE $80, R7
316E	0EDB		ADDH2 R14, R13
3170	AC06		ADD R12, #$07
3172	0001		DEC R0, R0
3174	C440		SLE R4, R4
3176	0EDB		ADDH2 R14, R13
3178	2818		MOVE R8, $30
317A	B2FE		SET R2, #$FE
317C	F820		SUB R8, #$21
317E	4073		PUTB $0, (R7)++++
3180	1002		CTRL $0, #$02
3182	F018		BRA $316B		; -> -$19(R0)

3184	56FE		MOVE (R15), R6
3186	7310		MOVB (R1)+, R3
3188	013B		ADDH2 R1, R3
318A	800E		LBI R0, #$0E
318C	D6D7		MOVE R6, (R13)--
318E	0400		DEC2 R4, R0
3190	D708		MOVE R7, (R0)
3192	00F1		DEC R0, R15
3194	23F8		MOVE R3, $1F0
3196	3540		MOVE $80, R5
3198	0DA9		SUB R13, R10
319A	7370		MOVB (R7)+, R3
319C	0835		AND R8, R3
319E	100D		CTRL $0, #$0D
31A0	A6DD		ADD R6, #$DE
31A2	4000		PUTB $0, (R0)+
31A4	18D7		CTRL $8, #$D7
31A6	3740		MOVE $80, R7
31A8	0EDB		ADDH2 R14, R13
31AA	3610		MOVE $20, R6
31AC	0EDB		ADDH2 R14, R13
31AE	9440		CLR R4, #$40
31B0	0000		HALT
31B2	F820		SUB R8, #$21
31B4	40FB		PUTB $0, (R15)
31B6	1070		CTRL $0, #$70
31B8	F018		BRA $31A1		; -> -$19(R0)

31BA	56FE		MOVE (R15), R6
31BC	BCE7		SET R12, #$E7
31BE	00B3		INC2 R0, R11
31C0	2001		JMP ($0002)

31C2	BC7D		SET R12, #$7D
31C4	0073		INC2 R0, R7
31C6	1001		CTRL $0, #$01
31C8	7240		MOVB (R4)+, R2
31CA	00FE		GETB R15, $0
31CC	F10B		SUB R1, #$0C
31CE	F0FE		BRA $30D1		; -> -$FF(R0)

31D0	9B01		CLR R11, #$01
31D2	0000		HALT
31D4	F118		SUB R1, #$19
31D6	FAFE		SUB R10, #$FF
31D8	B320		SET R3, #$20
31DA	01F1		DEC R1, R15
31DC	18FA		CTRL $8, #$FA
31DE	3740		MOVE $80, R7
31E0	0EDB		ADDH2 R14, R13
31E2	C001		SLT R0, R0
31E4	18E6		CTRL $8, #$E6
31E6	B320		SET R3, #$20
31E8	01BC		MHL R1, R11
31EA	7D00		MOVB (R0)+, R13
31EC	F10B		SUB R1, #$0C
31EE	F0FE		BRA $30F1		; -> -$FF(R0)

31F0	F018		BRA $31D9		; -> -$19(R0)

31F2	56FE		MOVE (R15), R6
31F4	E8F9		
31F6	0018		ADD R0, R1
31F8	FEFC		SUB R14, #$FD
31FA	8000		LBI R0, #$00
31FC	BF39		SET R15, #$39
31FE	00FC		MHL R0, R15
3200	8000		LBI R0, #$00
3202	F11A		SUB R1, #$1B
3204	BDFE		SET R13, #$FE
3206	DCFE		MOVE R12, (R15)
3208	0019		SUB R0, R1
320A	0DDC		MHL R13, R13
320C	FF00		SUB R15, #$01
320E	1C6B		CTRL $C, #$6B
3210	BC6B		SET R12, #$6B
3212	00B3		INC2 R0, R11
3214	2001		JMP ($0002)

3216	F019		BRA $31FE		; -> -$1A(R0)

3218	01FE		GETB R15, $1
321A	8501		LBI R5, #$01
321C	0102		INC R1, R0
321E	D7FE		MOVE R7, (R15)
3220	B320		SET R3, #$20
3222	0473		INC2 R4, R7
3224	1001		CTRL $0, #$01
3226	F018		BRA $320F		; -> -$19(R0)

3228	56FE		MOVE (R15), R6
322A	9C01		CLR R12, #$01
322C	0000		HALT
322E	ED40		
3230	0119		SUB R1, R1
3232	1EBC		CTRL $E, #$BC
3234	7E01		MOVB (R0)++, R14
3236	B320		SET R3, #$20
3238	02F0		DEC2 R2, R15
323A	1921		CTRL $9, #$21
323C	BC7E		SET R12, #$7E
323E	02B3		INC2 R2, R11
3240	2003		JMP ($0006)

3242	7310		MOVB (R1)+, R3
3244	023C		MHL R2, R3
3246	000F		GETA R0, $0
3248	6D3A		MOVB R13, (R3)
324A	100F		CTRL $0, #$0F
324C	DAF0		MOVE R10, (R15)'
324E	1856		CTRL $8, #$56
3250	3E01		MOVE $02, R14
3252	0F6D		MLH R15, R6
3254	C801		SLT R8, R0
3256	0F6D		MLH R15, R6
3258	1936		CTRL $9, #$36
325A	BC40		SET R12, #$40
325C	0085		AND R0, R8
325E	0101		DEC R1, R0
3260	02DD		MLH R2, R13
3262	B320		SET R3, #$20
3264	0473		INC2 R4, R7
3266	1001		CTRL $0, #$01
3268	F018		BRA $3251		; -> -$19(R0)

326A	56FE		MOVE (R15), R6
326C	8503		LBI R5, #$03
326E	0101		DEC R1, R0
3270	F5FE		SUB R5, #$FF
3272	B320		SET R3, #$20
3274	0673		INC2 R6, R7
3276	1001		CTRL $0, #$01
3278	F018		BRA $3261		; -> -$19(R0)

327A	56FE		MOVE (R15), R6
327C	8503		LBI R5, #$03
327E	0002		INC R0, R0
3280	A7FE		ADD R7, #$FF
3282	B320		SET R3, #$20
3284	05FE		GETB R15, $5
3286	F11A		SUB R1, #$1B
3288	5BFE		MOVE (R15), R11
328A	F11A		SUB R1, #$1B
328C	D5FE		MOVE R5, (R15)
328E	7310		MOVB (R1)+, R3
3290	02DC		MHL R2, R13
3292	FF00		SUB R15, #$01
3294	1A52		CTRL $A, #$52
3296	BC6B		SET R12, #$6B
3298	00B3		INC2 R0, R11
329A	2001		JMP ($0002)

329C	F019		BRA $3284		; -> -$1A(R0)

329E	45FE		PUTB $5, (R15)
32A0	9C01		CLR R12, #$01
32A2	0000		HALT
32A4	B320		SET R3, #$20
32A6	02F0		DEC2 R2, R15
32A8	1C6B		CTRL $C, #$6B
32AA	7310		MOVB (R1)+, R3
32AC	02F0		DEC2 R2, R15
32AE	1856		CTRL $8, #$56
32B0	8503		LBI R5, #$03
32B2	0102		INC R1, R0
32B4	3CFE		MOVE $1FC, R12
32B6	B320		SET R3, #$20
32B8	0673		INC2 R6, R7
32BA	1001		CTRL $0, #$01
32BC	F11A		SUB R1, #$1B
32BE	BDFE		SET R13, #$FE
32C0	F01C		BRA $32A5		; -> -$1D(R0)

32C2	6BFE		MOVB R11, (R15)
32C4	7310		MOVB (R1)+, R3
32C6	07BC		MHL R7, R11
32C8	7A00		MOVB (R0)+, R10
32CA	B320		SET R3, #$20
32CC	01FE		GETB R15, $1
32CE	DCFF		MOVE R12, (R15)
32D0	001C		MHL R0, R1
32D2	6BF1		MOVB R11, (R15)++
32D4	0BF2		INC R11, R15
32D6	F019		BRA $32BE		; -> -$1A(R0)

32D8	67FE		MOVB R7, (R15)
32DA	3720		MOVE $40, R7
32DC	0EDB		ADDH2 R14, R13
32DE	BC7A		SET R12, #$7A
32E0	00B3		INC2 R0, R11
32E2	2001		JMP ($0002)

32E4	7310		MOVB (R1)+, R3
32E6	06FB		ADDH2 R6, R15
32E8	7010		MOVB (R1)+, R0
32EA	300A		MOVE $14, R0
32EC	00FF		GETA R15, $0
32EE	FB40		SUB R11, #$41
32F0	10FB		CTRL $0, #$FB
32F2	1070		CTRL $0, #$70
32F4	F940		SUB R9, #$41
32F6	7033		MOVB (R3)++++, R0
32F8	6000		MOVB R0, (R0)+
32FA	E1FA		
32FC	4060		PUTB $0, (R6)+
32FE	0019		SUB R0, R1
3300	86FE		LBI R6, #$FE
3302	9440		CLR R4, #$40
3304	0000		HALT
3306	F820		SUB R8, #$21
3308	40F0		PUTB $0, (R15)+
330A	1C6B		CTRL $C, #$6B
330C	FB40		SUB R11, #$41
330E	60F0		MOVB R0, (R15)+
3310	1981		CTRL $9, #$81
3312	DDFF		MOVE R13, (R15)
3314	0019		SUB R0, R1
3316	9185		CLR R1, #$85
3318	0500		DEC2 R5, R0
331A	02BD		MLH R2, R11
331C	B320		SET R3, #$20
331E	06F0		DEC2 R6, R15
3320	1C6B		CTRL $C, #$6B
3322	8503		LBI R5, #$03
3324	0002		INC R0, R0
3326	3CFE		MOVE $1FC, R12
3328	B320		SET R3, #$20
332A	05F1		DEC R5, R15
332C	1ABD		CTRL $A, #$BD
332E	F01C		BRA $3313		; -> -$1D(R0)

3330	6BFE		MOVB R11, (R15)
3332	3300		MOVE $00, R3
3334	0003		INC2 R0, R0
3336	4000		PUTB $0, (R0)+
3338	0001		DEC R0, R0
333A	E1FE		
333C	2018		JMP ($0030)

333E	56F0		MOVE (R15)', R6
3340	1967		CTRL $9, #$67
3342	BCC6		SET R12, #$C6
3344	00BC		MHL R0, R11
3346	D501 9C00	LWI R5, #$9C00
334A	0200		DEC2 R2, R0
334C	B320		SET R3, #$20
334E	0373		INC2 R3, R7
3350	1001		CTRL $0, #$01
3352	DD5B		MOVE R13, (R5)
3354	0019		SUB R0, R1
3356	B2BC		SET R2, #$BC
3358	5B00		MOVE (R0)', R11
335A	B320		SET R3, #$20
335C	0173		INC2 R1, R7
335E	100B		CTRL $0, #$0B
3360	F019		BRA $3348		; -> -$1A(R0)

3362	B4FE		SET R4, #$FE
3364	7310		MOVB (R1)+, R3
3366	0BFE		GETB R15, $B
3368	3C00		MOVE $00, R12
336A	0F6D		MLH R15, R6
336C	DCFF		MOVE R12, (R15)
336E	0019		SUB R0, R1
3370	DFDC		MOVE R15, (R13)
3372	FE00		SUB R14, #$01
3374	19DA		CTRL $9, #$DA
3376	CC00		SLE R12, R0
3378	0F6D		MLH R15, R6
337A	19CD		CTRL $9, #$CD
337C	BC6B		SET R12, #$6B
337E	00FE		GETB R15, $0
3380	9C00		CLR R12, #$00
3382	0100		DEC2 R1, R0
3384	B320		SET R3, #$20
3386	02DC		MHL R2, R13
3388	4001		PUTB $0, (R0)++
338A	19CA		CTRL $9, #$CA
338C	9C00		CLR R12, #$00
338E	0001		DEC R0, R0
3390	B320		SET R3, #$20
3392	01FE		GETB R15, $1
3394	7310		MOVB (R1)+, R3
3396	02F0		DEC2 R2, R15
3398	19B6		CTRL $9, #$B6
339A	3E01		MOVE $02, R14
339C	0F6D		MLH R15, R6
339E	BC4D		SET R12, #$4D
33A0	00F0		DEC2 R0, R15
33A2	19C0		CTRL $9, #$C0
33A4	BC5D		SET R12, #$5D
33A6	00B3		INC2 R0, R11
33A8	2001		JMP ($0002)

33AA	BC7E		SET R12, #$7E
33AC	00F1		DEC R0, R15
33AE	0BF0		DEC2 R11, R15
33B0	F018		BRA $3399		; -> -$19(R0)

33B2	56FE		MOVE (R15), R6
33B4	CC01		SLT R12, R0
33B6	0F6D		MLH R15, R6
33B8	19D2		CTRL $9, #$D2
33BA	F019		BRA $33A2		; -> -$1A(R0)

33BC	D5FE		MOVE R5, (R15)
33BE	CD01		SLT R13, R0
33C0	0F6D		MLH R15, R6
33C2	1C6B		CTRL $C, #$6B
33C4	BC5D		SET R12, #$5D
33C6	00B3		INC2 R0, R11
33C8	2001		JMP ($0002)

33CA	F01C		BRA $33AF		; -> -$1D(R0)

33CC	6BFE		MOVB R11, (R15)
33CE	DC5B		MOVE R12, (R5)
33D0	0119		SUB R1, R1
33D2	EDF1		
33D4	1BE9		CTRL $B, #$E9
33D6	F019		BRA $33BE		; -> -$1A(R0)

33D8	F1FE		SUB R1, #$FF
33DA	DCF1		MOVE R12, (R15)+
33DC	0019		SUB R0, R1
33DE	F9F1		SUB R9, #$F2
33E0	0BEE		GETB R14, $B
33E2	DCFF		MOVE R12, (R15)
33E4	001C		MHL R0, R1
33E6	6BFE		MOVB R11, (R15)
33E8	BC6B		SET R12, #$6B
33EA	00B3		INC2 R0, R11
33EC	2001		JMP ($0002)

33EE	F018		BRA $33D7		; -> -$19(R0)

33F0	56FE		MOVE (R15), R6
33F2	BC7D		SET R12, #$7D
33F4	0085		AND R0, R8
33F6	0201		DEC R2, R0
33F8	02BD		MLH R2, R11
33FA	BC7D		SET R12, #$7D
33FC	04B3		INC2 R4, R11
33FE	2005		JMP ($000A)

3400	7310		MOVB (R1)+, R3
3402	02F0		DEC2 R2, R15
3404	19F4		CTRL $9, #$F4
3406	F11A		SUB R1, #$1B
3408	5BFE		MOVE (R15), R11
340A	3310		MOVE $20, R3
340C	0FFF		GETA R15, $F
340E	F01A		BRA $33F5		; -> -$1B(R0)

3410	54FE		MOVE (R15), R4
3412	F11A		SUB R1, #$1B
3414	5BFE		MOVE (R15), R11
3416	F01A		BRA $33FD		; -> -$1B(R0)

3418	3CFE		MOVE $1FC, R12
341A	1C01		CTRL $C, #$01
341C	0FE8		ADD R15, R14
341E	0073		INC2 R0, R7
3420	1002		CTRL $0, #$02
3422	F11A		SUB R1, #$1B
3424	5BFE		MOVE (R15), R11
3426	3840		MOVE $80, R8
3428	0FF5		AND R15, R15
342A	1A22		CTRL $A, #$22
342C	DDF0		MOVE R13, (R15)'
342E	001A		ADDH R0, R1
3430	209C		JMP ($0138)

3432	0000		HALT
3434	01BC		MHL R1, R11
3436	5B01		MOVE (R0)+, R11
3438	F10B		SUB R1, #$0C
343A	ECFE		
343C	F01A		BRA $3423		; -> -$1B(R0)

343E	22FE		MOVE R2, $1FC
3440	F11A		SUB R1, #$1B
3442	BDFE		SET R13, #$FE
3444	FB30		SUB R11, #$31
3446	1033		CTRL $0, #$33
3448	100F		CTRL $0, #$0F
344A	E8DC		
344C	FD01		SUB R13, #$02
344E	1A30		CTRL $A, #$30
3450	3840		MOVE $80, R8
3452	0FF5		AND R15, R15
3454	1A2E		CTRL $A, #$2E
3456	BC6B		SET R12, #$6B
3458	00B3		INC2 R0, R11
345A	2001		JMP ($0002)

345C	F11A		SUB R1, #$1B
345E	D5FE		MOVE R5, (R15)
3460	FB10		SUB R11, #$11
3462	3039		MOVE $72, R0
3464	040F		GETA R0, $4
3466	EA1A		
3468	3AFE		MOVE $1FC, R10
346A	39C0		MOVE $180, R9
346C	0FEB		ADDH2 R15, R14
346E	1A3A		CTRL $A, #$3A
3470	F01A		BRA $3457		; -> -$1B(R0)

3472	3CFE		MOVE $1FC, R12
3474	F11A		SUB R1, #$1B
3476	FFFE		SUB R15, #$FF
3478	DCFF		MOVE R12, (R15)
347A	001A		ADDH R0, R1
347C	52CC		MOVE (R12), R2
347E	000F		GETA R0, $0
3480	F21A		SUB R2, #$1B
3482	4ECC		PUTB $E, (R12)
3484	010F		GETA R0, $1
3486	F21A		SUB R2, #$1B
3488	4ECC		PUTB $E, (R12)
348A	1D0F		CTRL $D, #$0F
348C	F21A		SUB R2, #$1B
348E	4ECC		PUTB $E, (R12)
3490	1E0F		CTRL $E, #$0F
3492	F21A		SUB R2, #$1B
3494	4EBC		PUTB $E, (R11)
3496	6B00		MOVB R11, (R0)+
3498	B320		SET R3, #$20
349A	01FE		GETB R15, $1
349C	3A40		MOVE $80, R10
349E	0FDA		ADDH R15, R13
34A0	F018		BRA $3489		; -> -$19(R0)

34A2	56FE		MOVE (R15), R6
34A4	3310		MOVE $20, R3
34A6	0FFE		GETB R15, $F
34A8	3550		MOVE $A0, R5
34AA	0FF0		DEC2 R15, R15
34AC	9450		CLR R4, #$50
34AE	0000		HALT
34B0	F820		SUB R8, #$21
34B2	50F0		MOVE (R15)', R0
34B4	1C6E		CTRL $C, #$6E
34B6	FB70		SUB R11, #$71
34B8	80FB		LBI R0, #$FB
34BA	6020		MOVB R0, (R2)+
34BC	3320		MOVE $40, R3
34BE	0FFE		GETB R15, $F
34C0	093F		GETA R3, $9
34C2	0FFE		GETB R15, $F
34C4	0040		DEC2 R0, R4
34C6	1C01		CTRL $C, #$01
34C8	0FEA		ADDH R15, R14
34CA	0073		INC2 R0, R7
34CC	1002		CTRL $0, #$02
34CE	3904		MOVE $08, R9
34D0	0FEA		ADDH R15, R14
34D2	1A6F		CTRL $A, #$6F
34D4	39C0		MOVE $180, R9
34D6	0FEB		ADDH2 R15, R14
34D8	1A6F		CTRL $A, #$6F
34DA	F01A		BRA $34C1		; -> -$1B(R0)

34DC	73FE		MOVB (R15), R3
34DE	1C02		CTRL $C, #$02
34E0	0FED		MLH R15, R14
34E2	0073		INC2 R0, R7
34E4	1003		CTRL $0, #$03
34E6	3880		MOVE $100, R8
34E8	0FEA		ADDH R15, R14
34EA	1A7E		CTRL $A, #$7E
34EC	8504		LBI R5, #$04
34EE	0002		INC R0, R0
34F0	C0FE		SNBC R0, R15
34F2	B320		SET R3, #$20
34F4	06F1		DEC R6, R15
34F6	1ABD		CTRL $A, #$BD
34F8	F01A		BRA $34DF		; -> -$1B(R0)

34FA	B4FE		SET R4, #$FE
34FC	3840		MOVE $80, R8
34FE	0FEA		ADDH R15, R14
3500	1A87		CTRL $A, #$87
3502	8503		LBI R5, #$03
3504	0002		INC R0, R0
3506	ABFE		ADD R11, #$FF
3508	B320		SET R3, #$20
350A	05F1		DEC R5, R15
350C	1ABD		CTRL $A, #$BD
350E	3820		MOVE $40, R8
3510	0FEA		ADDH R15, R14
3512	1A90		CTRL $A, #$90
3514	8505		LBI R5, #$05
3516	0002		INC R0, R0
3518	B8FE		SET R8, #$FE
351A	B320		SET R3, #$20
351C	07F1		DEC R7, R15
351E	1ABD		CTRL $A, #$BD
3520	3810		MOVE $20, R8
3522	0FEA		ADDH R15, R14
3524	1A99		CTRL $A, #$99
3526	8504		LBI R5, #$04
3528	0002		INC R0, R0
352A	B5FE		SET R5, #$FE
352C	B320		SET R3, #$20
352E	06F1		DEC R6, R15
3530	1ABD		CTRL $A, #$BD
3532	3808		MOVE $10, R8
3534	0FEA		ADDH R15, R14
3536	1AA2		CTRL $A, #$A2
3538	8505		LBI R5, #$05
353A	0002		INC R0, R0
353C	C5FE		SNBC R5, R15
353E	B320		SET R3, #$20
3540	07F1		DEC R7, R15
3542	1ABD		CTRL $A, #$BD
3544	3802		MOVE $04, R8
3546	0FEA		ADDH R15, R14
3548	1AAB		CTRL $A, #$AB
354A	8505		LBI R5, #$05
354C	0002		INC R0, R0
354E	C8FE		SNBC R8, R15
3550	B320		SET R3, #$20
3552	07F1		DEC R7, R15
3554	1ABD		CTRL $A, #$BD
3556	3801		MOVE $02, R8
3558	0FEA		ADDH R15, R14
355A	1AB4		CTRL $A, #$B4
355C	8506		LBI R5, #$06
355E	0002		INC R0, R0
3560	CBFE		SNBC R11, R15
3562	B320		SET R3, #$20
3564	08F1		DEC R8, R15
3566	1ABD		CTRL $A, #$BD
3568	3350		MOVE $A0, R3
356A	0FFE		GETB R15, $F
356C	F920		SUB R9, #$21
356E	5034		MOVE (R3)~, R0
3570	200F		JMP ($001E)

3572	F0FB		BRA $3478		; -> -$FC(R0)

3574	2060		JMP ($00C0)

3576	FC70		SUB R12, #$71
3578	00FE		GETB R15, $0
357A	FB30		SUB R11, #$31
357C	101B		CTRL $0, #$1B
357E	030F		GETA R0, $3
3580	DB00		MOVE R11, (R0)'
3582	3310		MOVE $20, R3
3584	0FDB		ADDH2 R15, R13
3586	3340		MOVE $80, R3
3588	0004		NOP
358A	DDF0		MOVE R13, (R15)'
358C	001A		ADDH R0, R1
358E	CD37		SBSH R13, R3
3590	400E		PUTB $0, (R0)
3592	DB73		MOVE R11, (R7)++
3594	1001		CTRL $0, #$01
3596	F01A		BRA $357D		; -> -$1B(R0)

3598	C5FE		SNBC R5, R15
359A	9440		CLR R4, #$40
359C	0000		HALT
359E	F820		SUB R8, #$21
35A0	40FB		PUTB $0, (R15)
35A2	1030		CTRL $0, #$30
35A4	7310		MOVB (R1)+, R3
35A6	02FC		MHL R2, R15
35A8	8000		LBI R0, #$00
35AA	8501		LBI R5, #$01
35AC	0002		INC R0, R0
35AE	D8FE		MOVE R8, (R15)
35B0	DCFC		MOVE R12, (R15)
35B2	011A		ADDH R1, R1
35B4	E9DC		
35B6	FE01		SUB R14, #$02
35B8	1AEC		CTRL $A, #$EC
35BA	1C01		CTRL $C, #$01
35BC	0FDB		ADDH2 R15, R13
35BE	0002		INC R0, R0
35C0	100F		CTRL $0, #$0F
35C2	DB00		MOVE R11, (R0)'
35C4	003E		GETB R3, $0
35C6	F00F		BRA $35B8		; -> -$10(R0)

35C8	DC8C		MOVE R12, (R8)
35CA	0002		INC R0, R0
35CC	0FDC		MHL R15, R13
35CE	F01A		BRA $35B5		; -> -$1B(R0)

35D0	EEFE		
35D2	BCE2		SET R12, #$E2
35D4	02F0		DEC2 R2, R15
35D6	1AEE		CTRL $A, #$EE
35D8	BCD7		SET R12, #$D7
35DA	02FE		GETB R15, $2
35DC	B320		SET R3, #$20
35DE	03CC		MHL R3, R12
35E0	000F		GETA R0, $0
35E2	F21A		SUB R2, #$1B
35E4	F6CD		SUB R6, #$CE
35E6	010F		GETA R0, $1
35E8	F21A		SUB R2, #$1B
35EA	FDFE		SUB R13, #$FF
35EC	FB10		SUB R11, #$11
35EE	30DC		MOVE $1B8, R0
35F0	FF00		SUB R15, #$01
35F2	1AFD		CTRL $A, #$FD
35F4	BC6B		SET R12, #$6B
35F6	00B3		INC2 R0, R11
35F8	2001		JMP ($0002)

35FA	FC80		SUB R12, #$81
35FC	00FE		GETB R15, $0
35FE	BC6B		SET R12, #$6B
3600	00FB		ADDH2 R0, R15
3602	7080		MOVB (R8)+, R0
3604	3904		MOVE $08, R9
3606	0FEA		ADDH R15, R14
3608	1B1C		CTRL $B, #$1C
360A	8502		LBI R5, #$02
360C	0102		INC R1, R0
360E	00FE		GETB R15, $0
3610	B320		SET R3, #$20
3612	0439		SUB R4, R3
3614	800F		LBI R0, #$0F
3616	EB1B		
3618	12FE		CTRL $2, #$FE
361A	BCAE		SET R12, #$AE
361C	00FE		GETB R15, $0
361E	B320		SET R3, #$20
3620	01F0		DEC2 R1, R15
3622	1B21		CTRL $B, #$21
3624	BC7E		SET R12, #$7E
3626	00F0		DEC2 R0, R15
3628	1B0F		CTRL $B, #$0F
362A	B320		SET R3, #$20
362C	01FE		GETB R15, $1
362E	FB70		SUB R11, #$71
3630	80F0		LBI R0, #$F0
3632	1B21		CTRL $B, #$21
3634	FB70		SUB R11, #$71
3636	80FE		LBI R0, #$FE
3638	8503		LBI R5, #$03
363A	0102		INC R1, R0
363C	C3FE		SNBC R3, R15
363E	B320		SET R3, #$20
3640	05FE		GETB R15, $5
3642	38F0		MOVE $1E0, R8
3644	0FED		MLH R15, R14
3646	1B31		CTRL $B, #$31
3648	8C00		LBI R12, #$00
364A	000F		GETA R0, $0
364C	EEB3		
364E	2001		JMP ($0002)

3650	CC40		SLE R12, R4
3652	0FEF		GETA R14, $F
3654	1B44		CTRL $B, #$44
3656	8C00		LBI R12, #$00
3658	000F		GETA R0, $0
365A	EFB3		
365C	2001		JMP ($0002)

365E	F01B		BRA $3644		; -> -$1C(R0)

3660	44FE		PUTB $4, (R15)
3662	8B05		LBI R11, #$05
3664	000F		GETA R0, $0
3666	ED33		
3668	3000		MOVE $00, R0
366A	06FE		GETB R15, $6
366C	EDF0		
366E	001B		ADDH2 R0, R1
3670	4037		PUTB $0, (R3)----
3672	300E		MOVE $1C, R0
3674	DBAC		MOVE R11, (R10)
3676	0500		DEC2 R5, R0
3678	01C4		MOVE R1, R12
367A	300E		MOVE $1C, R0
367C	DB28		MOVE R11, (R2)
367E	1B36		CTRL $B, #$36
3680	F820		SUB R8, #$21
3682	3089		MOVE $112, R0
3684	0400		DEC2 R4, R0
3686	0040		DEC2 R0, R4
3688	FC70		SUB R12, #$71
368A	00FE		GETB R15, $0
368C	FB70		SUB R11, #$71
368E	80F0		LBI R0, #$F0
3690	1B12		CTRL $B, #$12
3692	FB70		SUB R11, #$71
3694	80F0		LBI R0, #$F0
3696	1B0D		CTRL $B, #$0D
3698	8503		LBI R5, #$03
369A	0002		INC R0, R0
369C	A7FE		ADD R7, #$FF
369E	B320		SET R3, #$20
36A0	05FE		GETB R15, $5
36A2	F11A		SUB R1, #$1B
36A4	D5FE		MOVE R5, (R15)
36A6	BC6B		SET R12, #$6B
36A8	00B3		INC2 R0, R11
36AA	2001		JMP ($0002)

36AC	7310		MOVB (R1)+, R3
36AE	02F1		DEC R2, R15
36B0	1A5B		CTRL $A, #$5B
36B2	1C00		CTRL $C, #$00
36B4	0FEC		MHL R15, R14
36B6	0073		INC2 R0, R7
36B8	1001		CTRL $0, #$01
36BA	3820		MOVE $40, R8
36BC	0FEC		MHL R15, R14
36BE	1B6E		CTRL $B, #$6E
36C0	F11B		SUB R1, #$1C
36C2	E9FE		
36C4	F01B		BRA $36AA		; -> -$1C(R0)

36C6	75FE		MOVB (R15), R5
36C8	BC7D		SET R12, #$7D
36CA	0085		AND R0, R8
36CC	0201		DEC R2, R0
36CE	02BD		MLH R2, R11
36D0	BC7D		SET R12, #$7D
36D2	04B3		INC2 R4, R11
36D4	2005		JMP ($000A)

36D6	7310		MOVB (R1)+, R3
36D8	02F0		DEC2 R2, R15
36DA	1B75		CTRL $B, #$75
36DC	DDF1		MOVE R13, (R15)+
36DE	001B		ADDH2 R0, R1
36E0	73DC		MOVB (R13), R3
36E2	5B01		MOVE (R0)+, R11
36E4	1B64		CTRL $B, #$64
36E6	F11B		SUB R1, #$1C
36E8	DCFE		MOVE R12, (R15)
36EA	3810		MOVE $20, R8
36EC	0FEC		MHL R15, R14
36EE	1B86		CTRL $B, #$86
36F0	BC6B		SET R12, #$6B
36F2	00B3		INC2 R0, R11
36F4	2001		JMP ($0002)

36F6	DC00		MOVE R12, (R0)'
36F8	001B		ADDH2 R0, R1
36FA	8373		LBI R3, #$73
36FC	1001		CTRL $0, #$01
36FE	F11B		SUB R1, #$1C
3700	DCFE		MOVE R12, (R15)
3702	F01B		BRA $36E8		; -> -$1C(R0)

3704	86FE		LBI R6, #$FE
3706	7310		MOVB (R1)+, R3
3708	01F1		DEC R1, R15
370A	1ABD		CTRL $A, #$BD
370C	3808		MOVE $10, R8
370E	0FEC		MHL R15, R14
3710	1BA4		CTRL $B, #$A4
3712	BC6B		SET R12, #$6B
3714	00B3		INC2 R0, R11
3716	2001		JMP ($0002)

3718	DC7D		MOVE R12, (R7)
371A	001B		ADDH2 R0, R1
371C	92F1		CLR R2, #$F1
371E	1BDC		CTRL $B, #$DC
3720	F01B		BRA $3706		; -> -$1C(R0)

3722	A4FE		ADD R4, #$FF
3724	9C11		CLR R12, #$11
3726	0000		HALT
3728	BC7D		SET R12, #$7D
372A	12B3		CTRL $2, #$B3
372C	2011		JMP ($0022)

372E	7310		MOVB (R1)+, R3
3730	12FE		CTRL $2, #$FE
3732	ED40		
3734	001B		ADDH2 R0, R1
3736	A237		ADD R2, #$38
3738	200E		JMP ($001C)

373A	DBBC		MOVE R11, (R11)
373C	7D01		MOVB (R0)++, R13
373E	BC40		SET R12, #$40
3740	02F0		DEC2 R2, R15
3742	1B99		CTRL $B, #$99
3744	B320		SET R3, #$20
3746	02FE		GETB R15, $2
3748	3940		MOVE $80, R9
374A	0FEC		MHL R15, R14
374C	1BAD		CTRL $B, #$AD
374E	8502		LBI R5, #$02
3750	0003		INC2 R0, R0
3752	0EFE		GETB R15, $E
3754	B320		SET R3, #$20
3756	03F0		DEC2 R3, R15
3758	1BBA		CTRL $B, #$BA
375A	3980		MOVE $100, R9
375C	0FEC		MHL R15, R14
375E	1BB5		CTRL $B, #$B5
3760	8503		LBI R5, #$03
3762	0003		INC2 R0, R0
3764	03FE		GETB R15, $3
3766	F01B		BRA $374C		; -> -$1C(R0)

3768	B8FE		SET R8, #$FE
376A	8503		LBI R5, #$03
376C	0002		INC R0, R0
376E	A9FE		ADD R9, #$FF
3770	B320		SET R3, #$20
3772	04FE		GETB R15, $4
3774	3804		MOVE $08, R8
3776	0FEA		ADDH R15, R14
3778	1BC3		CTRL $B, #$C3
377A	8505		LBI R5, #$05
377C	0003		INC2 R0, R0
377E	05FE		GETB R15, $5
3780	B320		SET R3, #$20
3782	06F1		DEC R6, R15
3784	1B17		CTRL $B, #$17
3786	3804		MOVE $08, R8
3788	0FEC		MHL R15, R14
378A	1BCB		CTRL $B, #$CB
378C	8507		LBI R5, #$07
378E	0003		INC2 R0, R0
3790	08FE		GETB R15, $8
3792	B320		SET R3, #$20
3794	08FE		GETB R15, $8
3796	3802		MOVE $04, R8
3798	0FEC		MHL R15, R14
379A	1BFA		CTRL $B, #$FA
379C	8503		LBI R5, #$03
379E	0003		INC2 R0, R0
37A0	0CFE		GETB R15, $C
37A2	B320		SET R3, #$20
37A4	04FE		GETB R15, $4
37A6	3310		MOVE $20, R3
37A8	0FFE		GETB R15, $F
37AA	3550		MOVE $A0, R5
37AC	0FF0		DEC2 R15, R15
37AE	9450		CLR R4, #$50
37B0	0000		HALT
37B2	F820		SUB R8, #$21
37B4	50F0		MOVE (R15)', R0
37B6	1C6E		CTRL $C, #$6E
37B8	9C00		CLR R12, #$00
37BA	0000		HALT
37BC	B320		SET R3, #$20
37BE	01DC		MHL R1, R13
37C0	4001		PUTB $0, (R0)++
37C2	1BE6		CTRL $B, #$E6
37C4	9C00		CLR R12, #$00
37C6	0001		DEC R0, R0
37C8	B320		SET R3, #$20
37CA	01FE		GETB R15, $1
37CC	7310		MOVB (R1)+, R3
37CE	02FC		MHL R2, R15
37D0	8000		LBI R0, #$00
37D2	BC7D		SET R12, #$7D
37D4	009C		MHL R0, R9
37D6	0001		DEC R0, R0
37D8	00BE		GETB R11, $0
37DA	F001		BRA $37DA		; -> -$02(R0)

37DC	E9F9		
37DE	011B		ADDH2 R1, R1
37E0	F2BF		SUB R2, #$C0
37E2	3901		MOVE $02, R9
37E4	9B01		CLR R11, #$01
37E6	0201		DEC R2, R0
37E8	BC7D		SET R12, #$7D
37EA	04B3		INC2 R4, R11
37EC	2005		JMP ($000A)

37EE	7310		MOVB (R1)+, R3
37F0	02FC		MHL R2, R15
37F2	8000		LBI R0, #$00
37F4	3808		MOVE $10, R8
37F6	0FEB		ADDH2 R15, R14
37F8	1BD3		CTRL $B, #$D3
37FA	8503		LBI R5, #$03
37FC	0002		INC R0, R0
37FE	CFFE		SNBC R15, R15
3800	B320		SET R3, #$20
3802	0438		ADD R4, R3
3804	040F		GETA R0, $4
3806	EB1C		
3808	0FFE		GETB R15, $F
380A	8503		LBI R5, #$03
380C	0002		INC R0, R0
380E	D1FE		MOVE R1, (R15)
3810	B320		SET R3, #$20
3812	041C		MHL R4, R1
3814	020F		GETA R0, $2
3816	ED00		
3818	7310		MOVB (R1)+, R3
381A	03F1		DEC R3, R15
381C	1B17		CTRL $B, #$17
381E	3802		MOVE $04, R8
3820	0FEB		ADDH2 R15, R14
3822	1C1C		CTRL $C, #$1C
3824	8503		LBI R5, #$03
3826	0002		INC R0, R0
3828	D3FE		MOVE R3, (R15)
382A	B320		SET R3, #$20
382C	041C		MHL R4, R1
382E	020F		GETA R0, $2
3830	ED00		
3832	7310		MOVB (R1)+, R3
3834	03F1		DEC R3, R15
3836	1B17		CTRL $B, #$17
3838	3801		MOVE $02, R8
383A	0FEB		ADDH2 R15, R14
383C	1BD3		CTRL $B, #$D3
383E	8503		LBI R5, #$03
3840	0002		INC R0, R0
3842	D5FE		MOVE R5, (R15)
3844	B320		SET R3, #$20
3846	041C		MHL R4, R1
3848	020F		GETA R0, $2
384A	ED00		
384C	7310		MOVB (R1)+, R3
384E	03F1		DEC R3, R15
3850	1B17		CTRL $B, #$17
3852	F01B		BRA $3838		; -> -$1C(R0)

3854	D3FE		MOVE R3, (R15)
3856	8503		LBI R5, #$03
3858	0002		INC R0, R0
385A	A7FE		ADD R7, #$FF
385C	B320		SET R3, #$20
385E	05FE		GETB R15, $5
3860	F11A		SUB R1, #$1B
3862	5BFE		MOVE (R15), R11
3864	F11A		SUB R1, #$1B
3866	D5FE		MOVE R5, (R15)
3868	DC80		MOVE R12, (R8)'
386A	001C		MHL R0, R1
386C	47DC		PUTB $7, (R13)
386E	4000		PUTB $0, (R0)+
3870	1C4D		CTRL $C, #$4D
3872	DC20		MOVE R12, (R2)'
3874	001C		MHL R0, R1
3876	56DC		MOVE (R13), R6
3878	1000		CTRL $0, #$00
387A	1C56		CTRL $C, #$56
387C	7310		MOVB (R1)+, R3
387E	02DC		MHL R2, R13
3880	FF00		SUB R15, #$01
3882	1A52		CTRL $A, #$52
3884	BC6B		SET R12, #$6B
3886	00B3		INC2 R0, R11
3888	2001		JMP ($0002)

388A	F01C		BRA $386F		; -> -$1D(R0)

388C	32FE		MOVE $1FC, R2
388E	8502		LBI R5, #$02
3890	0102		INC R1, R0
3892	5BFE		MOVE (R15), R11
3894	B320		SET R3, #$20
3896	04F0		DEC2 R4, R15
3898	1C3E		CTRL $C, #$3E
389A	1C02		CTRL $C, #$02
389C	0FED		MLH R15, R14
389E	02BC		MHL R2, R11
38A0	6B00		MOVB R11, (R0)+
38A2	7310		MOVB (R1)+, R3
38A4	03F1		DEC R3, R15
38A6	1B1A		CTRL $B, #$1A
38A8	F01C		BRA $388D		; -> -$1D(R0)

38AA	3EFE		MOVE $1FC, R14
38AC	1C02		CTRL $C, #$02
38AE	0FED		MLH R15, R14
38B0	02BC		MHL R2, R11
38B2	6B00		MOVB R11, (R0)+
38B4	8502		LBI R5, #$02
38B6	0102		INC R1, R0
38B8	00FE		GETB R15, $0
38BA	B320		SET R3, #$20
38BC	04DC		MHL R4, R13
38BE	2000		JMP ($0000)

38C0	1C66		CTRL $C, #$66
38C2	7310		MOVB (R1)+, R3
38C4	03F1		DEC R3, R15
38C6	1B49		CTRL $B, #$49
38C8	F01C		BRA $38AD		; -> -$1D(R0)

38CA	3EFE		MOVE $1FC, R14
38CC	7310		MOVB (R1)+, R3
38CE	03F1		DEC R3, R15
38D0	1B46		CTRL $B, #$46
38D2	F01C		BRA $38B7		; -> -$1D(R0)

38D4	3EFE		MOVE $1FC, R14
38D6	3940		MOVE $80, R9
38D8	0FDA		ADDH R15, R13
38DA	1A52		CTRL $A, #$52
38DC	3310		MOVE $20, R3
38DE	10CE		CTRL $0, #$CE
38E0	F920		SUB R9, #$21
38E2	10FB		CTRL $0, #$FB
38E4	0020		DEC2 R0, R2
38E6	3510		MOVE $20, R5
38E8	0FD6		OR R15, R13
38EA	3520		MOVE $40, R5
38EC	0FD8		ADD R15, R13
38EE	FC20		SUB R12, #$21
38F0	00FE		GETB R15, $0
38F2	0963		INC2 R9, R6
38F4	0FD6		OR R15, R13
38F6	0000		HALT
38F8	3410		MOVE $20, R4
38FA	0FD6		OR R15, R13
38FC	3420		MOVE $40, R4
38FE	0FD8		ADD R15, R13
3900	3320		MOVE $40, R3
3902	10CE		CTRL $0, #$CE
3904	3902		MOVE $04, R9
3906	0B6D		MLH R11, R6
3908	1CB8		CTRL $C, #$B8
390A	8903		LBI R9, #$03
390C	0000		HALT
390E	00B3		INC2 R0, R11
3910	2004		JMP ($0008)

3912	DC2A		MOVE R12, (R2)
3914	061C		MHL R6, R1
3916	B4FE		SET R4, #$FE
3918	F153		SUB R1, #$54
391A	E4FE		
391C	FB50		SUB R11, #$51
391E	10FB		CTRL $0, #$FB
3920	6000		MOVB R0, (R0)+
3922	FB10		SUB R11, #$11
3924	0073		INC2 R0, R7
3926	1004		CTRL $0, #$04
3928	3300		MOVE $00, R3
392A	0004		NOP
392C	F950		SUB R9, #$51
392E	00FE		GETB R15, $0
3930	F950		SUB R9, #$51
3932	6033		MOVB R0, (R3)++++
3934	6001		MOVB R0, (R0)++
3936	4AFA		PUTB $A, (R15)
3938	5060		MOVE (R6)', R0
393A	001C		MHL R0, R1
393C	C3FE		SNBC R3, R15
393E	9450		CLR R4, #$50
3940	0000		HALT
3942	F820		SUB R8, #$21
3944	5033		MOVE (R3)++, R0
3946	1010		CTRL $0, #$10
3948	CEF9		SGE R14, R15
394A	2010		JMP ($0020)

394C	FB00		SUB R11, #$01
394E	20B3		JMP ($0166)

3950	2001		JMP ($0002)

3952	3902		MOVE $04, R9
3954	0B6D		MLH R11, R6
3956	1CAE		CTRL $C, #$AE
3958	3420		MOVE $40, R4
395A	10CE		CTRL $0, #$CE
395C	3510		MOVE $20, R5
395E	0FD6		OR R15, R13
3960	3520		MOVE $40, R5
3962	0FD8		ADD R15, R13
3964	FC20		SUB R12, #$21
3966	00FE		GETB R15, $0
3968	4901		PUTB $9, (R0)++
396A	1B00		CTRL $B, #$00
396C	00F0		DEC2 R0, R15
396E	1C8C		CTRL $C, #$8C
3970	7570		MOVB (R7)+, R5
3972	0473		INC2 R4, R7
3974	1006		CTRL $0, #$06
3976	FB60		SUB R11, #$61
3978	1030		CTRL $0, #$30
397A	0A00		DEC2 R10, R0
397C	FFFB		SUB R15, #$FC
397E	5010		MOVE (R1)', R0
3980	FB10		SUB R11, #$11
3982	60F0		MOVB R0, (R15)+
3984	1C98		CTRL $C, #$98
3986	FB50		SUB R11, #$51
3988	60F0		MOVB R0, (R15)+
398A	1C9F		CTRL $C, #$9F
398C	FB40		SUB R11, #$41
398E	2033		JMP ($0066)

3990	2001		JMP ($0002)

3992	AD33		ADD R13, #$34
3994	5000		MOVE (R0)', R0
3996	02FE		GETB R15, $2
3998	6050		MOVB R0, (R5)+
399A	0002		INC R0, R0
399C	201C		JMP ($0038)

399E	D3B3		MOVE R3, (R11)++
39A0	2003		JMP ($0006)

39A2	F01C		BRA $3987		; -> -$1D(R0)

39A4	CCFE		SNBC R12, R15
39A6	FB60		SUB R11, #$61
39A8	10E6		CTRL $0, #$E6
39AA	1001		CTRL $0, #$01
39AC	1504		CTRL $5, #$04
39AE	0FC8		ADD R15, R12
39B0	00FE		GETB R15, $0
39B2	FB10		SUB R11, #$11
39B4	60E6		MOVB R0, (R14)---
39B6	5000		MOVE (R0)', R0
39B8	FB20		SUB R11, #$21
39BA	4084		PUTB $0, (R8)-
39BC	5000		MOVE (R0)', R0
39BE	0FC8		ADD R15, R12
39C0	F820		SUB R8, #$21
39C2	5073		MOVE (R7)++, R0
39C4	1002		CTRL $0, #$02
39C6	F018		BRA $39AF		; -> -$19(R0)

39C8	56FE		MOVE (R15), R6
39CA	FB40		SUB R11, #$41
39CC	2033		JMP ($0066)

39CE	5000		MOVE (R0)', R0
39D0	0240		DEC2 R2, R4
39D2	5000		MOVE (R0)', R0
39D4	01C7		XOR R1, R12
39D6	201D		JMP ($003A)

39D8	0333		INC2 R3, R3
39DA	2003		JMP ($0006)

39DC	22FE		MOVE R2, $1FC
39DE	6050		MOVB R0, (R5)+
39E0	0002		INC R0, R0
39E2	201C		JMP ($0038)

39E4	F6B3		SUB R6, #$B4
39E6	2003		JMP ($0006)

39E8	F01C		BRA $39CD		; -> -$1D(R0)

39EA	EFFE		
39EC	FB60		SUB R11, #$61
39EE	10FB		CTRL $0, #$FB
39F0	1020		CTRL $0, #$20
39F2	FB20		SUB R11, #$21
39F4	4095		PUTB $0, (R9)--
39F6	0200		DEC2 R2, R0
39F8	00FE		GETB R15, $0
39FA	FB10		SUB R11, #$11
39FC	60B3		MOVB R0, (R11)++++
39FE	2003		JMP ($0006)

3A00	7310		MOVB (R1)+, R3
3A02	02F0		DEC2 R2, R15
3A04	1856		CTRL $8, #$56
3A06	8503		LBI R5, #$03
3A08	0002		INC R0, R0
3A0A	EDFE		
3A0C	B320		SET R3, #$20
3A0E	04F0		DEC2 R4, R15
3A10	1D00		CTRL $D, #$00
3A12	7310		MOVB (R1)+, R3
3A14	01BC		MHL R1, R11
3A16	C600		SLE R6, R0
3A18	BCD5		SET R12, #$D5
3A1A	019C		MHL R1, R9
3A1C	0002		INC R0, R0
3A1E	00B3		INC2 R0, R11
3A20	2003		JMP ($0006)

3A22	7310		MOVB (R1)+, R3
3A24	01DC		MHL R1, R13
3A26	5B00		MOVE (R0)', R11
3A28	1D19		CTRL $D, #$19
3A2A	DC40		MOVE R12, (R4)'
3A2C	001D		MLH R0, R1
3A2E	1CF0		CTRL $C, #$F0
3A30	1856		CTRL $8, #$56
3A32	BC5B		SET R12, #$5B
3A34	00B3		INC2 R0, R11
3A36	2001		JMP ($0002)

3A38	7310		MOVB (R1)+, R3
3A3A	01F0		DEC2 R1, R15
3A3C	1856		CTRL $8, #$56
3A3E	BC7D		SET R12, #$7D
3A40	00F1		DEC R0, R15
3A42	0BF0		DEC2 R11, R15
3A44	7540		MOVB (R4)+, R5
3A46	0073		INC2 R0, R7
3A48	1001		CTRL $0, #$01
3A4A	F740		SUB R7, #$41
3A4C	07C0		DEC2 R7, R12
3A4E	811D		LBI R1, #$1D
3A50	36FE		MOVE $1FC, R6
3A52	9C00		CLR R12, #$00
3A54	0000		HALT
3A56	ED7D		
3A58	001D		MLH R0, R1
3A5A	3BBC		MOVE $178, R11
3A5C	7D01		MOVB (R0)++, R13
3A5E	B320		SET R3, #$20
3A60	0273		INC2 R2, R7
3A62	1001		CTRL $0, #$01
3A64	3740		MOVE $80, R7
3A66	0EDB		ADDH2 R14, R13
3A68	C001		SLT R0, R0
3A6A	1D29		CTRL $D, #$29
3A6C	BC7D		SET R12, #$7D
3A6E	00B3		INC2 R0, R11
3A70	2001		JMP ($0002)

3A72	F018		BRA $3A5B		; -> -$19(R0)

3A74	56FE		MOVE (R15), R6
3A76	F10B		SUB R1, #$0C
3A78	F0FE		BRA $397B		; -> -$FF(R0)

3A7A	F01D		BRA $3A5E		; -> -$1E(R0)

3A7C	32FE		MOVE $1FC, R2
3A7E	8501		LBI R5, #$01
3A80	0002		INC R0, R0
3A82	99FE		CLR R9, #$FE
3A84	B320		SET R3, #$20
3A86	0273		INC2 R2, R7
3A88	1001		CTRL $0, #$01
3A8A	F018		BRA $3A73		; -> -$19(R0)

3A8C	5600		MOVE (R0)', R6
3A8E	0282		INC R2, R8
3A90	0005		AND R0, R0
3A92	1A0D		CTRL $A, #$0D
3A94	0282		INC R2, R8
3A96	8005		LBI R0, #$05
3A98	1A0D		CTRL $A, #$0D
3A9A	0282		INC R2, R8
3A9C	4005		PUTB $0, (R0)--
3A9E	1A0D		CTRL $A, #$0D
3AA0	0282		INC R2, R8
3AA2	C005		SBS R0, R0
3AA4	1A0D		CTRL $A, #$0D
3AA6	0227		XOR R2, R2
3AA8	0008		ADD R0, R0
3AAA	1A0D		CTRL $A, #$0D
3AAC	0227		XOR R2, R2
3AAE	8008		LBI R0, #$08
3AB0	1A0D		CTRL $A, #$0D
3AB2	0227		XOR R2, R2
3AB4	4008		PUTB $0, (R0)
3AB6	1A0D		CTRL $A, #$0D
3AB8	0227		XOR R2, R2
3ABA	C008		SGT R0, R0
3ABC	1A0D		CTRL $A, #$0D
3ABE	0211		DEC R2, R1
3AC0	0009		SUB R0, R0
3AC2	1A0D		CTRL $A, #$0D
3AC4	0211		DEC R2, R1
3AC6	8009		LBI R0, #$09
3AC8	1A0D		CTRL $A, #$0D
3ACA	0211		DEC R2, R1
3ACC	4009		PUTB $0, (R0)
3ACE	1A0D		CTRL $A, #$0D
3AD0	0211		DEC R2, R1
3AD2	C009		SGE R0, R0
3AD4	1A0D		CTRL $A, #$0D
3AD6	021A		ADDH R2, R1
3AD8	000A		ADDH R0, R0
3ADA	1A0D		CTRL $A, #$0D
3ADC	021A		ADDH R2, R1
3ADE	800A		LBI R0, #$0A
3AE0	1A0D		CTRL $A, #$0D
3AE2	021A		ADDH R2, R1
3AE4	400A		PUTB $0, (R0)
3AE6	1A0D		CTRL $A, #$0D
3AE8	021A		ADDH R2, R1
3AEA	C00A		SNE R0, R0
3AEC	1A0D		CTRL $A, #$0D
3AEE	0220		DEC2 R2, R2
3AF0	000B		ADDH2 R0, R0
3AF2	1A0D		CTRL $A, #$0D
3AF4	0220		DEC2 R2, R2
3AF6	800B		LBI R0, #$0B
3AF8	1A0D		CTRL $A, #$0D
3AFA	0220		DEC2 R2, R2
3AFC	400B		PUTB $0, (R0)
3AFE	1A0D		CTRL $A, #$0D
3B00	0220		DEC2 R2, R2
3B02	C00B		SNZ R0
3B04	1A0D		CTRL $A, #$0D
3B06	026E		GETB R6, $2
3B08	0003		INC2 R0, R0
3B0A	1A0D		CTRL $A, #$0D
3B0C	026E		GETB R6, $2
3B0E	8003		LBI R0, #$03
3B10	1A0D		CTRL $A, #$0D
3B12	0278		ADD R2, R7
3B14	0003		INC2 R0, R0
3B16	1A0D		CTRL $A, #$0D
3B18	0278		ADD R2, R7
3B1A	8003		LBI R0, #$03
3B1C	1A0D		CTRL $A, #$0D
3B1E	026A		ADDH R2, R6
3B20	0005		AND R0, R0
3B22	1943		CTRL $9, #$43
3B24	026A		ADDH R2, R6
3B26	0005		AND R0, R0
3B28	193E		CTRL $9, #$3E
3B2A	0274		MOVE R2, R7
3B2C	0006		OR R0, R0
3B2E	1C2B		CTRL $C, #$2B
3B30	0266		OR R2, R6
3B32	0005		AND R0, R0
3B34	1C30		CTRL $C, #$30
3B36	0266		OR R2, R6
3B38	0005		AND R0, R0
3B3A	1C2B		CTRL $C, #$2B
3B3C	027B		ADDH2 R2, R7
3B3E	0005		AND R0, R0
3B40	1A09		CTRL $A, #$09
3B42	027B		ADDH2 R2, R7
3B44	8005		LBI R0, #$05
3B46	1A09		CTRL $A, #$09
3B48	020E		GETB R0, $2
3B4A	0004		NOP
3B4C	1A03		CTRL $A, #$03
3B4E	0271		DEC R2, R7
3B50	0004		NOP
3B52	1B51		CTRL $B, #$51
3B54	0271		DEC R2, R7
3B56	0004		NOP
3B58	1B4C		CTRL $B, #$4C
3B5A	0217		XOR R2, R1
3B5C	0004		NOP
3B5E	1856		CTRL $8, #$56
3B60	027F		GETA R7, $2
3B62	0004		NOP
3B64	1856		CTRL $8, #$56
3B66	027F		GETA R7, $2
3B68	8004		LBI R0, #$04
3B6A	1856		CTRL $8, #$56
3B6C	0237		XOR R2, R3
3B6E	0007		XOR R0, R0
3B70	1989		CTRL $9, #$89
3B72	0243		INC2 R2, R4
3B74	0006		OR R0, R0
3B76	1856		CTRL $8, #$56
3B78	0289		SUB R2, R8
3B7A	0005		AND R0, R0
3B7C	19E7		CTRL $9, #$E7
3B7E	0251		DEC R2, R5
3B80	0004		NOP
3B82	1967		CTRL $9, #$67
3B84	024B		ADDH2 R2, R4
3B86	0003		INC2 R0, R0
3B88	1915		CTRL $9, #$15
3B8A	024E		GETB R4, $2
3B8C	0004		NOP
3B8E	1950		CTRL $9, #$50
3B90	0247		XOR R2, R4
3B92	0005		AND R0, R0
3B94	1967		CTRL $9, #$67
3B96	0254		MOVE R2, R5
3B98	0005		AND R0, R0
3B9A	1967		CTRL $9, #$67
3B9C	0231		DEC R2, R3
3B9E	0003		INC2 R0, R0
3BA0	1856		CTRL $8, #$56
3BA2	022C		MHL R2, R2
3BA4	0002		INC R0, R0
3BA6	1955		CTRL $9, #$55
3BA8	0286		OR R2, R8
3BAA	0003		INC2 R0, R0
3BAC	1856		CTRL $8, #$56
3BAE	023C		MHL R2, R3
3BB0	0004		NOP
3BB2	1901		CTRL $9, #$01
3BB4	023F		GETA R3, $2
3BB6	0005		AND R0, R0
3BB8	1901		CTRL $9, #$01
3BBA	020B		ADDH2 R2, R0
3BBC	0003		INC2 R0, R0
3BBE	1856		CTRL $8, #$56
3BC0	0000		HALT
3BC2	0000		HALT
3BC4	0000		HALT
3BC6	0258		ADD R2, R5
3BC8	0004		NOP
3BCA	1999		CTRL $9, #$99
3BCC	025B		ADDH2 R2, R5
3BCE	0003		INC2 R0, R0
3BD0	1999		CTRL $9, #$99
3BD2	0291		DEC R2, R9
3BD4	0003		INC2 R0, R0
3BD6	1856		CTRL $8, #$56
3BD8	0294		MOVE R2, R9
3BDA	0003		INC2 R0, R0
3BDC	1856		CTRL $8, #$56
3BDE	025E		GETB R5, $2
3BE0	0003		INC2 R0, R0
3BE2	1967		CTRL $9, #$67
3BE4	0234		MOVE R2, R3
3BE6	0003		INC2 R0, R0
3BE8	1856		CTRL $8, #$56
3BEA	0000		HALT
3BEC	0000		HALT
3BEE	0000		HALT
3BF0	0261		DEC R2, R6
3BF2	0007		XOR R0, R0
3BF4	1967		CTRL $9, #$67
3BF6	022E		GETB R2, $2
3BF8	0003		INC2 R0, R0
3BFA	19A1		CTRL $9, #$A1
3BFC	FB70		SUB R11, #$71
3BFE	80F1		LBI R0, #$F1
3C00	23F6		MOVE R3, $1EC
3C02	3470		MOVE $E0, R4
3C04	0F32		INC R15, R3
3C06	3310		MOVE $20, R3
3C08	0F24		MOVE R15, R2
3C0A	4C01		PUTB $C, (R0)++
3C0C	140E		CTRL $4, #$0E
3C0E	DB0C		MOVE R11, (R0)
3C10	010D		MLH R1, R0
3C12	A90E		ADD R9, #$0F
3C14	DB5B		MOVE R11, (R5)
3C16	0F19		SUB R15, R1
3C18	00DC		MHL R0, R13
3C1A	F019		BRA $3C02		; -> -$1A(R0)

3C1C	1E33		CTRL $E, #$33
3C1E	7320		MOVB (R2)+, R3
3C20	2838		MOVE R8, $70
3C22	800E		LBI R0, #$0E
3C24	D61E		MOVE R6, (R1)
3C26	1CFE		CTRL $C, #$FE
3C28	CC08		SGT R12, R0
3C2A	0EBF		GETA R11, $E
3C2C	1E1C		CTRL $E, #$1C
3C2E	7320		MOVB (R2)+, R3
3C30	1FF0		CTRL $F, #$F0
3C32	1E1C		CTRL $E, #$1C
3C34	3720		MOVE $40, R7
3C36	0EDB		ADDH2 R14, R13
3C38	ECF0		
3C3A	001E		GETB R1, $0
3C3C	1A73		CTRL $A, #$73
3C3E	0018		ADD R0, R1
3C40	F920		SUB R9, #$21
3C42	0074		RET R7

3C44	2010		JMP ($0020)

3C46	7430		MOVB (R3)+, R4
3C48	14DB		CTRL $4, #$DB
3C4A	8015		LBI R0, #$15
3C4C	1E65		CTRL $E, #$65
3C4E	5D01		MOVE (R0)+, R13
3C50	1014		CTRL $0, #$14
3C52	001E		GETB R1, $0
3C54	3DD8		MOVE $1B0, R13
3C56	0F15		AND R15, R1
3C58	1E85		CTRL $E, #$85
3C5A	CC08		SGT R12, R0
3C5C	0EBF		GETA R11, $E
3C5E	1E33		CTRL $E, #$33
3C60	D807		MOVE R8, (R0)--
3C62	151E		CTRL $5, #$1E
3C64	85FE		LBI R5, #$FE
3C66	1E10		CTRL $E, #$10
3C68	0DA9		SUB R13, R10
3C6A	1473		CTRL $4, #$73
3C6C	0018		ADD R0, R1
3C6E	3400		MOVE $00, R4
3C70	0DA6		OR R13, R10
3C72	5C00		MOVE (R0)', R12
3C74	1808		CTRL $8, #$08
3C76	700E		MOVB (R0), R0
3C78	0AFE		GETB R15, $A
3C7A	5C01		MOVE (R0)+, R12
3C7C	1214		CTRL $2, #$14
3C7E	4E00		PUTB $E, (R0)+
3C80	130C		CTRL $3, #$0C
3C82	62F1		MOVB R2, (R15)++
3C84	1ED1		CTRL $E, #$D1
3C86	7320		MOVB (R2)+, R3
3C88	1734		CTRL $7, #$34
3C8A	200D		JMP ($001A)

3C8C	A675		ADD R6, #$76
3C8E	0014		RET R1

3C90	5400		MOVE (R0)', R4
3C92	1819		CTRL $8, #$19
3C94	F820		SUB R8, #$21
3C96	00BC		MHL R0, R11
3C98	4B01		PUTB $B, (R0)++
3C9A	5C00		MOVE (R0)', R12
3C9C	1708		CTRL $7, #$08
3C9E	7310		MOVB (R1)+, R3
3CA0	1736		CTRL $7, #$36
3CA2	100F		CTRL $0, #$0F
3CA4	34FE		MOVE $1FC, R4
3CA6	DDF0		MOVE R13, (R15)'
3CA8	011E		GETB R1, $1
3CAA	5D37		MOVE (R3)--, R13
3CAC	100E		CTRL $0, #$0E
3CAE	DBFA		MOVE R11, (R15)
3CB0	1020		CTRL $0, #$20
3CB2	001E		GETB R1, $0
3CB4	5337		MOVE (R3)--, R3
3CB6	100E		CTRL $0, #$0E
3CB8	DBFE		MOVE R11, (R15)
3CBA	7310		MOVB (R1)+, R3
3CBC	0237		XOR R2, R3
3CBE	100D		CTRL $0, #$0D
3CC0	A634		ADD R6, #$35
3CC2	100D		CTRL $0, #$0D
3CC4	A930		ADD R9, #$31
3CC6	0E0F		GETA R0, $E
3CC8	2EFE		MOVE R14, $1FC
3CCA	DDFF		MOVE R13, (R15)
3CCC	151E		CTRL $5, #$1E
3CCE	854C		LBI R5, #$4C
3CD0	0013		INC2 R0, R1
3CD2	0C62		INC R12, R6
3CD4	7C00		MOVB (R0)+, R12
3CD6	124F		CTRL $2, #$4F
3CD8	1012		CTRL $0, #$12
3CDA	0EDB		ADDH2 R14, R13
3CDC	C004		SS R0
3CDE	1E85		CTRL $E, #$85
3CE0	F11E		SUB R1, #$1F
3CE2	D1FE		MOVE R1, (R15)
3CE4	DDFF		MOVE R13, (R15)
3CE6	151E		CTRL $5, #$1E
3CE8	43FE		PUTB $3, (R15)
3CEA	4501		PUTB $5, (R0)++
3CEC	171F		CTRL $7, #$1F
3CEE	8CFE		LBI R12, #$FE
3CF0	5C00		MOVE (R0)', R12
3CF2	1608		CTRL $6, #$08
3CF4	7310		MOVB (R1)+, R3
3CF6	1634		CTRL $6, #$34
3CF8	100D		CTRL $0, #$0D
3CFA	A673		ADD R6, #$74
3CFC	1001		CTRL $0, #$01
3CFE	3610		MOVE $20, R6
3D00	0F34		MOVE R15, R3
3D02	3320		MOVE $40, R3
3D04	0F3B		ADDH2 R15, R3
3D06	F01E		BRA $3CE9		; -> -$1F(R0)

3D08	53FE		MOVE (R15), R3
3D0A	4C01		PUTB $C, (R0)++
3D0C	120E		CTRL $2, #$0E
3D0E	DB4E		MOVE R11, (R4)
3D10	0013		INC2 R0, R1
3D12	0C62		INC R12, R6
3D14	F11E		SUB R1, #$1F
3D16	D1FE		MOVE R1, (R15)
3D18	DCFF		MOVE R12, (R15)
3D1A	151E		CTRL $5, #$1E
3D1C	7573		MOVB (R7)++++, R5
3D1E	2017		JMP ($002E)

3D20	3420		MOVE $40, R4
3D22	0DA6		OR R13, R10
3D24	5C00		MOVE (R0)', R12
3D26	1708		CTRL $7, #$08
3D28	5C00		MOVE (R0)', R12
3D2A	1819		CTRL $8, #$19
3D2C	4D01		PUTB $D, (R0)++
3D2E	100E		CTRL $0, #$0E
3D30	DB20		MOVE R11, (R2)'
3D32	1EA8		CTRL $E, #$A8
3D34	7C4B		MOVB (R4), R12
3D36	1976		CTRL $9, #$76
3D38	2010		JMP ($0020)

3D3A	EDF0		
3D3C	011E		GETB R1, $1
3D3E	A337		ADD R3, #$38
3D40	200E		JMP ($001C)

3D42	DBF0		MOVE R11, (R15)'
3D44	1E9D		CTRL $E, #$9D
3D46	ED4B		
3D48	011E		GETB R1, $1
3D4A	A837		ADD R8, #$38
3D4C	200E		JMP ($001C)

3D4E	DBFE		MOVE R11, (R15)
3D50	BCC5		SET R12, #$C5
3D52	029C		MHL R2, R9
3D54	0004		NOP
3D56	15BF		CTRL $5, #$BF
3D58	0104		MOVE R1, R0
3D5A	EA80		
3D5C	041E		GETB R1, $4
3D5E	B6BC		SET R6, #$BC
3D60	0005		AND R0, R0
3D62	AF00		ADD R15, #$01
3D64	0504		MOVE R5, R0
3D66	BC60		SET R12, #$60
3D68	03B3		INC2 R3, R11
3D6A	2001		JMP ($0002)

3D6C	BC09		SET R12, #$09
3D6E	03FE		GETB R15, $3
3D70	AD00		ADD R13, #$01
3D72	0403		INC2 R4, R0
3D74	081E		GETB R1, $8
3D76	C0BE		SNBC R0, R11
3D78	1003		CTRL $0, #$03
3D7A	BE06		SET R14, #$06
3D7C	04F0		DEC2 R4, R15
3D7E	1EB8		CTRL $E, #$B8
3D80	AB01		ADD R11, #$02
3D82	0304		MOVE R3, R0
3D84	EDF0		
3D86	031E		GETB R1, $3
3D88	C9AC		SNS R9
3D8A	0003		INC2 R0, R0
3D8C	0437		XOR R4, R3
3D8E	200E		JMP ($001C)

3D90	DBFE		MOVE R11, (R15)
3D92	B320		SET R3, #$20
3D94	0537		XOR R5, R3
3D96	200D		JMP ($001A)

3D98	A634		ADD R6, #$35
3D9A	200D		JMP ($001A)

3D9C	A930		ADD R9, #$31
3D9E	0E0F		GETA R0, $E
3DA0	2EFE		MOVE R14, $1FC
3DA2	FB60		SUB R11, #$61
3DA4	80D8		LBI R0, #$D8
3DA6	0F13		INC2 R15, R1
3DA8	1ED8		CTRL $E, #$D8
3DAA	3980		MOVE $100, R9
3DAC	0ED6		OR R14, R13
3DAE	1EDA		CTRL $E, #$DA
3DB0	7C0F		MOVB (R0), R12
3DB2	13FE		CTRL $3, #$FE
3DB4	5D01		MOVE (R0)+, R13
3DB6	1210		CTRL $2, #$10
3DB8	181E		CTRL $8, #$1E
3DBA	E05C		SHR R5
3DBC	0110		DEC2 R1, R1
3DBE	12FE		CTRL $2, #$FE
3DC0	4910		PUTB $9, (R1)+
3DC2	1900		CTRL $9, #$00
3DC4	F073		BRA $3D52		; -> -$74(R0)

3DC6	2019		JMP ($0032)

3DC8	7620		MOVB (R2)+, R6
3DCA	12BC		CTRL $2, #$BC
3DCC	F500		SUB R5, #$01
3DCE	5A0F		MOVE (R0), R10
3DD0	1919		CTRL $9, #$19
3DD2	7C00		MOVB (R0)+, R12
3DD4	215C		MOVE R1, $B8
3DD6	0722		INC R7, R2
3DD8	0056		OR R0, R5
3DDA	0722		INC R7, R2
3DDC	19DD		CTRL $9, #$DD
3DDE	0021		DEC R0, R2
3DE0	1EF5		CTRL $E, #$F5
3DE2	5B0F		MOVE (R0), R11
3DE4	1922		CTRL $9, #$22
3DE6	FC60		SUB R12, #$61
3DE8	00FE		GETB R15, $0
3DEA	5B10		MOVE (R1)', R11
3DEC	1921		CTRL $9, #$21
3DEE	4E10		PUTB $E, (R1)+
3DF0	140E		CTRL $4, #$0E
3DF2	DB4E		MOVE R11, (R4)
3DF4	1010		CTRL $0, #$10
3DF6	0EDB		ADDH2 R14, R13
3DF8	FC60		SUB R12, #$61
3DFA	00FE		GETB R15, $0
3DFC	300C		MOVE $18, R0
3DFE	0F2E		GETB R2, $F
3E00	3310		MOVE $20, R3
3E02	0F24		MOVE R15, R2
3E04	490B		PUTB $9, (R0)
3E06	1400		CTRL $4, #$00
3E08	00D7		XOR R0, R13
3E0A	0C10		DEC2 R12, R1
3E0C	D704		MOVE R7, (R0)~
3E0E	007C		MHL R0, R7
3E10	4008		PUTB $0, (R0)
3E12	7880		MOVB (R8)+, R8
3E14	101F		CTRL $0, #$1F
3E16	0FFE		GETB R15, $F
3E18	7C60		MOVB (R6)+, R12
3E1A	087B		ADDH2 R8, R7
3E1C	8010		LBI R0, #$10
3E1E	C620		SLE R6, R2
3E20	77E7		MOVB (R14)----, R7
3E22	3560		MOVE $C0, R5
3E24	0EBE		GETB R11, $E
3E26	3330		MOVE $60, R3
3E28	0001		DEC R0, R0
3E2A	3340		MOVE $80, R3
3E2C	0046		OR R0, R4
3E2E	3350		MOVE $A0, R3
3E30	000A		ADDH R0, R0
3E32	D708		MOVE R7, (R0)
3E34	104D		CTRL $0, #$4D
3E36	0710		DEC2 R7, R1
3E38	1080		CTRL $0, #$80
3E3A	101F		CTRL $0, #$1F
3E3C	48FE		PUTB $8, (R15)
3E3E	6060		MOVB R0, (R6)+
3E40	1000		CTRL $0, #$00
3E42	181F		CTRL $8, #$1F
3E44	29B3		MOVE R9, $166
3E46	2004		JMP ($0008)

3E48	F940		SUB R9, #$41
3E4A	50C0		MOVE (R12)', R0
3E4C	011F		GETA R1, $1
3E4E	1FF0		CTRL $F, #$F0
3E50	1F30		CTRL $F, #$30
3E52	6507		MOVB R5, (R0)----
3E54	1040		CTRL $0, #$40
3E56	D702		MOVE R7, (R0)+'
3E58	10D7		CTRL $0, #$D7
3E5A	0C10		DEC2 R12, R1
3E5C	F830		SUB R8, #$31
3E5E	40FE		PUTB $0, (R15)
3E60	C620		SLE R6, R2
3E62	77E7		MOVB (R14)----, R7
3E64	B320		SET R3, #$20
3E66	1C33		CTRL $C, #$33
3E68	4000		PUTB $0, (R0)+
3E6A	09FE		GETB R15, $9
3E6C	6060		MOVB R0, (R6)+
3E6E	1000		CTRL $0, #$00
3E70	181F		CTRL $8, #$1F
3E72	41B3		PUTB $1, (R11)++++
3E74	2004		JMP ($0008)

3E76	3740		MOVE $80, R7
3E78	0EDB		ADDH2 R14, R13
3E7A	C001		SLT R0, R0
3E7C	1F36		CTRL $F, #$36
3E7E	F01F		BRA $3E60		; -> -$20(R0)

3E80	71FE		MOVB (R15), R1
3E82	6507		MOVB R5, (R0)----
3E84	1040		CTRL $0, #$40
3E86	D702		MOVE R7, (R0)+'
3E88	10F8		CTRL $0, #$F8
3E8A	3040		MOVE $80, R0
3E8C	F01F		BRA $3E6E		; -> -$20(R0)

3E8E	71FE		MOVB (R15), R1
3E90	6060		MOVB R0, (R6)+
3E92	1040		CTRL $0, #$40
3E94	081F		GETA R1, $8
3E96	52B3		MOVE (R11)++, R2
3E98	2004		JMP ($0008)

3E9A	F940		SUB R9, #$41
3E9C	50C0		MOVE (R12)', R0
3E9E	011F		GETA R1, $1
3EA0	48F0		PUTB $8, (R15)+
3EA2	1F5D		CTRL $F, #$5D
3EA4	6507		MOVB R5, (R0)----
3EA6	1000		CTRL $0, #$00
3EA8	D702		MOVE R7, (R0)+'
3EAA	10D7		CTRL $0, #$D7
3EAC	0C10		DEC2 R12, R1
3EAE	F930		SUB R9, #$31
3EB0	404D		PUTB $0, (R4)
3EB2	0710		DEC2 R7, R1
3EB4	1080		CTRL $0, #$80
3EB6	201F		JMP ($003E)

3EB8	71FE		MOVB (R15), R1
3EBA	C620		SLE R6, R2
3EBC	77E7		MOVB (R14)----, R7
3EBE	B320		SET R3, #$20
3EC0	1833		CTRL $8, #$33
3EC2	4000		PUTB $0, (R0)+
3EC4	0AFE		GETB R15, $A
3EC6	6060		MOVB R0, (R6)+
3EC8	1044		CTRL $0, #$44
3ECA	081F		GETA R1, $8
3ECC	6CB3		MOVB R12, (R11)++++
3ECE	2004		JMP ($0008)

3ED0	3740		MOVE $80, R7
3ED2	0EDB		ADDH2 R14, R13
3ED4	C001		SLT R0, R0
3ED6	1F63		CTRL $F, #$63
3ED8	6507		MOVB R5, (R0)----
3EDA	1000		CTRL $0, #$00
3EDC	D702		MOVE R7, (R0)+'
3EDE	10F9		CTRL $0, #$F9
3EE0	3040		MOVE $80, R0
3EE2	450F		PUTB $5, (R0)
3EE4	101F		CTRL $0, #$1F
3EE6	84FE		LBI R4, #$FE
3EE8	4907		PUTB $9, (R0)----
3EEA	0000		HALT
3EEC	00D7		XOR R0, R13
3EEE	0210		DEC2 R2, R1
3EF0	C081		SLT R0, R8
3EF2	1F7D		CTRL $F, #$7D
3EF4	D700		MOVE R7, (R0)'
3EF6	18D7		CTRL $8, #$D7
3EF8	1E00		CTRL $E, #$00
3EFA	CC08		SGT R12, R0
3EFC	0EBF		GETA R11, $E
3EFE	1F82		CTRL $F, #$82
3F00	D714		MOVE R7, (R1)~
3F02	00FE		GETB R15, $0
3F04	700E		MOVB (R0), R0
3F06	0AFE		GETB R15, $A
3F08	4D38		PUTB $D, (R3)
3F0A	D7EA		MOVE R7, (R14)
3F0C	4C68		PUTB $C, (R6)
3F0E	0000		HALT
3F10	4080		PUTB $0, (R8)+
3F12	0000		HALT
3F14	0000		HALT
3F16	0000		HALT
3F18	4BF0		PUTB $B, (R15)+
3F1A	300C		MOVE $18, R0
3F1C	0F36		OR R15, R3
3F1E	3320		MOVE $40, R3
3F20	0F24		MOVE R15, R2
3F22	890F		LBI R9, #$0F
3F24	0000		HALT
3F26	F03C		BRA $3EEB		; -> -$3D(R0)

3F28	000F		GETA R0, $0
3F2A	3E3B		MOVE $76, R14
3F2C	2C0B		MOVE R12, $16
3F2E	A233		ADD R2, #$34
3F30	4000		PUTB $0, (R0)+
3F32	0033		INC2 R0, R3
3F34	0020		DEC2 R0, R2
3F36	0734		MOVE R7, R3
3F38	000F		GETA R0, $0
3F3A	3CDC		MOVE $1B8, R12
3F3C	4E00		PUTB $E, (R0)+
3F3E	1FA5		CTRL $F, #$A5
3F40	DD60		MOVE R13, (R6)'
3F42	001F		GETA R1, $0
3F44	AA3A		ADD R10, #$3B
3F46	080B		ADDH2 R8, R0
3F48	A2FE		ADD R2, #$FF
3F4A	7310		MOVB (R1)+, R3
3F4C	01FA		ADDH R1, R15
3F4E	1030		CTRL $0, #$30
3F50	4820		PUTB $8, (R2)+
3F52	87FE		LBI R7, #$FE
3F54	7012		MOVB (R1)+++, R0
3F56	001F		GETA R1, $0
3F58	A51F		ADD R5, #$20
3F5A	B01F		SET R0, #$1F
3F5C	D01F		JMP (R1)
3F5E	C600		SLE R6, R0
3F60	BC01		SET R12, #$01
3F62	1AED		CTRL $A, #$ED
3F64	F000		BRA $3F65		; -> -$01(R0)

3F66	1FBF		CTRL $F, #$BF
3F68	AC0E		ADD R12, #$0F
3F6A	0001		DEC R0, R0
3F6C	9C00		CLR R12, #$00
3F6E	0F00		DEC2 R15, R0
3F70	3820		MOVE $40, R8
3F72	0BA2		INC R11, R10
3F74	1FA5		CTRL $F, #$A5
3F76	3740		MOVE $80, R7
3F78	0EDB		ADDH2 R14, R13
3F7A	F01F		BRA $3F5C		; -> -$20(R0)

3F7C	A5FE		ADD R5, #$FF
3F7E	3920		MOVE $40, R9
3F80	0BA2		INC R11, R10
3F82	1FA5		CTRL $F, #$A5
3F84	3640		MOVE $80, R6
3F86	0EDB		ADDH2 R14, R13
3F88	F01F		BRA $3F6A		; -> -$20(R0)

3F8A	A5FE		ADD R5, #$FF
3F8C	DD4B		MOVE R13, (R4)
3F8E	0020		DEC2 R0, R2
3F90	0739		SUB R7, R3
3F92	200B		JMP ($0016)

3F94	A220		ADD R2, #$21
3F96	92FE		CLR R2, #$FE
3F98	3A20		MOVE $40, R10
3F9A	0BA2		INC R11, R10
3F9C	F01F		BRA $3F7E		; -> -$20(R0)

3F9E	A5FE		ADD R5, #$FF
3FA0	DDC5		MOVE R13, (R12)-
3FA2	0020		DEC2 R0, R2
3FA4	0733		INC2 R7, R3
3FA6	5000		MOVE (R0)', R0
3FA8	00B4		RET R11

3FAA	5010		MOVE (R1)', R0
3FAC	3300		MOVE $00, R3
3FAE	1FFF		CTRL $F, #$FF
3FB0	3400		MOVE $00, R4
3FB2	0F3C		MHL R15, R3
3FB4	7310		MOVB (R1)+, R3
3FB6	01FA		ADDH R1, R15
3FB8	1030		CTRL $0, #$30
3FBA	4820		PUTB $8, (R2)+
3FBC	87FE		LBI R7, #$FE
3FBE	DC4E		MOVE R12, (R4)
3FC0	001F		GETA R1, $0
3FC2	E6DD		
3FC4	6000		MOVB R0, (R0)+
3FC6	1FEB		CTRL $F, #$EB
3FC8	3A04		MOVE $08, R10
3FCA	0BA2		INC R11, R10
3FCC	7310		MOVB (R1)+, R3
3FCE	01FA		ADDH R1, R15
3FD0	1030		CTRL $0, #$30
3FD2	4820		PUTB $8, (R2)+
3FD4	87FE		LBI R7, #$FE
3FD6	7012		MOVB (R1)+++, R0
3FD8	001F		GETA R1, $0
3FDA	E61F		STAT R1, $6
3FDC	F11F		SUB R1, #$20
3FDE	FF1F		SUB R15, #$20
3FE0	FF00		SUB R15, #$01
3FE2	3300		MOVE $00, R3
3FE4	000A		ADDH R0, R0
3FE6	F500		SUB R5, #$01
3FE8	50C4		MOVE (R12)~, R0
3FEA	000E		GETB R0, $0
3FEC	DB08		MOVE R11, (R0)
3FEE	2092		JMP ($0124)

3FF0	9803		CLR R8, #$03
3FF2	1100		CTRL $1, #$00
3FF4	B650		SET R6, #$50
3FF6	10C0		CTRL $0, #$C0
3FF8	201F		JMP ($003E)

3FFA	E6F0		
3FFC	2092		JMP ($0124)

3FFE	3804		MOVE $08, R8
4000	0BA2		INC R11, R10
4002	2005		JMP ($000A)

4004	F940		SUB R9, #$41
4006	50F0		MOVE (R15)', R0
4008	2007		JMP ($000E)

400A	F840		SUB R8, #$41
400C	50FE		MOVE (R15), R0
400E	CC00		SLE R12, R0
4010	0F3E		GETB R3, $F
4012	2092		JMP ($0124)

4014	E704		
4016	00B4		RET R11

4018	1012		CTRL $0, #$12
401A	AA0F		ADD R10, #$10
401C	0000		HALT
401E	E726		
4020	00E7		XOR R0, R14
4022	0C00		DEC2 R12, R0
4024	EC00		
4026	0120		DEC2 R1, R2
4028	1B38		CTRL $B, #$38
402A	080B		ADDH2 R8, R0
402C	A220		ADD R2, #$21
402E	1BFE		CTRL $B, #$FE
4030	BA80		SET R10, #$80
4032	00E7		XOR R0, R14
4034	0800		DEC2 R8, R0
4036	C440		SLE R4, R4
4038	0EDB		ADDH2 R14, R13
403A	0020		DEC2 R0, R2
403C	65B4		MOVB R5, (R11)-
403E	4010		PUTB $0, (R1)+
4040	EC00		
4042	1020		CTRL $0, #$20
4044	26F9		MOVE R6, $1F2
4046	4040		PUTB $0, (R4)+
4048	B740		SET R7, #$40
404A	10FE		CTRL $0, #$FE
404C	3300		MOVE $00, R3
404E	0046		OR R0, R4
4050	3350		MOVE $A0, R3
4052	000A		ADDH R0, R0
4054	C610		SLE R6, R1
4056	77E7		MOVB (R14)----, R7
4058	3380		MOVE $100, R3
405A	004F		GETA R4, $0
405C	FA80		SUB R10, #$81
405E	4018		PUTB $0, (R1)
4060	203E		JMP ($007C)

4062	F940		SUB R9, #$41
4064	0095		AND R0, R9
4066	0700		DEC2 R7, R0
4068	00FE		GETB R15, $0
406A	B880		SET R8, #$80
406C	1020		CTRL $0, #$20
406E	3BFE		MOVE $1FC, R11
4070	E716		
4072	00F0		DEC2 R0, R15
4074	202C		JMP ($0058)

4076	E702		
4078	00F0		DEC2 R0, R15
407A	202C		JMP ($0058)

407C	FA00		SUB R10, #$01
407E	4008		PUTB $0, (R0)
4080	2048		JMP ($0090)

4082	7310		MOVB (R1)+, R3
4084	04F9		SUB R4, R15
4086	0050		DEC2 R0, R5
4088	C001		SLT R0, R0
408A	203E		JMP ($007C)

408C	F020		BRA $406D		; -> -$21(R0)

408E	56FE		MOVE (R15), R6
4090	9507		CLR R5, #$07
4092	0000		HALT
4094	B880		SET R8, #$80
4096	1020		CTRL $0, #$20
4098	50FE		MOVE (R15), R0
409A	E716		
409C	00F0		DEC2 R0, R15
409E	2052		JMP ($00A4)

40A0	E702		
40A2	00FE		GETB R15, $0
40A4	F940		SUB R9, #$41
40A6	00C0		DEC2 R0, R12
40A8	8120		LBI R1, #$20
40AA	65FE		MOVB R5, (R15)
40AC	C610		SLE R6, R1
40AE	77E7		MOVB (R14)----, R7
40B0	F640		SUB R6, #$41
40B2	01F9		SUB R1, R15
40B4	1040		CTRL $0, #$40
40B6	9507		CLR R5, #$07
40B8	0040		DEC2 R0, R4
40BA	B880		SET R8, #$80
40BC	1020		CTRL $0, #$20
40BE	63FE		MOVB R3, (R15)
40C0	E716		
40C2	00F0		DEC2 R0, R15
40C4	2065		JMP ($00CA)

40C6	E702		
40C8	00FE		GETB R15, $0
40CA	E70C		
40CC	00C7		XOR R0, R12
40CE	1020		CTRL $0, #$20
40D0	94B5		CLR R4, #$B5
40D2	1016		CTRL $0, #$16
40D4	7310		MOVB (R1)+, R3
40D6	02B4		MOVE R2, R11
40D8	1016		CTRL $0, #$16
40DA	CC08		SGT R12, R0
40DC	0EBF		GETA R11, $E
40DE	2083		JMP ($0106)

40E0	3910		MOVE $20, R9
40E2	0ED7		XOR R14, R13
40E4	2083		JMP ($0106)

40E6	E714		
40E8	00B8		ADD R0, R11
40EA	8004		LBI R0, #$04
40EC	2083		JMP ($0106)

40EE	8E20		LBI R14, #$20
40F0	010E		GETB R0, $1
40F2	DAC0		MOVE R10, (R12)'
40F4	2020		JMP ($0040)

40F6	81BE		LBI R1, #$BE
40F8	0100		DEC2 R1, R0
40FA	8220		LBI R2, #$20
40FC	0100		DEC2 R1, R0
40FE	03BA		ADDH R3, R11
4100	1001		CTRL $0, #$01
4102	E708		
4104	00FE		GETB R15, $0
4106	3B10		MOVE $20, R11
4108	0ED7		XOR R14, R13
410A	B00E		SET R0, #$0E
410C	12FE		CTRL $2, #$FE
410E	FB60		SUB R11, #$61
4110	8038		LBI R0, #$38
4112	020B		ADDH2 R2, R0
4114	A420		ADD R4, #$21
4116	90FE		CLR R0, #$FE
4118	FD70		SUB R13, #$71
411A	00FE		GETB R15, $0
411C	FC60		SUB R12, #$61
411E	00FE		GETB R15, $0
4120	B100		SET R1, #$00
4122	18FE		CTRL $8, #$FE
4124	B410		SET R4, #$10
4126	12FE		CTRL $2, #$FE
4128	CC08		SGT R12, R0
412A	0EBF		GETA R11, $E
412C	2099		JMP ($0132)

412E	E714		
4130	00FE		GETB R15, $0
4132	3B10		MOVE $20, R11
4134	0ED7		XOR R14, R13
4136	B00E		SET R0, #$0E
4138	12FE		CTRL $2, #$FE
413A	EBFE		
413C	0721		DEC R7, R2
413E	39C5		MOVE $18A, R9
4140	700E		MOVB (R0), R0
4142	D3C0		MOVE R3, (R12)'
4144	0120		DEC2 R1, R2
4146	A73C		ADD R7, #$3D
4148	AD0B		ADD R13, #$0C
414A	B4F0		SET R4, #$F0
414C	3BCE		MOVE $19C, R11
414E	B310		SET R3, #$10
4150	07FE		GETB R15, $7
4152	F16B		SUB R1, #$6C
4154	FCFE		SUB R12, #$FF
4156	CD00		SLE R13, R0
4158	0EB6		OR R14, R11
415A	20B5		JMP ($016A)

415C	301C		MOVE $38, R0
415E	0EB0		DEC2 R14, R11
4160	D708		MOVE R7, (R0)
4162	0030		DEC2 R0, R3
4164	1A0E		CTRL $A, #$0E
4166	BAF0		SET R10, #$F0
4168	20D2		JMP ($01A4)

416A	0D01		DEC R13, R0
416C	0EB4		MOVE R14, R11
416E	0EC2		INC R14, R12
4170	0820		DEC2 R8, R2
4172	D235		MOVE R2, (R3)-
4174	100E		CTRL $0, #$0E
4176	B432		SET R4, #$32
4178	000E		GETB R0, $0
417A	B635		SET R6, #$35
417C	200E		JMP ($001C)

417E	C430		SLE R4, R3
4180	060E		GETB R0, $6
4182	B0FB		SET R0, #$FB
4184	3020		MOVE $40, R0
4186	F830		SUB R8, #$31
4188	00C4		RET R12

418A	300E		MOVE $1C, R0
418C	C208		SGT R2, R0
418E	3BD2		MOVE $1A4, R11
4190	9400		CLR R4, #$00
4192	0000		HALT
4194	3430		MOVE $60, R4
4196	0EC4		MOVE R14, R12
4198	3400		MOVE $00, R4
419A	0EB5		AND R14, R11
419C	3420		MOVE $40, R4
419E	0EB4		MOVE R14, R11
41A0	3004		MOVE $08, R0
41A2	0EB0		DEC2 R14, R11
41A4	0C01		DEC R12, R0
41A6	0DAB		ADDH2 R13, R10
41A8	0ED3		INC2 R14, R13
41AA	F13B		SUB R1, #$3C
41AC	B4FE		SET R4, #$FE
41AE	CC00		SLE R12, R0
41B0	0EB6		OR R14, R11
41B2	20E1		JMP ($01C2)

41B4	EC5B		
41B6	0820		DEC2 R8, R2
41B8	E4FE		
41BA	3CCD		MOVE $19A, R12
41BC	0BB4		MOVE R11, R11
41BE	F03B		BRA $4184		; -> -$3C(R0)

41C0	D0FE		JMP (R15)
41C2	ED40		
41C4	0820		DEC2 R8, R2
41C6	DDFE		MOVE R13, (R15)
41C8	B310		SET R3, #$10
41CA	13F0		CTRL $3, #$F0
41CC	2101		MOVE R1, $02
41CE	1C00		CTRL $C, #$00
41D0	0F14		MOVE R15, R1
41D2	003C		MHL R0, R3
41D4	0A0F		GETA R0, $A
41D6	15DC		CTRL $5, #$DC
41D8	4001		PUTB $0, (R0)++
41DA	20F3		JMP ($01E6)

41DC	1C00		CTRL $C, #$00
41DE	0F15		AND R15, R1
41E0	013B		ADDH2 R1, R3
41E2	F00F		BRA $41D4		; -> -$10(R0)

41E4	15FE		CTRL $5, #$FE
41E6	7330		MOVB (R3)+, R3
41E8	0233		INC2 R2, R3
41EA	100F		CTRL $0, #$0F
41EC	147A		CTRL $4, #$7A
41EE	2001		JMP ($0002)

41F0	3016		MOVE $2C, R0
41F2	0DAE		GETB R10, $D
41F4	C410		SLE R4, R1
41F6	0DAE		GETB R10, $D
41F8	2021		JMP ($0042)

41FA	357B		MOVE $F6, R5
41FC	2001		JMP ($0002)

41FE	FB10		SUB R11, #$11
4200	30FE		MOVE $1FC, R0
4202	DAFE		MOVE R10, (R15)
4204	0020		DEC2 R0, R2
4206	E72C		
4208	020E		GETB R0, $2
420A	D20C		MOVE R2, (R0)
420C	FB30		SUB R11, #$31
420E	202C		JMP ($0058)

4210	010D		MLH R1, R0
4212	AB0A		ADD R11, #$0B
4214	8D00		LBI R13, #$00
4216	090B		ADDH2 R9, R0
4218	7C20		MOVB (R2)+, R12
421A	2122		MOVE R1, $44
421C	0901		DEC R9, R0
421E	0B65		AND R11, R6
4220	0000		HALT
4222	2C00		MOVE R12, $00
4224	0ED9		SUB R14, R13
4226	0933		INC2 R9, R3
4228	100B		CTRL $0, #$0B
422A	7F36		MOVB (R3)---, R15
422C	100E		CTRL $0, #$0E
422E	D836		MOVE R8, (R3)-~
4230	100E		CTRL $0, #$0E
4232	D836		MOVE R8, (R3)-~
4234	100E		CTRL $0, #$0E
4236	D81C		MOVE R8, (R1)
4238	020B		ADDH2 R2, R0
423A	7C00		MOVB (R0)+, R12
423C	3BF0		MOVE $1E0, R11
423E	0B7C		MHL R11, R7
4240	F121		SUB R1, #$22
4242	74FE		MOVB (R15), R4
4244	F13B		SUB R1, #$3C
4246	B4FE		SET R4, #$FE
4248	3420		MOVE $40, R4
424A	0B65		AND R11, R6
424C	2C01		MOVE R12, $02
424E	0B67		XOR R11, R6
4250	042B		ADDH2 R4, R2
4252	0305		AND R3, R0
4254	F604		SUB R6, #$05
4256	FB10		SUB R11, #$11
4258	3075		MOVE $EA, R0
425A	8011		LBI R0, #$11
425C	7510		MOVB (R1)+, R5
425E	0FF8		ADD R15, R15
4260	1020		CTRL $0, #$20
4262	3006		MOVE $0C, R0
4264	0EA6		OR R14, R10
4266	F06B		BRA $41FC		; -> -$6C(R0)

4268	FCFE		SUB R12, #$FF
426A	3CCB		MOVE $196, R12
426C	0BB4		MOVE R11, R11
426E	F03B		BRA $4234		; -> -$3C(R0)

4270	D0FE		JMP (R15)
4272	0D01		DEC R13, R0
4274	0ECA		ADDH R14, R12
4276	0EC6		OR R14, R12
4278	2821		MOVE R8, $42
427A	413C		PUTB $1, (R3)
427C	AC0B		ADD R12, #$0C
427E	B4F0		SET R4, #$F0
4280	3BCE		MOVE $19C, R11
4282	0D00		DEC2 R13, R0
4284	0ECC		MHL R14, R12
4286	0B7C		MHL R11, R7
4288	2021		JMP ($0042)

428A	5432		MOVE (R3)+', R4
428C	000E		GETB R0, $0
428E	CC33		SZ R12
4290	100B		CTRL $0, #$0B
4292	7FF8		MOVB (R15), R15
4294	1000		CTRL $0, #$00
4296	F810		SUB R8, #$11
4298	00F8		ADD R0, R15
429A	1000		CTRL $0, #$00
429C	1C02		CTRL $C, #$02
429E	0B7C		MHL R11, R7
42A0	0009		SUB R0, R0
42A2	010B		ADDH2 R1, R0
42A4	6500		MOVB R5, (R0)+
42A6	00FE		GETB R15, $0
42A8	0C01		DEC R12, R0
42AA	0B67		XOR R11, R6
42AC	0ECD		MLH R14, R12
42AE	0C00		DEC2 R12, R0
42B0	0ED9		SUB R14, R13
42B2	0ECF		GETA R12, $E
42B4	3006		MOVE $0C, R0
42B6	0EC8		ADD R14, R12
42B8	CD02		SE R13, R0
42BA	0ECF		GETA R12, $E
42BC	2164		MOVE R1, $C8
42BE	0C01		DEC R12, R0
42C0	0EE6		OR R14, R14
42C2	0ECD		MLH R14, R12
42C4	3006		MOVE $0C, R0
42C6	0EC8		ADD R14, R12
42C8	CD01		SLT R13, R0
42CA	0ED9		SUB R14, R13
42CC	216B		MOVE R1, $D6
42CE	3C80		MOVE $100, R12
42D0	0BB5		AND R11, R11
42D2	F03B		BRA $4298		; -> -$3C(R0)

42D4	CCFE		SNBC R12, R15
42D6	F121		SUB R1, #$22
42D8	74FE		MOVB (R15), R4
42DA	0C01		DEC R12, R0
42DC	0DAB		ADDH2 R13, R10
42DE	0B67		XOR R11, R6
42E0	F13B		SUB R1, #$3C
42E2	B4FE		SET R4, #$FE
42E4	F03B		BRA $42AA		; -> -$3C(R0)

42E6	D8FE		MOVE R8, (R15)
42E8	0901		DEC R9, R0
42EA	05FA		ADDH R5, R15
42EC	0040		DEC2 R0, R4
42EE	CC00		SLE R12, R0
42F0	0B7C		MHL R11, R7
42F2	2184		MOVE R1, $108
42F4	3CD2		MOVE $1A4, R12
42F6	05FA		ADDH R5, R15
42F8	0C00		DEC2 R12, R0
42FA	0ED9		SUB R14, R13
42FC	0B7C		MHL R11, R7
42FE	3F01		MOVE $02, R15
4300	0ED9		SUB R14, R13
4302	0B00		DEC2 R11, R0
4304	05FB		ADDH2 R5, R15
4306	0ED9		SUB R14, R13
4308	FC80		SUB R12, #$81
430A	00FE		GETB R15, $0
430C	3B20		MOVE $40, R11
430E	0BA1		DEC R11, R10
4310	3B08		MOVE $10, R11
4312	0B6C		MHL R11, R6
4314	3230		MOVE $60, R2
4316	0B2A		ADDH R11, R2
4318	FB20		SUB R11, #$21
431A	30F6		MOVE $1EC, R0
431C	3000		MOVE $00, R0
431E	F820		SUB R8, #$21
4320	3033		MOVE $66, R0
4322	100B		CTRL $0, #$0B
4324	82F8		LBI R2, #$F8
4326	1020		CTRL $0, #$20
4328	7880		MOVB (R8)+, R8
432A	0022		INC R0, R2
432C	14FE		CTRL $4, #$FE
432E	1C00		CTRL $C, #$00
4330	0B5A		ADDH R11, R5
4332	003B		ADDH2 R0, R3
4334	0F0B		ADDH2 R15, R0
4336	5ACC		MOVE (R12), R10
4338	B00B		SET R0, #$0B
433A	5A21		MOVE (R2)+, R10
433C	AECC		ADD R14, #$CD
433E	A00B		BRA $434C		; $0C(R0)

4340	5A21		MOVE (R2)+, R10
4342	C439		SGE R4, R3
4344	800B		LBI R0, #$0B
4346	A10B		ADD R1, #$0C
4348	F6FE		SUB R6, #$FF
434A	3B01		MOVE $02, R11
434C	0B6C		MHL R11, R6
434E	093F		GETA R3, $9
4350	05C0		DEC2 R5, R12
4352	0040		DEC2 R0, R4
4354	3B10		MOVE $20, R11
4356	0B6C		MHL R11, R6
4358	F00B		BRA $434E		; -> -$0C(R0)

435A	D0FE		JMP (R15)
435C	3B10		MOVE $20, R11
435E	0B6C		MHL R11, R6
4360	3C02		MOVE $04, R12
4362	0B02		INC R11, R0
4364	C300		SLE R3, R0
4366	0B00		DEC2 R11, R0
4368	7520		MOVB (R2)+, R5
436A	01B3		INC2 R1, R11
436C	2007		JMP ($000E)

436E	3310		MOVE $20, R3
4370	0580		DEC2 R5, R8
4372	ECFF		STAT R15, $C
4374	000B		ADDH2 R0, R0
4376	F4EC		SUB R4, #$ED
4378	3F00		MOVE $00, R15
437A	21F8		MOVE R1, $1F0
437C	6C00		MOVB R12, (R0)+
437E	0000		HALT
4380	F10B		SUB R1, #$0C
4382	F0FE		BRA $4285		; -> -$FF(R0)

4384	F021		BRA $4364		; -> -$22(R0)

4386	B9FE		SET R9, #$FE
4388	3530		MOVE $60, R5
438A	0B30		DEC2 R11, R3
438C	3370		MOVE $E0, R3
438E	05C0		DEC2 R5, R12
4390	7520		MOVB (R2)+, R5
4392	01EC		MHL R1, R14
4394	0008		ADD R0, R0
4396	21E4		MOVE R1, $1C8
4398	B320		SET R3, #$20
439A	0933		INC2 R9, R3
439C	1005		CTRL $0, #$05
439E	80F8		LBI R0, #$F8
43A0	1030		CTRL $0, #$30
43A2	6C00		MOVB R12, (R0)+
43A4	0000		HALT
43A6	F10B		SUB R1, #$0C
43A8	F0FE		BRA $42AB		; -> -$FF(R0)

43AA	FA10		SUB R10, #$11
43AC	7010		MOVB (R1)+, R0
43AE	21DA		MOVE R1, $1B4
43B0	3310		MOVE $20, R3
43B2	0580		DEC2 R5, R8
43B4	EDFF		STAT R15, $D
43B6	0021		DEC R0, R2
43B8	D133		MOVE R1, (R3)++
43BA	0005		AND R0, R0
43BC	8034		LBI R0, #$34
43BE	000B		ADDH2 R0, R0
43C0	26F9		MOVE R6, $1F2
43C2	1000		CTRL $0, #$00
43C4	3410		MOVE $20, R4
43C6	0B30		DEC2 R11, R3
43C8	3810		MOVE $20, R8
43CA	0B6C		MHL R11, R6
43CC	0BF8		ADD R11, R15
43CE	3310		MOVE $20, R3
43D0	05C1		DEC R5, R12
43D2	3902		MOVE $04, R9
43D4	0B6D		MLH R11, R6
43D6	21F1		MOVE R1, $1E2
43D8	4504		PUTB $5, (R0)-
43DA	0002		INC R0, R0
43DC	AFFE		ADD R15, #$FF
43DE	F021		BRA $43BE		; -> -$22(R0)

43E0	F4FE		SUB R4, #$FF
43E2	4503		PUTB $5, (R0)++++
43E4	0002		INC R0, R0
43E6	51FE		MOVE (R15), R1
43E8	3B10		MOVE $20, R11
43EA	0B6C		MHL R11, R6
43EC	F00B		BRA $43E2		; -> -$0C(R0)

43EE	F8FE		SUB R8, #$FF
43F0	7C7D		MOVB (R7), R12
43F2	00F1		DEC R0, R15
43F4	0BF0		DEC2 R11, R15
43F6	B240		SET R2, #$40
43F8	00B3		INC2 R0, R11
43FA	2001		JMP ($0002)

43FC	6C00		MOVB R12, (R0)+
43FE	0000		HALT
4400	DD7D		MOVE R13, (R7)
4402	0022		INC R0, R2
4404	107C		CTRL $0, #$7C
4406	7D01		MOVB (R0)++, R13
4408	7310		MOVB (R1)+, R3
440A	02B3		INC2 R2, R11
440C	2001		JMP ($0002)

440E	3740		MOVE $80, R7
4410	0EDB		ADDH2 R14, R13
4412	C001		SLT R0, R0
4414	21FE		MOVE R1, $1FC
4416	7C7D		MOVB (R7), R12
4418	0073		INC2 R0, R7
441A	1001		CTRL $0, #$01
441C	F021		BRA $43FC		; -> -$22(R0)

441E	B9FE		SET R9, #$FE
4420	F10B		SUB R1, #$0C
4422	F0FE		BRA $4325		; -> -$FF(R0)

4424	F022		BRA $4403		; -> -$23(R0)

4426	07FE		GETB R15, $7
4428	3C35		MOVE $6A, R12
442A	0BB4		MOVE R11, R11
442C	3B10		MOVE $20, R11
442E	0B6C		MHL R11, R6
4430	F08F		BRA $43A2		; -> -$90(R0)

4432	EEFE		
4434	300C		MOVE $18, R0
4436	0FA4		MOVE R15, R10
4438	0977		XOR R9, R7
443A	0FB4		MOVE R15, R11
443C	0040		DEC2 R0, R4
443E	0507		XOR R5, R0
4440	0FAC		MHL R15, R10
4442	2290		MOVE R2, $120
4444	3510		MOVE $20, R5
4446	0EB4		MOVE R14, R11
4448	3530		MOVE $60, R5
444A	0EB6		OR R14, R11
444C	F730		SUB R7, #$31
444E	0730		DEC2 R7, R3
4450	060E		GETB R0, $6
4452	B0C4		SET R0, #$C4
4454	100E		CTRL $0, #$0E
4456	C210		SLE R2, R1
4458	222F		MOVE R2, $5E
445A	3410		MOVE $20, R4
445C	0EC4		MOVE R14, R12
445E	3520		MOVE $40, R5
4460	0EB4		MOVE R14, R11
4462	3540		MOVE $80, R5
4464	0EB6		OR R14, R11
4466	F740		SUB R7, #$41
4468	0730		DEC2 R7, R3
446A	060E		GETB R0, $6
446C	B0C4		SET R0, #$C4
446E	200E		JMP ($001C)

4470	C210		SLE R2, R1
4472	223C		MOVE R2, $78
4474	3420		MOVE $40, R4
4476	0EC4		MOVE R14, R12
4478	FA30		SUB R10, #$31
447A	4000		PUTB $0, (R0)+
447C	2282		MOVE R2, $104
447E	FB00		SUB R11, #$01
4480	40F9		PUTB $0, (R15)
4482	0030		DEC2 R0, R3
4484	3400		MOVE $00, R4
4486	0FAA		ADDH R15, R10
4488	3360		MOVE $C0, R3
448A	003C		MHL R0, R3
448C	FA40		SUB R10, #$41
448E	6008		MOVB R0, (R0)
4490	2253		MOVE R2, $A6
4492	2460		MOVE R4, $C0
4494	0FB4		MOVE R15, R11
4496	0024		RET R2

4498	600F		MOVB R0, (R0)
449A	F000		BRA $449B		; -> -$01(R0)

449C	F940		SUB R9, #$41
449E	60F8		MOVB R0, (R15)
44A0	2060		JMP ($00C0)

44A2	F022		BRA $4481		; -> -$23(R0)

44A4	5AFE		MOVE (R15), R10
44A6	2440		MOVE R4, $80
44A8	0FB4		MOVE R15, R11
44AA	0024		RET R2

44AC	400F		PUTB $0, (R0)
44AE	F000		BRA $44AF		; -> -$01(R0)

44B0	F940		SUB R9, #$41
44B2	40FE		PUTB $0, (R15)
44B4	3E01		MOVE $02, R14
44B6	0FAF		GETA R10, $F
44B8	FA30		SUB R10, #$31
44BA	6000		MOVB R0, (R0)+
44BC	228A		MOVE R2, $114
44BE	1430		CTRL $4, #$30
44C0	0FB4		MOVE R15, R11
44C2	00FE		GETB R15, $0
44C4	0D3B		ADDH2 R13, R3
44C6	0FB4		MOVE R15, R11
44C8	0FF0		DEC2 R15, R15
44CA	2022		JMP ($0044)

44CC	7A0C		MOVB (R0), R10
44CE	3B0F		MOVE $1E, R11
44D0	F00F		BRA $44C2		; -> -$10(R0)

44D2	F1C4		SUB R1, #$C5
44D4	400E		PUTB $0, (R0)
44D6	DA20		MOVE R10, (R2)'
44D8	2271		MOVE R2, $E2
44DA	2C00		MOVE R12, $00
44DC	102B		CTRL $0, #$2B
44DE	00B3		INC2 R0, R11
44E0	2001		JMP ($0002)

44E2	0C3B		ADDH2 R12, R3
44E4	0FB4		MOVE R15, R11
44E6	0FF0		DEC2 R15, R15
44E8	0D00		DEC2 R13, R0
44EA	0FAF		GETA R10, $F
44EC	0FAB		ADDH2 R15, R10
44EE	0022		INC R0, R2
44F0	82F0		LBI R2, #$F0
44F2	225A		MOVE R2, $B4
44F4	FA30		SUB R10, #$31
44F6	6010		MOVB R0, (R1)+
44F8	2284		MOVE R2, $108
44FA	F810		SUB R8, #$11
44FC	603E		MOVB R0, (R3)
44FE	3C0F		MOVE $1E, R12
4500	AFF0		ADD R15, #$F1
4502	2246		MOVE R2, $8C
4504	3C00		MOVE $00, R12
4506	0FAF		GETA R10, $F
4508	C70A		SNE R7, R0
450A	0FAC		MHL R15, R10
450C	301A		MOVE $34, R0
450E	0EBA		ADDH R14, R11
4510	300E		MOVE $1C, R0
4512	0FA4		MOVE R15, R10
4514	1460		CTRL $4, #$60
4516	0FB4		MOVE R15, R11
4518	00F9		SUB R0, R15
451A	3060		MOVE $C0, R0
451C	F022		BRA $44FB		; -> -$23(R0)

451E	62FE		MOVB R2, (R15)
4520	4600		PUTB $6, (R0)+
4522	0000		HALT
4524	0000		HALT
4526	0000		HALT
4528	3350		MOVE $A0, R3
452A	0002		INC R0, R0
452C	CC30		SLE R12, R3
452E	10D0		CTRL $0, #$D0
4530	229B		MOVE R2, $136
4532	7310		MOVB (R1)+, R3
4534	01FE		GETB R15, $1
4536	7310		MOVB (R1)+, R3
4538	0434		MOVE R4, R3
453A	2010		JMP ($0020)

453C	64CD		MOVB R4, (R12)
453E	2510		MOVE R5, $20
4540	D022		JMP (R2)+'
4542	B573		SET R5, #$73
4544	1002		CTRL $0, #$02
4546	3300		MOVE $00, R3
4548	0006		OR R0, R0
454A	4000		PUTB $0, (R0)+
454C	0002		INC R0, R0
454E	BDFE		SET R13, #$FE
4550	2822		MOVE R8, $44
4552	ADF8		ADD R13, #$F9
4554	1000		CTRL $0, #$00
4556	F022		BRA $4535		; -> -$23(R0)

4558	EAFE		
455A	3300		MOVE $00, R3
455C	0004		NOP
455E	4000		PUTB $0, (R0)+
4560	0002		INC R0, R0
4562	3CFE		MOVE $1FC, R12
4564	2822		MOVE R8, $44
4566	EDF8		
4568	1000		CTRL $0, #$00
456A	DAF0		MOVE R10, (R15)'
456C	0022		INC R0, R2
456E	EDD8		
4570	F900		SUB R9, #$01
4572	22ED		MOVE R2, $1DA
4574	F10B		SUB R1, #$0C
4576	E4FE		
4578	F920		SUB R9, #$21
457A	50E5		MOVE (R14)-, R0
457C	6000		MOVB R0, (R0)+
457E	C081		SLT R0, R8
4580	22ED		MOVE R2, $1DA
4582	F820		SUB R8, #$21
4584	50CC		MOVE (R12), R0
4586	2510		MOVE R5, $20
4588	D022		JMP (R2)+'
458A	EADC		
458C	6B00		MOVB R11, (R0)+
458E	22CC		MOVE R2, $198
4590	DC40		MOVE R12, (R4)'
4592	0022		INC R0, R2
4594	EAF0		
4596	22DD		MOVE R2, $1BA
4598	7310		MOVB (R1)+, R3
459A	01DA		ADDH R1, R13
459C	F000		BRA $459D		; -> -$01(R0)

459E	22ED		MOVE R2, $1DA
45A0	D8F9		MOVE R8, (R15)
45A2	0022		INC R0, R2
45A4	EDF1		
45A6	0BE4		MOVE R11, R14
45A8	F920		SUB R9, #$21
45AA	50E5		MOVE (R14)-, R0
45AC	6000		MOVB R0, (R0)+
45AE	C081		SLT R0, R8
45B0	22ED		MOVE R2, $1DA
45B2	F820		SUB R8, #$21
45B4	50DC		MOVE (R13), R0
45B6	6B00		MOVB R11, (R0)+
45B8	22CC		MOVE R2, $198
45BA	3300		MOVE $00, R3
45BC	0002		INC R0, R0
45BE	4000		PUTB $0, (R0)+
45C0	0002		INC R0, R0
45C2	D7FE		MOVE R7, (R15)
45C4	2822		MOVE R8, $44
45C6	ED73		
45C8	1002		CTRL $0, #$02
45CA	BCFE		SET R12, #$FE
45CC	00B3		INC2 R0, R11
45CE	2001		JMP ($0002)

45D0	F18F		SUB R1, #$90
45D2	F8FE		SUB R8, #$FF
45D4	DC40		MOVE R12, (R4)'
45D6	003B		ADDH2 R0, R3
45D8	E2FE		
45DA	3C00		MOVE $00, R12
45DC	0B5A		ADDH R11, R5
45DE	F00B		BRA $45D4		; -> -$0C(R0)

45E0	E6FE		
45E2	300C		MOVE $18, R0
45E4	0C5C		MHL R12, R5
45E6	DDF1		MOVE R13, (R15)+
45E8	0022		INC R0, R2
45EA	FCFE		SUB R12, #$FF
45EC	3C03		MOVE $06, R12
45EE	0DB4		MOVE R13, R11
45F0	3310		MOVE $20, R3
45F2	0B69		SUB R11, R6
45F4	F023		BRA $45D2		; -> -$24(R0)

45F6	0CFE		GETB R15, $C
45F8	F183		SUB R1, #$84
45FA	E4FE		
45FC	CA03		SZ R10
45FE	0DB4		MOVE R13, R11
4600	2332		MOVE R3, $64
4602	3C03		MOVE $06, R12
4604	0DB4		MOVE R13, R11
4606	3510		MOVE $20, R5
4608	0DB2		INC R13, R11
460A	3370		MOVE $E0, R3
460C	0003		INC2 R0, R0
460E	4070		PUTB $0, (R7)+
4610	0002		INC R0, R0
4612	BDFE		SET R13, #$FE
4614	2022		JMP ($0044)

4616	F6FE		SUB R6, #$FF
4618	0903		INC2 R9, R0
461A	0F24		MOVE R15, R2
461C	0000		HALT
461E	DAC1		MOVE R10, (R12)+
4620	0023		INC2 R0, R2
4622	32D8		MOVE $1B0, R2
4624	C600		SLE R6, R0
4626	2318		MOVE R3, $30
4628	3CB7		MOVE $16E, R12
462A	0F24		MOVE R15, R2
462C	F023		BRA $460A		; -> -$24(R0)

462E	1FFE		CTRL $F, #$FE
4630	DAF0		MOVE R10, (R15)'
4632	0023		INC2 R0, R2
4634	32D8		MOVE $1B0, R2
4636	F900		SUB R9, #$01
4638	2332		MOVE R3, $64
463A	3CF0		MOVE $1E0, R12
463C	0F24		MOVE R15, R2
463E	1C00		CTRL $C, #$00
4640	0F27		XOR R15, R2
4642	000F		GETA R0, $0
4644	000F		GETA R0, $0
4646	270F		MOVE R7, $1E
4648	2403		MOVE R4, $06
464A	100F		CTRL $0, #$0F
464C	2500		MOVE R5, $00
464E	0308		ADD R3, R0
4650	030F		GETA R0, $3
4652	260F		MOVE R6, $1E
4654	2773		MOVE R7, $E6
4656	1001		CTRL $0, #$01
4658	3F01		MOVE $02, R15
465A	0DB4		MOVE R13, R11
465C	C001		SLT R0, R0
465E	2318		MOVE R3, $30
4660	300E		MOVE $1C, R0
4662	0C5C		MHL R12, R5
4664	3C71		MOVE $E2, R12
4666	0BB4		MOVE R11, R11
4668	F03B		BRA $462E		; -> -$3C(R0)

466A	CEFE		SNBC R14, R15
466C	300C		MOVE $18, R0
466E	0F1E		GETB R1, $F
4670	3510		MOVE $20, R5
4672	0BB6		OR R11, R11
4674	3320		MOVE $40, R3
4676	F3F0		SUB R3, #$F1
4678	D420		MOVE R4, (R2)'
467A	0C20		DEC2 R12, R2
467C	2343		MOVE R3, $86
467E	300E		MOVE $1C, R0
4680	0F1E		GETB R1, $F
4682	300C		MOVE $18, R0
4684	0F1E		GETB R1, $F
4686	3320		MOVE $40, R3
4688	0B3A		ADDH R11, R3
468A	B320		SET R3, #$20
468C	0233		INC2 R2, R3
468E	800B		LBI R0, #$0B
4690	56FA		MOVE (R15), R6
4692	2080		JMP ($0100)

4694	1823		CTRL $8, #$23
4696	3FFB		MOVE $1F6, R15
4698	8020		LBI R0, #$20
469A	EE20		
469C	0023		INC2 R0, R2
469E	559D		MOVE (R9), R5
46A0	0100		DEC2 R1, R0
46A2	0028		ADD R0, R2
46A4	2355		MOVE R3, $AA
46A6	BA40		SET R10, #$40
46A8	15FE		CTRL $5, #$FE
46AA	FB20		SUB R11, #$21
46AC	80F0		LBI R0, #$F0
46AE	2345		MOVE R3, $8A
46B0	F18F		SUB R1, #$90
46B2	F2FE		SUB R2, #$FF
46B4	FB00		SUB R11, #$01
46B6	1035		CTRL $0, #$35
46B8	100D		CTRL $0, #$0D
46BA	B9DD		SET R9, #$DD
46BC	0400		DEC2 R4, R0
46BE	2362		MOVE R3, $C4
46C0	5E10		MOVE (R1)', R14
46C2	1606		CTRL $6, #$06
46C4	FB10		SUB R11, #$11
46C6	0033		INC2 R0, R3
46C8	3077		MOVE $EE, R0
46CA	F034		BRA $4697		; -> -$35(R0)

46CC	300D		MOVE $1A, R0
46CE	B5EC		SET R5, #$EC
46D0	1406		CTRL $4, #$06
46D2	3BB8		MOVE $170, R11
46D4	F02F		BRA $46A6		; -> -$30(R0)

46D6	F200		SUB R2, #$01
46D8	0000		HALT
46DA	0000		HALT
46DC	0000		HALT
46DE	0000		HALT
46E0	0000		HALT
46E2	0000		HALT
46E4	0000		HALT
46E6	0000		HALT
46E8	0000		HALT
46EA	0000		HALT
46EC	0000		HALT
46EE	0000		HALT
46F0	0000		HALT
46F2	0000		HALT
46F4	0000		HALT
46F6	0000		HALT
46F8	0000		HALT
46FA	0000		HALT
46FC	0000		HALT
46FE	0000		HALT
4700	0000		HALT
4702	0000		HALT
4704	0000		HALT
4706	0000		HALT
4708	0000		HALT
470A	0000		HALT
470C	0000		HALT
470E	0000		HALT
4710	0000		HALT
4712	0000		HALT
4714	0000		HALT
4716	0000		HALT
4718	0000		HALT
471A	0000		HALT
471C	0000		HALT
471E	0000		HALT
4720	0000		HALT
4722	0000		HALT
4724	0000		HALT
4726	0000		HALT
4728	0000		HALT
472A	0000		HALT
472C	0000		HALT
472E	0000		HALT
4730	0000		HALT
4732	0000		HALT
4734	0000		HALT
4736	0000		HALT
4738	0000		HALT
473A	0000		HALT
473C	0000		HALT
473E	0000		HALT
4740	0000		HALT
4742	0000		HALT
4744	0000		HALT
4746	0000		HALT
4748	0000		HALT
474A	0000		HALT
474C	0000		HALT
474E	0000		HALT
4750	0000		HALT
4752	0000		HALT
4754	0000		HALT
4756	0000		HALT
4758	0000		HALT
475A	0000		HALT
475C	0000		HALT
475E	0000		HALT
4760	0000		HALT
4762	0000		HALT
4764	0000		HALT
4766	0000		HALT
4768	0000		HALT
476A	0000		HALT
476C	0000		HALT
476E	0000		HALT
4770	0000		HALT
4772	0000		HALT
4774	0000		HALT
4776	0000		HALT
4778	0000		HALT
477A	0000		HALT
477C	0000		HALT
477E	0000		HALT
4780	0000		HALT
4782	0000		HALT
4784	0000		HALT
4786	0000		HALT
4788	0000		HALT
478A	0000		HALT
478C	0000		HALT
478E	0000		HALT
4790	0000		HALT
4792	0000		HALT
4794	0000		HALT
4796	0000		HALT
4798	0000		HALT
479A	0000		HALT
479C	0000		HALT
479E	0000		HALT
47A0	0000		HALT
47A2	0000		HALT
47A4	0000		HALT
47A6	0000		HALT
47A8	0000		HALT
47AA	0000		HALT
47AC	0000		HALT
47AE	0000		HALT
47B0	0000		HALT
47B2	0000		HALT
47B4	0000		HALT
47B6	0000		HALT
47B8	0000		HALT
47BA	0000		HALT
47BC	0000		HALT
47BE	0000		HALT
47C0	0000		HALT
47C2	0000		HALT
47C4	F023		BRA $47A2		; -> -$24(R0)

47C6	5800		MOVE (R0)', R8
47C8	F023		BRA $47A6		; -> -$24(R0)

47CA	4100		PUTB $1, (R0)+
47CC	F023		BRA $47AA		; -> -$24(R0)

47CE	3600		MOVE $00, R6
47D0	F022		BRA $47AF		; -> -$23(R0)

47D2	F100		SUB R1, #$01
47D4	F022		BRA $47B3		; -> -$23(R0)

47D6	9400		CLR R4, #$00
47D8	F022		BRA $47B7		; -> -$23(R0)

47DA	1A00		CTRL $A, #$00
47DC	F021		BRA $47BC		; -> -$22(R0)

47DE	8600		LBI R6, #$00
47E0	F020		BRA $47C1		; -> -$21(R0)

47E2	A900		ADD R9, #$01
47E4	F020		BRA $47C5		; -> -$21(R0)

47E6	9D00		CLR R13, #$00
47E8	F01F		BRA $47CA		; -> -$20(R0)

47EA	8D00		LBI R13, #$00
47EC	F01E		BRA $47CF		; -> -$1F(R0)

47EE	FE00		SUB R14, #$01
47F0	F01D		BRA $47D4		; -> -$1E(R0)

47F2	FE00		SUB R14, #$01
47F4	F01C		BRA $47D9		; -> -$1D(R0)

47F6	7900		MOVB (R0)+, R9
47F8	F018		BRA $47E1		; -> -$19(R0)

47FA	0000		HALT
47FC	0412		INC R4, R1
47FE	BB4D		SET R11, #$4D
4800	0507		XOR R5, R0
4802	103A		CTRL $0, #$3A
4804	29FE		MOVE R9, $1FC
4806	093F		GETA R3, $9
4808	05C0		DEC2 R5, R12
480A	0040		DEC2 R0, R4
480C	0995		AND R9, R9
480E	0F24		MOVE R15, R2
4810	0000		HALT
4812	0903		INC2 R9, R0
4814	0F7A		ADDH R15, R7
4816	00F0		DEC2 R0, R15
4818	0513		INC2 R5, R1
481A	0F48		ADD R15, R4
481C	0397		XOR R3, R9
481E	3A80		MOVE $100, R10
4820	0B6C		MHL R11, R6
4822	7310		MOVB (R1)+, R3
4824	040C		MHL R4, R0
4826	020F		GETA R0, $2
4828	7F0B		MOVB (R0), R15
482A	69DC		MOVB R9, (R13)
482C	4000		PUTB $0, (R0)+
482E	246D		MOVE R4, $DA
4830	3370		MOVE $E0, R3
4832	0007		XOR R0, R0
4834	4070		PUTB $0, (R7)+
4836	0003		INC2 R0, R0
4838	10FE		CTRL $0, #$FE
483A	2026		JMP ($004C)

483C	CB33		SZ R11
483E	7000		MOVB (R0)+, R0
4840	0640		DEC2 R6, R4
4842	7000		MOVB (R0)+, R0
4844	0314		MOVE R3, R1
4846	2027		JMP ($004E)

4848	2B33		MOVE R11, $66
484A	7000		MOVB (R0)+, R0
484C	0340		DEC2 R3, R4
484E	7000		MOVB (R0)+, R0
4850	02BD		MLH R2, R11
4852	2029		JMP ($0052)

4854	F433		SUB R4, #$34
4856	7000		MOVB (R0)+, R0
4858	0440		DEC2 R4, R4
485A	7000		MOVB (R0)+, R0
485C	031A		ADDH R3, R1
485E	2027		JMP ($004E)

4860	BF40		SET R15, #$40
4862	7000		MOVB (R0)+, R0
4864	031C		MHL R3, R1
4866	2027		JMP ($004E)

4868	C140		SLE R1, R4
486A	7000		MOVB (R0)+, R0
486C	031E		GETB R1, $3
486E	2028		JMP ($0050)

4870	6133		MOVB R1, (R3)++++
4872	7000		MOVB (R0)+, R0
4874	0540		DEC2 R5, R4
4876	7000		MOVB (R0)+, R0
4878	0317		XOR R3, R1
487A	2028		JMP ($0050)

487C	B540		SET R5, #$40
487E	7000		MOVB (R0)+, R0
4880	0282		INC R2, R8
4882	2824		MOVE R8, $48
4884	4F73		PUTB $F, (R7)++++
4886	1005		CTRL $0, #$05
4888	3A01		MOVE $02, R10
488A	0F9C		MHL R15, R9
488C	DC6B		MOVE R12, (R6)
488E	0024		RET R2

4890	4DDC		PUTB $D, (R13)
4892	4000		PUTB $0, (R0)+
4894	246D		MOVE R4, $DA
4896	F05F		BRA $4838		; -> -$60(R0)

4898	F4FE		SUB R4, #$FF
489A	7310		MOVB (R1)+, R3
489C	01FE		GETB R15, $1
489E	3370		MOVE $E0, R3
48A0	0003		INC2 R0, R0
48A2	4070		PUTB $0, (R7)+
48A4	0002		INC R0, R0
48A6	08FE		GETB R15, $8
48A8	2024		JMP ($0048)

48AA	5AFE		MOVE (R15), R10
48AC	3A02		MOVE $04, R10
48AE	0F9C		MHL R15, R9
48B0	F024		BRA $488D		; -> -$25(R0)

48B2	67FE		MOVB R7, (R15)
48B4	7310		MOVB (R1)+, R3
48B6	03DD		MLH R3, R13
48B8	6B00		MOVB R11, (R0)+
48BA	2461		MOVE R4, $C2
48BC	7310		MOVB (R1)+, R3
48BE	01F0		DEC2 R1, R15
48C0	2456		MOVE R4, $AC
48C2	DC40		MOVE R12, (R4)'
48C4	0024		RET R2

48C6	6D33		MOVB R13, (R3)++++
48C8	7024		MOVB (R2)-, R0
48CA	6FF1		MOVB R15, (R15)++
48CC	5FF8		MOVE (R15), R15
48CE	F15F		SUB R1, #$60
48D0	F6FE		SUB R6, #$FF
48D2	DD40		MOVE R13, (R4)'
48D4	005F		GETA R5, $0
48D6	F4F0		SUB R4, #$F1
48D8	246F		MOVE R4, $DE
48DA	3A02		MOVE $04, R10
48DC	0F9C		MHL R15, R9
48DE	3902		MOVE $04, R9
48E0	0F9C		MHL R15, R9
48E2	2474		MOVE R4, $E8
48E4	F15F		SUB R1, #$60
48E6	F2FE		SUB R2, #$FF
48E8	3801		MOVE $02, R8
48EA	0F9C		MHL R15, R9
48EC	249E		MOVE R4, $13C
48EE	3320		MOVE $40, R3
48F0	0F8A		ADDH R15, R8
48F2	BC05		SET R12, #$05
48F4	00BC		MHL R0, R11
48F6	0001		DEC R0, R0
48F8	BC00		SET R12, #$00
48FA	02E3		INC2 R2, R14
48FC	0000		HALT
48FE	B910		SET R9, #$10
4900	1124		CTRL $1, #$24
4902	7FFE		MOVB (R15), R15
4904	8D01		LBI R13, #$01
4906	0C0E		GETB R0, $C
4908	DA28		MOVE R10, (R2)
490A	29EE		MOVE R9, $1DC
490C	B840		SET R8, #$40
490E	105F		CTRL $0, #$5F
4910	D8FE		MOVE R8, (R15)
4912	BC02		SET R12, #$02
4914	02B5		AND R2, R11
4916	5006		MOVE (R0)-~, R0
4918	3310		MOVE $20, R3
491A	10CE		CTRL $0, #$CE
491C	B410		SET R4, #$10
491E	047C		MHL R4, R7
4920	4000		PUTB $0, (R0)+
4922	5450		MOVE (R5)', R4
4924	0100		DEC2 R1, R0
4926	F810		SUB R8, #$11
4928	50B4		MOVE (R11)~, R0
492A	100A		CTRL $0, #$0A
492C	B540		SET R5, #$40
492E	087C		MHL R8, R7
4930	4000		PUTB $0, (R0)+
4932	5440		MOVE (R4)', R4
4934	0100		DEC2 R1, R0
4936	BC00		SET R12, #$00
4938	08BC		MHL R8, R11
493A	0109		SUB R1, R0
493C	093F		GETA R3, $9
493E	10CE		CTRL $0, #$CE
4940	0040		DEC2 R0, R4
4942	3C02		MOVE $04, R12
4944	0B02		INC R11, R0
4946	C300		SLE R3, R0
4948	0B00		DEC2 R11, R0
494A	F15F		SUB R1, #$60
494C	ECFE		
494E	3340		MOVE $80, R3
4950	007F		GETA R7, $0
4952	3320		MOVE $40, R3
4954	0200		DEC2 R2, R0
4956	BC40		SET R12, #$40
4958	00A4		RET R10

495A	4001		PUTB $0, (R0)++
495C	00FE		GETB R15, $0
495E	3320		MOVE $40, R3
4960	0F24		MOVE R15, R2
4962	BA20		SET R10, #$20
4964	03B5		AND R3, R11
4966	5006		MOVE (R0)-~, R0
4968	3450		MOVE $A0, R4
496A	0F76		OR R15, R7
496C	3510		MOVE $20, R5
496E	0B63		INC2 R11, R6
4970	7310		MOVB (R1)+, R3
4972	01F7		XOR R1, R15
4974	1000		CTRL $0, #$00
4976	F610		SUB R6, #$11
4978	00B4		RET R11

497A	1004		CTRL $0, #$04
497C	B540		SET R5, #$40
497E	0835		AND R8, R3
4980	700D		MOVB (R0), R0
4982	AE36		ADD R14, #$37
4984	500E		MOVE (R0), R0
4986	DBF8		MOVE R11, (R15)
4988	4050		PUTB $0, (R5)+
498A	F970		SUB R9, #$71
498C	10FA		CTRL $0, #$FA
498E	7040		MOVB (R4)+, R0
4990	1029		CTRL $0, #$29
4992	EAF8		
4994	1050		CTRL $0, #$50
4996	F710		SUB R7, #$11
4998	00F6		OR R0, R15
499A	1000		CTRL $0, #$00
499C	B410		SET R4, #$10
499E	0AF9		SUB R10, R15
49A0	4050		PUTB $0, (R5)+
49A2	3740		MOVE $80, R7
49A4	0EDB		ADDH2 R14, R13
49A6	7C00		MOVB (R0)+, R12
49A8	0054		RET R5

49AA	4001		PUTB $0, (R0)++
49AC	00ED		MLH R0, R14
49AE	0E00		DEC2 R14, R0
49B0	25EE		MOVE R5, $1DC
49B2	3802		MOVE $04, R8
49B4	0F9C		MHL R15, R9
49B6	24E1		MOVE R4, $1C2
49B8	BC0A		SET R12, #$0A
49BA	023B		ADDH2 R2, R3
49BC	020F		GETA R0, $2
49BE	9CF0		CLR R12, #$F0
49C0	24E8		MOVE R4, $1D0
49C2	8901		LBI R9, #$01
49C4	0C00		DEC2 R12, R0
49C6	00BC		MHL R0, R11
49C8	0402		INC R4, R0
49CA	8C01		LBI R12, #$01
49CC	080F		GETA R0, $8
49CE	82FE		LBI R2, #$FE
49D0	E300		
49D2	00FE		GETB R15, $0
49D4	B910		SET R9, #$10
49D6	1124		CTRL $1, #$24
49D8	EAFE		
49DA	3980		MOVE $100, R9
49DC	00A4		RET R10

49DE	29E6		MOVE R9, $1CC
49E0	8D01		LBI R13, #$01
49E2	0C0E		GETB R0, $C
49E4	DA28		MOVE R10, (R2)
49E6	29D8		MOVE R9, $1B0
49E8	B510		SET R5, #$10
49EA	04DC		MHL R4, R13
49EC	FF00		SUB R15, #$01
49EE	29E2		MOVE R9, $1C4
49F0	093F		GETA R3, $9
49F2	10CE		CTRL $0, #$CE
49F4	0040		DEC2 R0, R4
49F6	DD00		MOVE R13, (R0)'
49F8	0025		AND R0, R2
49FA	003A		ADDH R0, R3
49FC	040F		GETA R0, $4
49FE	9CFE		CLR R12, #$FE
4A00	1C01		CTRL $C, #$01
4A02	0F82		INC R15, R8
4A04	011C		MHL R1, R1
4A06	010F		GETA R0, $1
4A08	1A01		CTRL $A, #$01
4A0A	3310		MOVE $20, R3
4A0C	10CE		CTRL $0, #$CE
4A0E	F15F		SUB R1, #$60
4A10	E4FE		
4A12	3320		MOVE $40, R3
4A14	0F24		MOVE R15, R2
4A16	B520		SET R5, #$20
4A18	042C		MHL R4, R2
4A1A	000F		GETA R0, $0
4A1C	1B00		CTRL $B, #$00
4A1E	3C00		MOVE $00, R12
4A20	0F1A		ADDH R15, R1
4A22	F10B		SUB R1, #$0C
4A24	C6FE		SNBC R6, R15
4A26	4B01		PUTB $B, (R0)++
4A28	170F		CTRL $7, #$0F
4A2A	1973		CTRL $9, #$73
4A2C	101A		CTRL $0, #$1A
4A2E	B540		SET R5, #$40
4A30	0334		MOVE R3, R3
4A32	400F		PUTB $0, (R0)
4A34	9E34		CLR R14, #$34
4A36	400F		PUTB $0, (R0)
4A38	1AF1		CTRL $A, #$F1
4A3A	5FE4		MOVE (R14)~, R15
4A3C	3904		MOVE $08, R9
4A3E	0F9C		MHL R15, R9
4A40	25B8		MOVE R5, $170
4A42	B300		SET R3, #$00
4A44	8033		LBI R0, #$33
4A46	3000		MOVE $00, R0
4A48	11F1		CTRL $1, #$F1
4A4A	26B9		MOVE R6, $172
4A4C	3310		MOVE $20, R3
4A4E	10CE		CTRL $0, #$CE
4A50	7C6B		MOVB (R6), R12
4A52	1E6C		CTRL $E, #$6C
4A54	1005		CTRL $0, #$05
4A56	80ED		LBI R0, #$ED
4A58	0500		DEC2 R5, R0
4A5A	2537		MOVE R5, $6E
4A5C	B300		SET R3, #$00
4A5E	9C33		CLR R12, #$33
4A60	3000		MOVE $00, R0
4A62	13F1		CTRL $3, #$F1
4A64	26B9		MOVE R6, $172
4A66	3310		MOVE $20, R3
4A68	10CE		CTRL $0, #$CE
4A6A	6C12		MOVB R12, (R1)+++
4A6C	2C9C		MOVE R12, $138
4A6E	3980		MOVE $100, R9
4A70	0F9C		MHL R15, R9
4A72	2546		MOVE R5, $8C
4A74	ED09		
4A76	0025		AND R0, R2
4A78	46B5		PUTB $6, (R11)--
4A7A	4003		PUTB $0, (R0)++++
4A7C	B550		SET R5, #$50
4A7E	06F7		XOR R6, R15
4A80	5000		MOVE (R0)', R0
4A82	F940		SUB R9, #$41
4A84	503C		MOVE (R3), R0
4A86	F00F		BRA $4A78		; -> -$10(R0)

4A88	A3F0		ADD R3, #$F1
4A8A	25AD		MOVE R5, $15A
4A8C	F900		SUB R9, #$01
4A8E	00ED		MLH R0, R14
4A90	0C00		DEC2 R12, R0
4A92	2551		MOVE R5, $A2
4A94	3A40		MOVE $80, R10
4A96	0F9C		MHL R15, R9
4A98	3320		MOVE $40, R3
4A9A	0F24		MOVE R15, R2
4A9C	BC01		SET R12, #$01
4A9E	02F0		DEC2 R2, R15
4AA0	2555		MOVE R5, $AA
4AA2	3320		MOVE $40, R3
4AA4	0F24		MOVE R15, R2
4AA6	BC08		SET R12, #$08
4AA8	02FE		GETB R15, $2
4AAA	E300		
4AAC	00FE		GETB R15, $0
4AAE	B910		SET R9, #$10
4AB0	1125		CTRL $1, #$25
4AB2	57FE		MOVE (R15), R7
4AB4	8D01		LBI R13, #$01
4AB6	0C10		DEC2 R12, R1
4AB8	3C20		MOVE $40, R12
4ABA	257D		MOVE R5, $FA
4ABC	8D01		LBI R13, #$01
4ABE	0C10		DEC2 R12, R1
4AC0	3E20		MOVE $40, R14
4AC2	257D		MOVE R5, $FA
4AC4	8D01		LBI R13, #$01
4AC6	0C0E		GETB R0, $C
4AC8	DA28		MOVE R10, (R2)
4ACA	29D8		MOVE R9, $1B0
4ACC	3840		MOVE $80, R8
4ACE	0F9C		MHL R15, R9
4AD0	2576		MOVE R5, $EC
4AD2	B520		SET R5, #$20
4AD4	046C		MHL R4, R6
4AD6	122C		CTRL $2, #$2C
4AD8	003B		ADDH2 R0, R3
4ADA	400F		PUTB $0, (R0)
4ADC	9C39		CLR R12, #$39
4ADE	800F		LBI R0, #$0F
4AE0	9C26		CLR R12, #$26
4AE2	9FFE		CLR R15, #$FE
4AE4	3600		MOVE $00, R6
4AE6	0EDB		ADDH2 R14, R13
4AE8	F025		BRA $4AC4		; -> -$26(R0)

4AEA	51FE		MOVE (R15), R1
4AEC	3980		MOVE $100, R9
4AEE	00A4		RET R10

4AF0	29E6		MOVE R9, $1CC
4AF2	3600		MOVE $00, R6
4AF4	0EDB		ADDH2 R14, R13
4AF6	F025		BRA $4AD2		; -> -$26(R0)

4AF8	55FE		MOVE (R15), R5
4AFA	3980		MOVE $100, R9
4AFC	0F9C		MHL R15, R9
4AFE	269F		MOVE R6, $13E
4B00	B560		SET R5, #$60
4B02	08F9		SUB R8, R15
4B04	6000		MOVB R0, (R0)+
4B06	3340		MOVE $80, R3
4B08	0009		SUB R0, R0
4B0A	3C5C		MOVE $B8, R12
4B0C	0FA3		INC2 R15, R10
4B0E	FA40		SUB R10, #$41
4B10	6010		MOVB R0, (R1)+
4B12	258E		MOVE R5, $11C
4B14	3460		MOVE $C0, R4
4B16	0FA2		INC R15, R10
4B18	3EF0		MOVE $1E0, R14
4B1A	0FA3		INC2 R15, R10
4B1C	3500		MOVE $00, R5
4B1E	0F9E		GETB R9, $F
4B20	F970		SUB R9, #$71
4B22	70F9		MOVB (R15), R0
4B24	3030		MOVE $60, R0
4B26	F960		SUB R9, #$61
4B28	6035		MOVB R0, (R3)--
4B2A	500F		MOVE (R0), R0
4B2C	76FE		MOVB (R15), R6
4B2E	F870		SUB R8, #$71
4B30	0036		OR R0, R3
4B32	600E		MOVB R0, (R0)
4B34	DBF8		MOVE R11, (R15)
4B36	3050		MOVE $A0, R0
4B38	C430		SLE R4, R3
4B3A	103A		CTRL $0, #$3A
4B3C	0025		AND R0, R2
4B3E	97F9		CLR R7, #$F9
4B40	4040		PUTB $0, (R4)+
4B42	B770		SET R7, #$70
4B44	08C0		DEC2 R8, R12
4B46	0425		AND R4, R2
4B48	ADFE		ADD R13, #$FF
4B4A	FA60		SUB R10, #$61
4B4C	7000		MOVB (R0)+, R0
4B4E	25AD		MOVE R5, $15A
4B50	F970		SUB R9, #$71
4B52	6036		MOVB R0, (R3)---
4B54	400E		PUTB $0, (R0)
4B56	DBF0		MOVE R11, (R15)'
4B58	25A5		MOVE R5, $14A
4B5A	3310		MOVE $20, R3
4B5C	10ED		CTRL $0, #$ED
4B5E	3440		MOVE $80, R4
4B60	0F1A		ADDH R15, R1
4B62	F15F		SUB R1, #$60
4B64	E4FE		
4B66	3310		MOVE $20, R3
4B68	10F2		CTRL $0, #$F2
4B6A	4C00		PUTB $C, (R0)+
4B6C	000F		GETA R0, $0
4B6E	A3FE		ADD R3, #$FF
4B70	3B04		MOVE $08, R11
4B72	0F9C		MHL R15, R9
4B74	3801		MOVE $02, R8
4B76	0F9C		MHL R15, R9
4B78	25D5		MOVE R5, $1AA
4B7A	3320		MOVE $40, R3
4B7C	0F8A		ADDH R15, R8
4B7E	E300		
4B80	00FE		GETB R15, $0
4B82	B910		SET R9, #$10
4B84	1125		CTRL $1, #$25
4B86	C1FE		SNBC R1, R15
4B88	8D01		LBI R13, #$01
4B8A	0C0E		GETB R0, $C
4B8C	DA28		MOVE R10, (R2)
4B8E	29EE		MOVE R9, $1DC
4B90	3980		MOVE $100, R9
4B92	00A4		RET R10

4B94	29E6		MOVE R9, $1CC
4B96	0E10		DEC2 R14, R1
4B98	0F82		INC R15, R8
4B9A	0EDB		ADDH2 R14, R13
4B9C	3980		MOVE $100, R9
4B9E	0F9C		MHL R15, R9
4BA0	25F6		MOVE R5, $1EC
4BA2	3320		MOVE $40, R3
4BA4	0F24		MOVE R15, R2
4BA6	F024		BRA $4B83		; -> -$25(R0)

4BA8	E1FE		
4BAA	0C3F		GETA R3, $C
4BAC	0580		DEC2 R5, R8
4BAE	10CE		CTRL $0, #$CE
4BB0	0E10		DEC2 R14, R1
4BB2	0F82		INC R15, R8
4BB4	0EDB		ADDH2 R14, R13
4BB6	3C02		MOVE $04, R12
4BB8	0B02		INC R11, R0
4BBA	C300		SLE R3, R0
4BBC	0B00		DEC2 R11, R0
4BBE	3300		MOVE $00, R3
4BC0	1800		CTRL $8, #$00
4BC2	3370		MOVE $E0, R3
4BC4	0001		DEC R0, R0
4BC6	F900		SUB R9, #$01
4BC8	70C0		MOVB (R12)+, R0
4BCA	0125		AND R1, R2
4BCC	E339		
4BCE	800F		LBI R0, #$0F
4BD0	9C25		CLR R12, #$25
4BD2	F6FE		SUB R6, #$FF
4BD4	3320		MOVE $40, R3
4BD6	0F24		MOVE R15, R2
4BD8	F024		BRA $4BB5		; -> -$25(R0)

4BDA	E1FE		
4BDC	3A80		MOVE $100, R10
4BDE	0F9C		MHL R15, R9
4BE0	3802		MOVE $04, R8
4BE2	0F9C		MHL R15, R9
4BE4	25F6		MOVE R5, $1EC
4BE6	0C01		DEC R12, R0
4BE8	0F82		INC R15, R8
4BEA	0EDB		ADDH2 R14, R13
4BEC	3320		MOVE $40, R3
4BEE	0F24		MOVE R15, R2
4BF0	8901		LBI R9, #$01
4BF2	0C00		DEC2 R12, R0
4BF4	00BC		MHL R0, R11
4BF6	0402		INC R4, R0
4BF8	BC02		SET R12, #$02
4BFA	038C		MHL R3, R8
4BFC	0108		ADD R1, R0
4BFE	0F82		INC R15, R8
4C00	E300		
4C02	00FE		GETB R15, $0
4C04	B910		SET R9, #$10
4C06	1126		CTRL $1, #$26
4C08	02FE		GETB R15, $2
4C0A	3980		MOVE $100, R9
4C0C	00A4		RET R10

4C0E	29E6		MOVE R9, $1CC
4C10	8D01		LBI R13, #$01
4C12	0C0E		GETB R0, $C
4C14	DA20		MOVE R10, (R2)'
4C16	2618		MOVE R6, $30
4C18	3300		MOVE $00, R3
4C1A	F3F6		SUB R3, #$F7
4C1C	E400		
4C1E	0C20		DEC2 R12, R2
4C20	29E2		MOVE R9, $1C4
4C22	3300		MOVE $00, R3
4C24	F4F1		SUB R4, #$F2
4C26	E400		
4C28	0C28		ADD R12, R2
4C2A	29D8		MOVE R9, $1B0
4C2C	F029		BRA $4C04		; -> -$2A(R0)

4C2E	E2FE		
4C30	B510		SET R5, #$10
4C32	0E09		SUB R14, R0
4C34	3F10		MOVE $20, R15
4C36	CE00		SLE R14, R0
4C38	404D		PUTB $0, (R4)
4C3A	014D		MLH R1, R4
4C3C	0EDA		ADDH R14, R13
4C3E	2826		MOVE R8, $4C
4C40	263A		MOVE R6, $74
4C42	040F		GETA R0, $4
4C44	9C3C		CLR R12, #$3C
4C46	F010		BRA $4C37		; -> -$11(R0)

4C48	E6F0		
4C4A	2650		MOVE R6, $A0
4C4C	DD40		MOVE R13, (R4)'
4C4E	2B26		MOVE R11, $4C
4C50	2F3C		MOVE R15, $78
4C52	C210		SLE R2, R1
4C54	E5FE		
4C56	3CF9		MOVE $1F2, R12
4C58	10E6		CTRL $0, #$E6
4C5A	F026		BRA $4C35		; -> -$27(R0)

4C5C	50FE		MOVE (R15), R0
4C5E	DCC5		MOVE R12, (R12)-
4C60	2B26		MOVE R11, $4C
4C62	37FE		MOVE $1FC, R7
4C64	0901		DEC R9, R0
4C66	10E5		CTRL $0, #$E5
4C68	006F		GETA R6, $0
4C6A	F026		BRA $4C45		; -> -$27(R0)

4C6C	50FE		MOVE (R15), R0
4C6E	4D01		PUTB $D, (R0)++
4C70	6C10		MOVB R12, (R1)+
4C72	4020		PUTB $0, (R2)+
4C74	262B		MOVE R6, $56
4C76	4D01		PUTB $D, (R0)++
4C78	6C0E		MOVB R12, (R0)
4C7A	DA20		MOVE R10, (R2)'
4C7C	262B		MOVE R6, $56
4C7E	3320		MOVE $40, R3
4C80	FFE0		SUB R15, #$E1
4C82	3620		MOVE $40, R6
4C84	00BE		GETB R11, $0
4C86	6D0C		MOVB R13, (R0)
4C88	5F00		MOVE (R0)', R15
4C8A	2826		MOVE R8, $4C
4C8C	321C		MOVE $38, R2
4C8E	0110		DEC2 R1, R1
4C90	E56C		
4C92	3300		MOVE $00, R3
4C94	F1F2		SUB R1, #$F3
4C96	D400		MOVE R4, (R0)'
4C98	6C28		MOVB R12, (R2)
4C9A	2650		MOVE R6, $A0
4C9C	3A40		MOVE $80, R10
4C9E	0F9C		MHL R15, R9
4CA0	3320		MOVE $40, R3
4CA2	0F24		MOVE R15, R2
4CA4	2C01		MOVE R12, $02
4CA6	0F82		INC R15, R8
4CA8	082C		MHL R8, R2
4CAA	010F		GETA R0, $1
4CAC	1A08		CTRL $A, #$08
4CAE	FB20		SUB R11, #$21
4CB0	1033		CTRL $0, #$33
4CB2	1010		CTRL $0, #$10
4CB4	CEF1		SLT R14, R15
4CB6	5FE4		MOVE (R14)~, R15
4CB8	3310		MOVE $20, R3
4CBA	10E8		CTRL $0, #$E8
4CBC	B530		SET R5, #$30
4CBE	2536		MOVE R5, $6C
4CC0	300E		MOVE $1C, R0
4CC2	DB35		MOVE R11, (R3)-
4CC4	000F		GETA R0, $0
4CC6	76F9		MOVB (R15), R6
4CC8	4040		PUTB $0, (R4)+
4CCA	F960		SUB R9, #$61
4CCC	60F9		MOVB R0, (R15)
4CCE	7070		MOVB (R7)+, R0
4CD0	F870		SUB R8, #$71
4CD2	0036		OR R0, R3
4CD4	600E		MOVB R0, (R0)
4CD6	DBC4		MOVE R11, (R12)~
4CD8	7010		MOVB (R1)+, R0
4CDA	3A00		MOVE $00, R10
4CDC	2668		MOVE R6, $D0
4CDE	3460		MOVE $C0, R4
4CE0	0FA0		DEC2 R15, R10
4CE2	F930		SUB R9, #$31
4CE4	60C0		MOVB R0, (R12)+
4CE6	8226		LBI R2, #$26
4CE8	7836		MOVB (R3)---, R8
4CEA	400E		PUTB $0, (R0)
4CEC	DBF0		MOVE R11, (R15)'
4CEE	2671		MOVE R6, $E2
4CF0	3440		MOVE $80, R4
4CF2	0F9E		GETB R9, $F
4CF4	3440		MOVE $80, R4
4CF6	0F1A		ADDH R15, R1
4CF8	F15F		SUB R1, #$60
4CFA	E4FE		
4CFC	3310		MOVE $20, R3
4CFE	10CE		CTRL $0, #$CE
4D00	6C10		MOVB R12, (R1)+
4D02	0505		AND R5, R0
4D04	ED40		
4D06	4226		PUTB $2, (R2)---
4D08	8BAD		LBI R11, #$AD
4D0A	0442		INC R4, R4
4D0C	4328		PUTB $3, (R2)
4D0E	268B		MOVE R6, $116
4D10	EC40		
4D12	2A26		MOVE R10, $4C
4D14	8DFE		LBI R13, #$FE
4D16	7CD7		MOVB (R13)----, R12
4D18	24FE		MOVE R4, $1FC
4D1A	7C6B		MOVB (R6), R12
4D1C	1E6C		CTRL $E, #$6C
4D1E	0426		OR R4, R2
4D20	1C39		CTRL $C, #$39
4D22	040F		GETA R0, $4
4D24	9C25		CLR R12, #$25
4D26	B8FE		SET R8, #$FE
4D28	3320		MOVE $40, R3
4D2A	0F24		MOVE R15, R2
4D2C	8901		LBI R9, #$01
4D2E	0800		DEC2 R8, R0
4D30	00B5		AND R0, R11
4D32	200E		JMP ($001C)

4D34	B500		SET R5, #$00
4D36	4D39		PUTB $D, (R3)
4D38	400F		PUTB $0, (R0)
4D3A	9C25		CLR R12, #$25
4D3C	4AFE		PUTB $A, (R15)
4D3E	F970		SUB R9, #$71
4D40	70F9		MOVB (R15), R0
4D42	3030		MOVE $60, R0
4D44	3560		MOVE $C0, R5
4D46	0FA0		DEC2 R15, R10
4D48	3670		MOVE $E0, R6
4D4A	0EDB		ADDH2 R14, R13
4D4C	F900		SUB R9, #$01
4D4E	60C0		MOVB R0, (R12)+
4D50	8426		LBI R4, #$26
4D52	A435		ADD R4, #$36
4D54	400F		PUTB $0, (R0)
4D56	9EF9		CLR R14, #$F9
4D58	4070		PUTB $0, (R7)+
4D5A	C084		SS R0
4D5C	26B1		MOVE R6, $162
4D5E	3340		MOVE $80, R3
4D60	0000		HALT
4D62	3310		MOVE $20, R3
4D64	10ED		CTRL $0, #$ED
4D66	3440		MOVE $80, R4
4D68	0F1A		ADDH R15, R1
4D6A	F15F		SUB R1, #$60
4D6C	E4FE		
4D6E	F025		BRA $4D4A		; -> -$26(R0)

4D70	B8FE		SET R8, #$FE
4D72	3310		MOVE $20, R3
4D74	0F36		OR R15, R3
4D76	7C0E		MOVB (R0), R12
4D78	007C		MHL R0, R7
4D7A	8001		LBI R0, #$01
4D7C	7CFD		MOVB (R15), R12
4D7E	027A		ADDH R2, R7
4D80	2003		JMP ($0006)

4D82	7400		MOVB (R0)+, R4
4D84	0474		MOVE R4, R7
4D86	3006		MOVE $0C, R0
4D88	D300		MOVE R3, (R0)'
4D8A	00FE		GETB R15, $0
4D8C	7910		MOVB (R1)+, R9
4D8E	1126		CTRL $1, #$26
4D90	C6FE		SNBC R6, R15
4D92	FC80		SUB R12, #$81
4D94	00FE		GETB R15, $0
4D96	7310		MOVB (R1)+, R3
4D98	0733		INC2 R7, R3
4D9A	7000		MOVB (R0)+, R0
4D9C	0340		DEC2 R3, R4
4D9E	7000		MOVB (R0)+, R0
4DA0	0320		DEC2 R3, R2
4DA2	2826		MOVE R8, $4C
4DA4	D93A		MOVE R9, (R3)
4DA6	080F		GETA R0, $8
4DA8	9CDD		CLR R12, #$DD
4DAA	6B03		MOVB R11, (R0)++++
4DAC	5FF4		MOVE (R15)~, R15
4DAE	7310		MOVB (R1)+, R3
4DB0	04FE		GETB R15, $4
4DB2	DC7D		MOVE R12, (R7)
4DB4	0026		OR R0, R2
4DB6	E633		
4DB8	7026		MOVB (R2)---, R0
4DBA	F1F1		SUB R1, #$F2
4DBC	5FF8		MOVE (R15), R15
4DBE	DC7D		MOVE R12, (R7)
4DC0	0026		OR R0, R2
4DC2	E6DC		
4DC4	4000		PUTB $0, (R0)+
4DC6	26F1		MOVE R6, $1E2
4DC8	F026		BRA $4DA3		; -> -$27(R0)

4DCA	ECFE		
4DCC	F129		SUB R1, #$2A
4DCE	85FE		LBI R5, #$FE
4DD0	DD6B		MOVE R13, (R6)
4DD2	0026		OR R0, R2
4DD4	EE73		
4DD6	1001		CTRL $0, #$01
4DD8	F15F		SUB R1, #$60
4DDA	F6FE		SUB R6, #$FF
4DDC	DD40		MOVE R13, (R4)'
4DDE	005F		GETA R5, $0
4DE0	F4FE		SUB R4, #$FF
4DE2	CCC5		SBS R12, R12
4DE4	0F7F		GETA R7, $F
4DE6	5FF4		MOVE (R15)~, R15
4DE8	F15F		SUB R1, #$60
4DEA	EEFE		
4DEC	CDF0		SLE R13, R15
4DEE	0F7A		ADDH R15, R7
4DF0	26FE		MOVE R6, $1FC
4DF2	0D02		INC R13, R0
4DF4	0F7A		ADDH R15, R7
4DF6	0F7B		ADDH2 R15, R7
4DF8	2027		JMP ($004E)

4DFA	02FE		GETB R15, $2
4DFC	F15F		SUB R1, #$60
4DFE	F2FE		SUB R2, #$FF
4E00	F027		BRA $4DDA		; -> -$28(R0)

4E02	08FE		GETB R15, $8
4E04	3350		MOVE $A0, R3
4E06	0F5C		MHL R15, R5
4E08	3450		MOVE $A0, R4
4E0A	0F82		INC R15, R8
4E0C	3A01		MOVE $02, R10
4E0E	0F6F		GETA R6, $F
4E10	F15F		SUB R1, #$60
4E12	EAFE		
4E14	3310		MOVE $20, R3
4E16	0F24		MOVE R15, R2
4E18	7C0B		MOVB (R0), R12
4E1A	0275		AND R2, R7
4E1C	200E		JMP ($001C)

4E1E	CD00		SLE R13, R0
4E20	0F5C		MHL R15, R5
4E22	2717		MOVE R7, $2E
4E24	0D0F		GETA R0, $D
4E26	0F5C		MHL R15, R5
4E28	0F5D		MLH R15, R5
4E2A	2027		JMP ($004E)

4E2C	1FFE		CTRL $F, #$FE
4E2E	8D10		LBI R13, #$10
4E30	050F		GETA R0, $5
4E32	5C20		MOVE (R2)', R12
4E34	271F		MOVE R7, $3E
4E36	3C72		MOVE $E4, R12
4E38	0BB4		MOVE R11, R11
4E3A	F05F		BRA $4DDC		; -> -$60(R0)

4E3C	E2FE		
4E3E	3908		MOVE $10, R9
4E40	0F9C		MHL R15, R9
4E42	2725		MOVE R7, $4A
4E44	BCD7		SET R12, #$D7
4E46	2AF0		MOVE R10, $1E0
4E48	29A0		MOVE R9, $140
4E4A	BC40		SET R12, #$40
4E4C	2A89		MOVE R10, $112
4E4E	0542		INC R5, R4
4E50	0040		DEC2 R0, R4
4E52	F029		BRA $4E2A		; -> -$2A(R0)

4E54	A0FE		BRA $4F55		; $FF(R0)

4E56	7310		MOVB (R1)+, R3
4E58	06DC		MHL R6, R13
4E5A	7D00		MOVB (R0)+, R13
4E5C	2736		MOVE R7, $6C
4E5E	3370		MOVE $E0, R3
4E60	5FF4		MOVE (R15)~, R15
4E62	F15F		SUB R1, #$60
4E64	F8FE		SUB R8, #$FF
4E66	DD7D		MOVE R13, (R7)
4E68	005F		GETA R5, $0
4E6A	F4FE		SUB R4, #$FF
4E6C	3300		MOVE $00, R3
4E6E	5FF4		MOVE (R15)~, R15
4E70	7310		MOVB (R1)+, R3
4E72	01FB		ADDH2 R1, R15
4E74	6010		MOVB R0, (R1)+
4E76	F15F		SUB R1, #$60
4E78	E0FE		ROR3 R15
4E7A	F129		SUB R1, #$2A
4E7C	CBFE		SNBC R11, R15
4E7E	DD6B		MOVE R13, (R6)
4E80	0027		XOR R0, R2
4E82	5773		MOVE (R7)++, R7
4E84	1001		CTRL $0, #$01
4E86	DD7D		MOVE R13, (R7)
4E88	0027		XOR R0, R2
4E8A	550C		MOVE (R0), R5
4E8C	100F		CTRL $0, #$0F
4E8E	A40F		ADD R4, #$10
4E90	5C33		MOVE (R3)++, R12
4E92	005F		GETA R5, $0
4E94	F473		SUB R4, #$74
4E96	1001		CTRL $0, #$01
4E98	FB60		SUB R11, #$61
4E9A	10F1		CTRL $0, #$F1
4E9C	5FE0		MOVE (R14)', R15
4E9E	F129		SUB R1, #$2A
4EA0	CBFE		SNBC R11, R15
4EA2	DD6B		MOVE R13, (R6)
4EA4	0027		XOR R0, R2
4EA6	5773		MOVE (R7)++, R7
4EA8	1001		CTRL $0, #$01
4EAA	F15F		SUB R1, #$60
4EAC	F6FE		SUB R6, #$FF
4EAE	DD40		MOVE R13, (R4)'
4EB0	005F		GETA R5, $0
4EB2	F4CC		SUB R4, #$CD
4EB4	C50F		SNBSH R5, R0
4EB6	7F5F		MOVB (R5), R15
4EB8	F4F1		SUB R4, #$F2
4EBA	5FEE		MOVE (R14), R15
4EBC	3350		MOVE $A0, R3
4EBE	0F5C		MHL R15, R5
4EC0	3450		MOVE $A0, R4
4EC2	0F82		INC R15, R8
4EC4	3A01		MOVE $02, R10
4EC6	0F6F		GETA R6, $F
4EC8	3A04		MOVE $08, R10
4ECA	0F6E		GETB R6, $F
4ECC	F15F		SUB R1, #$60
4ECE	EAFE		
4ED0	4D01		PUTB $D, (R0)++
4ED2	0C0E		GETB R0, $C
4ED4	DA28		MOVE R10, (R2)
4ED6	2772		MOVE R7, $E4
4ED8	3B04		MOVE $08, R11
4EDA	0F6E		GETB R6, $F
4EDC	3C44		MOVE $88, R12
4EDE	0BB4		MOVE R11, R11
4EE0	F05F		BRA $4E82		; -> -$60(R0)

4EE2	E2FE		
4EE4	490F		PUTB $9, (R0)
4EE6	0200		DEC2 R2, R0
4EE8	00F1		DEC R0, R15
4EEA	5FEE		MOVE (R14), R15
4EEC	3B01		MOVE $02, R11
4EEE	0F6F		GETA R6, $F
4EF0	3B04		MOVE $08, R11
4EF2	0F6E		GETB R6, $F
4EF4	CDF0		SLE R13, R15
4EF6	0F7A		ADDH R15, R7
4EF8	2782		MOVE R7, $104
4EFA	0D02		INC R13, R0
4EFC	0F7A		ADDH R15, R7
4EFE	0F7B		ADDH2 R15, R7
4F00	2027		JMP ($004E)

4F02	86FE		LBI R6, #$FE
4F04	F15F		SUB R1, #$60
4F06	F2FE		SUB R2, #$FF
4F08	F027		BRA $4EE2		; -> -$28(R0)

4F0A	97FE		CLR R7, #$FE
4F0C	CD00		SLE R13, R0
4F0E	0FA4		MOVE R15, R10
4F10	2791		MOVE R7, $122
4F12	0D0F		GETA R0, $D
4F14	0FA4		MOVE R15, R10
4F16	0FA5		AND R15, R10
4F18	2827		MOVE R8, $4E
4F1A	913C		CLR R1, #$3C
4F1C	320B		MOVE $16, R2
4F1E	B4F0		SET R4, #$F0
4F20	5FE2		MOVE (R14)+', R15
4F22	3350		MOVE $A0, R3
4F24	0FA4		MOVE R15, R10
4F26	3450		MOVE $A0, R4
4F28	0F82		INC R15, R8
4F2A	3A01		MOVE $02, R10
4F2C	0F6F		GETA R6, $F
4F2E	F15F		SUB R1, #$60
4F30	EAFE		
4F32	7520		MOVB (R2)+, R5
4F34	0E38		ADD R14, R3
4F36	100B		CTRL $0, #$0B
4F38	A227		ADD R2, #$28
4F3A	A1FE		ADD R1, #$FF
4F3C	EC40		
4F3E	2B29		MOVE R11, $52
4F40	DEFE		MOVE R14, (R15)
4F42	CD00		SLE R13, R0
4F44	0FA4		MOVE R15, R10
4F46	27A9		MOVE R7, $152
4F48	0D0F		GETA R0, $D
4F4A	0FA4		MOVE R15, R10
4F4C	0FA5		AND R15, R10
4F4E	2027		JMP ($004E)

4F50	B1FE		SET R1, #$FE
4F52	8D10		LBI R13, #$10
4F54	050F		GETA R0, $5
4F56	A420		ADD R4, #$21
4F58	27B1		MOVE R7, $162
4F5A	3C72		MOVE $E4, R12
4F5C	0BB4		MOVE R11, R11
4F5E	F05F		BRA $4F00		; -> -$60(R0)

4F60	E2FE		
4F62	EC40		
4F64	2A27		MOVE R10, $4E
4F66	B73C		SET R7, #$3C
4F68	6F0B		MOVB R15, (R0)
4F6A	B4F0		SET R4, #$F0
4F6C	5FE2		MOVE (R14)+', R15
4F6E	2C10		MOVE R12, $20
4F70	05CC		MHL R5, R12
4F72	058C		MHL R5, R8
4F74	1005		CTRL $0, #$05
4F76	0F5C		MHL R15, R5
4F78	7C0B		MOVB (R0), R12
4F7A	02F0		DEC2 R2, R15
4F7C	29A0		MOVE R9, $140
4F7E	3A10		MOVE $20, R10
4F80	0F9C		MHL R15, R9
4F82	7310		MOVB (R1)+, R3
4F84	04DC		MHL R4, R13
4F86	7D00		MOVB (R0)+, R13
4F88	27CC		MOVE R7, $198
4F8A	3370		MOVE $E0, R3
4F8C	27D4		MOVE R7, $1A8
4F8E	F15F		SUB R1, #$60
4F90	F8FE		SUB R8, #$FF
4F92	DD7D		MOVE R13, (R7)
4F94	0027		XOR R0, R2
4F96	D2FE		MOVE R2, (R15)
4F98	F129		SUB R1, #$2A
4F9A	85FE		LBI R5, #$FE
4F9C	DD6B		MOVE R13, (R6)
4F9E	0027		XOR R0, R2
4FA0	D473		MOVE R4, (R7)++
4FA2	1001		CTRL $0, #$01
4FA4	F15F		SUB R1, #$60
4FA6	F6FE		SUB R6, #$FF
4FA8	DD40		MOVE R13, (R4)'
4FAA	005F		GETA R5, $0
4FAC	F4CD		SUB R4, #$CE
4FAE	C50F		SNBSH R5, R0
4FB0	7F27		MOVB (R2)----, R15
4FB2	DD38		MOVE R13, (R3)
4FB4	100F		CTRL $0, #$0F
4FB6	9C5F		CLR R12, #$5F
4FB8	F4FE		SUB R4, #$FF
4FBA	CDF0		SLE R13, R15
4FBC	0F7A		ADDH R15, R7
4FBE	27E5		MOVE R7, $1CA
4FC0	0D02		INC R13, R0
4FC2	0F7A		ADDH R15, R7
4FC4	0F7B		ADDH2 R15, R7
4FC6	2027		JMP ($004E)

4FC8	E9FE		
4FCA	F15F		SUB R1, #$60
4FCC	F2FE		SUB R2, #$FF
4FCE	F027		BRA $4FA8		; -> -$28(R0)

4FD0	F6FE		SUB R6, #$FF
4FD2	CCC5		SBS R12, R12
4FD4	0F7F		GETA R7, $F
4FD6	5FF4		MOVE (R15)~, R15
4FD8	CD00		SLE R13, R0
4FDA	0F5C		MHL R15, R5
4FDC	27F4		MOVE R7, $1E8
4FDE	0D0F		GETA R0, $D
4FE0	0F5C		MHL R15, R5
4FE2	0F5D		MLH R15, R5
4FE4	205F		JMP ($00BE)

4FE6	F4FE		SUB R4, #$FF
4FE8	3A01		MOVE $02, R10
4FEA	0F6F		GETA R6, $F
4FEC	F15F		SUB R1, #$60
4FEE	EEFE		
4FF0	3801		MOVE $02, R8
4FF2	0F6F		GETA R6, $F
4FF4	27FF		MOVE R7, $1FE
4FF6	3350		MOVE $A0, R3
4FF8	0F5C		MHL R15, R5
4FFA	3450		MOVE $A0, R4
4FFC	0F82		INC R15, R8
4FFE	F15F		SUB R1, #$60
5000	EAFE		
5002	3310		MOVE $20, R3
5004	0F24		MOVE R15, R2
5006	DC0E		MOVE R12, (R0)
5008	0028		ADD R0, R2
500A	4675		PUTB $6, (R7)--
500C	200E		JMP ($001C)

500E	ED40		
5010	4228		PUTB $2, (R2)
5012	10AD		CTRL $0, #$AD
5014	0442		INC R4, R4
5016	4328		PUTB $3, (R2)
5018	2810		MOVE R8, $20
501A	EC40		
501C	2A28		MOVE R10, $50
501E	14FE		CTRL $4, #$FE
5020	3C6F		MOVE $DE, R12
5022	0BB4		MOVE R11, R11
5024	F05F		BRA $4FC6		; -> -$60(R0)

5026	E2FE		
5028	CD00		SLE R13, R0
502A	0F5C		MHL R15, R5
502C	281C		MOVE R8, $38
502E	0D0F		GETA R0, $D
5030	0F5C		MHL R15, R5
5032	0F5D		MLH R15, R5
5034	2028		JMP ($0050)

5036	24FE		MOVE R4, $1FC
5038	8D10		LBI R13, #$10
503A	050F		GETA R0, $5
503C	5C20		MOVE (R2)', R12
503E	2824		MOVE R8, $48
5040	3C72		MOVE $E4, R12
5042	0BB4		MOVE R11, R11
5044	F05F		BRA $4FE6		; -> -$60(R0)

5046	E2FE		
5048	3810		MOVE $20, R8
504A	0F9C		MHL R15, R9
504C	282E		MOVE R8, $5C
504E	8901		LBI R9, #$01
5050	4D00		PUTB $D, (R0)+
5052	00BC		MHL R0, R11
5054	402B		PUTB $0, (R2)
5056	7C0B		MOVB (R0), R12
5058	02F0		DEC2 R2, R15
505A	29A0		MOVE R9, $140
505C	1C01		CTRL $C, #$01
505E	0F82		INC R15, R8
5060	087C		MHL R8, R7
5062	0003		INC2 R0, R0
5064	3B01		MOVE $02, R11
5066	0F6F		GETA R6, $F
5068	3A01		MOVE $02, R10
506A	0F6E		GETB R6, $F
506C	F15F		SUB R1, #$60
506E	EAFE		
5070	3310		MOVE $20, R3
5072	0F24		MOVE R15, R2
5074	4D01		PUTB $D, (R0)++
5076	0C0E		GETB R0, $C
5078	DA28		MOVE R10, (R2)
507A	5FDE		MOVE (R13), R15
507C	7C05		MOVB (R0)--, R12
507E	024C		MHL R2, R4
5080	0108		ADD R1, R0
5082	0EDA		ADDH R14, R13
5084	4C01		PUTB $C, (R0)++
5086	0E0E		GETB R0, $E
5088	DBF0		MOVE R11, (R15)'
508A	29A0		MOVE R9, $140
508C	7520		MOVB (R2)+, R5
508E	04CD		MLH R4, R12
5090	000F		GETA R0, $0
5092	5C28		MOVE (R2), R12
5094	4F0D		PUTB $F, (R0)
5096	0F0F		GETA R0, $F
5098	5C0F		MOVE (R0), R12
509A	5D20		MOVE (R2)', R13
509C	2857		MOVE R8, $AE
509E	8D10		LBI R13, #$10
50A0	800F		LBI R0, #$0F
50A2	5C20		MOVE (R2)', R12
50A4	2857		MOVE R8, $AE
50A6	3C72		MOVE $E4, R12
50A8	0BB4		MOVE R11, R11
50AA	F05F		BRA $504C		; -> -$60(R0)

50AC	E2FE		
50AE	BC00		SET R12, #$00
50B0	0033		INC2 R0, R3
50B2	5001		MOVE (R0)+, R0
50B4	FBBC		SUB R11, #$BD
50B6	0005		AND R0, R0
50B8	A450		ADD R4, #$51
50BA	0605		AND R6, R0
50BC	7C0B		MOVB (R0), R12
50BE	02F0		DEC2 R2, R15
50C0	29A0		MOVE R9, $140
50C2	7310		MOVB (R1)+, R3
50C4	04DD		MLH R4, R13
50C6	4000		PUTB $0, (R0)+
50C8	5FF4		MOVE (R15)~, R15
50CA	CE00		SLE R14, R0
50CC	0B3C		MHL R11, R3
50CE	28A9		MOVE R8, $152
50D0	3A08		MOVE $10, R10
50D2	00A2		INC R0, R10
50D4	F177		SUB R1, #$78
50D6	EAFE		
50D8	0903		INC2 R9, R0
50DA	0B6E		GETB R6, $B
50DC	0000		HALT
50DE	0905		AND R9, R0
50E0	0B7C		MHL R11, R7
50E2	0000		HALT
50E4	091D		MLH R9, R1
50E6	0B82		INC R11, R8
50E8	0000		HALT
50EA	0C01		DEC R12, R0
50EC	0DB0		DEC2 R13, R11
50EE	0DAE		GETB R10, $D
50F0	F117		SUB R1, #$18
50F2	F2FE		SUB R2, #$FF
50F4	F183		SUB R1, #$84
50F6	F0FE		BRA $4FF9		; -> -$FF(R0)

50F8	3310		MOVE $20, R3
50FA	0B3C		MHL R11, R3
50FC	7520		MOVB (R2)+, R5
50FE	009F		GETA R9, $0
5100	1004		CTRL $0, #$04
5102	009F		GETA R9, $0
5104	100A		CTRL $0, #$0A
5106	009F		GETA R9, $0
5108	1016		CTRL $0, #$16
510A	009F		GETA R9, $0
510C	1024		CTRL $0, #$24
510E	00B5		AND R0, R11
5110	0018		ADD R0, R1
5112	3330		MOVE $60, R3
5114	0004		NOP
5116	F800		SUB R8, #$01
5118	3035		MOVE $6A, R0
511A	100B		CTRL $0, #$0B
511C	61F9		MOVB R1, (R15)
511E	1000		CTRL $0, #$00
5120	F900		SUB R9, #$01
5122	3064		MOVE $C8, R0
5124	0000		HALT
5126	00FB		ADDH2 R0, R15
5128	2010		JMP ($0020)

512A	F810		SUB R8, #$11
512C	0074		RET R7

512E	2000		JMP ($0000)

5130	3420		MOVE $40, R4
5132	0B3C		MHL R11, R3
5134	4C02		PUTB $C, (R0)+++
5136	020B		ADDH2 R2, R0
5138	699E		MOVB R9, (R9)
513A	1004		CTRL $0, #$04
513C	009E		GETB R9, $0
513E	100A		CTRL $0, #$0A
5140	009E		GETB R9, $0
5142	1016		CTRL $0, #$16
5144	009E		GETB R9, $0
5146	1024		CTRL $0, #$24
5148	0037		XOR R0, R3
514A	200E		JMP ($001C)

514C	DB34		MOVE R11, (R3)~
514E	200B		JMP ($0016)

5150	61FE		MOVB R1, (R15)
5152	3310		MOVE $20, R3
5154	0F24		MOVE R15, R2
5156	7C03		MOVB (R0)++++, R12
5158	004C		MHL R0, R4
515A	0106		OR R1, R0
515C	0B61		DEC R11, R6
515E	D300		MOVE R3, (R0)'
5160	00FE		GETB R15, $0
5162	3B08		MOVE $10, R11
5164	00A2		INC R0, R10
5166	F05F		BRA $5108		; -> -$60(R0)

5168	D8FE		MOVE R8, (R15)
516A	7310		MOVB (R1)+, R3
516C	053C		MHL R5, R3
516E	C40F		SNBSH R4, R0
5170	7FDC		MOVB (R13), R15
5172	4000		PUTB $0, (R0)+
5174	2909		MOVE R9, $12
5176	DD6B		MOVE R13, (R6)
5178	0028		ADD R0, R2
517A	C173		SZ R1
517C	1001		CTRL $0, #$01
517E	F028		BRA $5157		; -> -$29(R0)

5180	CBFE		SNBC R11, R15
5182	3A20		MOVE $40, R10
5184	0F9C		MHL R15, R9
5186	3330		MOVE $60, R3
5188	0007		XOR R0, R0
518A	3320		MOVE $40, R3
518C	0F5C		MHL R15, R5
518E	8905		LBI R9, #$05
5190	0000		HALT
5192	40F1		PUTB $0, (R15)++
5194	29B5		MOVE R9, $16A
5196	DD6B		MOVE R13, (R6)
5198	0028		ADD R0, R2
519A	D173		MOVE R1, (R7)++
519C	1001		CTRL $0, #$01
519E	F028		BRA $5177		; -> -$29(R0)

51A0	DBFE		MOVE R11, (R15)
51A2	3A40		MOVE $80, R10
51A4	0F9C		MHL R15, R9
51A6	3330		MOVE $60, R3
51A8	000F		GETA R0, $0
51AA	3320		MOVE $40, R3
51AC	0FA4		MOVE R15, R10
51AE	890D		LBI R9, #$0D
51B0	0000		HALT
51B2	40F1		PUTB $0, (R15)++
51B4	29B5		MOVE R9, $16A
51B6	DC6B		MOVE R12, (R6)
51B8	0029		SUB R0, R2
51BA	0333		INC2 R3, R3
51BC	7000		MOVB (R0)+, R0
51BE	0340		DEC2 R3, R4
51C0	7000		MOVB (R0)+, R0
51C2	0320		DEC2 R3, R2
51C4	2828		MOVE R8, $50
51C6	EE3A		
51C8	080F		GETA R0, $8
51CA	9C73		CLR R12, #$73
51CC	1003		CTRL $0, #$03
51CE	DC6B		MOVE R12, (R6)
51D0	0029		SUB R0, R2
51D2	03DD		MLH R3, R13
51D4	4000		PUTB $0, (R0)+
51D6	5FF4		MOVE (R15)~, R15
51D8	F029		BRA $51B0		; -> -$2A(R0)

51DA	09FE		GETB R15, $9
51DC	DDD6		MOVE R13, (R13)-~
51DE	005F		GETA R5, $0
51E0	F4DD		SUB R4, #$DE
51E2	D501 5FF4	LWI R5, #$5FF4
51E6	3820		MOVE $40, R8
51E8	0F9C		MHL R15, R9
51EA	5FF4		MOVE (R15)~, R15
51EC	3840		MOVE $80, R8
51EE	0F9C		MHL R15, R9
51F0	5FF4		MOVE (R15)~, R15
51F2	7310		MOVB (R1)+, R3
51F4	023A		ADDH R2, R3
51F6	100F		CTRL $0, #$0F
51F8	9CDC		CLR R12, #$DC
51FA	6B00		MOVB R11, (R0)+
51FC	2903		MOVE R9, $06
51FE	DC40		MOVE R12, (R4)'
5200	0029		SUB R0, R2
5202	09F0		DEC2 R9, R15
5204	5FF4		MOVE (R15)~, R15
5206	7310		MOVB (R1)+, R3
5208	01F1		DEC R1, R15
520A	5FF6		MOVE (R15)-~, R15
520C	DD40		MOVE R13, (R4)'
520E	005F		GETA R5, $0
5210	F4FE		SUB R4, #$FF
5212	CCC5		SBS R12, R12
5214	0F7F		GETA R7, $F
5216	5FF4		MOVE (R15)~, R15
5218	3A10		MOVE $20, R10
521A	0F6E		GETB R6, $F
521C	F15F		SUB R1, #$60
521E	EEFE		
5220	3B10		MOVE $20, R11
5222	0F6E		GETB R6, $F
5224	3310		MOVE $20, R3
5226	0F24		MOVE R15, R2
5228	7520		MOVB (R2)+, R5
522A	0433		INC2 R4, R3
522C	00F4		RET R15

522E	F3D4		SUB R3, #$D5
5230	000C		MHL R0, R0
5232	2829		MOVE R8, $52
5234	288D		MOVE R8, $11A
5236	0504		MOVE R5, R0
5238	0F5C		MHL R15, R5
523A	285F		MOVE R8, $BE
523C	DE8D		MOVE R14, (R8)
523E	0D25		AND R13, R2
5240	0FA4		MOVE R15, R10
5242	285F		MOVE R8, $BE
5244	DE38		MOVE R14, (R3)
5246	080F		GETA R0, $8
5248	9C29		CLR R12, #$29
524A	28FE		MOVE R8, $1FC
524C	BC40		SET R12, #$40
524E	0AFE		GETB R15, $A
5250	3310		MOVE $20, R3
5252	05CC		MHL R5, R12
5254	6C05		MOVB R12, (R0)--
5256	0004		NOP
5258	7C6B		MOVB (R6), R12
525A	0673		INC2 R6, R7
525C	1007		CTRL $0, #$07
525E	6C0D		MOVB R12, (R0)
5260	0025		AND R0, R2
5262	7C6B		MOVB (R6), R12
5264	0E73		INC2 R14, R7
5266	100F		CTRL $0, #$0F
5268	ED40		
526A	4B29		PUTB $B, (R2)
526C	3A33		MOVE $66, R10
526E	4000		PUTB $0, (R0)+
5270	80F0		LBI R0, #$F0
5272	294F		MOVE R9, $9E
5274	EDF1		
5276	4B29		PUTB $B, (R2)
5278	4033		PUTB $0, (R3)++++
527A	4001		PUTB $0, (R0)++
527C	00F0		DEC2 R0, R15
527E	294F		MOVE R9, $9E
5280	EDF2		
5282	4B29		PUTB $B, (R2)
5284	4633		PUTB $6, (R3)++++
5286	4002		PUTB $0, (R0)+++
5288	00F0		DEC2 R0, R15
528A	294F		MOVE R9, $9E
528C	ECF3		
528E	4B29		PUTB $B, (R2)
5290	4D49		PUTB $D, (R4)
5292	0300		DEC2 R3, R0
5294	006F		GETA R6, $0
5296	F029		BRA $526E		; -> -$2A(R0)

5298	53FE		MOVE (R15), R3
529A	3340		MOVE $80, R3
529C	0400		DEC2 R4, R0
529E	3440		MOVE $80, R4
52A0	0F1A		ADDH R15, R1
52A2	F15F		SUB R1, #$60
52A4	E4FE		
52A6	3310		MOVE $20, R3
52A8	0F24		MOVE R15, R2
52AA	7520		MOVB (R2)+, R5
52AC	0439		SUB R4, R3
52AE	200F		JMP ($001E)

52B0	9C29		CLR R12, #$29
52B2	5FFE		MOVE (R15), R15
52B4	3940		MOVE $80, R9
52B6	0F9C		MHL R15, R9
52B8	296D		MOVE R9, $DA
52BA	F029		BRA $5292		; -> -$2A(R0)

52BC	AFFE		ADD R15, #$FF
52BE	CD00		SLE R13, R0
52C0	0F5C		MHL R15, R5
52C2	2967		MOVE R9, $CE
52C4	0D04		MOVE R13, R0
52C6	0F5C		MHL R15, R5
52C8	0F5D		MLH R15, R5
52CA	2029		JMP ($0052)

52CC	6AFE		MOVB R10, (R15)
52CE	8C05		LBI R12, #$05
52D0	040F		GETA R0, $4
52D2	5CFE		MOVE (R15), R12
52D4	3840		MOVE $80, R8
52D6	0F9C		MHL R15, R9
52D8	2978		MOVE R9, $F0
52DA	CD00		SLE R13, R0
52DC	0FA4		MOVE R15, R10
52DE	2975		MOVE R9, $EA
52E0	0D0C		MHL R13, R0
52E2	0FA4		MOVE R15, R10
52E4	0FA5		AND R15, R10
52E6	2029		JMP ($0052)

52E8	78FE		MOVB (R15), R8
52EA	8C0D		LBI R12, #$0D
52EC	250F		MOVE R5, $1E
52EE	A4FE		ADD R4, #$FF
52F0	3810		MOVE $20, R8
52F2	0F9C		MHL R15, R9
52F4	297D		MOVE R9, $FA
52F6	BCD7		SET R12, #$D7
52F8	0AFE		GETB R15, $A
52FA	7C02		MOVB (R0)+++, R12
52FC	027A		ADDH R2, R7
52FE	0103		INC2 R1, R0
5300	7C00		MOVB (R0)+, R12
5302	087C		MHL R8, R7
5304	0709		SUB R7, R0
5306	F029		BRA $52DE		; -> -$2A(R0)

5308	A0FE		BRA $5409		; $FF(R0)

530A	FB70		SUB R11, #$71
530C	8073		LBI R0, #$73
530E	1001		CTRL $0, #$01
5310	3320		MOVE $40, R3
5312	0F5C		MHL R15, R5
5314	8910		LBI R9, #$10
5316	0000		HALT
5318	4033		PUTB $0, (R3)++++
531A	5000		MOVE (R0)', R0
531C	12FB		CTRL $2, #$FB
531E	6050		MOVB R0, (R5)+
5320	DC7D		MOVE R12, (R7)
5322	0029		SUB R0, R2
5324	9A37		CLR R10, #$37
5326	500E		MOVE (R0), R0
5328	DBC0		MOVE R11, (R12)'
532A	825F		LBI R2, #$5F
532C	F4F1		SUB R4, #$F2
532E	0BF2		INC R11, R15
5330	F029		BRA $5308		; -> -$2A(R0)

5332	90FE		CLR R0, #$FE
5334	FA50		SUB R10, #$51
5336	6020		MOVB R0, (R2)+
5338	5FF4		MOVE (R15)~, R15
533A	7310		MOVB (R1)+, R3
533C	01FC		MHL R1, R15
533E	7000		MOVB (R0)+, R0
5340	D300		MOVE R3, (R0)'
5342	00FE		GETB R15, $0
5344	7910		MOVB (R1)+, R9
5346	1129		CTRL $1, #$29
5348	A2FE		ADD R2, #$FF
534A	4D01		PUTB $D, (R0)++
534C	0C0E		GETB R0, $C
534E	DA28		MOVE R10, (R2)
5350	5FDE		MOVE (R13), R15
5352	3980		MOVE $100, R9
5354	00A4		RET R10

5356	5FDA		MOVE (R13), R15
5358	3980		MOVE $100, R9
535A	0F6E		GETB R6, $F
535C	5FE2		MOVE (R14)+', R15
535E	3A10		MOVE $20, R10
5360	0BA1		DEC R11, R10
5362	3C80		MOVE $100, R12
5364	0BB5		AND R11, R11
5366	F05F		BRA $5308		; -> -$60(R0)

5368	E2FE		
536A	FB70		SUB R11, #$71
536C	80FE		LBI R0, #$FE
536E	7012		MOVB (R1)+++, R0
5370	0029		SUB R0, R2
5372	0929		SUB R9, R2
5374	C329		SGE R3, R2
5376	C329		SGE R3, R2
5378	BD00		SET R13, #$00
537A	DD6B		MOVE R13, (R6)
537C	005F		GETA R5, $0
537E	F473		SUB R4, #$74
5380	1001		CTRL $0, #$01
5382	FC70		SUB R12, #$71
5384	00FE		GETB R15, $0
5386	F10B		SUB R1, #$0C
5388	F2FE		SUB R2, #$FF
538A	3730		MOVE $60, R7
538C	0EDB		ADDH2 R14, R13
538E	C081		SLT R0, R8
5390	5FF4		MOVE (R15)~, R15
5392	F029		BRA $536A		; -> -$2A(R0)

5394	B7FE		SET R7, #$FE
5396	3320		MOVE $40, R3
5398	0F5C		MHL R15, R5
539A	8910		LBI R9, #$10
539C	0000		HALT
539E	40FB		PUTB $0, (R15)
53A0	0010		DEC2 R0, R1
53A2	FB10		SUB R11, #$11
53A4	6094		MOVB R0, (R9)-
53A6	4000		PUTB $0, (R0)+
53A8	00FB		ADDH2 R0, R15
53AA	1000		CTRL $0, #$00
53AC	FC80		SUB R12, #$81
53AE	00FE		GETB R15, $0
53B0	3350		MOVE $A0, R3
53B2	0F24		MOVE R15, R2
53B4	3450		MOVE $A0, R4
53B6	0BB6		OR R11, R11
53B8	F08F		BRA $532A		; -> -$90(R0)

53BA	EEFE		
53BC	3C6E		MOVE $DC, R12
53BE	0BB4		MOVE R11, R11
53C0	F05F		BRA $5362		; -> -$60(R0)

53C2	E2FE		
53C4	3C80		MOVE $100, R12
53C6	0BB5		AND R11, R11
53C8	F08F		BRA $533A		; -> -$90(R0)

53CA	EEFE		
53CC	3C40		MOVE $80, R12
53CE	0BA2		INC R11, R10
53D0	F08F		BRA $5342		; -> -$90(R0)

53D2	EEFE		
53D4	3C1C		MOVE $38, R12
53D6	0BB4		MOVE R11, R11
53D8	F08F		BRA $534A		; -> -$90(R0)

53DA	EEFE		
53DC	3350		MOVE $A0, R3
53DE	0F8A		ADDH R15, R8
53E0	3450		MOVE $A0, R4
53E2	0BB6		OR R11, R11
53E4	F08F		BRA $5356		; -> -$90(R0)

53E6	EEFE		
53E8	7310		MOVB (R1)+, R3
53EA	03F1		DEC R3, R15
53EC	5FF6		MOVE (R15)-~, R15
53EE	DD40		MOVE R13, (R4)'
53F0	005F		GETA R5, $0
53F2	F40C		SUB R4, #$0D
53F4	020B		ADDH2 R2, R0
53F6	690F		MOVB R9, (R0)
53F8	7FF0		MOVB (R15)+, R15
53FA	29E2		MOVE R9, $1C4
53FC	03E8		ADD R3, R14
53FE	F0F9		BRA $5306		; -> -$FA(R0)

5400	F1F0		SUB R1, #$F1
5402	4040		PUTB $0, (R4)+
5404	0941		DEC R9, R4
5406	108C		CTRL $0, #$8C
5408	0040		DEC2 R0, R4
540A	3B10		MOVE $20, R11
540C	0BA3		INC2 R11, R10
540E	3300		MOVE $00, R3
5410	2A5D		MOVE R10, $BA
5412	3400		MOVE $00, R4
5414	105E		CTRL $0, #$5E
5416	3410		MOVE $20, R4
5418	1060		CTRL $0, #$60
541A	0B03		INC2 R11, R0
541C	108C		CTRL $0, #$8C
541E	10CE		CTRL $0, #$CE
5420	3320		MOVE $40, R3
5422	1090		CTRL $0, #$90
5424	CDF0		SLE R13, R15
5426	108C		CTRL $0, #$8C
5428	2A22		MOVE R10, $44
542A	0330		DEC2 R3, R3
542C	108C		CTRL $0, #$8C
542E	0007		XOR R0, R0
5430	3300		MOVE $00, R3
5432	0001		DEC R0, R0
5434	F920		SUB R9, #$21
5436	00F0		DEC2 R0, R15
5438	2A12		MOVE R10, $24
543A	3480		MOVE $100, R4
543C	105E		CTRL $0, #$5E
543E	3902		MOVE $04, R9
5440	0BA5		AND R11, R10
5442	2A26		MOVE R10, $4C
5444	3360		MOVE $C0, R3
5446	05BF		GETA R11, $5
5448	3420		MOVE $40, R4
544A	0FCA		ADDH R15, R12
544C	3C00		MOVE $00, R12
544E	0FCC		MHL R15, R12
5450	9C00		CLR R12, #$00
5452	0000		HALT
5454	3980		MOVE $100, R9
5456	0FCC		MHL R15, R12
5458	2A40		MOVE R10, $80
545A	E980		
545C	002A		ADDH R0, R2
545E	39BA		MOVE $174, R9
5460	4000		PUTB $0, (R0)+
5462	B012		SET R0, #$12
5464	002A		ADDH R0, R2
5466	372A		MOVE $54, R7
5468	372A		MOVE $54, R7
546A	392A		MOVE $54, R9
546C	3700		MOVE $00, R7
546E	9C00		CLR R12, #$00
5470	0000		HALT
5472	EDBF		STAT R11, $D
5474	002A		ADDH R0, R2
5476	3DBC		MOVE $178, R13
5478	4F00		PUTB $F, (R0)+
547A	EC40		
547C	002A		ADDH R0, R2
547E	42FE		PUTB $2, (R15)
5480	B320		SET R3, #$20
5482	01FE		GETB R15, $1
5484	DD7D		MOVE R13, (R7)
5486	002A		ADDH R0, R2
5488	563E		MOVE (R3), R6
548A	800F		LBI R0, #$0F
548C	CCC0		SLE R12, R12
548E	202A		JMP ($0054)

5490	56DC		MOVE (R13), R6
5492	7D01		MOVB (R0)++, R13
5494	2A56		MOVE R10, $AC
5496	7310		MOVB (R1)+, R3
5498	01FA		ADDH R1, R15
549A	1060		CTRL $0, #$60
549C	002A		ADDH R0, R2
549E	5BDC		MOVE (R13), R11
54A0	4000		PUTB $0, (R0)+
54A2	2A4B		MOVE R10, $96
54A4	DC7D		MOVE R12, (R7)
54A6	002B		ADDH2 R0, R2
54A8	4BF0		PUTB $B, (R15)+
54AA	2A28		MOVE R10, $50
54AC	7310		MOVB (R1)+, R3
54AE	01FA		ADDH R1, R15
54B0	1060		CTRL $0, #$60
54B2	082A		ADDH R8, R2
54B4	28FE		MOVE R8, $1FC
54B6	3100		MOVE $00, R1
54B8	105E		CTRL $0, #$5E
54BA	3510		MOVE $20, R5
54BC	0FCA		ADDH R15, R12
54BE	3320		MOVE $40, R3
54C0	10D0		CTRL $0, #$D0
54C2	3801		MOVE $02, R8
54C4	0B6D		MLH R11, R6
54C6	2A6B		MOVE R10, $D6
54C8	3300		MOVE $00, R3
54CA	0002		INC R0, R0
54CC	0000		HALT
54CE	10CE		CTRL $0, #$CE
54D0	02B2		INC R2, R11
54D2	0083		INC2 R0, R8
54D4	EEFE		
54D6	3901		MOVE $02, R9
54D8	0B6D		MLH R11, R6
54DA	2A8B		MOVE R10, $116
54DC	3300		MOVE $00, R3
54DE	0003		INC2 R0, R0
54E0	4000		PUTB $0, (R0)+
54E2	0002		INC R0, R0
54E4	D9FE		MOVE R9, (R15)
54E6	202B		JMP ($0056)

54E8	53FE		MOVE (R15), R3
54EA	3808		MOVE $10, R8
54EC	0B6D		MLH R11, R6
54EE	2A84		MOVE R10, $108
54F0	3300		MOVE $00, R3
54F2	0002		INC R0, R0
54F4	0000		HALT
54F6	10CE		CTRL $0, #$CE
54F8	02B2		INC R2, R11
54FA	002B		ADDH2 R0, R2
54FC	433B		PUTB $3, (R3)
54FE	080B		ADDH2 R8, R0
5500	6D3A		MOVB R13, (R3)
5502	010B		ADDH2 R1, R0
5504	6DF0		MOVB R13, (R15)+
5506	2A8B		MOVE R10, $116
5508	3802		MOVE $04, R8
550A	0B6D		MLH R11, R6
550C	2A8B		MOVE R10, $116
550E	3370		MOVE $E0, R3
5510	2FEE		MOVE R15, $1DC
5512	F02B		BRA $54E8		; -> -$2C(R0)

5514	09FE		GETB R15, $9
5516	DC7A		MOVE R12, (R7)
5518	002A		ADDH R0, R2
551A	E039		
551C	040B		ADDH2 R4, R0
551E	6D2B		MOVB R13, (R2)
5520	47FE		PUTB $7, (R15)
5522	0D01		DEC R13, R0
5524	0BAC		MHL R11, R10
5526	0BAA		ADDH R11, R10
5528	182B		CTRL $8, #$2B
552A	4733		PUTB $7, (R3)++++
552C	3001		MOVE $02, R0
552E	AA33		ADD R10, #$34
5530	2001		JMP ($0002)

5532	41FE		PUTB $1, (R15)
5534	E600		
5536	00FE		GETB R15, $0
5538	F600		SUB R6, #$01
553A	07F7		XOR R7, R15
553C	0007		XOR R0, R0
553E	FB70		SUB R11, #$71
5540	20E6		JMP ($01CC)

5542	2001		JMP ($0002)

5544	6000		MOVB R0, (R0)+
5546	0000		HALT
5548	202A		JMP ($0054)

554A	ADFB		ADD R13, #$FC
554C	2070		JMP ($00E0)

554E	B320		SET R3, #$20
5550	03FA		ADDH R3, R15
5552	2030		JMP ($0060)

5554	202A		JMP ($0054)

5556	BFF0		SET R15, #$F0
5558	2A9A		MOVE R10, $134
555A	3300		MOVE $00, R3
555C	0001		DEC R0, R0
555E	F920		SUB R9, #$21
5560	0025		AND R0, R2
5562	0110		DEC2 R1, R1
5564	D000		JMP (R0)'
5566	0C00		DEC2 R12, R0
5568	10D0		CTRL $0, #$D0
556A	10D1		CTRL $0, #$D1
556C	3CFF		MOVE $1FE, R12
556E	10D1		CTRL $0, #$D1
5570	FB20		SUB R11, #$21
5572	70E6		MOVB (R14)---, R0
5574	7002		MOVB (R0)+++, R0
5576	3320		MOVE $40, R3
5578	10D1		CTRL $0, #$D1
557A	F02B		BRA $5550		; -> -$2C(R0)

557C	09FE		GETB R15, $9
557E	3370		MOVE $E0, R3
5580	10CB		CTRL $0, #$CB
5582	7012		MOVB (R1)+++, R0
5584	002A		ADDH R0, R2
5586	DC2A		MOVE R12, (R2)
5588	FE2A		SUB R14, #$2B
558A	C72A		SNE R7, R2
558C	FE00		SUB R14, #$01
558E	3410		MOVE $20, R4
5590	0FC8		ADD R15, R12
5592	7310		MOVB (R1)+, R3
5594	01DC		MHL R1, R13
5596	7E00		MOVB (R0)+, R14
5598	2AD2		MOVE R10, $1A4
559A	FA10		SUB R10, #$11
559C	7020		MOVB (R2)+, R0
559E	2AFE		MOVE R10, $1FC
55A0	F02A		BRA $5577		; -> -$2B(R0)

55A2	C9FE		SNBC R9, R15
55A4	3510		MOVE $20, R5
55A6	0FC8		ADD R15, R12
55A8	3C33		MOVE $66, R12
55AA	10D0		CTRL $0, #$D0
55AC	3320		MOVE $40, R3
55AE	10D1		CTRL $0, #$D1
55B0	3370		MOVE $E0, R3
55B2	83E6		LBI R3, #$E6
55B4	F02B		BRA $558A		; -> -$2C(R0)

55B6	09FE		GETB R15, $9
55B8	3C00		MOVE $00, R12
55BA	0B5A		ADDH R11, R5
55BC	F00B		BRA $55B2		; -> -$0C(R0)

55BE	E6FE		
55C0	3510		MOVE $20, R5
55C2	1060		CTRL $0, #$60
55C4	3C3A		MOVE $74, R12
55C6	10D0		CTRL $0, #$D0
55C8	3340		MOVE $80, R3
55CA	05BF		GETA R11, $5
55CC	F10B		SUB R1, #$0C
55CE	F0FE		BRA $54D1		; -> -$FF(R0)

55D0	9C00		CLR R12, #$00
55D2	0000		HALT
55D4	EDBF		STAT R11, $D
55D6	002A		ADDH R0, R2
55D8	EEBC		
55DA	4F00		PUTB $F, (R0)+
55DC	FA10		SUB R10, #$11
55DE	4028		PUTB $0, (R2)
55E0	2AE6		MOVE R10, $1CC
55E2	3340		MOVE $80, R3
55E4	0001		DEC R0, R0
55E6	ED40		
55E8	002A		ADDH R0, R2
55EA	FABC		SUB R10, #$BD
55EC	FF00		SUB R15, #$01
55EE	F920		SUB R9, #$21
55F0	40F0		PUTB $0, (R15)+
55F2	2AF3		MOVE R10, $1E6
55F4	3370		MOVE $E0, R3
55F6	3BE2		MOVE $1C4, R11
55F8	F02B		BRA $55CE		; -> -$2C(R0)

55FA	09FE		GETB R15, $9
55FC	3920		MOVE $40, R9
55FE	0BA1		DEC R11, R10
5600	2B43		MOVE R11, $86
5602	3A08		MOVE $10, R10
5604	0BA3		INC2 R11, R10
5606	3310		MOVE $20, R3
5608	0580		DEC2 R5, R8
560A	3320		MOVE $40, R3
560C	10CE		CTRL $0, #$CE
560E	F06B		BRA $55A4		; -> -$6C(R0)

5610	E4FE		
5612	3801		MOVE $02, R8
5614	0B6C		MHL R11, R6
5616	2B13		MOVE R11, $26
5618	0D01		DEC R13, R0
561A	0B7A		ADDH R11, R7
561C	10CE		CTRL $0, #$CE
561E	202B		JMP ($0056)

5620	133B		CTRL $3, #$3B
5622	010B		ADDH2 R1, R0
5624	6CFE		MOVB R12, (R15)
5626	C500		SLE R5, R0
5628	10CE		CTRL $0, #$CE
562A	C081		SLT R0, R8
562C	2ADC		MOVE R10, $1B8
562E	FC70		SUB R12, #$71
5630	00FE		GETB R15, $0
5632	3330		MOVE $60, R3
5634	01AA		ADDH R1, R10
5636	3320		MOVE $40, R3
5638	018F		GETA R8, $1
563A	7310		MOVB (R1)+, R3
563C	03FE		GETB R15, $3
563E	E600		
5640	00FE		GETB R15, $0
5642	FB70		SUB R11, #$71
5644	20E6		JMP ($01CC)

5646	2001		JMP ($0002)

5648	6000		MOVB R0, (R0)+
564A	0000		HALT
564C	202B		JMP ($0056)

564E	31FB		MOVE $1F6, R1
5650	2070		JMP ($00E0)

5652	B320		SET R3, #$20
5654	03FA		ADDH R3, R15
5656	2030		JMP ($0060)

5658	282B		MOVE R8, $56
565A	1F33		CTRL $F, #$33
565C	2010		JMP ($0020)

565E	D1F0		MOVE R1, (R15)'
5660	77E8		MOVB (R14), R7
5662	3300		MOVE $00, R3
5664	0001		DEC R0, R0
5666	F920		SUB R9, #$21
5668	0025		AND R0, R2
566A	0110		DEC2 R1, R1
566C	D000		JMP (R0)'
566E	0C00		DEC2 R12, R0
5670	10D0		CTRL $0, #$D0
5672	10D1		CTRL $0, #$D1
5674	FB20		SUB R11, #$21
5676	70E6		MOVB (R14)---, R0
5678	7002		MOVB (R0)+++, R0
567A	3320		MOVE $40, R3
567C	10D1		CTRL $0, #$D1
567E	3E01		MOVE $02, R14
5680	10D0		CTRL $0, #$D0
5682	FC70		SUB R12, #$71
5684	00FE		GETB R15, $0
5686	3C00		MOVE $00, R12
5688	0BB4		MOVE R11, R11
568A	F08F		BRA $55FC		; -> -$90(R0)

568C	EEFE		
568E	3C1B		MOVE $36, R12
5690	0BB4		MOVE R11, R11
5692	F08F		BRA $5604		; -> -$90(R0)

5694	EEFE		
5696	3C03		MOVE $06, R12
5698	0BB4		MOVE R11, R11
569A	F08F		BRA $560C		; -> -$90(R0)

569C	EEFE		
569E	3C32		MOVE $64, R12
56A0	0B5A		ADDH R11, R5
56A2	F00B		BRA $5698		; -> -$0C(R0)

56A4	E6FE		
56A6	3300		MOVE $00, R3
56A8	0006		OR R0, R0
56AA	4000		PUTB $0, (R0)+
56AC	0002		INC R0, R0
56AE	74FE		MOVB (R15), R4
56B0	202A		JMP ($0054)

56B2	753B		MOVB (R3), R5
56B4	010B		ADDH2 R1, R0
56B6	6C38		MOVB R12, (R3)
56B8	080B		ADDH2 R8, R0
56BA	6D2B		MOVB R13, (R2)
56BC	63FE		MOVB R3, (R15)
56BE	3B08		MOVE $10, R11
56C0	0B6D		MLH R11, R6
56C2	3A01		MOVE $02, R10
56C4	0B6D		MLH R11, R6
56C6	3901		MOVE $02, R9
56C8	0B6D		MLH R11, R6
56CA	2B83		MOVE R11, $106
56CC	7310		MOVB (R1)+, R3
56CE	03DD		MLH R3, R13
56D0	4000		PUTB $0, (R0)+
56D2	2B70		MOVE R11, $E0
56D4	C500		SLE R5, R0
56D6	10CE		CTRL $0, #$CE
56D8	C081		SLT R0, R8
56DA	2B4F		MOVE R11, $9E
56DC	F03B		BRA $56A2		; -> -$3C(R0)

56DE	E0FE		ROR3 R15
56E0	DAF0		MOVE R10, (R15)'
56E2	002B		ADDH2 R0, R2
56E4	4FD8		PUTB $F, (R13)
56E6	F900		SUB R9, #$01
56E8	2B4F		MOVE R11, $9E
56EA	F10B		SUB R1, #$0C
56EC	E4FE		
56EE	0D01		DEC R13, R0
56F0	10CE		CTRL $0, #$CE
56F2	10D0		CTRL $0, #$D0
56F4	182B		CTRL $8, #$2B
56F6	4FDD		PUTB $F, (R13)
56F8	4000		PUTB $0, (R0)+
56FA	2B4F		MOVE R11, $9E
56FC	3901		MOVE $02, R9
56FE	0B6D		MLH R11, R6
5700	2B8B		MOVE R11, $116
5702	F02B		BRA $56D8		; -> -$2C(R0)

5704	6AFE		MOVB R10, (R15)
5706	3300		MOVE $00, R3
5708	0002		INC R0, R0
570A	0000		HALT
570C	10CE		CTRL $0, #$CE
570E	02B2		INC R2, R11
5710	082B		ADDH2 R8, R2
5712	66F0		MOVB R6, (R15)+
5714	2B4F		MOVE R11, $9E
5716	3300		MOVE $00, R3
5718	0002		INC R0, R0
571A	0000		HALT
571C	10D0		CTRL $0, #$D0
571E	02B2		INC R2, R11
5720	083B		ADDH2 R8, R3
5722	E0F0		
5724	2B4F		MOVE R11, $9E
5726	3480		MOVE $100, R4
5728	105E		CTRL $0, #$5E
572A	DC6B		MOVE R12, (R6)
572C	002B		ADDH2 R0, R2
572E	BEDC		SET R14, #$DC
5730	6100		MOVB R1, (R0)+
5732	2BBE		MOVE R11, $17C
5734	DCC2		MOVE R12, (R12)+'
5736	002B		ADDH2 R0, R2
5738	C8DC		SNS R8
573A	4B00		PUTB $B, (R0)+
573C	2BCE		MOVE R11, $19C
573E	DC4F		MOVE R12, (R4)
5740	002B		ADDH2 R0, R2
5742	DC33		MOVE R12, (R3)++
5744	0000		HALT
5746	0240		DEC2 R2, R4
5748	0000		HALT
574A	02A1		DEC R2, R10
574C	202B		JMP ($0056)

574E	F540		SUB R5, #$41
5750	0000		HALT
5752	02A2		INC R2, R10
5754	202B		JMP ($0056)

5756	F5DC		SUB R5, #$DD
5758	7B00		MOVB (R0)+, R11
575A	2C01		MOVE R12, $02
575C	DCE9		MOVE R12, (R14)
575E	002C		MHL R0, R2
5760	18DC		CTRL $8, #$DC
5762	5C00		MOVE (R0)', R12
5764	2C18		MOVE R12, $30
5766	DC5B		MOVE R12, (R5)
5768	002C		MHL R0, R2
576A	4DDC		PUTB $D, (R13)
576C	4E00		PUTB $E, (R0)+
576E	2C4D		MOVE R12, $9A
5770	DC60		MOVE R12, (R6)'
5772	002C		MHL R0, R2
5774	4D3C		PUTB $D, (R3)
5776	0B0B		ADDH2 R11, R0
5778	5AF0		MOVE (R15)', R10
577A	2C9F		MOVE R12, $13E
577C	3902		MOVE $04, R9
577E	0FDF		GETA R13, $F
5780	2C9B		MOVE R12, $136
5782	C410		SLE R4, R1
5784	1062		CTRL $0, #$62
5786	282B		MOVE R8, $56
5788	C83C		SNS R8
578A	0C0B		ADDH2 R12, R0
578C	5AF0		MOVE (R15)', R10
578E	2C9F		MOVE R12, $13E
5790	DD5D		MOVE R13, (R5)
5792	012B		ADDH2 R1, R2
5794	D63C		MOVE R6, (R3)
5796	0D0B		ADDH2 R13, R0
5798	5AF0		MOVE (R15)', R10
579A	2C9F		MOVE R12, $13E
579C	3902		MOVE $04, R9
579E	0FDF		GETA R13, $F
57A0	2C9B		MOVE R12, $136
57A2	3980		MOVE $100, R9
57A4	0FDF		GETA R13, $F
57A6	2BD8		MOVE R11, $1B0
57A8	3A80		MOVE $100, R10
57AA	0FDF		GETA R13, $F
57AC	3100		MOVE $00, R1
57AE	105E		CTRL $0, #$5E
57B0	3C0E		MOVE $1C, R12
57B2	0B5A		ADDH R11, R5
57B4	F02C		BRA $5789		; -> -$2D(R0)

57B6	9FFE		CLR R15, #$FE
57B8	3300		MOVE $00, R3
57BA	0004		NOP
57BC	4000		PUTB $0, (R0)+
57BE	0002		INC R0, R0
57C0	99FE		CLR R9, #$FE
57C2	202B		JMP ($0056)

57C4	E63C		
57C6	0F0B		ADDH2 R15, R0
57C8	5AF0		MOVE (R15)', R10
57CA	2C9F		MOVE R12, $13E
57CC	3802		MOVE $04, R8
57CE	0FDF		GETA R13, $F
57D0	2BED		MOVE R11, $1DA
57D2	3C0F		MOVE $1E, R12
57D4	0B5A		ADDH R11, R5
57D6	F02C		BRA $57AB		; -> -$2D(R0)

57D8	9FFE		CLR R15, #$FE
57DA	3A02		MOVE $04, R10
57DC	0FDF		GETA R13, $F
57DE	F10B		SUB R1, #$0C
57E0	EAFE		
57E2	3E03		MOVE $06, R14
57E4	0FE2		INC R15, R14
57E6	3100		MOVE $00, R1
57E8	105E		CTRL $0, #$5E
57EA	DC5D		MOVE R12, (R5)
57EC	022B		ADDH2 R2, R2
57EE	FB3C		SUB R11, #$3D
57F0	100B		CTRL $0, #$0B
57F2	5AF0		MOVE (R15)', R10
57F4	2C9F		MOVE R12, $13E
57F6	F10B		SUB R1, #$0C
57F8	F2FE		SUB R2, #$FF
57FA	3E01		MOVE $02, R14
57FC	0FE2		INC R15, R14
57FE	3100		MOVE $00, R1
5800	105E		CTRL $0, #$5E
5802	3902		MOVE $04, R9
5804	0FDF		GETA R13, $F
5806	2C9B		MOVE R12, $136
5808	3880		MOVE $100, R8
580A	0FDF		GETA R13, $F
580C	2C10		MOVE R12, $20
580E	3801		MOVE $02, R8
5810	0FDF		GETA R13, $F
5812	2C0E		MOVE R12, $1C
5814	3C11		MOVE $22, R12
5816	0B5A		ADDH R11, R5
5818	F02C		BRA $57ED		; -> -$2D(R0)

581A	9FFE		CLR R15, #$FE
581C	3E01		MOVE $02, R14
581E	0FE4		MOVE R15, R14
5820	3A40		MOVE $80, R10
5822	0FDF		GETA R13, $F
5824	3A20		MOVE $40, R10
5826	0FDF		GETA R13, $F
5828	3E01		MOVE $02, R14
582A	0FE3		INC2 R15, R14
582C	3100		MOVE $00, R1
582E	105E		CTRL $0, #$5E
5830	3902		MOVE $04, R9
5832	0FDF		GETA R13, $F
5834	2C9B		MOVE R12, $136
5836	3840		MOVE $80, R8
5838	0FDF		GETA R13, $F
583A	2C22		MOVE R12, $44
583C	3C12		MOVE $24, R12
583E	0B5A		ADDH R11, R5
5840	F02C		BRA $5815		; -> -$2D(R0)

5842	9FFE		CLR R15, #$FE
5844	3810		MOVE $20, R8
5846	0FDF		GETA R13, $F
5848	2C36		MOVE R12, $6C
584A	4D00		PUTB $D, (R0)+
584C	000F		GETA R0, $0
584E	E120		
5850	2C2D		MOVE R12, $5A
5852	3C13		MOVE $26, R12
5854	0B5A		ADDH R11, R5
5856	F02C		BRA $582B		; -> -$2D(R0)

5858	9FFE		CLR R15, #$FE
585A	3880		MOVE $100, R8
585C	0FDF		GETA R13, $F
585E	2C12		MOVE R12, $24
5860	3A01		MOVE $02, R10
5862	0FDF		GETA R13, $F
5864	3E01		MOVE $02, R14
5866	0FE4		MOVE R15, R14
5868	F02C		BRA $583D		; -> -$2D(R0)

586A	12FE		CTRL $2, #$FE
586C	3808		MOVE $10, R8
586E	0FDF		GETA R13, $F
5870	2C40		MOVE R12, $80
5872	3804		MOVE $08, R8
5874	0FDF		GETA R13, $F
5876	2C40		MOVE R12, $80
5878	3C14		MOVE $28, R12
587A	0B5A		ADDH R11, R5
587C	F02C		BRA $5851		; -> -$2D(R0)

587E	9FFE		CLR R15, #$FE
5880	3880		MOVE $100, R8
5882	0FDF		GETA R13, $F
5884	2C47		MOVE R12, $8E
5886	3A01		MOVE $02, R10
5888	0FDF		GETA R13, $F
588A	3E01		MOVE $02, R14
588C	0FE4		MOVE R15, R14
588E	3A10		MOVE $20, R10
5890	0FDF		GETA R13, $F
5892	1C00		CTRL $C, #$00
5894	0FE1		DEC R15, R14
5896	00F0		DEC2 R0, R15
5898	2C12		MOVE R12, $24
589A	3902		MOVE $04, R9
589C	0FDF		GETA R13, $F
589E	2C5D		MOVE R12, $BA
58A0	3808		MOVE $10, R8
58A2	0FDF		GETA R13, $F
58A4	2C8A		MOVE R12, $114
58A6	3904		MOVE $08, R9
58A8	0FDF		GETA R13, $F
58AA	2C7D		MOVE R12, $FA
58AC	3300		MOVE $00, R3
58AE	0001		DEC R0, R0
58B0	3600		MOVE $00, R6
58B2	1062		CTRL $0, #$62
58B4	FA10		SUB R10, #$11
58B6	0028		ADD R0, R2
58B8	2C94		MOVE R12, $128
58BA	1D00		CTRL $D, #$00
58BC	0FE0		DEC2 R15, R14
58BE	0028		ADD R0, R2
58C0	2C71		MOVE R12, $E2
58C2	3840		MOVE $80, R8
58C4	0FDF		GETA R13, $F
58C6	2C68		MOVE R12, $D0
58C8	3C15		MOVE $2A, R12
58CA	0B5A		ADDH R11, R5
58CC	F02C		BRA $58A1		; -> -$2D(R0)

58CE	9FFE		CLR R15, #$FE
58D0	3910		MOVE $20, R9
58D2	0FDF		GETA R13, $F
58D4	2C64		MOVE R12, $C8
58D6	3A04		MOVE $08, R10
58D8	0FDF		GETA R13, $F
58DA	3E01		MOVE $02, R14
58DC	0FE3		INC2 R15, R14
58DE	3100		MOVE $00, R1
58E0	105E		CTRL $0, #$5E
58E2	DD5D		MOVE R13, (R5)
58E4	012C		MHL R1, R2
58E6	794D		MOVB (R4), R9
58E8	0000		HALT
58EA	0FE0		DEC2 R15, R14
58EC	202C		JMP ($0058)

58EE	64F0		MOVB R4, (R15)+
58F0	2C6F		MOVE R12, $DE
58F2	3C16		MOVE $2C, R12
58F4	0B5A		ADDH R11, R5
58F6	F02C		BRA $58CB		; -> -$2D(R0)

58F8	9FFE		CLR R15, #$FE
58FA	3880		MOVE $100, R8
58FC	0FDF		GETA R13, $F
58FE	2C5D		MOVE R12, $BA
5900	1D00		CTRL $D, #$00
5902	0FE0		DEC2 R15, R14
5904	0028		ADD R0, R2
5906	2C71		MOVE R12, $E2
5908	3A01		MOVE $02, R10
590A	0FDF		GETA R13, $F
590C	3E01		MOVE $02, R14
590E	0FE4		MOVE R15, R14
5910	F02C		BRA $58E5		; -> -$2D(R0)

5912	5DFE		MOVE (R15), R13
5914	C410		SLE R4, R1
5916	1062		CTRL $0, #$62
5918	282C		MOVE R8, $58
591A	943A		CLR R4, #$3A
591C	080F		GETA R0, $8
591E	DF1C		MOVE R15, (R1)
5920	000F		GETA R0, $0
5922	E000		
5924	3100		MOVE $00, R1
5926	105E		CTRL $0, #$5E
5928	3920		MOVE $40, R9
592A	0FDF		GETA R13, $F
592C	2C71		MOVE R12, $E2
592E	3C17		MOVE $2E, R12
5930	0B5A		ADDH R11, R5
5932	F02C		BRA $5907		; -> -$2D(R0)

5934	9FFE		CLR R15, #$FE
5936	3C1A		MOVE $34, R12
5938	0B5A		ADDH R11, R5
593A	F02C		BRA $590F		; -> -$2D(R0)

593C	9FFE		CLR R15, #$FE
593E	3840		MOVE $80, R8
5940	0BA4		MOVE R11, R10
5942	0BE6		OR R11, R14
5944	0C00		DEC2 R12, R0
5946	0BB4		MOVE R11, R11
5948	0B5A		ADDH R11, R5
594A	F03B		BRA $5910		; -> -$3C(R0)

594C	CEFE		SNBC R14, R15
594E	3820		MOVE $40, R8
5950	0DBF		GETA R11, $D
5952	2CAE		MOVE R12, $15C
5954	3C93		MOVE $126, R12
5956	0BB4		MOVE R11, R11
5958	F02D		BRA $592C		; -> -$2E(R0)

595A	66FE		MOVB R6, (R15)
595C	3A20		MOVE $40, R10
595E	0DBF		GETA R11, $D
5960	3B80		MOVE $100, R11
5962	0ED7		XOR R14, R13
5964	DAFE		MOVE R10, (R15)
5966	002C		MHL R0, R2
5968	BF3B		SET R15, #$3B
596A	200D		JMP ($001A)

596C	BF35		SET R15, #$35
596E	100D		CTRL $0, #$0D
5970	B9DD		SET R9, #$DD
5972	0400		DEC2 R4, R0
5974	2CBD		MOVE R12, $17A
5976	5E10		MOVE (R1)', R14
5978	1606		CTRL $6, #$06
597A	F03B		BRA $5940		; -> -$3C(R0)

597C	D8FE		MOVE R8, (R15)
597E	DD6B		MOVE R13, (R6)
5980	002C		MHL R0, R2
5982	C573		SZ R5
5984	1001		CTRL $0, #$01
5986	F02C		BRA $595B		; -> -$2D(R0)

5988	B2FE		SET R2, #$FE
598A	FB70		SUB R11, #$71
598C	2033		JMP ($0066)

598E	200F		JMP ($001E)

5990	A489		ADD R4, #$8A
5992	0E00		DEC2 R14, R0
5994	0000		HALT
5996	F183		SUB R1, #$84
5998	DAFE		MOVE R10, (R15)
599A	3420		MOVE $40, R4
599C	0EB4		MOVE R14, R11
599E	3004		MOVE $08, R0
59A0	0EB0		DEC2 R14, R11
59A2	DD4D		MOVE R13, (R4)
59A4	002D		MLH R0, R2
59A6	1673		CTRL $6, #$73
59A8	1001		CTRL $0, #$01
59AA	FB20		SUB R11, #$21
59AC	70F1		MOVB (R15)++, R0
59AE	6BFC		MOVB R11, (R15)
59B0	DD5D		MOVE R13, (R5)
59B2	002C		MHL R0, R2
59B4	DF09		MOVE R15, (R0)
59B6	010F		GETA R0, $1
59B8	B100		SET R1, #$00
59BA	00F0		DEC2 R0, R15
59BC	2CEE		MOVE R12, $1DC
59BE	7310		MOVB (R1)+, R3
59C0	01F1		DEC R1, R15
59C2	6BFC		MOVB R11, (R15)
59C4	F12F		SUB R1, #$30
59C6	E2FE		
59C8	39C0		MOVE $180, R9
59CA	0DBB		ADDH2 R13, R11
59CC	2D60		MOVE R13, $C0
59CE	C550		SLE R5, R5
59D0	0DBB		ADDH2 R13, R11
59D2	C081		SLT R0, R8
59D4	2D60		MOVE R13, $C0
59D6	0C01		DEC R12, R0
59D8	0FB1		DEC R15, R11
59DA	0DBB		ADDH2 R13, R11
59DC	7310		MOVB (R1)+, R3
59DE	01F1		DEC R1, R15
59E0	2FE2		MOVE R15, $1C4
59E2	FB70		SUB R11, #$71
59E4	2033		JMP ($0066)

59E6	200F		JMP ($001E)

59E8	A439		ADD R4, #$3A
59EA	C00D		SNBS R0, R0
59EC	BB2D		SET R11, #$2D
59EE	60FE		MOVB R0, (R15)
59F0	8C01		LBI R12, #$01
59F2	0B0D		MLH R11, R0
59F4	BBE5		SET R11, #$E5
59F6	500B		MOVE (R0), R0
59F8	C081		SLT R0, R8
59FA	2D60		MOVE R13, $C0
59FC	2C03		MOVE R12, $06
59FE	0F1A		ADDH R15, R1
5A00	0BE5		AND R11, R14
5A02	000D		MLH R0, R0
5A04	C001		SLT R0, R0
5A06	2D07		MOVE R13, $0E
5A08	0C01		DEC R12, R0
5A0A	0F1C		MHL R15, R1
5A0C	0EDB		ADDH2 R14, R13
5A0E	F15F		SUB R1, #$60
5A10	BEFE		SET R14, #$FE
5A12	FB60		SUB R11, #$61
5A14	1033		CTRL $0, #$33
5A16	100F		CTRL $0, #$0F
5A18	A435		ADD R4, #$36
5A1A	200E		JMP ($001C)

5A1C	B48D		SET R4, #$8D
5A1E	0104		MOVE R1, R0
5A20	0F16		OR R15, R1
5A22	102D		CTRL $0, #$2D
5A24	649C		MOVB R4, (R9)
5A26	0300		DEC2 R3, R0
5A28	0BFB		ADDH2 R11, R15
5A2A	1060		CTRL $0, #$60
5A2C	FB60		SUB R11, #$61
5A2E	1033		CTRL $0, #$33
5A30	100F		CTRL $0, #$0F
5A32	A430		ADD R4, #$31
5A34	060E		GETB R0, $6
5A36	B06C		SET R0, #$6C
5A38	0100		DEC2 R1, R0
5A3A	086C		MHL R8, R6
5A3C	0302		INC R3, R0
5A3E	004C		MHL R0, R4
5A40	0108		ADD R1, R0
5A42	0EBE		GETB R11, $E
5A44	7C08		MOVB (R0), R12
5A46	0AB8		ADD R10, R11
5A48	0B07		XOR R11, R0
5A4A	2D30		MOVE R13, $60
5A4C	7C12		MOVB (R1)+++, R12
5A4E	0A7C		MHL R10, R7
5A50	1209		CTRL $2, #$09
5A52	B840		SET R8, #$40
5A54	072D		MLH R7, R2
5A56	30FE		MOVE $1FC, R0
5A58	B520		SET R5, #$20
5A5A	082C		MHL R8, R2
5A5C	000F		GETA R0, $0
5A5E	AD00		ADD R13, #$01
5A60	5C01		MOVE (R0)+, R12
5A62	0604		MOVE R6, R0
5A64	3380		MOVE $100, R3
5A66	2D4E		MOVE R13, $9C
5A68	3480		MOVE $100, R4
5A6A	0DB7		XOR R13, R11
5A6C	FB10		SUB R11, #$11
5A6E	60FB		MOVB R0, (R15)
5A70	2070		JMP ($00E0)

5A72	3C00		MOVE $00, R12
5A74	0C63		INC2 R12, R6
5A76	CD12		SE R13, R1
5A78	0FAE		GETB R10, $F
5A7A	2D41		MOVE R13, $82
5A7C	0C00		DEC2 R12, R0
5A7E	0C63		INC2 R12, R6
5A80	0FAD		MLH R15, R10
5A82	0F10		DEC2 R15, R1
5A84	0FA4		MOVE R15, R10
5A86	0FAC		MHL R15, R10
5A88	0C01		DEC R12, R0
5A8A	0EB4		MOVE R14, R11
5A8C	0FA4		MOVE R15, R10
5A8E	0C00		DEC2 R12, R0
5A90	0EB6		OR R14, R11
5A92	0C63		INC2 R12, R6
5A94	3004		MOVE $08, R0
5A96	0EB0		DEC2 R14, R11
5A98	3100		MOVE $00, R1
5A9A	0DB5		AND R13, R11
5A9C	0F10		DEC2 R15, R1
5A9E	0FA8		ADD R15, R10
5AA0	0EDB		ADDH2 R14, R13
5AA2	C084		SS R0
5AA4	2D39		MOVE R13, $72
5AA6	0C01		DEC R12, R0
5AA8	0FA8		ADD R15, R10
5AAA	0FAA		ADDH R15, R10
5AAC	0F10		DEC2 R15, R1
5AAE	0FA6		OR R15, R10
5AB0	0EDB		ADDH2 R14, R13
5AB2	C001		SLT R0, R0
5AB4	2D39		MOVE R13, $72
5AB6	3980		MOVE $100, R9
5AB8	0ED7		XOR R14, R13
5ABA	3BB6		MOVE $16C, R11
5ABC	F02C		BRA $5A91		; -> -$2D(R0)

5ABE	B2FE		SET R2, #$FE
5AC0	3CA2		MOVE $144, R12
5AC2	0BB4		MOVE R11, R11
5AC4	F02D		BRA $5A98		; -> -$2E(R0)

5AC6	66FE		MOVB R6, (R15)
5AC8	3CA3		MOVE $146, R12
5ACA	0BB4		MOVE R11, R11
5ACC	3B20		MOVE $40, R11
5ACE	0DBF		GETA R11, $D
5AD0	F03B		BRA $5A96		; -> -$3C(R0)

5AD2	CEFE		SNBC R14, R15
5AD4	FB60		SUB R11, #$61
5AD6	1035		CTRL $0, #$35
5AD8	1010		CTRL $0, #$10
5ADA	6033		MOVB R0, (R3)++++
5ADC	0000		HALT
5ADE	0133		INC2 R1, R3
5AE0	7000		MOVB (R0)+, R0
5AE2	0238		ADD R2, R3
5AE4	020B		ADDH2 R2, R0
5AE6	6D2D		MOVB R13, (R2)
5AE8	79FE		MOVB (R15), R9
5AEA	DC7A		MOVE R12, (R7)
5AEC	002D		MLH R0, R2
5AEE	A0F0		BRA $5BE1		; $F1(R0)

5AF0	2DDD		MOVE R13, $1BA
5AF2	CC35		SBS R12, R3
5AF4	10D0		CTRL $0, #$D0
5AF6	2DB9		MOVE R13, $172
5AF8	CC38		SGT R12, R3
5AFA	10D0		CTRL $0, #$D0
5AFC	2D97		MOVE R13, $12E
5AFE	F870		SUB R8, #$71
5B00	00CC		MHL R0, R12
5B02	3410		MOVE $20, R4
5B04	D02D		JMP (R2)
5B06	CDCC		SNS R13
5B08	2810		MOVE R8, $20
5B0A	D02D		JMP (R2)
5B0C	97F8		CLR R7, #$F8
5B0E	7000		MOVB (R0)+, R0
5B10	CC2C		SNS R12
5B12	10D0		CTRL $0, #$D0
5B14	2D97		MOVE R13, $12E
5B16	CC2B		SNZ R12
5B18	10D0		CTRL $0, #$D0
5B1A	2D97		MOVE R13, $12E
5B1C	F870		SUB R8, #$71
5B1E	00F8		ADD R0, R15
5B20	7000		MOVB (R0)+, R0
5B22	F02D		BRA $5AF6		; -> -$2E(R0)

5B24	97FE		CLR R7, #$FE
5B26	3C07		MOVE $0E, R12
5B28	0BB4		MOVE R11, R11
5B2A	F08F		BRA $5A9C		; -> -$90(R0)

5B2C	EEFE		
5B2E	7310		MOVB (R1)+, R3
5B30	01F1		DEC R1, R15
5B32	0BE8		ADD R11, R14
5B34	F02D		BRA $5B08		; -> -$2E(R0)

5B36	9CFE		CLR R12, #$FE
5B38	F970		SUB R9, #$71
5B3A	00C0		DEC2 R0, R12
5B3C	012D		MLH R1, R2
5B3E	97FE		CLR R7, #$FE
5B40	7310		MOVB (R1)+, R3
5B42	0139		SUB R1, R3
5B44	020B		ADDH2 R2, R0
5B46	6D2D		MOVB R13, (R2)
5B48	A9FE		ADD R9, #$FF
5B4A	F10B		SUB R1, #$0C
5B4C	E8FE		
5B4E	F02D		BRA $5B22		; -> -$2E(R0)

5B50	EFFE		
5B52	3340		MOVE $80, R3
5B54	05BF		GETA R11, $5
5B56	3420		MOVE $40, R4
5B58	1064		CTRL $0, #$64
5B5A	0E10		DEC2 R14, R1
5B5C	1064		CTRL $0, #$64
5B5E	0EDB		ADDH2 R14, R13
5B60	9C00		CLR R12, #$00
5B62	0000		HALT
5B64	FA10		SUB R10, #$11
5B66	4018		PUTB $0, (R1)
5B68	2DE1		MOVE R13, $1C2
5B6A	F10B		SUB R1, #$0C
5B6C	F0FE		BRA $5A6F		; -> -$FF(R0)

5B6E	F02D		BRA $5B42		; -> -$2E(R0)

5B70	B0FE		SET R0, #$FE
5B72	FB50		SUB R11, #$51
5B74	10FB		CTRL $0, #$FB
5B76	3000		MOVE $00, R0
5B78	FB10		SUB R11, #$11
5B7A	6073		MOVB R0, (R7)++++
5B7C	1003		CTRL $0, #$03
5B7E	3C34		MOVE $68, R12
5B80	10D0		CTRL $0, #$D0
5B82	3300		MOVE $00, R3
5B84	0003		INC2 R0, R0
5B86	4000		PUTB $0, (R0)+
5B88	0001		DEC R0, R0
5B8A	E1FE		
5B8C	282D		MOVE R8, $5A
5B8E	D5F1		MOVE R5, (R15)+
5B90	0BEA		ADDH R11, R14
5B92	F18F		SUB R1, #$90
5B94	F8FE		SUB R8, #$FF
5B96	F02D		BRA $5B6A		; -> -$2E(R0)

5B98	DAFE		MOVE R10, (R15)
5B9A	FB50		SUB R11, #$51
5B9C	10FB		CTRL $0, #$FB
5B9E	3000		MOVE $00, R0
5BA0	FB10		SUB R11, #$11
5BA2	6073		MOVB R0, (R7)++++
5BA4	1004		CTRL $0, #$04
5BA6	F02D		BRA $5B7A		; -> -$2E(R0)

5BA8	C1FE		SNBC R1, R15
5BAA	FB10		SUB R11, #$11
5BAC	50FB		MOVE (R15), R0
5BAE	0030		DEC2 R0, R3
5BB0	F02D		BRA $5B84		; -> -$2E(R0)

5BB2	97FE		CLR R7, #$FE
5BB4	DC40		MOVE R12, (R4)'
5BB6	002D		MLH R0, R2
5BB8	F2FE		SUB R2, #$FF
5BBA	3C00		MOVE $00, R12
5BBC	0B5A		ADDH R11, R5
5BBE	F00B		BRA $5BB4		; -> -$0C(R0)

5BC0	E6FE		
5BC2	ED40		
5BC4	002D		MLH R0, R2
5BC6	F2BC		SUB R2, #$BD
5BC8	FF00		SUB R15, #$01
5BCA	F920		SUB R9, #$21
5BCC	0038		ADD R0, R3
5BCE	020B		ADDH2 R2, R0
5BD0	6D2D		MOVB R13, (R2)
5BD2	E1FE		
5BD4	C420		SLE R4, R2
5BD6	1064		CTRL $0, #$64
5BD8	202D		JMP ($005A)

5BDA	F2F0		SUB R2, #$F1
5BDC	2DE1		MOVE R13, $1C2
5BDE	CC28		SGT R12, R2
5BE0	10D0		CTRL $0, #$D0
5BE2	2DDD		MOVE R13, $1BA
5BE4	3801		MOVE $02, R8
5BE6	0B6D		MLH R11, R6
5BE8	3BE2		MOVE $1C4, R11
5BEA	CC35		SBS R12, R3
5BEC	10D0		CTRL $0, #$D0
5BEE	2D93		MOVE R13, $126
5BF0	CC34		SS R12
5BF2	10D0		CTRL $0, #$D0
5BF4	2D93		MOVE R13, $126
5BF6	CC28		SGT R12, R2
5BF8	10D0		CTRL $0, #$D0
5BFA	2D93		MOVE R13, $126
5BFC	F03B		BRA $5BC2		; -> -$3C(R0)

5BFE	E2FE		
5C00	3B80		MOVE $100, R11
5C02	0ED7		XOR R14, R13
5C04	DC6B		MOVE R12, (R6)
5C06	002E		GETB R2, $0
5C08	07DD		MLH R7, R13
5C0A	5E00		MOVE (R0)', R14
5C0C	2E0A		MOVE R14, $14
5C0E	7310		MOVB (R1)+, R3
5C10	01F0		DEC2 R1, R15
5C12	2E02		MOVE R14, $04
5C14	DCFF		MOVE R12, (R15)
5C16	002E		GETB R2, $0
5C18	8AFE		LBI R10, #$FE
5C1A	3520		MOVE $40, R5
5C1C	0B65		AND R11, R6
5C1E	E803		
5C20	062E		GETB R2, $6
5C22	24EA		MOVE R4, $1D4
5C24	0206		OR R2, R0
5C26	2E17		MOVE R14, $2E
5C28	3820		MOVE $40, R8
5C2A	0ED7		XOR R14, R13
5C2C	2E24		MOVE R14, $48
5C2E	3520		MOVE $40, R5
5C30	0DB9		SUB R13, R11
5C32	FB30		SUB R11, #$31
5C34	10AD		CTRL $0, #$AD
5C36	0104		MOVE R1, R0
5C38	1658		CTRL $6, #$58
5C3A	3BC4		MOVE $188, R11
5C3C	F13B		SUB R1, #$3C
5C3E	C4FE		SNBC R4, R15
5C40	F13B		SUB R1, #$3C
5C42	C4FE		SNBC R4, R15
5C44	FB10		SUB R11, #$11
5C46	30FE		MOVE $1FC, R0
5C48	F183		SUB R1, #$84
5C4A	DAFE		MOVE R10, (R15)
5C4C	2C03		MOVE R12, $06
5C4E	0FA4		MOVE R15, R10
5C50	002C		MHL R0, R2
5C52	010F		GETA R0, $1
5C54	AA08		ADD R10, #$09
5C56	2C01		MOVE R12, $02
5C58	0FA8		ADD R15, R10
5C5A	02E5		AND R2, R14
5C5C	0002		INC R0, R0
5C5E	C001		SLT R0, R0
5C60	2E37		MOVE R14, $6E
5C62	2C01		MOVE R12, $02
5C64	0FA6		OR R15, R10
5C66	000C		MHL R0, R0
5C68	010F		GETA R0, $1
5C6A	A40E		ADD R4, #$0F
5C6C	DBFE		MOVE R11, (R15)
5C6E	3C00		MOVE $00, R12
5C70	0C63		INC2 R12, R6
5C72	0C01		DEC R12, R0
5C74	0FAC		MHL R15, R10
5C76	0EBE		GETB R11, $E
5C78	B80B		SET R8, #$0B
5C7A	072E		GETB R2, $7
5C7C	4BFE		PUTB $B, (R15)
5C7E	3C12		MOVE $24, R12
5C80	0FAD		MLH R15, R10
5C82	B840		SET R8, #$40
5C84	072E		GETB R2, $7
5C86	48FE		PUTB $8, (R15)
5C88	B520		SET R5, #$20
5C8A	082C		MHL R8, R2
5C8C	000F		GETA R0, $0
5C8E	AD00		ADD R13, #$01
5C90	0C00		DEC2 R12, R0
5C92	0C63		INC2 R12, R6
5C94	0FAD		MLH R15, R10
5C96	3520		MOVE $40, R5
5C98	0B65		AND R11, R6
5C9A	3C00		MOVE $00, R12
5C9C	0FAC		MHL R15, R10
5C9E	1C00		CTRL $C, #$00
5CA0	0DC0		DEC2 R13, R12
5CA2	00FE		GETB R15, $0
5CA4	3B07		MOVE $0E, R11
5CA6	0ED6		OR R14, R13
5CA8	0F10		DEC2 R15, R1
5CAA	0FAA		ADDH R15, R10
5CAC	0FAC		MHL R15, R10
5CAE	0F10		DEC2 R15, R1
5CB0	0FA6		OR R15, R10
5CB2	0EDB		ADDH2 R14, R13
5CB4	C001		SLT R0, R0
5CB6	2E75		MOVE R14, $EA
5CB8	3A01		MOVE $02, R10
5CBA	0ED6		OR R14, R13
5CBC	0C01		DEC R12, R0
5CBE	0FA6		OR R15, R10
5CC0	0FA8		ADD R15, R10
5CC2	0F10		DEC2 R15, R1
5CC4	0FA4		MOVE R15, R10
5CC6	0EDB		ADDH2 R14, R13
5CC8	C001		SLT R0, R0
5CCA	2E75		MOVE R14, $EA
5CCC	3A02		MOVE $04, R10
5CCE	0ED6		OR R14, R13
5CD0	DC6B		MOVE R12, (R6)
5CD2	002E		GETB R2, $0
5CD4	6DDD		MOVB R13, (R13)
5CD6	5E00		MOVE (R0)', R14
5CD8	2E70		MOVE R14, $E0
5CDA	7310		MOVB (R1)+, R3
5CDC	01F0		DEC2 R1, R15
5CDE	2E68		MOVE R14, $D0
5CE0	DDFF		MOVE R13, (R15)
5CE2	002E		GETB R2, $0
5CE4	753A		MOVB (R3), R5
5CE6	040E		GETB R0, $4
5CE8	D6FE		MOVE R6, (R15)
5CEA	0C01		DEC R12, R0
5CEC	0EB4		MOVE R14, R11
5CEE	0FAA		ADDH R15, R10
5CF0	0C00		DEC2 R12, R0
5CF2	0EB6		OR R14, R11
5CF4	0C63		INC2 R12, R6
5CF6	3004		MOVE $08, R0
5CF8	0EB0		DEC2 R14, R11
5CFA	3500		MOVE $00, R5
5CFC	0DB5		AND R13, R11
5CFE	FD00		SUB R13, #$01
5D00	00FE		GETB R15, $0
5D02	3802		MOVE $04, R8
5D04	0ED6		OR R14, R13
5D06	2E52		MOVE R14, $A4
5D08	3980		MOVE $100, R9
5D0A	0ED7		XOR R14, R13
5D0C	2E8E		MOVE R14, $11C
5D0E	3804		MOVE $08, R8
5D10	0ED6		OR R14, R13
5D12	2E02		MOVE R14, $04
5D14	3B20		MOVE $40, R11
5D16	0DBF		GETA R11, $D
5D18	F03B		BRA $5CDE		; -> -$3C(R0)

5D1A	D8FE		MOVE R8, (R15)
5D1C	3100		MOVE $00, R1
5D1E	0DB7		XOR R13, R11
5D20	C530		SLE R5, R3
5D22	0B3C		MHL R11, R3
5D24	C081		SLT R0, R8
5D26	2EEA		MOVE R14, $1D4
5D28	0C03		INC2 R12, R0
5D2A	0178		ADD R1, R7
5D2C	0B6E		GETB R6, $B
5D2E	3330		MOVE $60, R3
5D30	2ECB		MOVE R14, $196
5D32	3430		MOVE $60, R4
5D34	0B70		DEC2 R11, R7
5D36	3330		MOVE $60, R3
5D38	2ED5		MOVE R14, $1AA
5D3A	3430		MOVE $60, R4
5D3C	0B6E		GETB R6, $B
5D3E	3C02		MOVE $04, R12
5D40	0B02		INC R11, R0
5D42	C300		SLE R3, R0
5D44	0B00		DEC2 R11, R0
5D46	3C07		MOVE $0E, R12
5D48	0B02		INC R11, R0
5D4A	C300		SLE R3, R0
5D4C	0B00		DEC2 R11, R0
5D4E	3C01		MOVE $02, R12
5D50	0B02		INC R11, R0
5D52	C300		SLE R3, R0
5D54	0B00		DEC2 R11, R0
5D56	3360		MOVE $C0, R3
5D58	0001		DEC R0, R0
5D5A	3350		MOVE $A0, R3
5D5C	09FF		GETA R15, $9
5D5E	F950		SUB R9, #$51
5D60	60C0		MOVB R0, (R12)+
5D62	022E		GETB R2, $2
5D64	AF3C		ADD R15, #$3D
5D66	000B		ADDH2 R0, R0
5D68	02C3		INC2 R2, R12
5D6A	000B		ADDH2 R0, R0
5D6C	00FE		GETB R15, $0
5D6E	3360		MOVE $C0, R3
5D70	0001		DEC R0, R0
5D72	3350		MOVE $A0, R3
5D74	09FF		GETA R15, $9
5D76	F950		SUB R9, #$51
5D78	60C0		MOVB R0, (R12)+
5D7A	022E		GETB R2, $2
5D7C	BB38		SET R11, #$38
5D7E	8000		LBI R0, #$00
5D80	A42E		ADD R4, #$2F
5D82	A7FE		ADD R7, #$FF
5D84	3B80		MOVE $100, R11
5D86	00A4		RET R10

5D88	3A01		MOVE $02, R10
5D8A	0BA5		AND R11, R10
5D8C	0901		DEC R9, R0
5D8E	0B30		DEC2 R11, R3
5D90	0000		HALT
5D92	F00B		BRA $5D88		; -> -$0C(R0)

5D94	F6FE		SUB R6, #$FF
5D96	3310		MOVE $20, R3
5D98	0B3C		MHL R11, R3
5D9A	F117		SUB R1, #$18
5D9C	F4FE		SUB R4, #$FF
5D9E	F12E		SUB R1, #$2F
5DA0	E3FE		
5DA2	3A80		MOVE $100, R10
5DA4	0BB5		AND R11, R11
5DA6	F08F		BRA $5D18		; -> -$90(R0)

5DA8	EEFE		
5DAA	F900		SUB R9, #$01
5DAC	0034		RET R3

5DAE	000B		ADDH2 R0, R0
5DB0	303C		MOVE $78, R0
5DB2	020B		ADDH2 R2, R0
5DB4	02C3		INC2 R2, R12
5DB6	000B		ADDH2 R0, R0
5DB8	00FE		GETB R15, $0
5DBA	F12E		SUB R1, #$2F
5DBC	E3FE		
5DBE	F177		SUB R1, #$78
5DC0	EAFE		
5DC2	F00B		BRA $5DB8		; -> -$0C(R0)

5DC4	F4FE		SUB R4, #$FF
5DC6	0C03		INC2 R12, R0
5DC8	0B6E		GETB R6, $B
5DCA	0178		ADD R1, R7
5DCC	3B01		MOVE $02, R11
5DCE	0BA5		AND R11, R10
5DD0	FC80		SUB R12, #$81
5DD2	00FE		GETB R15, $0
5DD4	3C40		MOVE $80, R12
5DD6	0BB4		MOVE R11, R11
5DD8	F08F		BRA $5D4A		; -> -$90(R0)

5DDA	EEFE		
5DDC	7310		MOVB (R1)+, R3
5DDE	0370		DEC2 R3, R7
5DE0	1200		CTRL $2, #$00
5DE2	2F2A		MOVE R15, $54
5DE4	2F2A		MOVE R15, $54
5DE6	2EF5		MOVE R14, $1EA
5DE8	2F2A		MOVE R15, $54
5DEA	F10B		SUB R1, #$0C
5DEC	F2FE		SUB R2, #$FF
5DEE	DC7E		MOVE R12, (R7)
5DF0	002F		GETA R2, $0
5DF2	04DA		ADDH R4, R13
5DF4	F000		BRA $5DF5		; -> -$01(R0)

5DF6	2F2A		MOVE R15, $54
5DF8	D8F9		MOVE R8, (R15)
5DFA	002F		GETA R2, $0
5DFC	2AF1		MOVE R10, $1E2
5DFE	0BF2		INC R11, R15
5E00	DC7E		MOVE R12, (R7)
5E02	002F		GETA R2, $0
5E04	07F0		DEC2 R7, R15
5E06	2F2A		MOVE R15, $54
5E08	BC40		SET R12, #$40
5E0A	00B3		INC2 R0, R11
5E0C	2001		JMP ($0002)

5E0E	7310		MOVB (R1)+, R3
5E10	01F1		DEC R1, R15
5E12	8FF8		LBI R15, #$F8
5E14	3300		MOVE $00, R3
5E16	0002		INC R0, R0
5E18	4000		PUTB $0, (R0)+
5E1A	0002		INC R0, R0
5E1C	DDFE		MOVE R13, (R15)
5E1E	282F		MOVE R8, $5E
5E20	2ABC		MOVE R10, $178
5E22	FE00		SUB R14, #$01
5E24	7310		MOVB (R1)+, R3
5E26	02B3		INC2 R2, R11
5E28	2001		JMP ($0002)

5E2A	F18F		SUB R1, #$90
5E2C	F8FE		SUB R8, #$FF
5E2E	DC40		MOVE R12, (R4)'
5E30	003B		ADDH2 R0, R3
5E32	E233		
5E34	0000		HALT
5E36	0440		DEC2 R4, R4
5E38	0000		HALT
5E3A	01F5		AND R1, R15
5E3C	282F		MOVE R8, $5E
5E3E	2ABC		MOVE R10, $178
5E40	FE00		SUB R14, #$01
5E42	7310		MOVB (R1)+, R3
5E44	04B3		INC2 R4, R11
5E46	2001		JMP ($0002)

5E48	F18F		SUB R1, #$90
5E4A	F8FE		SUB R8, #$FF
5E4C	DD40		MOVE R13, (R4)'
5E4E	002F		GETA R2, $0
5E50	2AF0		MOVE R10, $1E0
5E52	3BE2		MOVE $1C4, R11
5E54	3C00		MOVE $00, R12
5E56	0B5A		ADDH R11, R5
5E58	F00B		BRA $5E4E		; -> -$0C(R0)

5E5A	E6FE		
5E5C	3340		MOVE $80, R3
5E5E	10CB		CTRL $0, #$CB
5E60	7310		MOVB (R1)+, R3
5E62	0470		DEC2 R4, R7
5E64	1200		CTRL $2, #$00
5E66	2F4D		MOVE R15, $9A
5E68	2F4D		MOVE R15, $9A
5E6A	2F37		MOVE R15, $6E
5E6C	2F4D		MOVE R15, $9A
5E6E	9C00		CLR R12, #$00
5E70	0000		HALT
5E72	B320		SET R3, #$20
5E74	0173		INC2 R1, R7
5E76	1001		CTRL $0, #$01
5E78	DD40		MOVE R13, (R4)'
5E7A	002F		GETA R2, $0
5E7C	42F1		PUTB $2, (R15)++
5E7E	0BF2		INC R11, R15
5E80	F02F		BRA $5E52		; -> -$30(R0)

5E82	49FE		PUTB $9, (R15)
5E84	DAF0		MOVE R10, (R15)'
5E86	002F		GETA R2, $0
5E88	4DD8		PUTB $D, (R13)
5E8A	F900		SUB R9, #$01
5E8C	2F4D		MOVE R15, $9A
5E8E	F10B		SUB R1, #$0C
5E90	F2FE		SUB R2, #$FF
5E92	8913		LBI R9, #$13
5E94	0000		HALT
5E96	00F0		DEC2 R0, R15
5E98	3BE2		MOVE $1C4, R11
5E9A	3C00		MOVE $00, R12
5E9C	0B5A		ADDH R11, R5
5E9E	F00B		BRA $5E94		; -> -$0C(R0)

5EA0	E6FE		
5EA2	300C		MOVE $18, R0
5EA4	0F2C		MHL R15, R2
5EA6	301C		MOVE $38, R0
5EA8	0EB0		DEC2 R14, R11
5EAA	0901		DEC R9, R0
5EAC	0DBB		ADDH2 R13, R11
5EAE	00FF		GETA R15, $0
5EB0	D844		MOVE R8, (R4)~
5EB2	002F		GETA R2, $0
5EB4	63D7		MOVB R3, (R13)----
5EB6	0800		DEC2 R8, R0
5EB8	D712		MOVE R7, (R1)+'
5EBA	00C7		XOR R0, R12
5EBC	0C0F		GETA R0, $C
5EBE	240C		MOVE R4, $18
5EC0	010D		MLH R1, R0
5EC2	BB0F		SET R11, #$0F
5EC4	26FE		MOVE R6, $1FC
5EC6	300E		MOVE $1C, R0
5EC8	0F2C		MHL R15, R2
5ECA	0000		HALT
5ECC	0000		HALT
5ECE	0000		HALT
5ED0	0000		HALT
5ED2	0000		HALT
5ED4	0000		HALT
5ED6	0000		HALT
5ED8	0000		HALT
5EDA	0000		HALT
5EDC	0000		HALT
5EDE	0000		HALT
5EE0	0000		HALT
5EE2	0000		HALT
5EE4	0000		HALT
5EE6	0000		HALT
5EE8	0000		HALT
5EEA	0000		HALT
5EEC	0000		HALT
5EEE	0000		HALT
5EF0	0000		HALT
5EF2	0000		HALT
5EF4	0000		HALT
5EF6	0000		HALT
5EF8	0000		HALT
5EFA	0000		HALT
5EFC	0000		HALT
5EFE	0000		HALT
5F00	0000		HALT
5F02	0000		HALT
5F04	0000		HALT
5F06	0000		HALT
5F08	0000		HALT
5F0A	0000		HALT
5F0C	0000		HALT
5F0E	0000		HALT
5F10	0000		HALT
5F12	0000		HALT
5F14	0000		HALT
5F16	0000		HALT
5F18	0000		HALT
5F1A	0000		HALT
5F1C	0000		HALT
5F1E	0000		HALT
5F20	0000		HALT
5F22	0000		HALT
5F24	0000		HALT
5F26	0000		HALT
5F28	0000		HALT
5F2A	0000		HALT
5F2C	0000		HALT
5F2E	0000		HALT
5F30	0000		HALT
5F32	0000		HALT
5F34	0000		HALT
5F36	0000		HALT
5F38	0000		HALT
5F3A	0000		HALT
5F3C	0000		HALT
5F3E	0000		HALT
5F40	0000		HALT
5F42	0000		HALT
5F44	0000		HALT
5F46	0000		HALT
5F48	0000		HALT
5F4A	0000		HALT
5F4C	0000		HALT
5F4E	0000		HALT
5F50	0000		HALT
5F52	0000		HALT
5F54	0000		HALT
5F56	0000		HALT
5F58	0000		HALT
5F5A	0000		HALT
5F5C	0000		HALT
5F5E	0000		HALT
5F60	0000		HALT
5F62	0000		HALT
5F64	0000		HALT
5F66	0000		HALT
5F68	0000		HALT
5F6A	0000		HALT
5F6C	0000		HALT
5F6E	0000		HALT
5F70	0000		HALT
5F72	0000		HALT
5F74	0000		HALT
5F76	0000		HALT
5F78	0000		HALT
5F7A	0000		HALT
5F7C	0000		HALT
5F7E	0000		HALT
5F80	0000		HALT
5F82	0000		HALT
5F84	0000		HALT
5F86	0000		HALT
5F88	0000		HALT
5F8A	0000		HALT
5F8C	0000		HALT
5F8E	0000		HALT
5F90	0000		HALT
5F92	0000		HALT
5F94	0000		HALT
5F96	0000		HALT
5F98	0000		HALT
5F9A	0000		HALT
5F9C	0000		HALT
5F9E	0000		HALT
5FA0	0000		HALT
5FA2	0000		HALT
5FA4	0000		HALT
5FA6	0000		HALT
5FA8	0000		HALT
5FAA	0000		HALT
5FAC	0000		HALT
5FAE	0000		HALT
5FB0	0000		HALT
5FB2	0000		HALT
5FB4	0000		HALT
5FB6	0000		HALT
5FB8	0000		HALT
5FBA	0000		HALT
5FBC	0000		HALT
5FBE	0000		HALT
5FC0	0000		HALT
5FC2	0000		HALT
5FC4	F02F		BRA $5F96		; -> -$30(R0)

5FC6	5100		MOVE (R0)', R1
5FC8	F02F		BRA $5F9A		; -> -$30(R0)

5FCA	2E00		MOVE R14, $00
5FCC	F02E		BRA $5F9F		; -> -$2F(R0)

5FCE	EE00		
5FD0	F02E		BRA $5FA3		; -> -$2F(R0)

5FD2	9000		CLR R0, #$00
5FD4	F02E		BRA $5FA7		; -> -$2F(R0)

5FD6	0D00		DEC2 R13, R0
5FD8	F02E		BRA $5FAB		; -> -$2F(R0)

5FDA	0000		HALT
5FDC	F02D		BRA $5FB0		; -> -$2E(R0)

5FDE	6A00		MOVB R10, (R0)+
5FE0	F02C		BRA $5FB5		; -> -$2D(R0)

5FE2	C500		SLE R5, R0
5FE4	F02C		BRA $5FB9		; -> -$2D(R0)

5FE6	A700		ADD R7, #$01
5FE8	F02B		BRA $5FBE		; -> -$2C(R0)

5FEA	9300		CLR R3, #$00
5FEC	F02B		BRA $5FC2		; -> -$2C(R0)

5FEE	1900		CTRL $9, #$00
5FF0	F02A		BRA $5FC7		; -> -$2B(R0)

5FF2	1D00		CTRL $D, #$00
5FF4	F02A		BRA $5FCB		; -> -$2B(R0)

5FF6	0200		DEC2 R2, R0
5FF8	F024		BRA $5FD5		; -> -$25(R0)

5FFA	0000		HALT
5FFC	0413		INC2 R4, R1
5FFE	F9A3		SUB R9, #$A4
6000	7310		MOVB (R1)+, R3
6002	0BF0		DEC2 R11, R15
6004	302D		MOVE $5A, R0
6006	3A80		MOVE $100, R10
6008	0B58		ADD R11, R5
600A	7310		MOVB (R1)+, R3
600C	0AF0		DEC2 R10, R15
600E	302D		MOVE $5A, R0
6010	7310		MOVB (R1)+, R3
6012	05FE		GETB R15, $5
6014	3A40		MOVE $80, R10
6016	0B58		ADD R11, R5
6018	F030		BRA $5FE9		; -> -$31(R0)

601A	2DFE		MOVE R13, $1FC
601C	3300		MOVE $00, R3
601E	0009		SUB R0, R0
6020	4000		PUTB $0, (R0)+
6022	0002		INC R0, R0
6024	11FE		CTRL $1, #$FE
6026	2835		MOVE R8, $6A
6028	493A		PUTB $9, (R3)
602A	020B		ADDH2 R2, R0
602C	5873		MOVE (R7)++, R8
602E	1009		CTRL $0, #$09
6030	F030		BRA $6001		; -> -$31(R0)

6032	2DFE		MOVE R13, $1FC
6034	7310		MOVB (R1)+, R3
6036	08F0		DEC2 R8, R15
6038	302D		MOVE $5A, R0
603A	7310		MOVB (R1)+, R3
603C	043A		ADDH R4, R3
603E	010B		ADDH2 R1, R0
6040	58CC		MOVE (R12), R8
6042	2410		MOVE R4, $20
6044	D034		JMP (R3)~
6046	1CF0		CTRL $C, #$F0
6048	3385		MOVE $10A, R3
604A	3A10		MOVE $20, R10
604C	0B58		ADD R11, R5
604E	7310		MOVB (R1)+, R3
6050	05F0		DEC2 R5, R15
6052	319E		MOVE $13C, R1
6054	7310		MOVB (R1)+, R3
6056	03F0		DEC2 R3, R15
6058	319E		MOVE $13C, R1
605A	0910		DEC2 R9, R1
605C	10D1		CTRL $0, #$D1
605E	0000		HALT
6060	3840		MOVE $80, R8
6062	0B58		ADD R11, R5
6064	3035		MOVE $6A, R0
6066	3CFD		MOVE $1FA, R12
6068	10D2		CTRL $0, #$D2
606A	F132		SUB R1, #$33
606C	79FE		MOVB (R15), R9
606E	F030		BRA $603F		; -> -$31(R0)

6070	3DFE		MOVE $1FC, R13
6072	DD6B		MOVE R13, (R6)
6074	0033		INC2 R0, R3
6076	C873		SZ R8
6078	1001		CTRL $0, #$01
607A	F133		SUB R1, #$34
607C	31FE		MOVE $1FC, R1
607E	F035		BRA $604A		; -> -$36(R0)

6080	46FE		PUTB $6, (R15)
6082	3840		MOVE $80, R8
6084	0B58		ADD R11, R5
6086	3047		MOVE $8E, R0
6088	DC40		MOVE R12, (R4)'
608A	0030		DEC2 R0, R3
608C	52FE		MOVE (R15), R2
608E	F135		SUB R1, #$36
6090	3CFE		MOVE $1FC, R12
6092	39C2		MOVE $184, R9
6094	0B58		ADD R11, R5
6096	3052		MOVE $A4, R0
6098	F132		SUB R1, #$33
609A	B3FE		SET R3, #$FE
609C	F030		BRA $606D		; -> -$31(R0)

609E	52FE		MOVE (R15), R2
60A0	F135		SUB R1, #$36
60A2	3CFE		MOVE $1FC, R12
60A4	3320		MOVE $40, R3
60A6	10E2		CTRL $0, #$E2
60A8	3802		MOVE $04, R8
60AA	10D0		CTRL $0, #$D0
60AC	3059		MOVE $B2, R0
60AE	B320		SET R3, #$20
60B0	02FE		GETB R15, $2
60B2	3500		MOVE $00, R5
60B4	10D0		CTRL $0, #$D0
60B6	F700		SUB R7, #$01
60B8	0934		MOVE R9, R3
60BA	2010		JMP ($0020)

60BC	6438		MOVB R4, (R3)
60BE	0110		DEC2 R1, R1
60C0	D030		JMP (R3)'
60C2	7BFE		MOVB (R15), R11
60C4	3320		MOVE $40, R3
60C6	3075		MOVE $EA, R0
60C8	F820		SUB R8, #$21
60CA	00E6		OR R0, R14
60CC	2000		JMP ($0000)

60CE	CC1E		SNBC R12, R1
60D0	10D0		CTRL $0, #$D0
60D2	341A		MOVE $34, R4
60D4	CC1D		SNBS R12, R1
60D6	10D0		CTRL $0, #$D0
60D8	3383		MOVE $106, R3
60DA	CC17		SBSH R12, R1
60DC	10D0		CTRL $0, #$D0
60DE	3437		MOVE $6E, R4
60E0	CC16		SBC R12, R1
60E2	10D0		CTRL $0, #$D0
60E4	33F8		MOVE $1F0, R3
60E6	FC20		SUB R12, #$21
60E8	00FE		GETB R15, $0
60EA	3437		MOVE $6E, R4
60EC	341A		MOVE $34, R4
60EE	3437		MOVE $6E, R4
60F0	341A		MOVE $34, R4
60F2	3437		MOVE $6E, R4
60F4	341A		MOVE $34, R4
60F6	3320		MOVE $40, R3
60F8	307F		MOVE $FE, R0
60FA	F030		BRA $60CB		; -> -$31(R0)

60FC	64FE		MOVB R4, (R15)
60FE	3486		MOVE $10C, R4
6100	3383		MOVE $106, R3
6102	33F8		MOVE $1F0, R3
6104	3383		MOVE $106, R3
6106	33F8		MOVE $1F0, R3
6108	3383		MOVE $106, R3
610A	0913		INC2 R9, R1
610C	10D1		CTRL $0, #$D1
610E	0000		HALT
6110	7310		MOVB (R1)+, R3
6112	0433		INC2 R4, R3
6114	0000		HALT
6116	0440		DEC2 R4, R4
6118	0000		HALT
611A	02A7		XOR R2, R10
611C	2830		MOVE R8, $60
611E	933C		CLR R3, #$3C
6120	2110		MOVE R1, $20
6122	D0F8		JMP (R15)
6124	1000		CTRL $0, #$00
6126	F133		SUB R1, #$34
6128	31FE		MOVE $1FC, R1
612A	F035		BRA $60F6		; -> -$36(R0)

612C	49FE		PUTB $9, (R15)
612E	F135		SUB R1, #$36
6130	3CFE		MOVE $1FC, R12
6132	F134		SUB R1, #$35
6134	E1FE		
6136	3320		MOVE $40, R3
6138	10E5		CTRL $0, #$E5
613A	F135		SUB R1, #$36
613C	42FE		PUTB $2, (R15)
613E	7012		MOVB (R1)+++, R0
6140	0135		AND R1, R3
6142	4930		PUTB $9, (R3)+
6144	A530		ADD R5, #$31
6146	AF30		ADD R15, #$31
6148	C700		SLE R7, R0
614A	7310		MOVB (R1)+, R3
614C	01BC		MHL R1, R11
614E	0000		HALT
6150	B320		SET R3, #$20
6152	01F1		DEC R1, R15
6154	0BE4		MOVE R11, R14
6156	3A10		MOVE $20, R10
6158	10E2		CTRL $0, #$E2
615A	F030		BRA $612B		; -> -$31(R0)

615C	C7FE		SNBC R7, R15
615E	F130		SUB R1, #$31
6160	F9FE		SUB R9, #$FF
6162	7310		MOVB (R1)+, R3
6164	01DC		MHL R1, R13
6166	5B01		MOVE (R0)+, R11
6168	30EA		MOVE $1D4, R0
616A	BCF0		SET R12, #$F0
616C	00B3		INC2 R0, R11
616E	2001		JMP ($0002)

6170	BC40		SET R12, #$40
6172	01F1		DEC R1, R15
6174	0BF2		INC R11, R15
6176	3A10		MOVE $20, R10
6178	10E2		CTRL $0, #$E2
617A	7012		MOVB (R1)+++, R0
617C	0035		AND R0, R3
617E	490B		PUTB $9, (R0)
6180	F235		SUB R2, #$36
6182	4930		PUTB $9, (R3)+
6184	C500		SLE R5, R0
6186	F030		BRA $6157		; -> -$31(R0)

6188	C7FE		SNBC R7, R15
618A	B320		SET R3, #$20
618C	01FE		GETB R15, $1
618E	F135		SUB R1, #$36
6190	42FE		PUTB $2, (R15)
6192	7012		MOVB (R1)+++, R0
6194	0135		AND R1, R3
6196	4935		PUTB $9, (R3)--
6198	4930		PUTB $9, (R3)+
619A	E630		
619C	CF00		SLE R15, R0
619E	7310		MOVB (R1)+, R3
61A0	01DD		MLH R1, R13
61A2	7D00		MOVB (R0)+, R13
61A4	30E6		MOVE $1CC, R0
61A6	B300		SET R3, #$00
61A8	123A		CTRL $2, #$3A
61AA	0810		DEC2 R8, R1
61AC	E2FE		
61AE	F10B		SUB R1, #$0C
61B0	F2FE		SUB R2, #$FF
61B2	FA20		SUB R10, #$21
61B4	0020		DEC2 R0, R2
61B6	30F4		MOVE $1E8, R0
61B8	DCFF		MOVE R12, (R15)
61BA	0035		AND R0, R3
61BC	49DD		PUTB $9, (R13)
61BE	7D00		MOVB (R0)+, R13
61C0	30D7		MOVE $1AE, R0
61C2	BC40		SET R12, #$40
61C4	00B3		INC2 R0, R11
61C6	2001		JMP ($0002)

61C8	F030		BRA $6199		; -> -$31(R0)

61CA	D9FE		MOVE R9, (R15)
61CC	F130		SUB R1, #$31
61CE	F9FE		SUB R9, #$FF
61D0	F135		SUB R1, #$36
61D2	3CFE		MOVE $1FC, R12
61D4	F10B		SUB R1, #$0C
61D6	F2FE		SUB R2, #$FF
61D8	3A08		MOVE $10, R10
61DA	10E2		CTRL $0, #$E2
61DC	DD5B		MOVE R13, (R5)
61DE	0035		AND R0, R3
61E0	49BC		PUTB $9, (R11)
61E2	5B00		MOVE (R0)', R11
61E4	B320		SET R3, #$20
61E6	01FE		GETB R15, $1
61E8	7310		MOVB (R1)+, R3
61EA	01F1		DEC R1, R15
61EC	30F9		MOVE $1F2, R0
61EE	F035		BRA $61BA		; -> -$36(R0)

61F0	49FE		PUTB $9, (R15)
61F2	3480		MOVE $100, R4
61F4	0FD9		SUB R15, R13
61F6	3300		MOVE $00, R3
61F8	0003		INC2 R0, R0
61FA	4000		PUTB $0, (R0)+
61FC	0003		INC2 R0, R0
61FE	0EFE		GETB R15, $E
6200	2831		MOVE R8, $62
6202	0EFE		GETB R15, $E
6204	3A80		MOVE $100, R10
6206	10E2		CTRL $0, #$E2
6208	F031		BRA $61D8		; -> -$32(R0)

620A	52FE		MOVE (R15), R2
620C	F810		SUB R8, #$11
620E	0033		INC2 R0, R3
6210	2011		JMP ($0022)

6212	1EDC		CTRL $E, #$DC
6214	6B00		MOVB R11, (R0)+
6216	47F4		PUTB $7, (R15)-
6218	F033		BRA $61E6		; -> -$34(R0)

621A	C8FE		SNBC R8, R15
621C	3300		MOVE $00, R3
621E	0004		NOP
6220	4000		PUTB $0, (R0)+
6222	0002		INC R0, R0
6224	A9FE		ADD R9, #$FF
6226	2831		MOVE R8, $62
6228	1DCD		CTRL $D, #$CD
622A	2110		MOVE R1, $20
622C	D035		JMP (R3)-
622E	493A		PUTB $9, (R3)
6230	C010		SLE R0, R1
6232	E2F0		
6234	3152		MOVE $A4, R1
6236	FEF0		SUB R14, #$F1
6238	3106		MOVE $0C, R1
623A	3300		MOVE $00, R3
623C	0004		NOP
623E	4000		PUTB $0, (R0)+
6240	0003		INC2 R0, R0
6242	03FE		GETB R15, $3
6244	2031		JMP ($0062)

6246	2631		MOVE R6, $62
6248	000F		GETA R0, $0
624A	D9FE		MOVE R9, (R15)
624C	3A40		MOVE $80, R10
624E	10E2		CTRL $0, #$E2
6250	F810		SUB R8, #$11
6252	0033		INC2 R0, R3
6254	0000		HALT
6256	0640		DEC2 R6, R4
6258	0000		HALT
625A	0305		AND R3, R0
625C	5032		MOVE (R3)+', R0
625E	B3FE		SET R3, #$FE
6260	F031		BRA $6230		; -> -$32(R0)

6262	54FE		MOVE (R15), R4
6264	CCF0		SLE R12, R15
6266	10D4		CTRL $0, #$D4
6268	3138		MOVE $70, R1
626A	CD00		SLE R13, R0
626C	10D4		CTRL $0, #$D4
626E	3549		MOVE $92, R5
6270	3300		MOVE $00, R3
6272	0008		ADD R0, R0
6274	4000		PUTB $0, (R0)+
6276	0003		INC2 R0, R0
6278	08FE		GETB R15, $8
627A	2831		MOVE R8, $62
627C	45CD		PUTB $5, (R12)
627E	2110		MOVE R1, $20
6280	D035		JMP (R3)-
6282	493A		PUTB $9, (R3)
6284	0410		DEC2 R4, R1
6286	E2F8		
6288	1000		CTRL $0, #$00
628A	3300		MOVE $00, R3
628C	0004		NOP
628E	4000		PUTB $0, (R0)+
6290	0003		INC2 R0, R0
6292	0CFE		GETB R15, $C
6294	2831		MOVE R8, $62
6296	4F3A		PUTB $F, (R3)
6298	0210		DEC2 R2, R1
629A	E2F0		
629C	3106		MOVE $0C, R1
629E	F900		SUB R9, #$01
62A0	00F0		DEC2 R0, R15
62A2	3106		MOVE $0C, R1
62A4	F810		SUB R8, #$11
62A6	00FE		GETB R15, $0
62A8	3300		MOVE $00, R3
62AA	0004		NOP
62AC	4000		PUTB $0, (R0)+
62AE	0002		INC R0, R0
62B0	CFFE		SNBC R15, R15
62B2	2031		JMP ($0062)

62B4	5EF9		MOVE (R15), R14
62B6	0000		HALT
62B8	F031		BRA $6288		; -> -$32(R0)

62BA	06FE		GETB R15, $6
62BC	3A08		MOVE $10, R10
62BE	10D4		CTRL $0, #$D4
62C0	CD21		SLT R13, R2
62C2	10D0		CTRL $0, #$D0
62C4	3549		MOVE $92, R5
62C6	F810		SUB R8, #$11
62C8	0038		ADD R0, R3
62CA	4010		PUTB $0, (R1)+
62CC	E231		
62CE	8BFE		LBI R11, #$FE
62D0	3980		MOVE $100, R9
62D2	10E2		CTRL $0, #$E2
62D4	318B		MOVE $116, R1
62D6	3300		MOVE $00, R3
62D8	0004		NOP
62DA	4000		PUTB $0, (R0)+
62DC	0002		INC R0, R0
62DE	D1FE		MOVE R1, (R15)
62E0	2835		MOVE R8, $6A
62E2	493A		PUTB $9, (R3)
62E4	0410		DEC2 R4, R1
62E6	D4F8		MOVE R4, (R15)
62E8	1000		CTRL $0, #$00
62EA	3300		MOVE $00, R3
62EC	3179		MOVE $F2, R1
62EE	3400		MOVE $00, R4
62F0	105E		CTRL $0, #$5E
62F2	F032		BRA $62C1		; -> -$33(R0)

62F4	CBFE		SNBC R11, R15
62F6	3300		MOVE $00, R3
62F8	0004		NOP
62FA	4000		PUTB $0, (R0)+
62FC	0002		INC R0, R0
62FE	D3FE		MOVE R3, (R15)
6300	2835		MOVE R8, $6A
6302	49F8		PUTB $9, (R15)
6304	1000		CTRL $0, #$00
6306	3A02		MOVE $04, R10
6308	10D4		CTRL $0, #$D4
630A	3300		MOVE $00, R3
630C	3189		MOVE $112, R1
630E	3400		MOVE $00, R4
6310	105E		CTRL $0, #$5E
6312	F032		BRA $62E1		; -> -$33(R0)

6314	CBFE		SNBC R11, R15
6316	3300		MOVE $00, R3
6318	0004		NOP
631A	4000		PUTB $0, (R0)+
631C	0002		INC R0, R0
631E	D5FE		MOVE R5, (R15)
6320	2031		JMP ($0062)

6322	95F9		CLR R5, #$F9
6324	0000		HALT
6326	F031		BRA $62F6		; -> -$32(R0)

6328	06FE		GETB R15, $6
632A	F810		SUB R8, #$11
632C	003A		ADDH R0, R3
632E	0110		DEC2 R1, R1
6330	D433		MOVE R4, (R3)++
6332	0031		DEC R0, R3
6334	0434		MOVE R4, R3
6336	0010		DEC2 R0, R1
6338	5EF0		MOVE (R15)', R14
633A	32CB		MOVE $196, R2
633C	090C		MHL R9, R0
633E	10D1		CTRL $0, #$D1
6340	0000		HALT
6342	3910		MOVE $20, R9
6344	0B58		ADD R11, R5
6346	31AA		MOVE $154, R1
6348	F133		SUB R1, #$34
634A	31FE		MOVE $1FC, R1
634C	F035		BRA $6318		; -> -$36(R0)

634E	49FE		PUTB $9, (R15)
6350	F135		SUB R1, #$36
6352	3CFE		MOVE $1FC, R12
6354	3320		MOVE $40, R3
6356	10E2		CTRL $0, #$E2
6358	F030		BRA $6329		; -> -$31(R0)

635A	59FE		MOVE (R15), R9
635C	7310		MOVB (R1)+, R3
635E	053A		ADDH R5, R3
6360	080B		ADDH2 R8, R0
6362	5833		MOVE (R3)++, R8
6364	0000		HALT
6366	0440		DEC2 R4, R4
6368	0000		HALT
636A	02A7		XOR R2, R10
636C	2831		MOVE R8, $62
636E	BBF8		SET R11, #$F8
6370	1000		CTRL $0, #$00
6372	3C19		MOVE $32, R12
6374	10D0		CTRL $0, #$D0
6376	3320		MOVE $40, R3
6378	10E2		CTRL $0, #$E2
637A	090B		ADDH2 R9, R0
637C	10D1		CTRL $0, #$D1
637E	0000		HALT
6380	F133		SUB R1, #$34
6382	31FE		MOVE $1FC, R1
6384	F035		BRA $6350		; -> -$36(R0)

6386	49FE		PUTB $9, (R15)
6388	8C01		LBI R12, #$01
638A	0010		DEC2 R0, R1
638C	D1B3		MOVE R1, (R11)++
638E	2002		JMP ($0004)

6390	DD6B		MOVE R13, (R6)
6392	0033		INC2 R0, R3
6394	C873		SZ R8
6396	1001		CTRL $0, #$01
6398	F133		SUB R1, #$34
639A	31FE		MOVE $1FC, R1
639C	F031		BRA $636C		; -> -$32(R0)

639E	D2FE		MOVE R2, (R15)
63A0	F031		BRA $6370		; -> -$32(R0)

63A2	C4FE		SNBC R4, R15
63A4	3300		MOVE $00, R3
63A6	0001		DEC R0, R0
63A8	F910		SUB R9, #$11
63AA	00F1		DEC R0, R15
63AC	3457		MOVE $AE, R4
63AE	F035		BRA $637A		; -> -$36(R0)

63B0	49FE		PUTB $9, (R15)
63B2	3300		MOVE $00, R3
63B4	0006		OR R0, R0
63B6	4000		PUTB $0, (R0)+
63B8	0002		INC R0, R0
63BA	74FE		MOVB (R15), R4
63BC	2831		MOVE R8, $62
63BE	E9F8		
63C0	1000		CTRL $0, #$00
63C2	3300		MOVE $00, R3
63C4	0004		NOP
63C6	4000		PUTB $0, (R0)+
63C8	0002		INC R0, R0
63CA	A7FE		ADD R7, #$FF
63CC	2835		MOVE R8, $6A
63CE	49F0		PUTB $9, (R15)+
63D0	31F3		MOVE $1E6, R1
63D2	7310		MOVB (R1)+, R3
63D4	0533		INC2 R5, R3
63D6	0000		HALT
63D8	0440		DEC2 R4, R4
63DA	0000		HALT
63DC	02A7		XOR R2, R10
63DE	2831		MOVE R8, $62
63E0	F53C		SUB R5, #$3D
63E2	1C10		CTRL $C, #$10
63E4	D0FE		JMP (R15)
63E6	F810		SUB R8, #$11
63E8	00FE		GETB R15, $0
63EA	3320		MOVE $40, R3
63EC	10E0		CTRL $0, #$E0
63EE	3A04		MOVE $08, R10
63F0	0B58		ADD R11, R5
63F2	090C		MHL R9, R0
63F4	10D1		CTRL $0, #$D1
63F6	0000		HALT
63F8	F133		SUB R1, #$34
63FA	31FE		MOVE $1FC, R1
63FC	F035		BRA $63C8		; -> -$36(R0)

63FE	49FE		PUTB $9, (R15)
6400	B320		SET R3, #$20
6402	028C		MHL R2, R8
6404	0100		DEC2 R1, R0
6406	10D1		CTRL $0, #$D1
6408	3300		MOVE $00, R3
640A	0003		INC2 R0, R0
640C	4000		PUTB $0, (R0)+
640E	0002		INC R0, R0
6410	5BFE		MOVE (R15), R11
6412	2832		MOVE R8, $64
6414	27CC		MOVE R7, $198
6416	1C10		CTRL $C, #$10
6418	D035		JMP (R3)-
641A	49BA		PUTB $9, (R11)
641C	8000		LBI R0, #$00
641E	F810		SUB R8, #$11
6420	00FE		GETB R15, $0
6422	CC1A		SNE R12, R1
6424	10D0		CTRL $0, #$D0
6426	3549		MOVE $92, R5
6428	DC6B		MOVE R12, (R6)
642A	0032		INC R0, R3
642C	1AB3		CTRL $A, #$B3
642E	2005		JMP ($000A)

6430	F033		BRA $63FE		; -> -$34(R0)

6432	C8FE		SNBC R8, R15
6434	3420		MOVE $40, R4
6436	1064		CTRL $0, #$64
6438	B320		SET R3, #$20
643A	05F1		DEC R5, R15
643C	3457		MOVE $AE, R4
643E	7310		MOVB (R1)+, R3
6440	0135		AND R1, R3
6442	2010		JMP ($0020)

6444	64CC		MOVB R4, (R12)
6446	1A10		CTRL $A, #$10
6448	D035		JMP (R3)-
644A	49F0		PUTB $9, (R15)+
644C	31FC		MOVE $1F8, R1
644E	3420		MOVE $40, R4
6450	1064		CTRL $0, #$64
6452	DD6B		MOVE R13, (R6)
6454	0032		INC R0, R3
6456	1173		CTRL $1, #$73
6458	1001		CTRL $0, #$01
645A	F132		SUB R1, #$33
645C	B3FE		SET R3, #$FE
645E	F032		BRA $642D		; -> -$33(R0)

6460	5BFE		MOVE (R15), R11
6462	3520		MOVE $40, R5
6464	1064		CTRL $0, #$64
6466	CC1A		SNE R12, R1
6468	10D0		CTRL $0, #$D0
646A	3247		MOVE $8E, R2
646C	CD1C		SNS R13
646E	10D0		CTRL $0, #$D0
6470	3549		MOVE $92, R5
6472	39C0		MOVE $180, R9
6474	10D4		CTRL $0, #$D4
6476	324D		MOVE $9A, R2
6478	BA40		SET R10, #$40
647A	003B		ADDH2 R0, R3
647C	0410		DEC2 R4, R1
647E	D3FE		MOVE R3, (R15)
6480	B320		SET R3, #$20
6482	028C		MHL R2, R8
6484	0200		DEC2 R2, R0
6486	10D5		CTRL $0, #$D5
6488	B320		SET R3, #$20
648A	01F0		DEC2 R1, R15
648C	3214		MOVE $28, R2
648E	3880		MOVE $100, R8
6490	10D4		CTRL $0, #$D4
6492	3549		MOVE $92, R5
6494	BA20		SET R10, #$20
6496	00F0		DEC2 R0, R15
6498	3252		MOVE $A4, R2
649A	3880		MOVE $100, R8
649C	10D4		CTRL $0, #$D4
649E	3256		MOVE $AC, R2
64A0	BA20		SET R10, #$20
64A2	00FE		GETB R15, $0
64A4	3B80		MOVE $100, R11
64A6	10D4		CTRL $0, #$D4
64A8	F032		BRA $6477		; -> -$33(R0)

64AA	40FE		PUTB $0, (R15)
64AC	BA10		SET R10, #$10
64AE	003B		ADDH2 R0, R3
64B0	4010		PUTB $0, (R1)+
64B2	D4F0		MOVE R4, (R15)'
64B4	3240		MOVE $80, R2
64B6	3710		MOVE $20, R7
64B8	0EDB		ADDH2 R14, R13
64BA	F032		BRA $6489		; -> -$33(R0)

64BC	11FE		CTRL $1, #$FE
64BE	7310		MOVB (R1)+, R3
64C0	05F1		DEC R5, R15
64C2	34E1		MOVE $1C2, R4
64C4	F135		SUB R1, #$36
64C6	3CFE		MOVE $1FC, R12
64C8	3320		MOVE $40, R3
64CA	10D3		CTRL $0, #$D3
64CC	F18F		SUB R1, #$90
64CE	F4FE		SUB R4, #$FF
64D0	DD40		MOVE R13, (R4)'
64D2	0035		AND R0, R3
64D4	4938		PUTB $9, (R3)
64D6	010B		ADDH2 R1, R0
64D8	6D3B		MOVB R13, (R3)
64DA	E2FE		
64DC	C510		SLE R5, R1
64DE	0B5B		ADDH2 R11, R5
64E0	C081		SLT R0, R8
64E2	3BE2		MOVE $1C4, R11
64E4	7B40		MOVB (R4)+, R11
64E6	007A		ADDH R0, R7
64E8	8000		LBI R0, #$00
64EA	3A02		MOVE $04, R10
64EC	0BA3		INC2 R11, R10
64EE	F03B		BRA $64B4		; -> -$3C(R0)

64F0	E2FE		
64F2	3480		MOVE $100, R4
64F4	0FDB		ADDH2 R15, R13
64F6	3300		MOVE $00, R3
64F8	0005		AND R0, R0
64FA	4000		PUTB $0, (R0)+
64FC	0002		INC R0, R0
64FE	8DFE		LBI R13, #$FE
6500	2832		MOVE R8, $64
6502	953E		CLR R5, #$3E
6504	0210		DEC2 R2, R1
6506	D0F8		JMP (R15)
6508	1000		CTRL $0, #$00
650A	3320		MOVE $40, R3
650C	10E2		CTRL $0, #$E2
650E	7012		MOVB (R1)+++, R0
6510	0035		AND R0, R3
6512	4932		PUTB $9, (R3)+++
6514	8D32		LBI R13, #$32
6516	9735		CLR R7, #$35
6518	4900		PUTB $9, (R0)+
651A	F10B		SUB R1, #$0C
651C	E4FE		
651E	3370		MOVE $E0, R3
6520	0002		INC R0, R0
6522	3670		MOVE $E0, R6
6524	0FDB		ADDH2 R15, R13
6526	3470		MOVE $E0, R4
6528	0FDB		ADDH2 R15, R13
652A	3100		MOVE $00, R1
652C	0FDB		ADDH2 R15, R13
652E	3840		MOVE $80, R8
6530	0B58		ADD R11, R5
6532	32A7		MOVE $14E, R2
6534	3920		MOVE $40, R9
6536	0B58		ADD R11, R5
6538	3549		MOVE $92, R5
653A	3A20		MOVE $40, R10
653C	0B58		ADD R11, R5
653E	F133		SUB R1, #$34
6540	31FE		MOVE $1FC, R1
6542	F032		BRA $6511		; -> -$33(R0)

6544	A7FE		ADD R7, #$FF
6546	F135		SUB R1, #$36
6548	3CFE		MOVE $1FC, R12
654A	F032		BRA $6519		; -> -$33(R0)

654C	85FE		LBI R5, #$FE
654E	DD5B		MOVE R13, (R5)
6550	0135		AND R1, R3
6552	4933		PUTB $9, (R3)++++
6554	2010		JMP ($0020)

6556	E2BC		
6558	F000		BRA $6559		; -> -$01(R0)

655A	9C00		CLR R12, #$00
655C	0100		DEC2 R1, R0
655E	F10B		SUB R1, #$0C
6560	ECFE		
6562	F032		BRA $6531		; -> -$33(R0)

6564	8FFE		LBI R15, #$FE
6566	3480		MOVE $100, R4
6568	105E		CTRL $0, #$5E
656A	3300		MOVE $00, R3
656C	0004		NOP
656E	4000		PUTB $0, (R0)+
6570	0002		INC R0, R0
6572	C3FE		SNBC R3, R15
6574	2032		JMP ($0064)

6576	C5CD		SNBS R5, R12
6578	2110		MOVE R1, $20
657A	D033		JMP (R3)++
657C	1233		CTRL $2, #$33
657E	0000		HALT
6580	0640		DEC2 R6, R4
6582	0000		HALT
6584	0305		AND R3, R0
6586	2835		MOVE R8, $6A
6588	49FE		PUTB $9, (R15)
658A	3A04		MOVE $08, R10
658C	10D3		CTRL $0, #$D3
658E	F810		SUB R8, #$11
6590	00FE		GETB R15, $0
6592	3320		MOVE $40, R3
6594	10D5		CTRL $0, #$D5
6596	7012		MOVB (R1)+++, R0
6598	0035		AND R0, R3
659A	4932		PUTB $9, (R3)+++
659C	D132		MOVE R1, (R3)+'
659E	F235		SUB R2, #$36
65A0	4900		PUTB $9, (R0)+
65A2	39C0		MOVE $180, R9
65A4	10D4		CTRL $0, #$D4
65A6	3549		MOVE $92, R5
65A8	8905		LBI R9, #$05
65AA	0000		HALT
65AC	F033		BRA $657A		; -> -$34(R0)

65AE	4010		PUTB $0, (R1)+
65B0	CCFE		SNBC R12, R15
65B2	AC04		ADD R12, #$05
65B4	0001		DEC R0, R0
65B6	9C00		CLR R12, #$00
65B8	0500		DEC2 R5, R0
65BA	7310		MOVB (R1)+, R3
65BC	01FA		ADDH R1, R15
65BE	1040		CTRL $0, #$40
65C0	2035		JMP ($006A)

65C2	49ED		PUTB $9, (R14)
65C4	F000		BRA $65C5		; -> -$01(R0)

65C6	32EA		MOVE $1D4, R2
65C8	7012		MOVB (R1)+++, R0
65CA	0032		INC R0, R3
65CC	EA32		
65CE	D932		MOVE R9, (R3)+'
65D0	EA32		
65D2	EA00		
65D4	AA05		ADD R10, #$06
65D6	0000		HALT
65D8	8902		LBI R9, #$02
65DA	0300		DEC2 R3, R0
65DC	FFB3		SUB R15, #$B4
65DE	2003		JMP ($0006)

65E0	F033		BRA $65AE		; -> -$34(R0)

65E2	08FE		GETB R15, $8
65E4	BCF0		SET R12, #$F0
65E6	0039		SUB R0, R3
65E8	C010		SLE R0, R1
65EA	D433		MOVE R4, (R3)++
65EC	29FE		MOVE R9, $1FC
65EE	BC40		SET R12, #$40
65F0	02B3		INC2 R2, R11
65F2	2001		JMP ($0002)

65F4	F10B		SUB R1, #$0C
65F6	F2FE		SUB R2, #$FF
65F8	7012		MOVB (R1)+++, R0
65FA	0033		INC2 R0, R3
65FC	0633		INC2 R6, R3
65FE	0233		INC2 R2, R3
6600	0633		INC2 R6, R3
6602	0600		DEC2 R6, R0
6604	F10B		SUB R1, #$0C
6606	F2FE		SUB R2, #$FF
6608	F033		BRA $65D6		; -> -$34(R0)

660A	08FE		GETB R15, $8
660C	B320		SET R3, #$20
660E	01FE		GETB R15, $1
6610	3370		MOVE $E0, R3
6612	0002		INC R0, R0
6614	3670		MOVE $E0, R6
6616	105E		CTRL $0, #$5E
6618	3470		MOVE $E0, R4
661A	105E		CTRL $0, #$5E
661C	F900		SUB R9, #$01
661E	0031		DEC R0, R3
6620	0010		DEC2 R0, R1
6622	5EFE		MOVE (R15), R14
6624	3700		MOVE $00, R7
6626	0EDB		ADDH2 R14, R13
6628	4000		PUTB $0, (R0)+
662A	0002		INC R0, R0
662C	00FE		GETB R15, $0
662E	2833		MOVE R8, $66
6630	0EF8		ADD R14, R15
6632	1000		CTRL $0, #$00
6634	DC7E		MOVE R12, (R7)
6636	0033		INC2 R0, R3
6638	24DD		MOVE R4, $1BA
663A	AE00		ADD R14, #$01
663C	3549		MOVE $92, R5
663E	3A40		MOVE $80, R10
6640	10D4		CTRL $0, #$D4
6642	7310		MOVB (R1)+, R3
6644	01F0		DEC2 R1, R15
6646	32C9		MOVE $192, R2
6648	3A80		MOVE $100, R10
664A	10D4		CTRL $0, #$D4
664C	7310		MOVB (R1)+, R3
664E	01F0		DEC2 R1, R15
6650	32C9		MOVE $192, R2
6652	DD5B		MOVE R13, (R5)
6654	0135		AND R1, R3
6656	49B3		PUTB $9, (R11)++++
6658	2001		JMP ($0002)

665A	F10B		SUB R1, #$0C
665C	EEFE		
665E	F033		BRA $662C		; -> -$34(R0)

6660	06FE		GETB R15, $6
6662	3480		MOVE $100, R4
6664	0FD9		SUB R15, R13
6666	3300		MOVE $00, R3
6668	0002		INC R0, R0
666A	4000		PUTB $0, (R0)+
666C	0002		INC R0, R0
666E	D8FE		MOVE R8, (R15)
6670	2833		MOVE R8, $66
6672	53F8		MOVE (R15), R3
6674	1000		CTRL $0, #$00
6676	7012		MOVB (R1)+++, R0
6678	0035		AND R0, R3
667A	4933		PUTB $9, (R3)++++
667C	4133		PUTB $1, (R3)++++
667E	5535		MOVE (R3)-, R5
6680	4900		PUTB $9, (R0)+
6682	7500		MOVB (R0)+, R5
6684	00F7		XOR R0, R15
6686	0007		XOR R0, R0
6688	3360		MOVE $C0, R3
668A	00F0		DEC2 R0, R15
668C	F900		SUB R9, #$01
668E	60F6		MOVB R0, (R15)---
6690	0000		HALT
6692	3400		MOVE $00, R4
6694	10D1		CTRL $0, #$D1
6696	7310		MOVB (R1)+, R3
6698	0133		INC2 R1, R3
669A	7000		MOVB (R0)+, R0
669C	0236		OR R2, R3
669E	700F		MOVB (R0), R0
66A0	D934		MOVE R9, (R3)~
66A2	700F		MOVB (R0), R0
66A4	D9FE		MOVE R9, (R15)
66A6	3100		MOVE $00, R1
66A8	0FD9		SUB R15, R13
66AA	DCE2		MOVE R12, (R14)+'
66AC	0033		INC2 R0, R3
66AE	6838		MOVB R8, (R3)
66B0	400B		PUTB $0, (R0)
66B2	5835		MOVE (R3)-, R8
66B4	49FE		PUTB $9, (R15)
66B6	DDD7		MOVE R13, (R13)--
66B8	0035		AND R0, R3
66BA	493C		PUTB $9, (R3)
66BC	FE10		SUB R14, #$11
66BE	D2DC		MOVE R2, (R13)
66C0	6B01		MOVB R11, (R0)++
66C2	334B		MOVE $96, R3
66C4	3920		MOVE $40, R9
66C6	0B58		ADD R11, R5
66C8	3549		MOVE $92, R5
66CA	7310		MOVB (R1)+, R3
66CC	01F0		DEC2 R1, R15
66CE	3052		MOVE $A4, R0
66D0	CC04		SS R12
66D2	10D0		CTRL $0, #$D0
66D4	337C		MOVE $F8, R3
66D6	CC06		SBC R12, R0
66D8	10D0		CTRL $0, #$D0
66DA	337C		MOVE $F8, R3
66DC	CC05		SBS R12, R0
66DE	10D0		CTRL $0, #$D0
66E0	337C		MOVE $F8, R3
66E2	CC07		SBSH R12, R0
66E4	10D0		CTRL $0, #$D0
66E6	337C		MOVE $F8, R3
66E8	3980		MOVE $100, R9
66EA	0B58		ADD R11, R5
66EC	337C		MOVE $F8, R3
66EE	3902		MOVE $04, R9
66F0	0B58		ADD R11, R5
66F2	337C		MOVE $F8, R3
66F4	F035		BRA $66C0		; -> -$36(R0)

66F6	49FE		PUTB $9, (R15)
66F8	3CFC		MOVE $1F8, R12
66FA	10D2		CTRL $0, #$D2
66FC	7310		MOVB (R1)+, R3
66FE	01F1		DEC R1, R15
6700	353C		MOVE $78, R5
6702	F030		BRA $66D3		; -> -$31(R0)

6704	52FE		MOVE (R15), R2
6706	3520		MOVE $40, R5
6708	1064		CTRL $0, #$64
670A	3300		MOVE $00, R3
670C	33BD		MOVE $17A, R3
670E	3400		MOVE $00, R4
6710	0BA8		ADD R11, R10
6712	3300		MOVE $00, R3
6714	0004		NOP
6716	4000		PUTB $0, (R0)+
6718	0003		INC2 R0, R0
671A	22FE		MOVE R2, $1FC
671C	2833		MOVE R8, $66
671E	93F1		CLR R3, #$F1
6720	6BDE		MOVB R11, (R13)
6722	F033		BRA $66F0		; -> -$34(R0)

6724	BDFE		SET R13, #$FE
6726	3300		MOVE $00, R3
6728	0003		INC2 R0, R0
672A	4000		PUTB $0, (R0)+
672C	0002		INC R0, R0
672E	86FE		LBI R6, #$FE
6730	2833		MOVE R8, $66
6732	A6F1		ADD R6, #$F2
6734	0BEA		ADDH R11, R14
6736	7012		MOVB (R1)+++, R0
6738	0035		AND R0, R3
673A	4935		PUTB $9, (R3)--
673C	490B		PUTB $9, (R0)
673E	F235		SUB R2, #$36
6740	4900		PUTB $9, (R0)+
6742	7D5B		MOVB (R5), R13
6744	0050		DEC2 R0, R5
6746	0BF2		INC R11, R15
6748	F033		BRA $6716		; -> -$34(R0)

674A	BAFE		SET R10, #$FE
674C	7012		MOVB (R1)+++, R0
674E	0035		AND R0, R3
6750	4935		PUTB $9, (R3)--
6752	490B		PUTB $9, (R0)
6754	F235		SUB R2, #$36
6756	4900		PUTB $9, (R0)+
6758	DD5B		MOVE R13, (R5)
675A	0033		INC2 R0, R3
675C	B2F1		SET R2, #$F1
675E	0BF2		INC R11, R15
6760	F033		BRA $672E		; -> -$34(R0)

6762	BAFE		SET R10, #$FE
6764	7012		MOVB (R1)+++, R0
6766	0033		INC2 R0, R3
6768	CB0B		SNZ R11
676A	F235		SUB R2, #$36
676C	4933		PUTB $9, (R3)++++
676E	BA00		SET R10, #$00
6770	F033		BRA $673E		; -> -$34(R0)

6772	BDFE		SET R13, #$FE
6774	7D4D		MOVB (R4), R13
6776	0050		DEC2 R0, R5
6778	83D8		LBI R3, #$D8
677A	DD6B		MOVE R13, (R6)
677C	0033		INC2 R0, R3
677E	C8CC		SNS R8
6780	2310		MOVE R3, $20
6782	D033		JMP (R3)++
6784	C4F1		SLT R4, R15
6786	3457		MOVE $AE, R4
6788	F10B		SUB R1, #$0C
678A	F2FE		SUB R2, #$FF
678C	F033		BRA $675A		; -> -$34(R0)

678E	85FE		LBI R5, #$FE
6790	DD40		MOVE R13, (R4)'
6792	0035		AND R0, R3
6794	49FE		PUTB $9, (R15)
6796	3901		MOVE $02, R9
6798	0B58		ADD R11, R5
679A	3BE2		MOVE $1C4, R11
679C	B350		SET R3, #$50
679E	0233		INC2 R2, R3
67A0	2010		JMP ($0020)

67A2	E2F9		
67A4	5020		MOVE (R2)', R0
67A6	3310		MOVE $20, R3
67A8	10D5		CTRL $0, #$D5
67AA	3904		MOVE $08, R9
67AC	10D3		CTRL $0, #$D3
67AE	33DD		MOVE $1BA, R3
67B0	39C0		MOVE $180, R9
67B2	10D4		CTRL $0, #$D4
67B4	33DD		MOVE $1BA, R3
67B6	F033		BRA $6784		; -> -$34(R0)

67B8	DFFE		MOVE R15, (R15)
67BA	7310		MOVB (R1)+, R3
67BC	03FE		GETB R15, $3
67BE	6450		MOVB R4, (R5)+
67C0	0000		HALT
67C2	391C		MOVE $38, R9
67C4	0B58		ADD R11, R5
67C6	33F0		MOVE $1E0, R3
67C8	3808		MOVE $10, R8
67CA	0BA3		INC2 R11, R10
67CC	3BE2		MOVE $1C4, R11
67CE	CC02		SE R12, R0
67D0	10D0		CTRL $0, #$D0
67D2	3549		MOVE $92, R5
67D4	3320		MOVE $40, R3
67D6	10CA		CTRL $0, #$CA
67D8	8903		LBI R9, #$03
67DA	0000		HALT
67DC	00F0		DEC2 R0, R15
67DE	3BDA		MOVE $1B4, R11
67E0	3300		MOVE $00, R3
67E2	0002		INC R0, R0
67E4	F800		SUB R8, #$01
67E6	5004		MOVE (R0)~, R0
67E8	0010		DEC2 R0, R1
67EA	D110		MOVE R1, (R1)'
67EC	D3F0		MOVE R3, (R15)'
67EE	33E4		MOVE $1C8, R3
67F0	3520		MOVE $40, R5
67F2	1064		CTRL $0, #$64
67F4	3300		MOVE $00, R3
67F6	0003		INC2 R0, R0
67F8	4000		PUTB $0, (R0)+
67FA	0002		INC R0, R0
67FC	86FE		LBI R6, #$FE
67FE	2834		MOVE R8, $68
6800	10F1		CTRL $0, #$F1
6802	0BEA		ADDH R11, R14
6804	7012		MOVB (R1)+++, R0
6806	0035		AND R0, R3
6808	4935		PUTB $9, (R3)--
680A	4934		PUTB $9, (R3)-
680C	0835		AND R8, R3
680E	4900		PUTB $9, (R0)+
6810	F10B		SUB R1, #$0C
6812	F2FE		SUB R2, #$FF
6814	DD5B		MOVE R13, (R5)
6816	0034		RET R3

6818	12F1		CTRL $2, #$F1
681A	0BF2		INC R11, R15
681C	F034		BRA $67E9		; -> -$35(R0)

681E	12FE		CTRL $2, #$FE
6820	F18F		SUB R1, #$90
6822	F4FE		SUB R4, #$FF
6824	DD6B		MOVE R13, (R6)
6826	0033		INC2 R0, R3
6828	C8F1		SLT R8, R15
682A	3457		MOVE $AE, R4
682C	F10B		SUB R1, #$0C
682E	F2FE		SUB R2, #$FF
6830	F033		BRA $67FE		; -> -$34(R0)

6832	FAFE		SUB R10, #$FF
6834	3520		MOVE $40, R5
6836	1064		CTRL $0, #$64
6838	3300		MOVE $00, R3
683A	342C		MOVE $58, R4
683C	3400		MOVE $00, R4
683E	0BA8		ADD R11, R10
6840	7012		MOVB (R1)+++, R0
6842	0035		AND R0, R3
6844	4935		PUTB $9, (R3)--
6846	490B		PUTB $9, (R0)
6848	F235		SUB R2, #$36
684A	4900		PUTB $9, (R0)+
684C	7D5B		MOVB (R5), R13
684E	0050		DEC2 R0, R5
6850	0BF2		INC R11, R15
6852	7D4D		MOVB (R4), R13
6854	0050		DEC2 R0, R5
6856	83D8		LBI R3, #$D8
6858	DD6B		MOVE R13, (R6)
685A	0033		INC2 R0, R3
685C	C8CC		SNS R8
685E	2410		MOVE R4, $20
6860	D034		JMP (R3)~
6862	33F1		MOVE $1E2, R3
6864	3457		MOVE $AE, R4
6866	F10B		SUB R1, #$0C
6868	F2FE		SUB R2, #$FF
686A	F034		BRA $6837		; -> -$35(R0)

686C	1CFE		CTRL $C, #$FE
686E	3520		MOVE $40, R5
6870	1064		CTRL $0, #$64
6872	7012		MOVB (R1)+++, R0
6874	0035		AND R0, R3
6876	4935		PUTB $9, (R3)--
6878	490B		PUTB $9, (R0)
687A	F235		SUB R2, #$36
687C	4900		PUTB $9, (R0)+
687E	7D5B		MOVB (R5), R13
6880	0050		DEC2 R0, R5
6882	0BF2		INC R11, R15
6884	3840		MOVE $80, R8
6886	0B58		ADD R11, R5
6888	3448		MOVE $90, R4
688A	DC5E		MOVE R12, (R5)
688C	0034		RET R3

688E	4CFE		PUTB $C, (R15)
6890	DD6B		MOVE R13, (R6)
6892	0033		INC2 R0, R3
6894	C8F1		SLT R8, R15
6896	3457		MOVE $AE, R4
6898	F10B		SUB R1, #$0C
689A	F2FE		SUB R2, #$FF
689C	3840		MOVE $80, R8
689E	0B58		ADD R11, R5
68A0	3439		MOVE $72, R4
68A2	7012		MOVB (R1)+++, R0
68A4	0033		INC2 R0, R3
68A6	C835		SBS R8, R3
68A8	4934		PUTB $9, (R3)-
68AA	3934		MOVE $68, R9
68AC	4500		PUTB $5, (R0)+
68AE	3480		MOVE $100, R4
68B0	105E		CTRL $0, #$5E
68B2	3300		MOVE $00, R3
68B4	0005		AND R0, R0
68B6	4000		PUTB $0, (R0)+
68B8	0002		INC R0, R0
68BA	C0FE		SNBC R0, R15
68BC	2047		JMP ($008E)

68BE	F433		SUB R4, #$34
68C0	0000		HALT
68C2	0440		DEC2 R4, R4
68C4	0000		HALT
68C6	02AB		ADDH2 R2, R10
68C8	2047		JMP ($008E)

68CA	F433		SUB R4, #$34
68CC	0000		HALT
68CE	0640		DEC2 R6, R4
68D0	0000		HALT
68D2	02C8		ADD R2, R12
68D4	2047		JMP ($008E)

68D6	F433		SUB R4, #$34
68D8	0000		HALT
68DA	0740		DEC2 R7, R4
68DC	0000		HALT
68DE	02CB		ADDH2 R2, R12
68E0	2047		JMP ($008E)

68E2	F433		SUB R4, #$34
68E4	0000		HALT
68E6	0640		DEC2 R6, R4
68E8	0000		HALT
68EA	02B8		ADD R2, R11
68EC	2047		JMP ($008E)

68EE	F433		SUB R4, #$34
68F0	0000		HALT
68F2	0540		DEC2 R5, R4
68F4	0000		HALT
68F6	02B5		AND R2, R11
68F8	2047		JMP ($008E)

68FA	F433		SUB R4, #$34
68FC	0000		HALT
68FE	0640		DEC2 R6, R4
6900	0000		HALT
6902	02C5		AND R2, R12
6904	2047		JMP ($008E)

6906	F431		SUB R4, #$32
6908	0010		DEC2 R0, R1
690A	5EFE		MOVE (R15), R14
690C	3520		MOVE $40, R5
690E	1064		CTRL $0, #$64
6910	DC40		MOVE R12, (R4)'
6912	0033		INC2 R0, R3
6914	C833		SZ R8
6916	0000		HALT
6918	0440		DEC2 R4, R4
691A	0000		HALT
691C	02FD		MLH R2, R15
691E	2834		MOVE R8, $68
6920	9FCC		CLR R15, #$CC
6922	0210		DEC2 R2, R1
6924	D035		JMP (R3)-
6926	49F1		PUTB $9, (R15)++
6928	0BEE		GETB R14, $B
692A	F10B		SUB R1, #$0C
692C	EEFE		
692E	F18F		SUB R1, #$90
6930	F8FE		SUB R8, #$FF
6932	DD5D		MOVE R13, (R5)
6934	0035		AND R0, R3
6936	49F1		PUTB $9, (R15)++
6938	0BF2		INC R11, R15
693A	F034		BRA $6907		; -> -$35(R0)

693C	BFFE		SET R15, #$FE
693E	3300		MOVE $00, R3
6940	0003		INC2 R0, R0
6942	4000		PUTB $0, (R0)+
6944	0002		INC R0, R0
6946	86FE		LBI R6, #$FE
6948	2834		MOVE R8, $68
694A	B2F1		SET R2, #$F1
694C	0BEA		ADDH R11, R14
694E	7012		MOVB (R1)+++, R0
6950	0035		AND R0, R3
6952	4935		PUTB $9, (R3)--
6954	490B		PUTB $9, (R0)
6956	F235		SUB R2, #$36
6958	4900		PUTB $9, (R0)+
695A	7D5B		MOVB (R5), R13
695C	0050		DEC2 R0, R5
695E	0BF2		INC R11, R15
6960	F034		BRA $692D		; -> -$35(R0)

6962	BFFE		SET R15, #$FE
6964	DC5E		MOVE R12, (R5)
6966	0034		RET R3

6968	B9DD		SET R9, #$DD
696A	6B00		MOVB R11, (R0)+
696C	34BD		MOVE $17A, R4
696E	F134		SUB R1, #$35
6970	57FE		MOVE (R15), R7
6972	F10B		SUB R1, #$0C
6974	F2FE		SUB R2, #$FF
6976	F034		BRA $6943		; -> -$35(R0)

6978	88FE		LBI R8, #$FE
697A	F18F		SUB R1, #$90
697C	F4FE		SUB R4, #$FF
697E	DD7D		MOVE R13, (R7)
6980	0034		RET R3

6982	C9CC		SNS R9
6984	0210		DEC2 R2, R1
6986	D035		JMP (R3)-
6988	49BC		PUTB $9, (R11)
698A	3600		MOVE $00, R6
698C	B320		SET R3, #$20
698E	01F0		DEC2 R1, R15
6990	34BD		MOVE $17A, R4
6992	DC6B		MOVE R12, (R6)
6994	0034		RET R3

6996	B7DC		SET R7, #$DC
6998	5E00		MOVE (R0)', R14
699A	34B9		MOVE $172, R4
699C	DC40		MOVE R12, (R4)'
699E	0033		INC2 R0, R3
69A0	C837		SBSH R8, R3
69A2	100E		CTRL $0, #$0E
69A4	DB1C		MOVE R11, (R1)
69A6	000E		GETB R0, $0
69A8	D900		MOVE R9, (R0)'
69AA	7310		MOVB (R1)+, R3
69AC	01CD		MLH R1, R12
69AE	7D0E		MOVB (R0), R13
69B0	D935		MOVE R9, (R3)-
69B2	49CC		PUTB $9, (R12)
69B4	0210		DEC2 R2, R1
69B6	D035		JMP (R3)-
69B8	49BC		PUTB $9, (R11)
69BA	3600		MOVE $00, R6
69BC	B320		SET R3, #$20
69BE	01F0		DEC2 R1, R15
69C0	3488		MOVE $110, R4
69C2	3480		MOVE $100, R4
69C4	105E		CTRL $0, #$5E
69C6	3320		MOVE $40, R3
69C8	10D1		CTRL $0, #$D1
69CA	CC27		SBSH R12, R2
69CC	10D0		CTRL $0, #$D0
69CE	34EA		MOVE $1D4, R4
69D0	B320		SET R3, #$20
69D2	12FE		CTRL $2, #$FE
69D4	DC7D		MOVE R12, (R7)
69D6	0034		RET R3

69D8	F870		SUB R8, #$71
69DA	1200		CTRL $2, #$00
69DC	3549		MOVE $92, R5
69DE	3549		MOVE $92, R5
69E0	0BF2		INC R11, R15
69E2	3549		MOVE $92, R5
69E4	DD5B		MOVE R13, (R5)
69E6	0035		AND R0, R3
69E8	49F1		PUTB $9, (R15)++
69EA	0BF2		INC R11, R15
69EC	3100		MOVE $00, R1
69EE	105E		CTRL $0, #$5E
69F0	7310		MOVB (R1)+, R3
69F2	0133		INC2 R1, R3
69F4	0000		HALT
69F6	0340		DEC2 R3, R4
69F8	0000		HALT
69FA	02BD		MLH R2, R11
69FC	2035		JMP ($006A)

69FE	343A		MOVE $74, R4
6A00	2010		JMP ($0020)

6A02	E270		
6A04	1200		CTRL $2, #$00
6A06	3549		MOVE $92, R5
6A08	3513		MOVE $26, R5
6A0A	3507		MOVE $0E, R5
6A0C	3549		MOVE $92, R5
6A0E	D8C6		MOVE R8, (R12)-~
6A10	0035		AND R0, R3
6A12	499C		PUTB $9, (R9)
6A14	0000		HALT
6A16	00BF		GETA R11, $0
6A18	B700		SET R7, #$00
6A1A	F10B		SUB R1, #$0C
6A1C	F0FE		BRA $691F		; -> -$FF(R0)

6A1E	3C02		MOVE $04, R12
6A20	0B5A		ADDH R11, R5
6A22	F035		BRA $69EE		; -> -$36(R0)

6A24	15FE		CTRL $5, #$FE
6A26	3C03		MOVE $06, R12
6A28	0B5A		ADDH R11, R5
6A2A	7012		MOVB (R1)+++, R0
6A2C	0035		AND R0, R3
6A2E	4935		PUTB $9, (R3)--
6A30	1B35		CTRL $B, #$35
6A32	4935		PUTB $9, (R3)--
6A34	4900		PUTB $9, (R0)+
6A36	9C00		CLR R12, #$00
6A38	0000		HALT
6A3A	BFF0		SET R15, #$F0
6A3C	00F1		DEC R0, R15
6A3E	0BF0		DEC2 R11, R15
6A40	3F01		MOVE $02, R15
6A42	0B5A		ADDH R11, R5
6A44	C001		SLT R0, R0
6A46	3515		MOVE $2A, R5
6A48	3300		MOVE $00, R3
6A4A	0002		INC R0, R0
6A4C	F920		SUB R9, #$21
6A4E	0083		INC2 R0, R8
6A50	0001		DEC R0, R0
6A52	0003		INC2 R0, R0
6A54	8310		LBI R3, #$10
6A56	0000		HALT
6A58	03BC		MHL R3, R11
6A5A	FF01		SUB R15, #$02
6A5C	DD7D		MOVE R13, (R7)
6A5E	0035		AND R0, R3
6A60	4973		PUTB $9, (R7)++++
6A62	1001		CTRL $0, #$01
6A64	3100		MOVE $00, R1
6A66	105E		CTRL $0, #$5E
6A68	BCF1		SET R12, #$F1
6A6A	00BC		MHL R0, R11
6A6C	5B01		MOVE (R0)+, R11
6A6E	B320		SET R3, #$20
6A70	02F8		ADD R2, R15
6A72	1000		CTRL $0, #$00
6A74	F035		BRA $6A40		; -> -$36(R0)

6A76	2EFE		MOVE R14, $1FC
6A78	DD6B		MOVE R13, (R6)
6A7A	0035		AND R0, R3
6A7C	4973		PUTB $9, (R7)++++
6A7E	1001		CTRL $0, #$01
6A80	FC80		SUB R12, #$81
6A82	00FE		GETB R15, $0
6A84	DD6B		MOVE R13, (R6)
6A86	0035		AND R0, R3
6A88	49FC		PUTB $9, (R15)
6A8A	8000		LBI R0, #$00
6A8C	3940		MOVE $80, R9
6A8E	0B58		ADD R11, R5
6A90	3052		MOVE $A4, R0
6A92	3C00		MOVE $00, R12
6A94	0B5A		ADDH R11, R5
6A96	F00B		BRA $6A8C		; -> -$0C(R0)

6A98	E6FE		
6A9A	0509		SUB R5, R0
6A9C	1058		CTRL $0, #$58
6A9E	36E3		MOVE $1C6, R6
6AA0	3420		MOVE $40, R4
6AA2	0FB8		ADD R15, R11
6AA4	093F		GETA R3, $9
6AA6	05C0		DEC2 R5, R12
6AA8	0040		DEC2 R0, R4
6AAA	3310		MOVE $20, R3
6AAC	10CE		CTRL $0, #$CE
6AAE	3901		MOVE $02, R9
6AB0	0B6D		MLH R11, R6
6AB2	357C		MOVE $F8, R5
6AB4	3920		MOVE $40, R9
6AB6	0B6D		MLH R11, R6
6AB8	3564		MOVE $C8, R5
6ABA	3820		MOVE $40, R8
6ABC	0BA4		MOVE R11, R10
6ABE	3564		MOVE $C8, R5
6AC0	3C33		MOVE $66, R12
6AC2	0BB4		MOVE R11, R11
6AC4	F08F		BRA $6A36		; -> -$90(R0)

6AC6	EEFE		
6AC8	C520		SLE R5, R2
6ACA	0B65		AND R11, R6
6ACC	C081		SLT R0, R8
6ACE	356C		MOVE $D8, R5
6AD0	6D01		MOVB R13, (R0)++
6AD2	0004		NOP
6AD4	1835		CTRL $8, #$35
6AD6	82FE		LBI R2, #$FE
6AD8	C520		SLE R5, R2
6ADA	0B80		DEC2 R11, R8
6ADC	C001		SLT R0, R0
6ADE	3582		MOVE $104, R5
6AE0	F136		SUB R1, #$37
6AE2	15FE		CTRL $5, #$FE
6AE4	F136		SUB R1, #$37
6AE6	23FE		MOVE R3, $1FC
6AE8	3310		MOVE $20, R3
6AEA	10CE		CTRL $0, #$CE
6AEC	8903		LBI R9, #$03
6AEE	0000		HALT
6AF0	00F1		DEC R0, R15
6AF2	3639		MOVE $72, R6
6AF4	F036		BRA $6ABF		; -> -$37(R0)

6AF6	05FE		GETB R15, $5
6AF8	C520		SLE R5, R2
6AFA	0B5B		ADDH2 R11, R5
6AFC	C081		SLT R0, R8
6AFE	3677		MOVE $EE, R6
6B00	B520		SET R5, #$20
6B02	01FE		GETB R15, $1
6B04	6D01		MOVB R13, (R0)++
6B06	0004		NOP
6B08	2035		JMP ($006A)

6B0A	B16D		SET R1, #$6D
6B0C	0100		DEC2 R1, R0
6B0E	0410		DEC2 R4, R1
6B10	3590		MOVE $120, R5
6B12	8D01		LBI R13, #$01
6B14	000E		GETB R0, $0
6B16	DA20		MOVE R10, (R2)'
6B18	35FB		MOVE $1F6, R5
6B1A	B520		SET R5, #$20
6B1C	00F0		DEC2 R0, R15
6B1E	3582		MOVE $104, R5
6B20	3801		MOVE $02, R8
6B22	0B6D		MLH R11, R6
6B24	359A		MOVE $134, R5
6B26	2B03		MOVE R11, $06
6B28	1058		CTRL $0, #$58
6B2A	040D		MLH R4, R0
6B2C	0210		DEC2 R2, R1
6B2E	5810		MOVE (R1)', R8
6B30	5C20		MOVE (R2)', R12
6B32	3589		MOVE $112, R5
6B34	F136		SUB R1, #$37
6B36	15FE		CTRL $5, #$FE
6B38	F136		SUB R1, #$37
6B3A	23FE		MOVE R3, $1FC
6B3C	4D01		PUTB $D, (R0)++
6B3E	020E		GETB R0, $2
6B40	DA20		MOVE R10, (R2)'
6B42	35EB		MOVE $1D6, R5
6B44	3901		MOVE $02, R9
6B46	0B6D		MLH R11, R6
6B48	35A7		MOVE $14E, R5
6B4A	3420		MOVE $40, R4
6B4C	0B65		AND R11, R6
6B4E	B410		SET R4, #$10
6B50	009C		MHL R0, R9
6B52	0102		INC R1, R0
6B54	0274		MOVE R2, R7
6B56	2002		JMP ($0004)

6B58	B510		SET R5, #$10
6B5A	0274		MOVE R2, R7
6B5C	2000		JMP ($0000)

6B5E	F036		BRA $6B29		; -> -$37(R0)

6B60	05FE		GETB R15, $5
6B62	FB30		SUB R11, #$31
6B64	20B3		JMP ($0166)

6B66	2004		JMP ($0008)

6B68	F136		SUB R1, #$37
6B6A	15FE		CTRL $5, #$FE
6B6C	FB50		SUB R11, #$51
6B6E	70F1		MOVB (R15)++, R0
6B70	3615		MOVE $2A, R6
6B72	FB10		SUB R11, #$11
6B74	30FA		MOVE $1F4, R0
6B76	5070		MOVE (R7)', R0
6B78	0035		AND R0, R3
6B7A	C933		SZ R9
6B7C	2010		JMP ($0020)

6B7E	CE64		SS R14
6B80	7004		MOVB (R0)-, R0
6B82	0039		SUB R0, R3
6B84	010B		ADDH2 R1, R0
6B86	6D36		MOVB R13, (R3)---
6B88	63FE		MOVB R3, (R15)
6B8A	3410		MOVE $20, R4
6B8C	0B65		AND R11, R6
6B8E	F036		BRA $6B59		; -> -$37(R0)

6B90	63FE		MOVB R3, (R15)
6B92	FB70		SUB R11, #$71
6B94	50F1		MOVE (R15)+, R0
6B96	3623		MOVE $46, R6
6B98	9C03		CLR R12, #$03
6B9A	0000		HALT
6B9C	D510		MOVE R5, (R1)'
6B9E	02C0		DEC2 R2, R12
6BA0	8135		LBI R1, #$35
6BA2	E039		
6BA4	010B		ADDH2 R1, R0
6BA6	6D35		MOVB R13, (R3)--
6BA8	D7FE		MOVE R7, (R15)
6BAA	3420		MOVE $40, R4
6BAC	0B65		AND R11, R6
6BAE	7420		MOVB (R2)+, R4
6BB0	00FE		GETB R15, $0
6BB2	E510		
6BB4	00C0		DEC2 R0, R12
6BB6	8136		LBI R1, #$36
6BB8	0574		MOVE R5, R7
6BBA	2002		JMP ($0004)

6BBC	F036		BRA $6B87		; -> -$37(R0)

6BBE	05FE		GETB R15, $5
6BC0	3801		MOVE $02, R8
6BC2	0B6D		MLH R11, R6
6BC4	35E7		MOVE $1CE, R5
6BC6	F136		SUB R1, #$37
6BC8	31FE		MOVE $1FC, R1
6BCA	F035		BRA $6B96		; -> -$36(R0)

6BCC	D9FE		MOVE R9, (R15)
6BCE	F136		SUB R1, #$37
6BD0	39FE		MOVE $1FC, R9
6BD2	F035		BRA $6B9E		; -> -$36(R0)

6BD4	D9FE		MOVE R9, (R15)
6BD6	3801		MOVE $02, R8
6BD8	0B6D		MLH R11, R6
6BDA	35F2		MOVE $1E4, R5
6BDC	F136		SUB R1, #$37
6BDE	31FE		MOVE $1FC, R1
6BE0	F035		BRA $6BAC		; -> -$36(R0)

6BE2	F4FE		SUB R4, #$FF
6BE4	F136		SUB R1, #$37
6BE6	39FE		MOVE $1FC, R9
6BE8	8901		LBI R9, #$01
6BEA	0200		DEC2 R2, R0
6BEC	0074		RET R7

6BEE	2002		JMP ($0004)

6BF0	B410		SET R4, #$10
6BF2	00F0		DEC2 R0, R15
6BF4	3605		MOVE $0A, R6
6BF6	F136		SUB R1, #$37
6BF8	15FE		CTRL $5, #$FE
6BFA	F136		SUB R1, #$37
6BFC	23FE		MOVE R3, $1FC
6BFE	8901		LBI R9, #$01
6C00	0000		HALT
6C02	00B4		RET R11

6C04	1002		CTRL $0, #$02
6C06	7420		MOVB (R2)+, R4
6C08	00FE		GETB R15, $0
6C0A	3310		MOVE $20, R3
6C0C	10CE		CTRL $0, #$CE
6C0E	9470		CLR R4, #$70
6C10	0400		DEC2 R4, R0
6C12	3901		MOVE $02, R9
6C14	0B6D		MLH R11, R6
6C16	360E		MOVE $1C, R6
6C18	3420		MOVE $40, R4
6C1A	0B65		AND R11, R6
6C1C	F820		SUB R8, #$21
6C1E	70B3		MOVB (R11)++++, R0
6C20	2004		JMP ($0008)

6C22	3420		MOVE $40, R4
6C24	0B63		INC2 R11, R6
6C26	F036		BRA $6BF1		; -> -$37(R0)

6C28	63FE		MOVB R3, (R15)
6C2A	FB40		SUB R11, #$41
6C2C	80FB		LBI R0, #$FB
6C2E	6010		MOVB R0, (R1)+
6C30	3300		MOVE $00, R3
6C32	0004		NOP
6C34	F910		SUB R9, #$11
6C36	00F1		DEC R0, R15
6C38	53E4		MOVE (R14)~, R3
6C3A	7370		MOVB (R7)+, R3
6C3C	01FB		ADDH2 R1, R15
6C3E	1020		CTRL $0, #$20
6C40	F970		SUB R9, #$71
6C42	60FC		MOVB R0, (R15)
6C44	4000		PUTB $0, (R0)+
6C46	3520		MOVE $40, R5
6C48	0B63		INC2 R11, R6
6C4A	3530		MOVE $60, R5
6C4C	0DB0		DEC2 R13, R11
6C4E	F930		SUB R9, #$31
6C50	2036		JMP ($006C)

6C52	7010		MOVB (R1)+, R0
6C54	5FFA		MOVE (R15), R15
6C56	7030		MOVB (R3)+, R0
6C58	0036		OR R0, R3
6C5A	4637		PUTB $6, (R3)----
6C5C	7010		MOVB (R1)+, R0
6C5E	5FFC		MOVE (R15), R15
6C60	8000		LBI R0, #$00
6C62	FB50		SUB R11, #$51
6C64	1035		CTRL $0, #$35
6C66	100B		CTRL $0, #$0B
6C68	5B74		MOVE (R7)~, R11
6C6A	2001		JMP ($0002)

6C6C	FB10		SUB R11, #$11
6C6E	50FC		MOVE (R15), R0
6C70	8000		LBI R0, #$00
6C72	0D01		DEC R13, R0
6C74	0B7D		MLH R11, R7
6C76	0B80		DEC2 R11, R8
6C78	2836		MOVE R8, $6C
6C7A	4034		PUTB $0, (R3)-
6C7C	200B		JMP ($0016)

6C7E	7DFE		MOVB (R15), R13
6C80	3420		MOVE $40, R4
6C82	0B80		DEC2 R11, R8
6C84	3420		MOVE $40, R4
6C86	0B65		AND R11, R6
6C88	FC80		SUB R12, #$81
6C8A	00FE		GETB R15, $0
6C8C	3C1C		MOVE $38, R12
6C8E	0BB4		MOVE R11, R11
6C90	3820		MOVE $40, R8
6C92	0BA1		DEC R11, R10
6C94	3651		MOVE $A2, R6
6C96	3B20		MOVE $40, R11
6C98	0BA1		DEC R11, R10
6C9A	3B08		MOVE $10, R11
6C9C	0B6C		MHL R11, R6
6C9E	F08F		BRA $6C10		; -> -$90(R0)

6CA0	EEFE		
6CA2	3901		MOVE $02, R9
6CA4	1061		CTRL $0, #$61
6CA6	365C		MOVE $B8, R6
6CA8	3A01		MOVE $02, R10
6CAA	1061		CTRL $0, #$61
6CAC	3C00		MOVE $00, R12
6CAE	0BB4		MOVE R11, R11
6CB0	F183		SUB R1, #$84
6CB2	F2FE		SUB R2, #$FF
6CB4	F035		BRA $6C80		; -> -$36(R0)

6CB6	55FE		MOVE (R15), R5
6CB8	3820		MOVE $40, R8
6CBA	0B6D		MLH R11, R6
6CBC	8FEE		LBI R15, #$EE
6CBE	3B20		MOVE $40, R11
6CC0	0B6D		MLH R11, R6
6CC2	F05F		BRA $6C64		; -> -$60(R0)

6CC4	E2FE		
6CC6	3802		MOVE $04, R8
6CC8	0BA3		INC2 R11, R10
6CCA	366C		MOVE $D8, R6
6CCC	3B01		MOVE $02, R11
6CCE	0B6D		MLH R11, R6
6CD0	3B02		MOVE $04, R11
6CD2	0BA3		INC2 R11, R10
6CD4	3B01		MOVE $02, R11
6CD6	0B6C		MHL R11, R6
6CD8	3820		MOVE $40, R8
6CDA	0B6D		MLH R11, R6
6CDC	3673		MOVE $E6, R6
6CDE	3520		MOVE $40, R5
6CE0	0FB8		ADD R15, R11
6CE2	FC20		SUB R12, #$21
6CE4	00FE		GETB R15, $0
6CE6	3C80		MOVE $100, R12
6CE8	0BB5		AND R11, R11
6CEA	F08F		BRA $6C5C		; -> -$90(R0)

6CEC	EEFE		
6CEE	3B01		MOVE $02, R11
6CF0	0B6D		MLH R11, R6
6CF2	3B02		MOVE $04, R11
6CF4	0BA3		INC2 R11, R10
6CF6	3B01		MOVE $02, R11
6CF8	0B6C		MHL R11, R6
6CFA	3C05		MOVE $0A, R12
6CFC	0BB4		MOVE R11, R11
6CFE	F08F		BRA $6C70		; -> -$90(R0)

6D00	EEFE		
6D02	3920		MOVE $40, R9
6D04	0BA4		MOVE R11, R10
6D06	3560		MOVE $C0, R5
6D08	0509		SUB R5, R0
6D0A	1058		CTRL $0, #$58
6D0C	36E3		MOVE $1C6, R6
6D0E	3310		MOVE $20, R3
6D10	10CE		CTRL $0, #$CE
6D12	3520		MOVE $40, R5
6D14	0B80		DEC2 R11, R8
6D16	093F		GETA R3, $9
6D18	05C0		DEC2 R5, R12
6D1A	0040		DEC2 R0, R4
6D1C	0901		DEC R9, R0
6D1E	0B65		AND R11, R6
6D20	0000		HALT
6D22	3801		MOVE $02, R8
6D24	0B6D		MLH R11, R6
6D26	369B		MOVE $136, R6
6D28	C520		SLE R5, R2
6D2A	0B5B		ADDH2 R11, R5
6D2C	C081		SLT R0, R8
6D2E	3677		MOVE $EE, R6
6D30	B520		SET R5, #$20
6D32	01B5		AND R1, R11
6D34	2000		JMP ($0000)

6D36	3620		MOVE $40, R6
6D38	0EDA		ADDH R14, R13
6D3A	C081		SLT R0, R8
6D3C	3663		MOVE $C6, R6
6D3E	DDFF		MOVE R13, (R15)
6D40	0236		OR R2, R3
6D42	C4FE		SNBC R4, R15
6D44	6D01		MOVB R13, (R0)++
6D46	0004		NOP
6D48	2036		JMP ($006C)

6D4A	AE6D		ADD R14, #$6E
6D4C	0100		DEC2 R1, R0
6D4E	0410		DEC2 R4, R1
6D50	3663		MOVE $C6, R6
6D52	E520		
6D54	00C0		DEC2 R0, R12
6D56	0136		OR R1, R3
6D58	A2F0		ADD R2, #$F1
6D5A	3663		MOVE $C6, R6
6D5C	E510		
6D5E	00C0		DEC2 R0, R12
6D60	8136		LBI R1, #$36
6D62	B46C		SET R4, #$6C
6D64	0102		INC R1, R0
6D66	02FE		GETB R15, $2
6D68	E510		
6D6A	02C0		DEC2 R2, R12
6D6C	8136		LBI R1, #$36
6D6E	BB6C		SET R11, #$6C
6D70	0100		DEC2 R1, R0
6D72	00F0		DEC2 R0, R15
6D74	3663		MOVE $C6, R6
6D76	B520		SET R5, #$20
6D78	00F1		DEC R0, R15
6D7A	3639		MOVE $72, R6
6D7C	F036		BRA $6D47		; -> -$37(R0)

6D7E	63FE		MOVB R3, (R15)
6D80	E520		
6D82	00C0		DEC2 R0, R12
6D84	8136		LBI R1, #$36
6D86	63FE		MOVB R3, (R15)
6D88	6D01		MOVB R13, (R0)++
6D8A	0204		MOVE R2, R0
6D8C	1036		CTRL $0, #$36
6D8E	63FE		MOVB R3, (R15)
6D90	6D01		MOVB R13, (R0)++
6D92	0004		NOP
6D94	0036		OR R0, R3
6D96	C0FB		SNZ R0
6D98	3020		MOVE $40, R0
6D9A	6D01		MOVB R13, (R0)++
6D9C	0204		MOVE R2, R0
6D9E	0036		OR R0, R3
6DA0	D76D		MOVE R7, (R6)
6DA2	0102		INC R1, R0
6DA4	0420		DEC2 R4, R2
6DA6	36DE		MOVE $1BC, R6
6DA8	B520		SET R5, #$20
6DAA	02F0		DEC2 R2, R15
6DAC	36DE		MOVE $1BC, R6
6DAE	8D01		LBI R13, #$01
6DB0	000E		GETB R0, $0
6DB2	DA20		MOVE R10, (R2)'
6DB4	36DE		MOVE $1BC, R6
6DB6	B520		SET R5, #$20
6DB8	00F0		DEC2 R0, R15
6DBA	36CD		MOVE $19A, R6
6DBC	FB10		SUB R11, #$11
6DBE	309C		MOVE $138, R0
6DC0	0102		INC R1, R0
6DC2	02F0		DEC2 R2, R15
6DC4	36AE		MOVE $15C, R6
6DC6	0000		HALT
6DC8	0000		HALT
6DCA	F9F9		SUB R9, #$FA
6DCC	F900		SUB R9, #$01
6DCE	0400		DEC2 R4, R0
6DD0	3310		MOVE $20, R3
6DD2	0B00		DEC2 R11, R0
6DD4	5C02		MOVE (R0)+', R12
6DD6	7C7F		MOVB (R7), R12
6DD8	5C01		MOVE (R0)+, R12
6DDA	6580		MOVB R5, (R8)+
6DDC	F117		SUB R1, #$18
6DDE	E4FE		
6DE0	3BFE		MOVE $1FC, R11
6DE2	0DBF		GETA R11, $D
6DE4	3004		MOVE $08, R0
6DE6	0EA6		OR R14, R10
6DE8	F117		SUB R1, #$18
6DEA	F2FE		SUB R2, #$FF
6DEC	5C01		MOVE (R0)+, R12
6DEE	1604		CTRL $6, #$04
6DF0	5E10		MOVE (R1)', R14
6DF2	1606		CTRL $6, #$06
6DF4	5C01		MOVE (R0)+, R12
6DF6	3826		MOVE $4C, R8
6DF8	5E10		MOVE (R1)', R14
6DFA	3828		MOVE $50, R8
6DFC	7B04		MOVB (R0)-, R11
6DFE	3709		MOVE $12, R7
6E00	0805		AND R8, R0
6E02	F600		SUB R6, #$01
6E04	4009		PUTB $0, (R0)
6E06	010D		MLH R1, R0
6E08	BD00		SET R13, #$00
6E0A	0035		AND R0, R3
6E0C	200B		JMP ($0016)

6E0E	65F0		MOVB R5, (R15)+
6E10	372C		MOVE $58, R7
6E12	0C01		DEC R12, R0
6E14	0DAB		ADDH2 R13, R10
6E16	0B67		XOR R11, R6
6E18	CD00		SLE R13, R0
6E1A	0B7D		MLH R11, R7
6E1C	3712		MOVE $24, R7
6E1E	0C01		DEC R12, R0
6E20	0B7D		MLH R11, R7
6E22	0B80		DEC2 R11, R8
6E24	F13B		SUB R1, #$3C
6E26	B4FE		SET R4, #$FE
6E28	3420		MOVE $40, R4
6E2A	0B65		AND R11, R6
6E2C	0E10		DEC2 R14, R1
6E2E	0B16		OR R11, R1
6E30	0B06		OR R11, R0
6E32	093F		GETA R3, $9
6E34	05C0		DEC2 R5, R12
6E36	0040		DEC2 R0, R4
6E38	F037		BRA $6E02		; -> -$38(R0)

6E3A	39FE		MOVE $1FC, R9
6E3C	0E10		DEC2 R14, R1
6E3E	0B16		OR R11, R1
6E40	0B06		OR R11, R0
6E42	3420		MOVE $40, R4
6E44	0B65		AND R11, R6
6E46	093F		GETA R3, $9
6E48	05C0		DEC2 R5, R12
6E4A	0040		DEC2 R0, R4
6E4C	3B01		MOVE $02, R11
6E4E	0B6C		MHL R11, R6
6E50	F037		BRA $6E1A		; -> -$38(R0)

6E52	41FE		PUTB $1, (R15)
6E54	B520		SET R5, #$20
6E56	00FE		GETB R15, $0
6E58	C710		SLE R7, R1
6E5A	374E		MOVE $9C, R7
6E5C	3420		MOVE $40, R4
6E5E	0B65		AND R11, R6
6E60	CE20		SLE R14, R2
6E62	0B65		AND R11, R6
6E64	37B0		MOVE $160, R7
6E66	3980		MOVE $100, R9
6E68	00A4		RET R10

6E6A	374A		MOVE $94, R7
6E6C	3940		MOVE $80, R9
6E6E	0B6C		MHL R11, R6
6E70	375B		MOVE $B6, R7
6E72	2B03		MOVE R11, $06
6E74	05F6		OR R5, R15
6E76	042C		MHL R4, R2
6E78	010B		ADDH2 R1, R0
6E7A	6704		MOVB R7, (R0)-
6E7C	3920		MOVE $40, R9
6E7E	0B6C		MHL R11, R6
6E80	3765		MOVE $CA, R7
6E82	B200		SET R2, #$00
6E84	0633		INC2 R6, R3
6E86	1037		CTRL $0, #$37
6E88	DDF8		MOVE R13, (R15)
6E8A	1000		CTRL $0, #$00
6E8C	D610		MOVE R6, (R1)'
6E8E	00FE		GETB R15, $0
6E90	FC10		SUB R12, #$11
6E92	00FE		GETB R15, $0
6E94	3A40		MOVE $80, R10
6E96	0BA2		INC R11, R10
6E98	F037		BRA $6E62		; -> -$38(R0)

6E9A	5DFE		MOVE (R15), R13
6E9C	C084		SS R0
6E9E	3754		MOVE $A8, R7
6EA0	3CB4		MOVE $168, R12
6EA2	0BB4		MOVE R11, R11
6EA4	F037		BRA $6E6E		; -> -$38(R0)

6EA6	56FE		MOVE (R15), R6
6EA8	3CB5		MOVE $16A, R12
6EAA	0BB4		MOVE R11, R11
6EAC	CE00		SLE R14, R0
6EAE	0EE6		OR R14, R14
6EB0	375D		MOVE $BA, R7
6EB2	F06B		BRA $6E48		; -> -$6C(R0)

6EB4	E8FE		
6EB6	3A40		MOVE $80, R10
6EB8	0B6D		MLH R11, R6
6EBA	2C01		MOVE R12, $02
6EBC	0B67		XOR R11, R6
6EBE	0405		AND R4, R0
6EC0	010B		ADDH2 R1, R0
6EC2	6E37		MOVB R14, (R3)----
6EC4	AFFE		ADD R15, #$FF
6EC6	F037		BRA $6E90		; -> -$38(R0)

6EC8	A1FE		ADD R1, #$FF
6ECA	3310		MOVE $20, R3
6ECC	0B00		DEC2 R11, R0
6ECE	F137		SUB R1, #$38
6ED0	BFFE		SET R15, #$FE
6ED2	3802		MOVE $04, R8
6ED4	0BA2		INC R11, R10
6ED6	3741		MOVE $82, R7
6ED8	C510		SLE R5, R1
6EDA	0B40		DEC2 R11, R4
6EDC	C001		SLT R0, R0
6EDE	3774		MOVE $E8, R7
6EE0	3A04		MOVE $08, R10
6EE2	0DBF		GETA R11, $D
6EE4	F08F		BRA $6E56		; -> -$90(R0)

6EE6	F0FE		BRA $6DE9		; -> -$FF(R0)

6EE8	7A01		MOVB (R0)++, R10
6EEA	143B		CTRL $4, #$3B
6EEC	040D		MLH R4, R0
6EEE	BF35		SET R15, #$35
6EF0	700D		MOVB (R0), R0
6EF2	B934		SET R9, #$34
6EF4	100D		CTRL $0, #$0D
6EF6	B9F1		SET R9, #$F1
6EF8	3BC0		MOVE $180, R11
6EFA	3470		MOVE $E0, R4
6EFC	0DB9		SUB R13, R11
6EFE	F137		SUB R1, #$38
6F00	BFFE		SET R15, #$FE
6F02	F037		BRA $6ECC		; -> -$38(R0)

6F04	41FE		PUTB $1, (R15)
6F06	3CDB		MOVE $1B6, R12
6F08	0BB4		MOVE R11, R11
6F0A	3570		MOVE $E0, R5
6F0C	0EE6		OR R14, R14
6F0E	3530		MOVE $60, R5
6F10	0F13		INC2 R15, R1
6F12	3550		MOVE $A0, R5
6F14	0EE8		ADD R14, R14
6F16	F117		SUB R1, #$18
6F18	E2FE		
6F1A	3470		MOVE $E0, R4
6F1C	0EE6		OR R14, R14
6F1E	3430		MOVE $60, R4
6F20	0F13		INC2 R15, R1
6F22	3450		MOVE $A0, R4
6F24	0EE8		ADD R14, R14
6F26	0501		DEC R5, R0
6F28	0B6E		GETB R6, $B
6F2A	37AE		MOVE $15C, R7
6F2C	3B20		MOVE $40, R11
6F2E	0DBF		GETA R11, $D
6F30	3908		MOVE $10, R9
6F32	0BA3		INC2 R11, R10
6F34	379F		MOVE $13E, R7
6F36	C530		SLE R5, R3
6F38	0EE6		OR R14, R14
6F3A	C001		SLT R0, R0
6F3C	6BE8		MOVB R11, (R14)
6F3E	3B08		MOVE $10, R11
6F40	0B6C		MHL R11, R6
6F42	3A10		MOVE $20, R10
6F44	0BA1		DEC R11, R10
6F46	0501		DEC R5, R0
6F48	0B70		DEC2 R11, R7
6F4A	37AE		MOVE $15C, R7
6F4C	0909		SUB R9, R0
6F4E	05C1		DEC R5, R12
6F50	0040		DEC2 R0, R4
6F52	0901		DEC R9, R0
6F54	0B65		AND R11, R6
6F56	0000		HALT
6F58	F08F		BRA $6ECA		; -> -$90(R0)

6F5A	EEFE		
6F5C	47D4		PUTB $7, (R13)-
6F5E	3709		MOVE $12, R7
6F60	3808		MOVE $10, R8
6F62	0BA3		INC2 R11, R10
6F64	37B7		MOVE $16E, R7
6F66	3C80		MOVE $100, R12
6F68	0BB5		AND R11, R11
6F6A	F037		BRA $6F34		; -> -$38(R0)

6F6C	A1FE		ADD R1, #$FF
6F6E	0D01		DEC R13, R0
6F70	0B7D		MLH R11, R7
6F72	0B80		DEC2 R11, R8
6F74	2047		JMP ($008E)

6F76	D43C		MOVE R4, (R3)
6F78	A90B		ADD R9, #$0C
6F7A	B4F0		SET R4, #$F0
6F7C	3793		MOVE $126, R7
6F7E	300C		MOVE $18, R0
6F80	0F24		MOVE R15, R2
6F82	7520		MOVB (R2)+, R5
6F84	16B3		CTRL $6, #$B3
6F86	3005		MOVE $0A, R0
6F88	7430		MOVB (R3)+, R4
6F8A	1675		CTRL $6, #$75
6F8C	4004		PUTB $0, (R0)-
6F8E	7640		MOVB (R4)+, R6
6F90	06FA		ADDH R6, R15
6F92	3040		MOVE $80, R0
6F94	1037		CTRL $0, #$37
6F96	D735		MOVE R7, (R3)-
6F98	700D		MOVB (R0), R0
6F9A	B934		SET R9, #$34
6F9C	100D		CTRL $0, #$0D
6F9E	B9F1		SET R9, #$F1
6FA0	3BC4		MOVE $188, R11
6FA2	3510		MOVE $20, R5
6FA4	0DB9		SUB R13, R11
6FA6	3470		MOVE $E0, R4
6FA8	0DB9		SUB R13, R11
6FAA	F037		BRA $6F74		; -> -$38(R0)

6FAC	C1FE		SNBC R1, R15
6FAE	3510		MOVE $20, R5
6FB0	0B65		AND R11, R6
6FB2	9B03		CLR R11, #$03
6FB4	0004		NOP
6FB6	300E		MOVE $1C, R0
6FB8	0F24		MOVE R15, R2
6FBA	83E2		LBI R3, #$E2
6FBC	83E2		LBI R3, #$E2
6FBE	83E2		LBI R3, #$E2
6FC0	83E2		LBI R3, #$E2
6FC2	5FCA		MOVE (R12), R15
6FC4	5FCA		MOVE (R12), R15
6FC6	5FCA		MOVE (R12), R15
6FC8	5FCA		MOVE (R12), R15
6FCA	3BC6		MOVE $18C, R11
6FCC	3BC6		MOVE $18C, R11
6FCE	3BC6		MOVE $18C, R11
6FD0	3BC6		MOVE $18C, R11
6FD2	5FC8		MOVE (R12), R15
6FD4	5FC8		MOVE (R12), R15
6FD6	5FC8		MOVE (R12), R15
6FD8	5FC8		MOVE (R12), R15
6FDA	3BC8		MOVE $190, R11
6FDC	3BC8		MOVE $190, R11
6FDE	3BC8		MOVE $190, R11
6FE0	3BC8		MOVE $190, R11
6FE2	23E2		MOVE R3, $1C4
6FE4	23E2		MOVE R3, $1C4
6FE6	17E0		CTRL $7, #$E0
6FE8	17E0		CTRL $7, #$E0
6FEA	17F6		CTRL $7, #$F6
6FEC	17F6		CTRL $7, #$F6
6FEE	83DE		LBI R3, #$DE
6FF0	5FD6		MOVE (R13)-~, R15
6FF2	5FD6		MOVE (R13)-~, R15
6FF4	6BDC		MOVB R11, (R13)
6FF6	6BDC		MOVB R11, (R13)
6FF8	3BD8		MOVE $1B0, R11
6FFA	5FFA		MOVE (R15), R15
6FFC	5FFA		MOVE (R15), R15
6FFE	3BD8		MOVE $1B0, R11
7000	53E0		MOVE (R14)', R3
7002	53E0		MOVE (R14)', R3
7004	6BEA		MOVB R11, (R14)
7006	23F2		MOVE R3, $1E4
7008	53E8		MOVE (R14), R3
700A	3BD8		MOVE $1B0, R11
700C	8FD6		LBI R15, #$D6
700E	8FD2		LBI R15, #$D2
7010	3BD8		MOVE $1B0, R11
7012	6BEE		MOVB R11, (R14)
7014	0BE2		INC R11, R14
7016	8FDE		LBI R15, #$DE
7018	77FC		MOVB (R15), R7
701A	0BD2		INC R11, R13
701C	0BD2		INC R11, R13
701E	3BBE		MOVE $17C, R11
7020	3BBE		MOVE $17C, R11
7022	47D6		PUTB $7, (R13)---
7024	47D6		PUTB $7, (R13)---
7026	3BD8		MOVE $1B0, R11
7028	3BD8		MOVE $1B0, R11
702A	3BD8		MOVE $1B0, R11
702C	0BE0		DEC2 R11, R14
702E	3BD8		MOVE $1B0, R11
7030	6BEC		MOVB R11, (R14)
7032	17DE		CTRL $7, #$DE
7034	300C		MOVE $18, R0
7036	0FAE		GETB R10, $F
7038	3320		MOVE $40, R3
703A	0F24		MOVE R15, R2
703C	301C		MOVE $38, R0
703E	0EB0		DEC2 R14, R11
7040	D708		MOVE R7, (R0)
7042	00D7		XOR R0, R13
7044	0400		DEC2 R4, R0
7046	E70C		
7048	90AC		CLR R0, #$AC
704A	00A8		ADD R0, R10
704C	90BB		CLR R0, #$BB
704E	8090		LBI R0, #$90
7050	8589		LBI R5, #$89
7052	0038		ADD R0, R3
7054	9BFE		CLR R11, #$FE
7056	F930		SUB R9, #$31
7058	30E7		MOVE $1CE, R0
705A	0890		DEC2 R8, R9
705C	E706		
705E	70C0		MOVB (R12)+, R0
7060	8238		LBI R2, #$38
7062	3833		MOVE $66, R8
7064	3000		MOVE $00, R0
7066	10E7		CTRL $0, #$E7
7068	0C90		DEC2 R12, R9
706A	E708		
706C	70E7		MOVB (R14)----, R0
706E	1690		CTRL $6, #$90
7070	E706		
7072	80C0		LBI R0, #$C0
7074	0438		ADD R4, R3
7076	4EE7		PUTB $E, (R14)----
7078	0C90		DEC2 R12, R9
707A	E702		
707C	00E7		XOR R0, R14
707E	0078		ADD R0, R7
7080	E700		
7082	78E7		MOVB (R14)----, R8
7084	0090		DEC2 R0, R9
7086	E70C		
7088	98E7		CLR R8, #$E7
708A	0890		DEC2 R8, R9
708C	E700		
708E	08E7		XOR R8, R14
7090	0C90		DEC2 R12, R9
7092	E708		
7094	98E7		CLR R8, #$E7
7096	1690		CTRL $6, #$90
7098	3630		MOVE $60, R6
709A	0FAC		MHL R15, R10
709C	E70C		
709E	90E7		CLR R0, #$E7
70A0	0290		DEC2 R2, R9
70A2	E70C		
70A4	98E7		CLR R8, #$E7
70A6	0048		ADD R0, R4
70A8	E70C		
70AA	A0E7		BRA $7194		; $E8(R0)

70AC	0840		DEC2 R8, R4
70AE	E716		
70B0	A0E7		BRA $719A		; $E8(R0)

70B2	0098		ADD R0, R9
70B4	E700		
70B6	38E7		MOVE $1CE, R8
70B8	0CA0		DEC2 R12, R10
70BA	E708		
70BC	30E7		MOVE $1CE, R0
70BE	16A0		CTRL $6, #$A0
70C0	E700		
70C2	98E7		CLR R8, #$E7
70C4	0028		ADD R0, R2
70C6	E70C		
70C8	A0E7		BRA $71B2		; $E8(R0)

70CA	0820		DEC2 R8, R2
70CC	E716		
70CE	A0E7		BRA $71B8		; $E8(R0)

70D0	0098		ADD R0, R9
70D2	E700		
70D4	18E7		CTRL $8, #$E7
70D6	0CA0		DEC2 R12, R10
70D8	E708		
70DA	10E7		CTRL $0, #$E7
70DC	16A0		CTRL $6, #$A0
70DE	E702		
70E0	98E7		CLR R8, #$E7
70E2	0290		DEC2 R2, R9
70E4	E700		
70E6	9033		CLR R0, #$33
70E8	4000		PUTB $0, (R0)+
70EA	10FA		CTRL $0, #$FA
70EC	3040		MOVE $80, R0
70EE	1038		CTRL $0, #$38
70F0	83E7		LBI R3, #$E7
70F2	0CA0		DEC2 R12, R10
70F4	BE80		SET R14, #$80
70F6	A0E7		BRA $71E0		; $E8(R0)

70F8	08A0		DEC2 R8, R10
70FA	FB10		SUB R11, #$11
70FC	20F8		JMP ($01F0)

70FE	2030		JMP ($0060)

7100	E700		
7102	40FB		PUTB $0, (R15)
7104	2010		JMP ($0020)

7106	FB10		SUB R11, #$11
7108	20BC		JMP ($0178)

710A	4078		PUTB $0, (R7)
710C	F820		SUB R8, #$21
710E	30E7		MOVE $1CE, R0
7110	0060		DEC2 R0, R6
7112	FB20		SUB R11, #$21
7114	10B8		CTRL $0, #$B8
7116	80A8		LBI R0, #$A8
7118	3892		MOVE $124, R8
711A	E70C		
711C	A0BE		BRA $71DD		; $BF(R0)

711E	80A0		LBI R0, #$A0
7120	E708		
7122	A0FE		BRA $7223		; $FF(R0)

7124	CC08		SGT R12, R0
7126	0EBF		GETA R11, $E
7128	3897		MOVE $12E, R8
712A	D714		MOVE R7, (R1)~
712C	00FE		GETB R15, $0
712E	301A		MOVE $34, R0
7130	0EBA		ADDH R14, R11
7132	300E		MOVE $1C, R0
7134	0FAE		GETB R10, $F
7136	40BB		PUTB $0, (R11)
7138	67AE		MOVB R7, (R10)
713A	8584		LBI R5, #$84
713C	CAA8		SGT R10, R10
713E	411B		PUTB $1, (R1)
7140	B67A		SET R6, #$7A
7142	E858		
7144	4CAB		PUTB $C, (R10)
7146	C0D5		SBS R0, R13
7148	F788		SUB R7, #$89
714A	DF6C		MOVE R15, (R6)
714C	B457		SET R4, #$57
714E	414D		PUTB $1, (R4)
7150	42F0		PUTB $2, (R15)+
7152	4124		PUTB $1, (R2)-
7154	2098		JMP ($0130)

7156	C1DD		SNBS R1, R13
7158	6E91		MOVB R14, (R9)++
715A	F2AD		SUB R2, #$AE
715C	24DF		MOVE R4, $1BE
715E	4168		PUTB $1, (R6)
7160	C2DC		SNS R2
7162	B9C0		SET R9, #$C0
7164	437F		PUTB $3, (R7)
7166	C113		SZ R1
7168	8256		LBI R2, #$56
716A	FCDD		SUB R12, #$DE
716C	5CB6		MOVE (R11)-~, R12
716E	4122		PUTB $1, (R2)+++
7170	4D09		PUTB $D, (R0)
7172	A3EF		ADD R3, #$F0
7174	F7AC		SUB R7, #$AD
7176	C014		SS R0
7178	5A9C		MOVE (R9), R10
717A	5C07		MOVE (R0)--, R12
717C	FB43		SUB R11, #$44
717E	4114		PUTB $1, (R1)-
7180	4518		PUTB $5, (R1)
7182	9697		CLR R6, #$97
7184	5D03		MOVE (R0)++, R13
7186	4092		PUTB $0, (R9)+++
7188	1FB5		CTRL $F, #$B5
718A	4442		PUTB $4, (R4)+++
718C	D184		MOVE R1, (R8)~
718E	408C		PUTB $0, (R8)
7190	1523		CTRL $5, #$23
7192	82D7		LBI R2, #$D7
7194	3658		MOVE $B0, R6
7196	0000		HALT
7198	0000		HALT
719A	0000		HALT
719C	0000		HALT
719E	4086		PUTB $0, (R8)---
71A0	0A91		DEC R10, R9
71A2	C16B		SNZ R1
71A4	9B2D		CLR R11, #$2D
71A6	4110		PUTB $1, (R1)+
71A8	0000		HALT
71AA	0000		HALT
71AC	0000		HALT
71AE	C080		SLE R0, R8
71B0	0000		HALT
71B2	0000		HALT
71B4	0000		HALT
71B6	4044		PUTB $0, (R4)-
71B8	9851		CLR R8, #$51
71BA	0000		HALT
71BC	0000		HALT
71BE	0008		ADD R0, R0
71C0	F18F		SUB R1, #$90
71C2	F2FE		SUB R2, #$FF
71C4	3520		MOVE $40, R5
71C6	0DB9		SUB R13, R11
71C8	EC04		
71CA	0039		SUB R0, R3
71CC	02B8		ADD R2, R11
71CE	8011		LBI R0, #$11
71D0	38FF		MOVE $1FE, R8
71D2	B850		SET R8, #$50
71D4	1439		CTRL $4, #$39
71D6	74FE		MOVB (R15), R4
71D8	B920		SET R9, #$20
71DA	1539		CTRL $5, #$39
71DC	0AFE		GETB R15, $A
71DE	39C0		MOVE $180, R9
71E0	0F25		AND R15, R2
71E2	3925		MOVE $4A, R9
71E4	3804		MOVE $08, R8
71E6	0F24		MOVE R15, R2
71E8	38FF		MOVE $1FE, R8
71EA	B808		SET R8, #$08
71EC	0339		SUB R3, R3
71EE	29FE		MOVE R9, $1FC
71F0	8C02		LBI R12, #$02
71F2	1E0F		CTRL $E, #$0F
71F4	26FE		MOVE R6, $1FC
71F6	F177		SUB R1, #$78
71F8	F8FE		SUB R8, #$FF
71FA	F039		BRA $71C2		; -> -$3A(R0)

71FC	02FE		GETB R15, $2
71FE	ED01		
7200	0239		SUB R2, R3
7202	06FE		GETB R15, $6
7204	AC01		ADD R12, #$02
7206	1624		CTRL $6, #$24
7208	F039		BRA $71D0		; -> -$3A(R0)

720A	5AFE		MOVE (R15), R10
720C	3C94		MOVE $128, R12
720E	0BB4		MOVE R11, R11
7210	F03B		BRA $71D6		; -> -$3C(R0)

7212	CEFE		SNBC R14, R15
7214	3904		MOVE $08, R9
7216	0F24		MOVE R15, R2
7218	3925		MOVE $4A, R9
721A	39C0		MOVE $180, R9
721C	0F25		AND R15, R2
721E	3912		MOVE $24, R9
7220	F038		BRA $71E9		; -> -$39(R0)

7222	FFFE		SUB R15, #$FF
7224	3420		MOVE $40, R4
7226	0F18		ADD R15, R1
7228	0C02		INC R12, R0
722A	0F15		AND R15, R1
722C	0F26		OR R15, R2
722E	3C90		MOVE $120, R12
7230	0F14		MOVE R15, R1
7232	3980		MOVE $100, R9
7234	0F25		AND R15, R2
7236	391E		MOVE $3C, R9
7238	3C50		MOVE $A0, R12
723A	0F14		MOVE R15, R1
723C	F153		SUB R1, #$54
723E	FAFE		SUB R10, #$FF
7240	CD80		SLE R13, R8
7242	0F1D		MLH R15, R1
7244	8FE4		LBI R15, #$E4
7246	F039		BRA $720E		; -> -$3A(R0)

7248	02FE		GETB R15, $2
724A	3C8A		MOVE $114, R12
724C	0BB4		MOVE R11, R11
724E	F03B		BRA $7214		; -> -$3C(R0)

7250	CEFE		SNBC R14, R15
7252	3C8F		MOVE $11E, R12
7254	0BB4		MOVE R11, R11
7256	B880		SET R8, #$80
7258	113B		CTRL $1, #$3B
725A	CEFE		SNBC R14, R15
725C	BA08		SET R10, #$08
725E	03F0		DEC2 R3, R15
7260	3BCE		MOVE $19C, R11
7262	F18F		SUB R1, #$90
7264	F2FE		SUB R2, #$FF
7266	3520		MOVE $40, R5
7268	0DB9		SUB R13, R11
726A	B850		SET R8, #$50
726C	1439		CTRL $4, #$39
726E	74FE		MOVB (R15), R4
7270	B880		SET R8, #$80
7272	1439		CTRL $4, #$39
7274	49FE		PUTB $9, (R15)
7276	EC04		
7278	0039		SUB R0, R3
727A	49B8		PUTB $9, (R11)
727C	8011		LBI R0, #$11
727E	3949		MOVE $92, R9
7280	AC02		ADD R12, #$03
7282	1E26		CTRL $E, #$26
7284	F177		SUB R1, #$78
7286	F8FE		SUB R8, #$FF
7288	BB80		SET R11, #$80
728A	14F1		CTRL $4, #$F1
728C	77F6		MOVB (R15)---, R7
728E	BA80		SET R10, #$80
7290	14FE		CTRL $4, #$FE
7292	BC02		SET R12, #$02
7294	028E		GETB R8, $2
7296	2026		JMP ($004C)

7298	0EDA		ADDH R14, R13
729A	AC02		ADD R12, #$03
729C	1E26		CTRL $E, #$26
729E	AC01		ADD R12, #$02
72A0	1624		CTRL $6, #$24
72A2	3300		MOVE $00, R3
72A4	FFFF		SUB R15, #$100
72A6	B600		SET R6, #$00
72A8	1CB5		CTRL $C, #$B5
72AA	2024		JMP ($0048)

72AC	BC40		SET R12, #$40
72AE	00A4		RET R10

72B0	0001		DEC R0, R0
72B2	00FE		GETB R15, $0
72B4	3920		MOVE $40, R9
72B6	0DBF		GETA R11, $D
72B8	3978		MOVE $F0, R9
72BA	3A20		MOVE $40, R10
72BC	0DBF		GETA R11, $D
72BE	3520		MOVE $40, R5
72C0	0B65		AND R11, R6
72C2	3300		MOVE $00, R3
72C4	6BE0		MOVB R11, (R14)+
72C6	3400		MOVE $00, R4
72C8	0DB5		AND R13, R11
72CA	B802		SET R8, #$02
72CC	0639		SUB R6, R3
72CE	6DFE		MOVB R13, (R15)
72D0	3300		MOVE $00, R3
72D2	83FC		LBI R3, #$FC
72D4	3920		MOVE $40, R9
72D6	0ED7		XOR R14, R13
72D8	397C		MOVE $F8, R9
72DA	3400		MOVE $00, R4
72DC	0DB5		AND R13, R11
72DE	B801		SET R8, #$01
72E0	068F		GETA R8, $6
72E2	D4FE		MOVE R4, (R15)
72E4	F02F		BRA $72B6		; -> -$30(R0)

72E6	ECFE		
72E8	3C92		MOVE $124, R12
72EA	0BB4		MOVE R11, R11
72EC	F03B		BRA $72B2		; -> -$3C(R0)

72EE	CEFE		SNBC R14, R15
72F0	3C93		MOVE $126, R12
72F2	0BB4		MOVE R11, R11
72F4	F03B		BRA $72BA		; -> -$3C(R0)

72F6	CEFE		SNBC R14, R15
72F8	3C96		MOVE $12C, R12
72FA	0BB4		MOVE R11, R11
72FC	F03B		BRA $72C2		; -> -$3C(R0)

72FE	CEFE		SNBC R14, R15
7300	300C		MOVE $18, R0
7302	0F88		ADD R15, R8
7304	3520		MOVE $40, R5
7306	0DB9		SUB R13, R11
7308	B980		SET R9, #$80
730A	1139		CTRL $1, #$39
730C	8FFE		LBI R15, #$FE
730E	8C01		LBI R12, #$01
7310	080E		GETB R0, $8
7312	DBB8		MOVE R11, (R11)
7314	0815		AND R8, R1
7316	398F		MOVE $11E, R9
7318	8C00		LBI R12, #$00
731A	090F		GETA R0, $9
731C	13FE		CTRL $3, #$FE
731E	BC02		SET R12, #$02
7320	028E		GETB R8, $2
7322	201E		JMP ($003C)

7324	0EDA		ADDH R14, R13
7326	E300		
7328	00FE		GETB R15, $0
732A	B910		SET R9, #$10
732C	1139		CTRL $1, #$39
732E	95FE		CLR R5, #$FE
7330	3310		MOVE $20, R3
7332	F3F0		SUB R3, #$F1
7334	E410		
7336	0C28		ADD R12, R2
7338	39A6		MOVE $14C, R9
733A	FB10		SUB R11, #$11
733C	20F1		JMP ($01E2)

733E	23E4		MOVE R3, $1C8
7340	F16B		SUB R1, #$6C
7342	E2FE		
7344	C087		SBSH R0, R8
7346	39B7		MOVE $16E, R9
7348	F039		BRA $7310		; -> -$3A(R0)

734A	93FE		CLR R3, #$FE
734C	ED00		
734E	0C39		SUB R12, R3
7350	B7B5		SET R7, #$B5
7352	1004		CTRL $0, #$04
7354	B410		SET R4, #$10
7356	16B5		CTRL $6, #$B5
7358	2006		JMP ($000C)

735A	3720		MOVE $40, R7
735C	0EDB		ADDH2 R14, R13
735E	7C40		MOVB (R4)+, R12
7360	0054		RET R5

7362	2001		JMP ($0002)

7364	0034		RET R3

7366	100F		CTRL $0, #$0F
7368	8830		LBI R8, #$30
736A	0E0F		GETA R0, $E
736C	88FE		LBI R8, #$FE
736E	AC01		ADD R12, #$02
7370	1604		CTRL $6, #$04
7372	AE10		ADD R14, #$11
7374	1606		CTRL $6, #$06
7376	3B02		MOVE $04, R11
7378	0DBF		GETA R11, $D
737A	F08F		BRA $72EC		; -> -$90(R0)

737C	EAFE		
737E	FB00		SUB R11, #$01
7380	80F1		LBI R0, #$F1
7382	3BC0		MOVE $180, R11
7384	3400		MOVE $00, R4
7386	0F8C		MHL R15, R8
7388	3520		MOVE $40, R5
738A	0DB9		SUB R13, R11
738C	B980		SET R9, #$80
738E	1139		CTRL $1, #$39
7390	D1FE		MOVE R1, (R15)
7392	8C01		LBI R12, #$01
7394	080E		GETB R0, $8
7396	DBB8		MOVE R11, (R11)
7398	0815		AND R8, R1
739A	39D1		MOVE $1A2, R9
739C	8C00		LBI R12, #$00
739E	090F		GETA R0, $9
73A0	13FE		CTRL $3, #$FE
73A2	BC02		SET R12, #$02
73A4	028E		GETB R8, $2
73A6	201E		JMP ($003C)

73A8	0EDA		ADDH R14, R13
73AA	E300		
73AC	00FE		GETB R15, $0
73AE	3310		MOVE $20, R3
73B0	F3F0		SUB R3, #$F1
73B2	E410		
73B4	0C28		ADD R12, R2
73B6	39E5		MOVE $1CA, R9
73B8	FB10		SUB R11, #$11
73BA	20F1		JMP ($01E2)

73BC	23E4		MOVE R3, $1C8
73BE	F16B		SUB R1, #$6C
73C0	E2FE		
73C2	C087		SBSH R0, R8
73C4	39B7		MOVE $16E, R9
73C6	F039		BRA $738E		; -> -$3A(R0)

73C8	D5FE		MOVE R5, (R15)
73CA	ED00		
73CC	0C39		SUB R12, R3
73CE	B7AC		SET R7, #$AC
73D0	0116		OR R1, R1
73D2	042C		MHL R4, R2
73D4	010F		GETA R0, $1
73D6	8816		LBI R8, #$16
73D8	300E		MOVE $1C, R0
73DA	0F88		ADD R15, R8
73DC	300C		MOVE $18, R0
73DE	0F88		ADD R15, R8
73E0	3520		MOVE $40, R5
73E2	0DB9		SUB R13, R11
73E4	B910		SET R9, #$10
73E6	1139		CTRL $1, #$39
73E8	F2FE		SUB R2, #$FF
73EA	ED00		
73EC	0C39		SUB R12, R3
73EE	B7B5		SET R7, #$B5
73F0	1016		CTRL $0, #$16
73F2	E410		
73F4	0428		ADD R4, R2
73F6	3A03		MOVE $06, R10
73F8	B520		SET R5, #$20
73FA	0637		XOR R6, R3
73FC	200E		JMP ($001C)

73FE	DB7C		MOVE R11, (R7)
7400	4000		PUTB $0, (R0)+
7402	5420		MOVE (R2)', R4
7404	0100		DEC2 R1, R0
7406	300E		MOVE $1C, R0
7408	0F88		ADD R15, R8
740A	B310		SET R3, #$10
740C	0730		DEC2 R7, R3
740E	0800		DEC2 R8, R0
7410	7E73		MOVB (R7)++++, R14
7412	1001		CTRL $0, #$01
7414	F16B		SUB R1, #$6C
7416	FCFE		SUB R12, #$FF
7418	B310		SET R3, #$10
741A	06CD		MLH R6, R12
741C	000E		GETB R0, $0
741E	B63A		SET R6, #$3A
7420	2EFE		MOVE R14, $1FC
7422	7310		MOVB (R1)+, R3
7424	01F1		DEC R1, R15
7426	6BFC		MOVB R11, (R15)
7428	3500		MOVE $00, R5
742A	0EB4		MOVE R14, R11
742C	3006		MOVE $0C, R0
742E	0EB0		DEC2 R14, R11
7430	3520		MOVE $40, R5
7432	0EB4		MOVE R14, R11
7434	E708		
7436	00FB		ADDH2 R0, R15
7438	2000		JMP ($0000)

743A	E70C		
743C	0035		AND R0, R3
743E	200B		JMP ($0016)

7440	65DD		MOVB R5, (R13)
7442	7E00		MOVB (R0)+, R14
7444	3A11		MOVE $22, R10
7446	3510		MOVE $20, R5
7448	0EB4		MOVE R14, R11
744A	3006		MOVE $0C, R0
744C	0EB0		DEC2 R14, R11
744E	3908		MOVE $10, R9
7450	0BA3		INC2 R11, R10
7452	3A67		MOVE $CE, R10
7454	3002		MOVE $04, R0
7456	0EBA		ADDH R14, R11
7458	F03B		BRA $741E		; -> -$3C(R0)

745A	D8FE		MOVE R8, (R15)
745C	7310		MOVB (R1)+, R3
745E	01F1		DEC R1, R15
7460	6BFC		MOVB R11, (R15)
7462	FB30		SUB R11, #$31
7464	1035		CTRL $0, #$35
7466	100E		CTRL $0, #$0E
7468	B432		SET R4, #$32
746A	400E		PUTB $0, (R0)
746C	B6FB		SET R6, #$FB
746E	6040		MOVB R0, (R4)+
7470	3006		MOVE $0C, R0
7472	0EB0		DEC2 R14, R11
7474	3520		MOVE $40, R5
7476	0EB4		MOVE R14, R11
7478	3250		MOVE $A0, R2
747A	0EB6		OR R14, R11
747C	FA40		SUB R10, #$41
747E	5008		MOVE (R0), R0
7480	3A43		MOVE $86, R10
7482	FB40		SUB R11, #$41
7484	50FE		MOVE (R15), R0
7486	6440		MOVB R4, (R4)+
7488	0000		HALT
748A	F960		SUB R9, #$61
748C	50C0		MOVE (R12)', R0
748E	043A		ADDH R4, R3
7490	50F8		MOVE (R15), R0
7492	1050		CTRL $0, #$50
7494	7C40		MOVB (R4)+, R12
7496	0037		XOR R0, R3
7498	600E		MOVB R0, (R0)
749A	DB54		MOVE R11, (R5)~
749C	6001		MOVB R0, (R0)++
749E	00FE		GETB R15, $0
74A0	3520		MOVE $40, R5
74A2	0B65		AND R11, R6
74A4	FB10		SUB R11, #$11
74A6	30DD		MOVE $1BA, R0
74A8	7E00		MOVB (R0)+, R14
74AA	3A2E		MOVE $5C, R10
74AC	3510		MOVE $20, R5
74AE	0EB4		MOVE R14, R11
74B0	0C00		DEC2 R12, R0
74B2	0C63		INC2 R12, R6
74B4	0EB6		OR R14, R11
74B6	3006		MOVE $0C, R0
74B8	0EB0		DEC2 R14, R11
74BA	3908		MOVE $10, R9
74BC	0BA3		INC2 R11, R10
74BE	3A69		MOVE $D2, R10
74C0	C410		SLE R4, R1
74C2	0EC2		INC R14, R12
74C4	083B		ADDH2 R8, R3
74C6	D834		MOVE R8, (R3)~
74C8	100E		CTRL $0, #$0E
74CA	C4F0		SLE R4, R15
74CC	3BD8		MOVE $1B0, R11
74CE	3C00		MOVE $00, R12
74D0	0C63		INC2 R12, R6
74D2	3380		MOVE $100, R3
74D4	3A6F		MOVE $DE, R10
74D6	300C		MOVE $18, R0
74D8	0C5C		MHL R12, R5
74DA	F00B		BRA $74D0		; -> -$0C(R0)

74DC	D4FE		MOVE R4, (R15)
74DE	3310		MOVE $20, R3
74E0	0B00		DEC2 R11, R0
74E2	3410		MOVE $20, R4
74E4	0DB9		SUB R13, R11
74E6	3380		MOVE $100, R3
74E8	3A7B		MOVE $F6, R10
74EA	300C		MOVE $18, R0
74EC	0C5C		MHL R12, R5
74EE	3A02		MOVE $04, R10
74F0	0DBF		GETA R11, $D
74F2	F047		BRA $74AC		; -> -$48(R0)

74F4	E8FE		
74F6	3B02		MOVE $04, R11
74F8	0DBF		GETA R11, $D
74FA	F03B		BRA $74C0		; -> -$3C(R0)

74FC	D8FE		MOVE R8, (R15)
74FE	093F		GETA R3, $9
7500	05C0		DEC2 R5, R12
7502	0040		DEC2 R0, R4
7504	093F		GETA R3, $9
7506	10CE		CTRL $0, #$CE
7508	00FF		GETA R15, $0
750A	3320		MOVE $40, R3
750C	10CE		CTRL $0, #$CE
750E	7310		MOVB (R1)+, R3
7510	0470		DEC2 R4, R7
7512	1200		CTRL $2, #$00
7514	3AB6		MOVE $16C, R10
7516	3A8E		MOVE $11C, R10
7518	3AAD		MOVE $15A, R10
751A	3AAD		MOVE $15A, R10
751C	F10B		SUB R1, #$0C
751E	E4FE		
7520	0C01		DEC R12, R0
7522	0B76		OR R11, R7
7524	10CE		CTRL $0, #$CE
7526	CE70		SLE R14, R7
7528	0B76		OR R11, R7
752A	3AAD		MOVE $15A, R10
752C	DC40		MOVE R12, (R4)'
752E	003A		ADDH R0, R3
7530	B1DD		SET R1, #$DD
7532	6B00		MOVB R11, (R0)+
7534	3AAD		MOVE $15A, R10
7536	7310		MOVB (R1)+, R3
7538	0170		DEC2 R1, R7
753A	1200		CTRL $2, #$00
753C	3AAD		MOVE $15A, R10
753E	3AA2		MOVE $144, R10
7540	3AAD		MOVE $15A, R10
7542	3AAD		MOVE $15A, R10
7544	F10B		SUB R1, #$0C
7546	E4FE		
7548	0C01		DEC R12, R0
754A	0B78		ADD R11, R7
754C	10D0		CTRL $0, #$D0
754E	0903		INC2 R9, R0
7550	10CE		CTRL $0, #$CE
7552	00FF		GETA R15, $0
7554	DC40		MOVE R12, (R4)'
7556	003A		ADDH R0, R3
7558	B9FE		SET R9, #$FE
755A	3C32		MOVE $64, R12
755C	0B5A		ADDH R11, R5
755E	F00B		BRA $7554		; -> -$0C(R0)

7560	E6FE		
7562	0C01		DEC R12, R0
7564	0B78		ADD R11, R7
7566	0B74		MOVE R11, R7
7568	F03A		BRA $752F		; -> -$3B(R0)

756A	A7FE		ADD R7, #$FF
756C	0C03		INC2 R12, R0
756E	0B76		OR R11, R7
7570	0B72		INC R11, R7
7572	3A01		MOVE $02, R10
7574	0B6C		MHL R11, R6
7576	0901		DEC R9, R0
7578	0B7A		ADDH R11, R7
757A	0000		HALT
757C	3A80		MOVE $100, R10
757E	0BB5		AND R11, R11
7580	F08F		BRA $74F2		; -> -$90(R0)

7582	EEFE		
7584	3820		MOVE $40, R8
7586	0DBF		GETA R11, $D
7588	3AC9		MOVE $192, R10
758A	3C93		MOVE $126, R12
758C	0BB4		MOVE R11, R11
758E	F03B		BRA $7554		; -> -$3C(R0)

7590	CEFE		SNBC R14, R15
7592	3A20		MOVE $40, R10
7594	0DBF		GETA R11, $D
7596	D9FE		MOVE R9, (R15)
7598	003A		ADDH R0, R3
759A	D83B		MOVE R8, (R3)
759C	200D		JMP ($001A)

759E	BF35		SET R15, #$35
75A0	100D		CTRL $0, #$0D
75A2	B9DD		SET R9, #$DD
75A4	0400		DEC2 R4, R0
75A6	3BD8		MOVE $1B0, R11
75A8	5E10		MOVE (R1)', R14
75AA	1606		CTRL $6, #$06
75AC	F03B		BRA $7572		; -> -$3C(R0)

75AE	D8FE		MOVE R8, (R15)
75B0	3300		MOVE $00, R3
75B2	0003		INC2 R0, R0
75B4	4000		PUTB $0, (R0)+
75B6	0002		INC R0, R0
75B8	86FE		LBI R6, #$FE
75BA	283A		MOVE R8, $74
75BC	E473		
75BE	1003		CTRL $0, #$03
75C0	3A80		MOVE $100, R10
75C2	0ED7		XOR R14, R13
75C4	F12F		SUB R1, #$30
75C6	F0FE		BRA $74C9		; -> -$FF(R0)

75C8	F16B		SUB R1, #$6C
75CA	FCFE		SUB R12, #$FF
75CC	3330		MOVE $60, R3
75CE	3AEC		MOVE $1D8, R10
75D0	3430		MOVE $60, R4
75D2	0DB7		XOR R13, R11
75D4	3100		MOVE $00, R1
75D6	0DB5		AND R13, R11
75D8	DD6B		MOVE R13, (R6)
75DA	003A		ADDH R0, R3
75DC	CB73		SZ R11
75DE	1001		CTRL $0, #$01
75E0	F03A		BRA $75A7		; -> -$3B(R0)

75E2	CBFE		SNBC R11, R15
75E4	C520		SLE R5, R2
75E6	0B65		AND R11, R6
75E8	C001		SLT R0, R0
75EA	3AFB		MOVE $1F6, R10
75EC	CE20		SLE R14, R2
75EE	0B7D		MLH R11, R7
75F0	3B10		MOVE $20, R11
75F2	F03B		BRA $75B8		; -> -$3C(R0)

75F4	0AFE		GETB R15, $A
75F6	2D01		MOVE R13, $02
75F8	0DAB		ADDH2 R13, R10
75FA	0418		ADD R4, R1
75FC	3B0A		MOVE $14, R11
75FE	EE20		
7600	023B		ADDH2 R2, R3
7602	102D		CTRL $0, #$2D
7604	010D		MLH R1, R0
7606	AB04		ADD R11, #$05
7608	283A		MOVE R8, $74
760A	FFFC		SUB R15, #$FD
760C	8000		LBI R0, #$00
760E	EE20		
7610	003B		ADDH2 R0, R3
7612	10FE		CTRL $0, #$FE
7614	2D01		MOVE R13, $02
7616	0DAB		ADDH2 R13, R10
7618	0428		ADD R4, R2
761A	3B07		MOVE $0E, R11
761C	FC80		SUB R12, #$81
761E	00FE		GETB R15, $0
7620	3CA8		MOVE $150, R12
7622	0BB4		MOVE R11, R11
7624	F03B		BRA $75EA		; -> -$3C(R0)

7626	CEFE		SNBC R14, R15
7628	300C		MOVE $18, R0
762A	0F24		MOVE R15, R2
762C	301C		MOVE $38, R0
762E	0EB0		DEC2 R14, R11
7630	7980		MOVB (R8)+, R9
7632	003B		ADDH2 R0, R3
7634	22FE		MOVE R2, $1FC
7636	D708		MOVE R7, (R0)
7638	00D7		XOR R0, R13
763A	2E00		MOVE R14, $00
763C	301A		MOVE $34, R0
763E	0EBA		ADDH R14, R11
7640	300E		MOVE $1C, R0
7642	0F24		MOVE R15, R2
7644	3CD1		MOVE $1A2, R12
7646	0BB4		MOVE R11, R11
7648	F03B		BRA $760E		; -> -$3C(R0)

764A	D000		JMP (R0)'
764C	0000		HALT
764E	0000		HALT
7650	0000		HALT
7652	0000		HALT
7654	0000		HALT
7656	0000		HALT
7658	0000		HALT
765A	0000		HALT
765C	0000		HALT
765E	0000		HALT
7660	0000		HALT
7662	0000		HALT
7664	0000		HALT
7666	0000		HALT
7668	0000		HALT
766A	0000		HALT
766C	0000		HALT
766E	0000		HALT
7670	0000		HALT
7672	0000		HALT
7674	0000		HALT
7676	0000		HALT
7678	0000		HALT
767A	0000		HALT
767C	0000		HALT
767E	0000		HALT
7680	0000		HALT
7682	0000		HALT
7684	0000		HALT
7686	0000		HALT
7688	0000		HALT
768A	0000		HALT
768C	0000		HALT
768E	0000		HALT
7690	0000		HALT
7692	0000		HALT
7694	0000		HALT
7696	0000		HALT
7698	0000		HALT
769A	0000		HALT
769C	0000		HALT
769E	0000		HALT
76A0	0000		HALT
76A2	0000		HALT
76A4	0000		HALT
76A6	0000		HALT
76A8	0000		HALT
76AA	0000		HALT
76AC	0000		HALT
76AE	0000		HALT
76B0	0000		HALT
76B2	0000		HALT
76B4	0000		HALT
76B6	0000		HALT
76B8	0000		HALT
76BA	0000		HALT
76BC	0000		HALT
76BE	0000		HALT
76C0	0000		HALT
76C2	0000		HALT
76C4	0000		HALT
76C6	0000		HALT
76C8	0000		HALT
76CA	0000		HALT
76CC	0000		HALT
76CE	0000		HALT
76D0	0000		HALT
76D2	0000		HALT
76D4	0000		HALT
76D6	0000		HALT
76D8	0000		HALT
76DA	0000		HALT
76DC	0000		HALT
76DE	0000		HALT
76E0	0000		HALT
76E2	0000		HALT
76E4	0000		HALT
76E6	0000		HALT
76E8	0000		HALT
76EA	0000		HALT
76EC	0000		HALT
76EE	0000		HALT
76F0	0000		HALT
76F2	0000		HALT
76F4	0000		HALT
76F6	0000		HALT
76F8	0000		HALT
76FA	0000		HALT
76FC	0000		HALT
76FE	0000		HALT
7700	0000		HALT
7702	0000		HALT
7704	0000		HALT
7706	0000		HALT
7708	0000		HALT
770A	0000		HALT
770C	0000		HALT
770E	0000		HALT
7710	0000		HALT
7712	0000		HALT
7714	0000		HALT
7716	0000		HALT
7718	0000		HALT
771A	0000		HALT
771C	0000		HALT
771E	0000		HALT
7720	0000		HALT
7722	0000		HALT
7724	0000		HALT
7726	0000		HALT
7728	0000		HALT
772A	0000		HALT
772C	0000		HALT
772E	0000		HALT
7730	0000		HALT
7732	0000		HALT
7734	0000		HALT
7736	0000		HALT
7738	0000		HALT
773A	0000		HALT
773C	0000		HALT
773E	0000		HALT
7740	0000		HALT
7742	0000		HALT
7744	0000		HALT
7746	0000		HALT
7748	0000		HALT
774A	0000		HALT
774C	0000		HALT
774E	0000		HALT
7750	0000		HALT
7752	0000		HALT
7754	0000		HALT
7756	0000		HALT
7758	0000		HALT
775A	0000		HALT
775C	0000		HALT
775E	0000		HALT
7760	0000		HALT
7762	0000		HALT
7764	F03B		BRA $772A		; -> -$3C(R0)

7766	1400		CTRL $4, #$00
7768	F03A		BRA $772F		; -> -$3B(R0)

776A	F200		SUB R2, #$01
776C	F03A		BRA $7733		; -> -$3B(R0)

776E	EC00		
7770	F03A		BRA $7737		; -> -$3B(R0)

7772	C200		SLE R2, R0
7774	F03A		BRA $773B		; -> -$3B(R0)

7776	B600		SET R6, #$00
7778	F03A		BRA $773F		; -> -$3B(R0)

777A	7F00		MOVB (R0)+, R15
777C	F03A		BRA $7743		; -> -$3B(R0)

777E	0500		DEC2 R5, R0
7780	F039		BRA $7748		; -> -$3A(R0)

7782	EE00		
7784	F039		BRA $774C		; -> -$3A(R0)

7786	BF00		SET R15, #$00
7788	F039		BRA $7750		; -> -$3A(R0)

778A	8000		LBI R0, #$00
778C	F039		BRA $7754		; -> -$3A(R0)

778E	3100		MOVE $00, R1
7790	F038		BRA $7759		; -> -$39(R0)

7792	E000		
7794	F038		BRA $775D		; -> -$39(R0)

7796	1A00		CTRL $A, #$00
7798	F037		BRA $7762		; -> -$38(R0)

779A	A300		ADD R3, #$01
779C	F037		BRA $7766		; -> -$38(R0)

779E	9300		CLR R3, #$00
77A0	F037		BRA $776A		; -> -$38(R0)

77A2	8500		LBI R5, #$00
77A4	F037		BRA $776E		; -> -$38(R0)

77A6	8300		LBI R3, #$00
77A8	F037		BRA $7772		; -> -$38(R0)

77AA	7400		MOVB (R0)+, R4
77AC	F037		BRA $7776		; -> -$38(R0)

77AE	2C00		MOVE R12, $00
77B0	F037		BRA $777A		; -> -$38(R0)

77B2	2A00		MOVE R10, $00
77B4	F037		BRA $777E		; -> -$38(R0)

77B6	1E00		CTRL $E, #$00
77B8	F037		BRA $7782		; -> -$38(R0)

77BA	0900		DEC2 R9, R0
77BC	F036		BRA $7787		; -> -$37(R0)

77BE	E800		
77C0	F036		BRA $778B		; -> -$37(R0)

77C2	8100		LBI R1, #$00
77C4	F035		BRA $7790		; -> -$36(R0)

77C6	4D00		PUTB $D, (R0)+
77C8	F032		BRA $7797		; -> -$33(R0)

77CA	5F00		MOVE (R0)', R15
77CC	F031		BRA $779C		; -> -$32(R0)

77CE	D900		MOVE R9, (R0)'
77D0	F031		BRA $77A0		; -> -$32(R0)

77D2	AE00		ADD R14, #$01
77D4	F030		BRA $77A5		; -> -$31(R0)

77D6	8500		LBI R5, #$00
77D8	F030		BRA $77A9		; -> -$31(R0)

77DA	2A00		MOVE R10, $00
77DC	F030		BRA $77AD		; -> -$31(R0)

77DE	2500		MOVE R5, $00
77E0	F030		BRA $77B1		; -> -$31(R0)

77E2	1D00		CTRL $D, #$00
77E4	F030		BRA $77B5		; -> -$31(R0)

77E6	1A00		CTRL $A, #$00
77E8	F030		BRA $77B9		; -> -$31(R0)

77EA	0E00		DEC2 R14, R0
77EC	F030		BRA $77BD		; -> -$31(R0)

77EE	0A00		DEC2 R10, R0
77F0	F030		BRA $77C1		; -> -$31(R0)

77F2	0800		DEC2 R8, R0
77F4	F030		BRA $77C5		; -> -$31(R0)

77F6	0300		DEC2 R3, R0
77F8	F030		BRA $77C9		; -> -$31(R0)

77FA	0000		HALT
77FC	0514		MOVE R5, R1
77FE	A849		ADD R8, #$4A
7800	0995		AND R9, R9
7802	0F24		MOVE R15, R2
7804	0000		HALT
7806	0518		ADD R5, R1
7808	1044		CTRL $0, #$44
780A	4058		PUTB $0, (R5)
780C	093F		GETA R3, $9
780E	05C0		DEC2 R5, R12
7810	0040		DEC2 R0, R4
7812	0903		INC2 R9, R0
7814	0F7A		ADDH R15, R7
7816	00F0		DEC2 R0, R15
7818	0910		DEC2 R9, R1
781A	0F5C		MHL R15, R5
781C	0040		DEC2 R0, R4
781E	0901		DEC R9, R0
7820	106C		CTRL $0, #$6C
7822	0000		HALT
7824	0901		DEC R9, R0
7826	0B65		AND R11, R6
7828	0000		HALT
782A	7310		MOVB (R1)+, R3
782C	040C		MHL R4, R0
782E	020F		GETA R0, $2
7830	7F0B		MOVB (R0), R15
7832	69DC		MOVB R9, (R13)
7834	7D00		MOVB (R0)+, R13
7836	3C23		MOVE $46, R12
7838	3370		MOVE $E0, R3
783A	3CC2		MOVE $184, R12
783C	F15F		SUB R1, #$60
783E	F8FE		SUB R8, #$FF
7840	DD7D		MOVE R13, (R7)
7842	003C		MHL R0, R3
7844	39FE		MOVE $1FC, R9
7846	7310		MOVB (R1)+, R3
7848	013C		MHL R1, R3
784A	110F		CTRL $1, #$0F
784C	6D33		MOVB R13, (R3)++++
784E	200F		JMP ($001E)

7850	5CFE		MOVE (R15), R12
7852	DC7D		MOVE R12, (R7)
7854	003C		MHL R0, R3
7856	333F		MOVE $7E, R3
7858	010F		GETA R0, $1
785A	6DC0		MOVB R13, (R12)+
785C	825F		LBI R2, #$5F
785E	F4F1		SUB R4, #$F2
7860	0BF2		INC R11, R15
7862	F03C		BRA $7827		; -> -$3D(R0)

7864	29FE		MOVE R9, $1FC
7866	7310		MOVB (R1)+, R3
7868	01DD		MLH R1, R13
786A	6B00		MOVB R11, (R0)+
786C	3CC2		MOVE $184, R12
786E	7310		MOVB (R1)+, R3
7870	01FE		GETB R15, $1
7872	3370		MOVE $E0, R3
7874	0004		NOP
7876	4070		PUTB $0, (R7)+
7878	0001		DEC R0, R0
787A	F7FE		SUB R7, #$FF
787C	283C		MOVE R8, $78
787E	453A		PUTB $5, (R3)
7880	800F		LBI R0, #$0F
7882	9873		CLR R8, #$73
7884	1004		CTRL $0, #$04
7886	F03C		BRA $784B		; -> -$3D(R0)

7888	BCFE		SET R12, #$FE
788A	3370		MOVE $E0, R3
788C	0006		OR R0, R0
788E	4070		PUTB $0, (R7)+
7890	0002		INC R0, R0
7892	05FE		GETB R15, $5
7894	283C		MOVE R8, $78
7896	5739		MOVE (R3), R7
7898	020B		ADDH2 R2, R0
789A	6D5F		MOVB R13, (R5)
789C	F4FE		SUB R4, #$FF
789E	3920		MOVE $40, R9
78A0	0BA4		MOVE R11, R10
78A2	3F46		MOVE $8C, R15
78A4	3A01		MOVE $02, R10
78A6	0F98		ADD R15, R9
78A8	7310		MOVB (R1)+, R3
78AA	06F0		DEC2 R6, R15
78AC	3C78		MOVE $F0, R12
78AE	3370		MOVE $E0, R3
78B0	0004		NOP
78B2	4070		PUTB $0, (R7)+
78B4	0002		INC R0, R0
78B6	00FE		GETB R15, $0
78B8	283C		MOVE R8, $78
78BA	633A		MOVB R3, (R3)
78BC	020F		GETA R0, $2
78BE	9873		CLR R8, #$73
78C0	1004		CTRL $0, #$04
78C2	F03C		BRA $7887		; -> -$3D(R0)

78C4	78FE		MOVB (R15), R8
78C6	3370		MOVE $E0, R3
78C8	0003		INC2 R0, R0
78CA	4070		PUTB $0, (R7)+
78CC	0002		INC R0, R0
78CE	00FE		GETB R15, $0
78D0	203C		JMP ($0078)

78D2	6D37		MOVB R13, (R3)----
78D4	100E		CTRL $0, #$0E
78D6	DBF0		MOVE R11, (R15)'
78D8	3C8A		MOVE $114, R12
78DA	3A04		MOVE $08, R10
78DC	0F98		ADD R15, R9
78DE	DAF0		MOVE R10, (R15)'
78E0	035F		GETA R5, $3
78E2	F4D8		SUB R4, #$D9
78E4	F903		SUB R9, #$04
78E6	5FF4		MOVE (R15)~, R15
78E8	1C00		CTRL $C, #$00
78EA	0F8A		ADDH R15, R8
78EC	0373		INC2 R3, R7
78EE	1004		CTRL $0, #$04
78F0	DD6B		MOVE R13, (R6)
78F2	003C		MHL R0, R3
78F4	C233		SZ R2
78F6	7000		MOVB (R0)+, R0
78F8	0640		DEC2 R6, R4
78FA	7001		MOVB (R0)++, R0
78FC	0205		AND R2, R0
78FE	283C		MOVE R8, $78
7900	8A38		LBI R10, #$38
7902	040F		GETA R0, $4
7904	985F		CLR R8, #$5F
7906	F4FE		SUB R4, #$FF
7908	3A01		MOVE $02, R10
790A	0F98		ADD R15, R9
790C	7310		MOVB (R1)+, R3
790E	07DD		MLH R7, R13
7910	6B00		MOVB R11, (R0)+
7912	3CC2		MOVE $184, R12
7914	3370		MOVE $E0, R3
7916	0006		OR R0, R0
7918	4070		PUTB $0, (R7)+
791A	0003		INC2 R0, R0
791C	05FE		GETB R15, $5
791E	283C		MOVE R8, $78
7920	BC39		SET R12, #$39
7922	010F		GETA R0, $1
7924	983C		CLR R8, #$3C
7926	97FE		CLR R7, #$FE
7928	3802		MOVE $04, R8
792A	0B6D		MLH R11, R6
792C	5FF4		MOVE (R15)~, R15
792E	3A10		MOVE $20, R10
7930	0F98		ADD R15, R9
7932	0C03		INC2 R12, R0
7934	0F49		SUB R15, R4
7936	0F7A		ADDH R15, R7
7938	0C00		DEC2 R12, R0
793A	0F48		ADD R15, R4
793C	0F7E		GETB R7, $F
793E	7310		MOVB (R1)+, R3
7940	0633		INC2 R6, R3
7942	703C		MOVB (R3), R0
7944	C6F1		SLT R6, R15
7946	5FF8		MOVE (R15), R15
7948	3710		MOVE $20, R7
794A	0EDB		ADDH2 R14, R13
794C	F13D		SUB R1, #$3E
794E	71FE		MOVB (R15), R1
7950	3370		MOVE $E0, R3
7952	0008		ADD R0, R0
7954	4070		PUTB $0, (R7)+
7956	0003		INC2 R0, R0
7958	08FE		GETB R15, $8
795A	283C		MOVE R8, $78
795C	B23A		SET R2, #$3A
795E	200F		JMP ($001E)

7960	9873		CLR R8, #$73
7962	1008		CTRL $0, #$08
7964	3370		MOVE $E0, R3
7966	0004		NOP
7968	4070		PUTB $0, (R7)+
796A	0003		INC2 R0, R0
796C	0CFE		GETB R15, $C
796E	283C		MOVE R8, $78
7970	BC3A		SET R12, #$3A
7972	010F		GETA R0, $1
7974	9973		CLR R9, #$73
7976	1004		CTRL $0, #$04
7978	DD6B		MOVE R13, (R6)
797A	003C		MHL R0, R3
797C	C2FE		SNBC R2, R15
797E	7310		MOVB (R1)+, R3
7980	01F1		DEC R1, R15
7982	5FF6		MOVE (R15)-~, R15
7984	DC40		MOVE R12, (R4)'
7986	003C		MHL R0, R3
7988	C8F0		SLE R8, R15
798A	5FF4		MOVE (R15)~, R15
798C	F13D		SUB R1, #$3E
798E	71FE		MOVB (R15), R1
7990	3310		MOVE $20, R3
7992	0F24		MOVE R15, R2
7994	3801		MOVE $02, R8
7996	0F98		ADD R15, R9
7998	3CD6		MOVE $1AC, R12
799A	3910		MOVE $20, R9
799C	0F98		ADD R15, R9
799E	3CD3		MOVE $1A6, R12
79A0	7C02		MOVB (R0)+++, R12
79A2	0FF0		DEC2 R15, R15
79A4	3CFB		MOVE $1F6, R12
79A6	7C09		MOVB (R0), R12
79A8	0FF0		DEC2 R15, R15
79AA	3CFB		MOVE $1F6, R12
79AC	3802		MOVE $04, R8
79AE	0F98		ADD R15, R9
79B0	3CDE		MOVE $1BC, R12
79B2	7C0C		MOVB (R0), R12
79B4	0F33		INC2 R15, R3
79B6	703E		MOVB (R3), R0
79B8	56F0		MOVE (R15)', R6
79BA	3CFD		MOVE $1FA, R12
79BC	3804		MOVE $08, R8
79BE	0F98		ADD R15, R9
79C0	3CE6		MOVE $1CC, R12
79C2	7C0C		MOVB (R0), R12
79C4	0F33		INC2 R15, R3
79C6	703E		MOVB (R3), R0
79C8	99F0		CLR R9, #$F0
79CA	3CFD		MOVE $1FA, R12
79CC	3802		MOVE $04, R8
79CE	0B6D		MLH R11, R6
79D0	3CF2		MOVE $1E4, R12
79D2	3810		MOVE $20, R8
79D4	0F98		ADD R15, R9
79D6	3CEF		MOVE $1DE, R12
79D8	7C09		MOVB (R0), R12
79DA	0FF0		DEC2 R15, R15
79DC	3CFB		MOVE $1F6, R12
79DE	7C02		MOVB (R0)+++, R12
79E0	0FF0		DEC2 R15, R15
79E2	3CFB		MOVE $1F6, R12
79E4	3820		MOVE $40, R8
79E6	0BA4		MOVE R11, R10
79E8	3CF7		MOVE $1EE, R12
79EA	3A80		MOVE $100, R10
79EC	0F98		ADD R15, R9
79EE	7C0B		MOVB (R0), R12
79F0	0F3A		ADDH R15, R3
79F2	080F		GETA R0, $8
79F4	98FE		CLR R8, #$FE
79F6	3370		MOVE $E0, R3
79F8	3D7F		MOVE $FE, R13
79FA	3470		MOVE $E0, R4
79FC	0FB4		MOVE R15, R11
79FE	3C01		MOVE $02, R12
7A00	0B02		INC R11, R0
7A02	C300		SLE R3, R0
7A04	0B00		DEC2 R11, R0
7A06	3350		MOVE $A0, R3
7A08	0200		DEC2 R2, R0
7A0A	7450		MOVB (R5)+, R4
7A0C	0033		INC2 R0, R3
7A0E	5006		MOVE (R0)-~, R0
7A10	0074		RET R7

7A12	5002		MOVE (R0)+', R0
7A14	F15F		SUB R1, #$60
7A16	E8FE		
7A18	4C01		PUTB $C, (R0)++
7A1A	040F		GETA R0, $4
7A1C	7FCD		MOVB (R12), R15
7A1E	F00F		BRA $7A10		; -> -$10(R0)

7A20	7A3D		MOVB (R3), R10
7A22	160D		CTRL $6, #$0D
7A24	020F		GETA R0, $2
7A26	7A0F		MOVB (R0), R10
7A28	7B20		MOVB (R2)+, R11
7A2A	3D1B		MOVE $36, R13
7A2C	F15F		SUB R1, #$60
7A2E	F2FE		SUB R2, #$FF
7A30	4C01		PUTB $C, (R0)++
7A32	060F		GETA R0, $6
7A34	82FE		LBI R2, #$FE
7A36	CD40		SLE R13, R4
7A38	0F5C		MHL R15, R5
7A3A	3D23		MOVE $46, R13
7A3C	0D0F		GETA R0, $D
7A3E	0F5C		MHL R15, R5
7A40	0F5D		MLH R15, R5
7A42	203D		JMP ($007A)

7A44	27FE		MOVE R7, $1FC
7A46	3350		MOVE $A0, R3
7A48	0F5C		MHL R15, R5
7A4A	7450		MOVB (R5)+, R4
7A4C	08FE		GETB R15, $8
7A4E	CD00		SLE R13, R0
7A50	0F4E		GETB R4, $F
7A52	3D2F		MOVE $5E, R13
7A54	0D02		INC R13, R0
7A56	0F4E		GETB R4, $F
7A58	0F4F		GETA R4, $F
7A5A	203D		JMP ($007A)

7A5C	3EFE		MOVE $1FC, R14
7A5E	0C03		INC2 R12, R0
7A60	0F7A		ADDH R15, R7
7A62	0F4E		GETB R4, $F
7A64	0C00		DEC2 R12, R0
7A66	0F7E		GETB R7, $F
7A68	0F4D		MLH R15, R4
7A6A	F15F		SUB R1, #$60
7A6C	F2FE		SUB R2, #$FF
7A6E	4C01		PUTB $C, (R0)++
7A70	0A0F		GETA R0, $A
7A72	820C		LBI R2, #$0C
7A74	010F		GETA R0, $1
7A76	BC0F		SET R12, #$0F
7A78	82F0		LBI R2, #$F0
7A7A	3D42		MOVE $84, R13
7A7C	3350		MOVE $A0, R3
7A7E	0000		HALT
7A80	7450		MOVB (R5)+, R4
7A82	0AFE		GETB R15, $A
7A84	7C40		MOVB (R4)+, R12
7A86	1038		CTRL $0, #$38
7A88	100F		CTRL $0, #$0F
7A8A	983D		CLR R8, #$3D
7A8C	4AFE		PUTB $A, (R15)
7A8E	3801		MOVE $02, R8
7A90	0F99		SUB R15, R9
7A92	3D4C		MOVE $98, R13
7A94	7A10		MOVB (R1)+, R10
7A96	10FE		CTRL $0, #$FE
7A98	3820		MOVE $40, R8
7A9A	0F98		ADD R15, R9
7A9C	3D51		MOVE $A2, R13
7A9E	7A20		MOVB (R2)+, R10
7AA0	10FE		CTRL $0, #$FE
7AA2	F153		SUB R1, #$54
7AA4	FCFE		SUB R12, #$FF
7AA6	3980		MOVE $100, R9
7AA8	00A4		RET R10

7AAA	5FDA		MOVE (R13), R15
7AAC	DD00		MOVE R13, (R0)'
7AAE	0C3F		GETA R3, $C
7AB0	421C		PUTB $2, (R1)
7AB2	010F		GETA R0, $1
7AB4	9B0D		CLR R11, #$0D
7AB6	7520		MOVB (R2)+, R5
7AB8	0034		RET R3

7ABA	200F		JMP ($001E)

7ABC	72E5		MOVB (R14)--, R2
7ABE	000C		MHL R0, R0
7AC0	C001		SLT R0, R0
7AC2	5FDC		MOVE (R13), R15
7AC4	AC01		ADD R12, #$02
7AC6	2404		MOVE R4, $08
7AC8	2C01		MOVE R12, $02
7ACA	0F74		MOVE R15, R7
7ACC	042C		MHL R4, R2
7ACE	010F		GETA R0, $1
7AD0	7606		MOVB (R0)---, R6
7AD2	FB10		SUB R11, #$11
7AD4	2035		JMP ($006A)

7AD6	700F		MOVB (R0), R0
7AD8	B4B9		SET R4, #$B9
7ADA	2010		JMP ($0020)

7ADC	3F4A		MOVE $94, R15
7ADE	F03F		BRA $7AA0		; -> -$40(R0)

7AE0	56FE		MOVE (R15), R6
7AE2	0C00		DEC2 R12, R0
7AE4	0F4D		MLH R15, R4
7AE6	0F7E		GETB R7, $F
7AE8	0C03		INC2 R12, R0
7AEA	0F4E		GETB R4, $F
7AEC	0F7A		ADDH R15, R7
7AEE	0C00		DEC2 R12, R0
7AF0	0F7E		GETB R7, $F
7AF2	0F48		ADD R15, R4
7AF4	0C03		INC2 R12, R0
7AF6	0F7A		ADDH R15, R7
7AF8	0F49		SUB R15, R4
7AFA	FC80		SUB R12, #$81
7AFC	00FE		GETB R15, $0
7AFE	3904		MOVE $08, R9
7B00	0F98		ADD R15, R9
7B02	3E99		MOVE $132, R14
7B04	C520		SLE R5, R2
7B06	0B80		DEC2 R11, R8
7B08	C081		SLT R0, R8
7B0A	3F32		MOVE $64, R15
7B0C	3902		MOVE $04, R9
7B0E	0B6D		MLH R11, R6
7B10	3D9D		MOVE $13A, R13
7B12	3901		MOVE $02, R9
7B14	0F98		ADD R15, R9
7B16	3D9D		MOVE $13A, R13
7B18	6B03		MOVB R11, (R0)++++
7B1A	0004		NOP
7B1C	7C6B		MOVB (R6), R12
7B1E	042C		MHL R4, R2
7B20	010F		GETA R0, $1
7B22	8E04		LBI R14, #$04
7B24	8D01		LBI R13, #$01
7B26	000E		GETB R0, $0
7B28	DA20		MOVE R10, (R2)'
7B2A	3D99		MOVE $132, R13
7B2C	B520		SET R5, #$20
7B2E	00F0		DEC2 R0, R15
7B30	3D92		MOVE $124, R13
7B32	6B03		MOVB R11, (R0)++++
7B34	0504		MOVE R5, R0
7B36	F03D		BRA $7AFA		; -> -$3E(R0)

7B38	A1FE		ADD R1, #$FF
7B3A	2C01		MOVE R12, $02
7B3C	0F8E		GETB R8, $F
7B3E	04F0		DEC2 R4, R15
7B40	3DAD		MOVE $15A, R13
7B42	7310		MOVB (R1)+, R3
7B44	0938		ADD R9, R3
7B46	800F		LBI R0, #$0F
7B48	983D		CLR R8, #$3D
7B4A	A9FE		ADD R9, #$FF
7B4C	7CFF		MOVB (R15), R12
7B4E	00F0		DEC2 R0, R15
7B50	3DAB		MOVE $156, R13
7B52	7C40		MOVB (R4)+, R12
7B54	00FE		GETB R15, $0
7B56	7310		MOVB (R1)+, R3
7B58	01FE		GETB R15, $1
7B5A	3410		MOVE $20, R4
7B5C	0F8C		MHL R15, R8
7B5E	3C7E		MOVE $FC, R12
7B60	10D0		CTRL $0, #$D0
7B62	0C01		DEC R12, R0
7B64	10CE		CTRL $0, #$CE
7B66	0F8E		GETB R8, $F
7B68	F183		SUB R1, #$84
7B6A	F4FE		SUB R4, #$FF
7B6C	F03E		BRA $7B2F		; -> -$3F(R0)

7B6E	E1FE		
7B70	3320		MOVE $40, R3
7B72	3DBF		MOVE $17E, R13
7B74	3901		MOVE $02, R9
7B76	0F98		ADD R15, R9
7B78	23FC		MOVE R3, $1F8
7B7A	F023		BRA $7B58		; -> -$24(R0)

7B7C	FAFE		SUB R10, #$FF
7B7E	3910		MOVE $20, R9
7B80	0F98		ADD R15, R9
7B82	3E20		MOVE $40, R14
7B84	3802		MOVE $04, R8
7B86	0B6D		MLH R11, R6
7B88	3DC7		MOVE $18E, R13
7B8A	3470		MOVE $E0, R4
7B8C	0F8E		GETB R8, $F
7B8E	3940		MOVE $80, R9
7B90	0F98		ADD R15, R9
7B92	3F4D		MOVE $9A, R15
7B94	3510		MOVE $20, R5
7B96	0F72		INC R15, R7
7B98	D400		MOVE R4, (R0)'
7B9A	1C18		CTRL $C, #$18
7B9C	3DD1		MOVE $1A2, R13
7B9E	7400		MOVB (R0)+, R4
7BA0	1CFE		CTRL $C, #$FE
7BA2	3320		MOVE $40, R3
7BA4	10CE		CTRL $0, #$CE
7BA6	3530		MOVE $60, R5
7BA8	0F74		MOVE R15, R7
7BAA	3510		MOVE $20, R5
7BAC	0F76		OR R15, R7
7BAE	F830		SUB R8, #$31
7BB0	1035		CTRL $0, #$35
7BB2	400F		PUTB $0, (R0)
7BB4	8CFB		LBI R12, #$FB
7BB6	1040		CTRL $0, #$40
7BB8	F840		SUB R8, #$41
7BBA	0039		SUB R0, R3
7BBC	020B		ADDH2 R2, R0
7BBE	6D3D		MOVB R13, (R3)
7BC0	EBFE		
7BC2	3801		MOVE $02, R8
7BC4	0F98		ADD R15, R9
7BC6	3DE8		MOVE $1D0, R13
7BC8	2A03		MOVE R10, $06
7BCA	0F8E		GETB R8, $F
7BCC	00F0		DEC2 R0, R15
7BCE	3DEB		MOVE $1D6, R13
7BD0	2C01		MOVE R12, $02
7BD2	0F8E		GETB R8, $F
7BD4	04FE		GETB R15, $4
7BD6	FA40		SUB R10, #$41
7BD8	3000		MOVE $00, R0
7BDA	3E10		MOVE $20, R14
7BDC	6400		MOVB R4, (R0)+
7BDE	0000		HALT
7BE0	F810		SUB R8, #$11
7BE2	00FA		ADDH R0, R15
7BE4	1030		CTRL $0, #$30
7BE6	503F		MOVE (R3), R0
7BE8	4DFE		PUTB $D, (R15)
7BEA	3908		MOVE $10, R9
7BEC	0F98		ADD R15, R9
7BEE	3DFA		MOVE $1F4, R13
7BF0	7C15		MOVB (R1)--, R12
7BF2	00FE		GETB R15, $0
7BF4	7310		MOVB (R1)+, R3
7BF6	0138		ADD R1, R3
7BF8	8000		LBI R0, #$00
7BFA	A43E		ADD R4, #$3F
7BFC	03FE		GETB R15, $3
7BFE	3410		MOVE $20, R4
7C00	0F8C		MHL R15, R8
7C02	F03E		BRA $7BC5		; -> -$3F(R0)

7C04	E1FE		
7C06	FA10		SUB R10, #$11
7C08	3020		MOVE $40, R0
7C0A	3E0C		MOVE $18, R14
7C0C	3410		MOVE $20, R4
7C0E	0F8C		MHL R15, R8
7C10	3C6E		MOVE $DC, R12
7C12	10D0		CTRL $0, #$D0
7C14	F03D		BRA $7BD8		; -> -$3E(R0)

7C16	B1FE		SET R1, #$FE
7C18	3A40		MOVE $80, R10
7C1A	0F98		ADD R15, R9
7C1C	F03E		BRA $7BDF		; -> -$3F(R0)

7C1E	06FE		GETB R15, $6
7C20	FB70		SUB R11, #$71
7C22	30F9		MOVE $1F2, R0
7C24	7010		MOVB (R1)+, R0
7C26	6470		MOVB R4, (R7)+
7C28	0000		HALT
7C2A	F820		SUB R8, #$21
7C2C	70F9		MOVB (R15), R0
7C2E	0070		DEC2 R0, R7
7C30	3420		MOVE $40, R4
7C32	0FB8		ADD R15, R11
7C34	F13F		SUB R1, #$40
7C36	4DFE		PUTB $D, (R15)
7C38	3520		MOVE $40, R5
7C3A	0FB8		ADD R15, R11
7C3C	F03D		BRA $7C00		; -> -$3E(R0)

7C3E	EEFE		
7C40	3530		MOVE $60, R5
7C42	0FBC		MHL R15, R11
7C44	FA30		SUB R10, #$31
7C46	0010		DEC2 R0, R1
7C48	3E50		MOVE $A0, R14
7C4A	3801		MOVE $02, R8
7C4C	0F98		ADD R15, R9
7C4E	3E2E		MOVE $5C, R14
7C50	3310		MOVE $20, R3
7C52	10CE		CTRL $0, #$CE
7C54	1A03		CTRL $A, #$03
7C56	0F8E		GETB R8, $F
7C58	00F0		DEC2 R0, R15
7C5A	3E30		MOVE $60, R14
7C5C	3470		MOVE $E0, R4
7C5E	0F8E		GETB R8, $F
7C60	3520		MOVE $40, R5
7C62	0F72		INC R15, R7
7C64	B510		SET R5, #$10
7C66	2437		MOVE R4, $6E
7C68	300E		MOVE $1C, R0
7C6A	DB7C		MOVE R11, (R7)
7C6C	4000		PUTB $0, (R0)+
7C6E	5430		MOVE (R3)', R4
7C70	0100		DEC2 R1, R0
7C72	4400		PUTB $4, (R0)+
7C74	0010		DEC2 R0, R1
7C76	CE8E		SNBC R14, R8
7C78	2026		JMP ($004C)

7C7A	0EDA		ADDH R14, R13
7C7C	3A40		MOVE $80, R10
7C7E	0BA1		DEC R11, R10
7C80	F177		SUB R1, #$78
7C82	F6FE		SUB R6, #$FF
7C84	B910		SET R9, #$10
7C86	113E		CTRL $1, #$3E
7C88	42FE		PUTB $2, (R15)
7C8A	3B40		MOVE $80, R11
7C8C	0BA1		DEC R11, R10
7C8E	8D01		LBI R13, #$01
7C90	0C0E		GETB R0, $C
7C92	DA28		MOVE R10, (R2)
7C94	5FDC		MOVE (R13), R15
7C96	3980		MOVE $100, R9
7C98	00A4		RET R10

7C9A	3EE1		MOVE $1C2, R14
7C9C	F03E		BRA $7C5F		; -> -$3F(R0)

7C9E	08FE		GETB R15, $8
7CA0	3310		MOVE $20, R3
7CA2	0F72		INC R15, R7
7CA4	F117		SUB R1, #$18
7CA6	F4FE		SUB R4, #$FF
7CA8	F03F		BRA $7C6A		; -> -$40(R0)

7CAA	3EFE		MOVE $1FC, R14
7CAC	3510		MOVE $20, R5
7CAE	0F72		INC R15, R7
7CB0	7510		MOVB (R1)+, R5
7CB2	044C		MHL R4, R4
7CB4	1200		CTRL $2, #$00
7CB6	104A		CTRL $0, #$4A
7CB8	3320		MOVE $40, R3
7CBA	0B82		INC R11, R8
7CBC	3350		MOVE $A0, R3
7CBE	0BA0		DEC2 R11, R10
7CC0	B980		SET R9, #$80
7CC2	003E		GETB R3, $0
7CC4	6CFE		MOVB R12, (R15)
7CC6	7C40		MOVB (R4)+, R12
7CC8	0073		INC2 R0, R7
7CCA	1002		CTRL $0, #$02
7CCC	B320		SET R3, #$20
7CCE	03FA		ADDH R3, R15
7CD0	2050		JMP ($00A0)

7CD2	203F		JMP ($007E)

7CD4	3AF0		MOVE $1E0, R10
7CD6	3E60		MOVE $C0, R14
7CD8	3420		MOVE $40, R4
7CDA	0F90		DEC2 R15, R9
7CDC	B530		SET R5, #$30
7CDE	0134		MOVE R1, R3
7CE0	300F		MOVE $1E, R0
7CE2	96FE		CLR R6, #$FE
7CE4	B320		SET R3, #$20
7CE6	03FA		ADDH R3, R15
7CE8	2050		JMP ($00A0)

7CEA	203E		JMP ($007C)

7CEC	7E73		MOVB (R7)++++, R14
7CEE	1002		CTRL $0, #$02
7CF0	B980		SET R9, #$80
7CF2	003E		GETB R3, $0
7CF4	72FE		MOVB (R15), R2
7CF6	7C40		MOVB (R4)+, R12
7CF8	00F0		DEC2 R0, R15
7CFA	3E72		MOVE $E4, R14
7CFC	7310		MOVB (R1)+, R3
7CFE	0134		MOVE R1, R3
7D00	100F		CTRL $0, #$0F
7D02	8CF1		LBI R12, #$F1
7D04	3F69		MOVE $D2, R15
7D06	3520		MOVE $40, R5
7D08	0F90		DEC2 R15, R9
7D0A	3350		MOVE $A0, R3
7D0C	0BA0		DEC2 R11, R10
7D0E	B320		SET R3, #$20
7D10	03FA		ADDH R3, R15
7D12	2050		JMP ($00A0)

7D14	203E		JMP ($007C)

7D16	E1B9		
7D18	8000		LBI R0, #$00
7D1A	3E90		MOVE $120, R14
7D1C	F03E		BRA $7CDF		; -> -$3F(R0)

7D1E	87FE		LBI R7, #$FE
7D20	3420		MOVE $40, R4
7D22	0F90		DEC2 R15, R9
7D24	B520		SET R5, #$20
7D26	0134		MOVE R1, R3
7D28	200F		JMP ($001E)

7D2A	96F1		CLR R6, #$F1
7D2C	3F69		MOVE $D2, R15
7D2E	F03E		BRA $7CF1		; -> -$3F(R0)

7D30	83FE		LBI R3, #$FE
7D32	3510		MOVE $20, R5
7D34	0F72		INC R15, R7
7D36	7510		MOVB (R1)+, R5
7D38	0439		SUB R4, R3
7D3A	010F		GETA R0, $1
7D3C	983E		CLR R8, #$3E
7D3E	C9FE		SNBC R9, R15
7D40	FB70		SUB R11, #$71
7D42	1049		CTRL $0, #$49
7D44	1200		CTRL $2, #$00
7D46	0040		DEC2 R0, R4
7D48	7310		MOVB (R1)+, R3
7D4A	1334		CTRL $3, #$34
7D4C	100F		CTRL $0, #$0F
7D4E	8C33		LBI R12, #$33
7D50	200B		JMP ($0016)

7D52	8205		LBI R2, #$05
7D54	130F		CTRL $3, #$0F
7D56	4803		PUTB $8, (R0)++++
7D58	97FE		CLR R7, #$FE
7D5A	3310		MOVE $20, R3
7D5C	0F49		SUB R15, R4
7D5E	3F01		MOVE $02, R15
7D60	0F8A		ADDH R15, R8
7D62	CAF0		SLE R10, R15
7D64	0F8A		ADDH R15, R8
7D66	3EBB		MOVE $176, R14
7D68	B320		SET R3, #$20
7D6A	0373		INC2 R3, R7
7D6C	1002		CTRL $0, #$02
7D6E	3670		MOVE $E0, R6
7D70	1044		CTRL $0, #$44
7D72	F03E		BRA $7D35		; -> -$3F(R0)

7D74	AFFE		ADD R15, #$FF
7D76	B880		SET R8, #$80
7D78	003F		GETA R3, $0
7D7A	3AFE		MOVE $1FC, R10
7D7C	B530		SET R5, #$30
7D7E	0134		MOVE R1, R3
7D80	300F		MOVE $1E, R0
7D82	96FB		CLR R6, #$FB
7D84	2070		JMP ($00E0)

7D86	9C00		CLR R12, #$00
7D88	0000		HALT
7D8A	F13F		SUB R1, #$40
7D8C	69FE		MOVB R9, (R15)
7D8E	F03E		BRA $7D51		; -> -$3F(R0)

7D90	E1FE		
7D92	3320		MOVE $40, R3
7D94	0B82		INC R11, R8
7D96	3F01		MOVE $02, R15
7D98	0F8A		ADDH R15, R8
7D9A	CAF0		SLE R10, R15
7D9C	0F8A		ADDH R15, R8
7D9E	3ED3		MOVE $1A6, R14
7DA0	B320		SET R3, #$20
7DA2	03F0		DEC2 R3, R15
7DA4	3ECB		MOVE $196, R14
7DA6	B880		SET R8, #$80
7DA8	003F		GETA R3, $0
7DAA	3AFE		MOVE $1FC, R10
7DAC	B520		SET R5, #$20
7DAE	01E5		AND R1, R14
7DB0	2000		JMP ($0000)

7DB2	C081		SLT R0, R8
7DB4	3F3A		MOVE $74, R15
7DB6	2C01		MOVE R12, $02
7DB8	0F8E		GETB R8, $F
7DBA	0434		MOVE R4, R3
7DBC	2010		JMP ($0020)

7DBE	6CF0		MOVB R12, (R15)+
7DC0	3DAD		MOVE $15A, R13
7DC2	0E10		DEC2 R14, R1
7DC4	0F9D		MLH R15, R9
7DC6	0EDB		ADDH2 R14, R13
7DC8	3310		MOVE $20, R3
7DCA	0F72		INC R15, R7
7DCC	3520		MOVE $40, R5
7DCE	0F72		INC R15, R7
7DD0	3810		MOVE $20, R8
7DD2	0F98		ADD R15, R9
7DD4	3EEE		MOVE $1DC, R14
7DD6	2E10		MOVE R14, $20
7DD8	0F9D		MLH R15, R9
7DDA	08FE		GETB R15, $8
7DDC	3802		MOVE $04, R8
7DDE	0B6D		MLH R11, R6
7DE0	3EF5		MOVE $1EA, R14
7DE2	8C01		LBI R12, #$01
7DE4	160F		CTRL $6, #$0F
7DE6	8CF0		LBI R12, #$F0
7DE8	3EFC		MOVE $1F8, R14
7DEA	3901		MOVE $02, R9
7DEC	0F98		ADD R15, R9
7DEE	3EF1		MOVE $1E2, R14
7DF0	AC01		ADD R12, #$02
7DF2	1604		CTRL $6, #$04
7DF4	AE10		ADD R14, #$11
7DF6	1606		CTRL $6, #$06
7DF8	BA0A		SET R10, #$0A
7DFA	143A		CTRL $4, #$3A
7DFC	400B		PUTB $0, (R0)
7DFE	A1F1		ADD R1, #$F2
7E00	17F4		CTRL $7, #$F4
7E02	3B40		MOVE $80, R11
7E04	0BA1		DEC R11, R10
7E06	3980		MOVE $100, R9
7E08	00A4		RET R10

7E0A	5FDA		MOVE (R13), R15
7E0C	3310		MOVE $20, R3
7E0E	05CC		MHL R5, R12
7E10	0C01		DEC R12, R0
7E12	0F1A		ADDH R15, R1
7E14	0F9B		ADDH2 R15, R9
7E16	F15F		SUB R1, #$60
7E18	E6FE		
7E1A	3500		MOVE $00, R5
7E1C	0F9B		ADDH2 R15, R9
7E1E	F970		SUB R9, #$71
7E20	70F9		MOVB (R15), R0
7E22	3030		MOVE $60, R0
7E24	F960		SUB R9, #$61
7E26	6035		MOVB R0, (R3)--
7E28	500F		MOVE (R0), R0
7E2A	76FE		MOVB (R15), R6
7E2C	F870		SUB R8, #$71
7E2E	0036		OR R0, R3
7E30	600E		MOVB R0, (R0)
7E32	DBF8		MOVE R11, (R15)
7E34	3050		MOVE $A0, R0
7E36	C430		SLE R4, R3
7E38	1046		CTRL $0, #$46
7E3A	003F		GETA R3, $0
7E3C	16F9		CTRL $6, #$F9
7E3E	4040		PUTB $0, (R4)+
7E40	3770		MOVE $E0, R7
7E42	0F9D		MLH R15, R9
7E44	C004		SS R0
7E46	3F2C		MOVE $58, R15
7E48	FA60		SUB R10, #$61
7E4A	7000		MOVB (R0)+, R0
7E4C	3F2C		MOVE $58, R15
7E4E	F970		SUB R9, #$71
7E50	6036		MOVB R0, (R3)---
7E52	400E		PUTB $0, (R0)
7E54	DBF0		MOVE R11, (R15)'
7E56	3F24		MOVE $48, R15
7E58	3440		MOVE $80, R4
7E5A	0F1A		ADDH R15, R1
7E5C	F15F		SUB R1, #$60
7E5E	E4FE		
7E60	3A10		MOVE $20, R10
7E62	0BA1		DEC R11, R10
7E64	3C80		MOVE $100, R12
7E66	0BB5		AND R11, R11
7E68	F05F		BRA $7E0A		; -> -$60(R0)

7E6A	E2FE		
7E6C	3C3A		MOVE $74, R12
7E6E	0BB4		MOVE R11, R11
7E70	F05F		BRA $7E12		; -> -$60(R0)

7E72	E2FE		
7E74	3C35		MOVE $6A, R12
7E76	0BB4		MOVE R11, R11
7E78	F05F		BRA $7E1A		; -> -$60(R0)

7E7A	E2FE		
7E7C	3C45		MOVE $8A, R12
7E7E	0BB4		MOVE R11, R11
7E80	F05F		BRA $7E22		; -> -$60(R0)

7E82	E2FE		
7E84	1C00		CTRL $C, #$00
7E86	0BB4		MOVE R11, R11
7E88	0CF0		DEC2 R12, R15
7E8A	5FE2		MOVE (R14)+', R15
7E8C	3C33		MOVE $66, R12
7E8E	0BB4		MOVE R11, R11
7E90	F05F		BRA $7E32		; -> -$60(R0)

7E92	E2FE		
7E94	BC0B		SET R12, #$0B
7E96	02F0		DEC2 R2, R15
7E98	3FBF		MOVE $17E, R15
7E9A	FB70		SUB R11, #$71
7E9C	803B		LBI R0, #$3B
7E9E	400F		PUTB $0, (R0)
7EA0	9835		CLR R8, #$35
7EA2	200F		JMP ($001E)

7EA4	72BC		MOVB (R11), R2
7EA6	0202		INC R2, R0
7EA8	F03F		BRA $7E6A		; -> -$40(R0)

7EAA	BCFE		SET R12, #$FE
7EAC	3510		MOVE $20, R5
7EAE	0F74		MOVE R15, R7
7EB0	3540		MOVE $80, R5
7EB2	0F76		OR R15, R7
7EB4	3740		MOVE $80, R7
7EB6	0EDB		ADDH2 R14, R13
7EB8	7C00		MOVB (R0)+, R12
7EBA	0039		SUB R0, R3
7EBC	100F		CTRL $0, #$0F
7EBE	983F		CLR R8, #$3F
7EC0	63FE		MOVB R3, (R15)
7EC2	7CFF		MOVB (R15), R12
7EC4	00FE		GETB R15, $0
7EC6	5440		MOVE (R4)', R4
7EC8	0100		DEC2 R1, R0
7ECA	3410		MOVE $20, R4
7ECC	0F8C		MHL R15, R8
7ECE	FC70		SUB R12, #$71
7ED0	00FE		GETB R15, $0
7ED2	3480		MOVE $100, R4
7ED4	0FB4		MOVE R15, R11
7ED6	3510		MOVE $20, R5
7ED8	0F96		OR R15, R9
7EDA	3320		MOVE $40, R3
7EDC	3F75		MOVE $EA, R15
7EDE	3530		MOVE $60, R5
7EE0	0B6C		MHL R11, R6
7EE2	3B02		MOVE $04, R11
7EE4	0B6D		MLH R11, R6
7EE6	F023		BRA $7EC4		; -> -$24(R0)

7EE8	FAFE		SUB R10, #$FF
7EEA	3430		MOVE $60, R4
7EEC	0B6C		MHL R11, R6
7EEE	3940		MOVE $80, R9
7EF0	0F98		ADD R15, R9
7EF2	3F4D		MOVE $9A, R15
7EF4	3320		MOVE $40, R3
7EF6	10CE		CTRL $0, #$CE
7EF8	3530		MOVE $60, R5
7EFA	0F74		MOVE R15, R7
7EFC	3510		MOVE $20, R5
7EFE	0F76		OR R15, R7
7F00	F830		SUB R8, #$31
7F02	1035		CTRL $0, #$35
7F04	400F		PUTB $0, (R0)
7F06	8CFB		LBI R12, #$FB
7F08	1040		CTRL $0, #$40
7F0A	F840		SUB R8, #$41
7F0C	00FA		ADDH R0, R15
7F0E	4030		PUTB $0, (R3)+
7F10	003F		GETA R3, $0
7F12	A6FE		ADD R6, #$FF
7F14	6400		MOVB R4, (R0)+
7F16	0000		HALT
7F18	F810		SUB R8, #$11
7F1A	00FA		ADDH R0, R15
7F1C	1030		CTRL $0, #$30
7F1E	503F		MOVE (R3), R0
7F20	4DFE		PUTB $D, (R15)
7F22	7310		MOVB (R1)+, R3
7F24	0139		SUB R1, R3
7F26	8000		LBI R0, #$00
7F28	A43E		ADD R4, #$3F
7F2A	E1FE		
7F2C	FA10		SUB R10, #$11
7F2E	3020		MOVE $40, R0
7F30	3FB6		MOVE $16C, R15
7F32	3410		MOVE $20, R4
7F34	0F8C		MHL R15, R8
7F36	3510		MOVE $20, R5
7F38	0F96		OR R15, R9
7F3A	4D01		PUTB $D, (R0)++
7F3C	000E		GETB R0, $0
7F3E	DA20		MOVE R10, (R2)'
7F40	3FBA		MOVE $174, R15
7F42	7510		MOVB (R1)+, R5
7F44	0034		RET R3

7F46	100F		CTRL $0, #$0F
7F48	96F0		CLR R6, #$F0
7F4A	3F6D		MOVE $DA, R15
7F4C	FB70		SUB R11, #$71
7F4E	30F9		MOVE $1F2, R0
7F50	7010		MOVB (R1)+, R0
7F52	6470		MOVB R4, (R7)+
7F54	0000		HALT
7F56	F820		SUB R8, #$21
7F58	70F9		MOVB (R15), R0
7F5A	0070		DEC2 R0, R7
7F5C	3420		MOVE $40, R4
7F5E	0FB8		ADD R15, R11
7F60	F13F		SUB R1, #$40
7F62	4DFE		PUTB $D, (R15)
7F64	3520		MOVE $40, R5
7F66	0FB8		ADD R15, R11
7F68	F03F		BRA $7F2A		; -> -$40(R0)

7F6A	8AFE		LBI R10, #$FE
7F6C	3A40		MOVE $80, R10
7F6E	0F98		ADD R15, R9
7F70	F03F		BRA $7F32		; -> -$40(R0)

7F72	99FE		CLR R9, #$FE
7F74	3100		MOVE $00, R1
7F76	0FB4		MOVE R15, R11
7F78	0E10		DEC2 R14, R1
7F7A	0F9D		MLH R15, R9
7F7C	0EDB		ADDH2 R14, R13
7F7E	B980		SET R9, #$80
7F80	113F		CTRL $1, #$3F
7F82	C5FE		SNBC R5, R15
7F84	8C01		LBI R12, #$01
7F86	080E		GETB R0, $8
7F88	DBFE		MOVE R11, (R15)
7F8A	E300		
7F8C	00FE		GETB R15, $0
7F8E	B910		SET R9, #$10
7F90	113F		CTRL $1, #$3F
7F92	C7FE		SNBC R7, R15
7F94	8D01		LBI R13, #$01
7F96	0C10		DEC2 R12, R1
7F98	4820		PUTB $8, (R2)+
7F9A	3F36		MOVE $6C, R15
7F9C	8D01		LBI R13, #$01
7F9E	0C0E		GETB R0, $C
7FA0	DA28		MOVE R10, (R2)
7FA2	5FDC		MOVE (R13), R15
7FA4	F03F		BRA $7F66		; -> -$40(R0)

7FA6	56FE		MOVE (R15), R6
7FA8	F140		SUB R1, #$41
7FAA	3FFE		MOVE $1FC, R15
7FAC	1C01		CTRL $C, #$01
7FAE	0F8E		GETB R8, $F
7FB0	043C		MHL R4, R3
7FB2	7E10		MOVB (R1)+, R14
7FB4	D0F0		JMP (R15)'
7FB6	3FE7		MOVE $1CE, R15
7FB8	F140		SUB R1, #$41
7FBA	3FFE		MOVE $1FC, R15
7FBC	0C01		DEC R12, R0
7FBE	0F8E		GETB R8, $F
7FC0	10CE		CTRL $0, #$CE
7FC2	F03F		BRA $7F84		; -> -$40(R0)

7FC4	E7FE		
7FC6	F140		SUB R1, #$41
7FC8	3FFE		MOVE $1FC, R15
7FCA	3A01		MOVE $02, R10
7FCC	0F98		ADD R15, R9
7FCE	3310		MOVE $20, R3
7FD0	0F24		MOVE R15, R2
7FD2	4C01		PUTB $C, (R0)++
7FD4	000B		ADDH2 R0, R0
7FD6	634C		MOVB R3, (R4)
7FD8	0102		INC R1, R0
7FDA	0DB0		DEC2 R13, R11
7FDC	7C05		MOVB (R0)--, R12
7FDE	047A		ADDH R4, R7
7FE0	4810		PUTB $8, (R1)+
7FE2	F153		SUB R1, #$54
7FE4	FCFE		SUB R12, #$FF
7FE6	DC00		MOVE R12, (R0)'
7FE8	0C3F		GETA R3, $C
7FEA	FA1C		SUB R10, #$1D
7FEC	000B		ADDH2 R0, R0
7FEE	B40C		SET R4, #$0C
7FF0	F08F		BRA $7F62		; -> -$90(R0)

7FF2	EEFE		
7FF4	7510		MOVB (R1)+, R5
7FF6	0034		RET R3

7FF8	100F		CTRL $0, #$0F
7FFA	72D5		MOVB (R13)--, R2
7FFC	000C		MHL R0, R0
7FFE	C081		SLT R0, R8
8000	4003		PUTB $0, (R0)++++
8002	F05F		BRA $7FA4		; -> -$60(R0)

8004	DCFE		MOVE R12, (R15)
8006	7C02		MOVB (R0)+++, R12
8008	0233		INC2 R2, R3
800A	2010		JMP ($0020)

800C	CE74		SS R14
800E	2004		JMP ($0008)

8010	4C01		PUTB $C, (R0)++
8012	080E		GETB R0, $8
8014	DB39		MOVE R11, (R3)
8016	010F		GETA R0, $1
8018	9840		CLR R8, #$40
801A	22FE		MOVE R2, $1FC
801C	0C01		DEC R12, R0
801E	10CE		CTRL $0, #$CE
8020	0F8E		GETB R8, $F
8022	F183		SUB R1, #$84
8024	F4FE		SUB R4, #$FF
8026	F040		BRA $7FE7		; -> -$41(R0)

8028	31FE		MOVE $1FC, R1
802A	3320		MOVE $40, R3
802C	4019		PUTB $0, (R1)
802E	F023		BRA $800C		; -> -$24(R0)

8030	FCFE		SUB R12, #$FF
8032	0A03		INC2 R10, R0
8034	0F8E		GETB R8, $F
8036	10CE		CTRL $0, #$CE
8038	F140		SUB R1, #$41
803A	47FE		PUTB $7, (R15)
803C	3C6E		MOVE $DC, R12
803E	10D0		CTRL $0, #$D0
8040	F040		BRA $8001		; -> -$41(R0)

8042	0EFE		GETB R15, $E
8044	3510		MOVE $20, R5
8046	0F88		ADD R15, R8
8048	3320		MOVE $40, R3
804A	4028		PUTB $0, (R2)
804C	F123		SUB R1, #$24
804E	FCFE		SUB R12, #$FF
8050	F140		SUB R1, #$41
8052	47FE		PUTB $7, (R15)
8054	4D01		PUTB $D, (R0)++
8056	000E		GETB R0, $0
8058	DA20		MOVE R10, (R2)'
805A	4031		PUTB $0, (R3)++
805C	7510		MOVB (R1)+, R5
805E	00F0		DEC2 R0, R15
8060	4024		PUTB $0, (R2)-
8062	3C80		MOVE $100, R12
8064	0BB5		AND R11, R11
8066	093F		GETA R3, $9
8068	05C0		DEC2 R5, R12
806A	0040		DEC2 R0, R4
806C	F08F		BRA $7FDE		; -> -$90(R0)

806E	EEFE		
8070	3C40		MOVE $80, R12
8072	0BA2		INC R11, R10
8074	093F		GETA R3, $9
8076	05C0		DEC2 R5, R12
8078	0040		DEC2 R0, R4
807A	F08F		BRA $7FEC		; -> -$90(R0)

807C	EEFE		
807E	0963		INC2 R9, R6
8080	0F24		MOVE R15, R2
8082	0000		HALT
8084	0963		INC2 R9, R6
8086	0F8A		ADDH R15, R8
8088	0000		HALT
808A	FC80		SUB R12, #$81
808C	00FE		GETB R15, $0
808E	FB70		SUB R11, #$71
8090	8035		LBI R0, #$35
8092	200F		JMP ($001E)

8094	72E3		MOVB (R14)++++, R2
8096	0000		HALT
8098	B910		SET R9, #$10
809A	1140		CTRL $1, #$40
809C	4CFE		PUTB $C, (R15)
809E	8D01		LBI R13, #$01
80A0	0C0E		GETB R0, $C
80A2	DA28		MOVE R10, (R2)
80A4	5FDC		MOVE (R13), R15
80A6	3980		MOVE $100, R9
80A8	00A4		RET R10

80AA	4038		PUTB $0, (R3)
80AC	FC70		SUB R12, #$71
80AE	00FE		GETB R15, $0
80B0	0002		INC R0, R0
80B2	03E8		ADD R3, R14
80B4	F1F0		SUB R1, #$F1
80B6	F040		BRA $8077		; -> -$41(R0)

80B8	F140		SUB R1, #$41
80BA	F240		SUB R2, #$41
80BC	F340		SUB R3, #$41
80BE	F440		SUB R4, #$41
80C0	F540		SUB R5, #$41
80C2	F640		SUB R6, #$41
80C4	F740		SUB R7, #$41
80C6	F840		SUB R8, #$41
80C8	F9FE		SUB R9, #$FF
80CA	3420		MOVE $40, R4
80CC	0FC6		OR R15, R12
80CE	3300		MOVE $00, R3
80D0	0005		AND R0, R0
80D2	4000		PUTB $0, (R0)+
80D4	0002		INC R0, R0
80D6	C0FE		SNBC R0, R15
80D8	2840		MOVE R8, $80
80DA	7C3A		MOVB (R3), R12
80DC	8010		LBI R0, #$10
80DE	D333		MOVE R3, (R3)++
80E0	2010		JMP ($0020)

80E2	6EF0		MOVB R14, (R15)+
80E4	40FA		PUTB $0, (R15)
80E6	0901		DEC R9, R0
80E8	10D3		CTRL $0, #$D3
80EA	0000		HALT
80EC	B320		SET R3, #$20
80EE	0473		INC2 R4, R7
80F0	1003		CTRL $0, #$03
80F2	7C6B		MOVB (R6), R12
80F4	00FB		ADDH2 R0, R15
80F6	7010		MOVB (R1)+, R0
80F8	3300		MOVE $00, R3
80FA	0004		NOP
80FC	4000		PUTB $0, (R0)+
80FE	0002		INC R0, R0
8100	ABFE		ADD R11, #$FF
8102	2840		MOVE R8, $80
8104	8C39		LBI R12, #$39
8106	4010		PUTB $0, (R1)+
8108	D342		MOVE R3, (R4)+'
810A	0EFE		GETB R15, $E
810C	3A40		MOVE $80, R10
810E	10D3		CTRL $0, #$D3
8110	3320		MOVE $40, R3
8112	1070		CTRL $0, #$70
8114	F040		BRA $80D5		; -> -$41(R0)

8116	FAFE		SUB R10, #$FF
8118	3300		MOVE $00, R3
811A	0006		OR R0, R0
811C	4000		PUTB $0, (R0)+
811E	0002		INC R0, R0
8120	B8FE		SET R8, #$FE
8122	2840		MOVE R8, $80
8124	9C39		CLR R12, #$39
8126	2010		JMP ($0020)

8128	D342		MOVE R3, (R4)+'
812A	0EFE		GETB R15, $E
812C	3A20		MOVE $40, R10
812E	10D3		CTRL $0, #$D3
8130	3320		MOVE $40, R3
8132	1072		CTRL $0, #$72
8134	F040		BRA $80F5		; -> -$41(R0)

8136	FAFE		SUB R10, #$FF
8138	3300		MOVE $00, R3
813A	0005		AND R0, R0
813C	4000		PUTB $0, (R0)+
813E	0002		INC R0, R0
8140	B5FE		SET R5, #$FE
8142	2840		MOVE R8, $80
8144	AC39		ADD R12, #$3A
8146	1010		CTRL $0, #$10
8148	D342		MOVE R3, (R4)+'
814A	0EFE		GETB R15, $E
814C	3A10		MOVE $20, R10
814E	10D3		CTRL $0, #$D3
8150	3320		MOVE $40, R3
8152	1074		CTRL $0, #$74
8154	F040		BRA $8115		; -> -$41(R0)

8156	FAFE		SUB R10, #$FF
8158	3300		MOVE $00, R3
815A	0006		OR R0, R0
815C	4000		PUTB $0, (R0)+
815E	0002		INC R0, R0
8160	C8FE		SNBC R8, R15
8162	2840		MOVE R8, $80
8164	CACC		SNS R10
8166	1A10		CTRL $A, #$10
8168	D040		JMP (R4)'
816A	C1CC		SNS R1
816C	1C10		CTRL $C, #$10
816E	D040		JMP (R4)'
8170	C1CC		SNS R1
8172	1F10		CTRL $F, #$10
8174	D040		JMP (R4)'
8176	C139		SGE R1, R3
8178	C010		SLE R0, R1
817A	D440		MOVE R4, (R4)'
817C	C1FE		SNBC R1, R15
817E	F041		BRA $813E		; -> -$42(R0)

8180	E8FE		
8182	3902		MOVE $04, R9
8184	10D3		CTRL $0, #$D3
8186	420E		PUTB $2, (R0)
8188	3A02		MOVE $04, R10
818A	10D3		CTRL $0, #$D3
818C	3320		MOVE $40, R3
818E	1078		CTRL $0, #$78
8190	F040		BRA $8151		; -> -$41(R0)

8192	FAFE		SUB R10, #$FF
8194	3300		MOVE $00, R3
8196	0007		XOR R0, R0
8198	4000		PUTB $0, (R0)+
819A	0002		INC R0, R0
819C	CBFE		SNBC R11, R15
819E	2840		MOVE R8, $80
81A0	E0CC		SHR R12
81A2	1F10		CTRL $F, #$10
81A4	D040		JMP (R4)'
81A6	D738		MOVE R7, (R3)
81A8	020B		ADDH2 R2, R0
81AA	5841		MOVE (R4)+, R8
81AC	F0FE		BRA $80AF		; -> -$FF(R0)

81AE	3901		MOVE $02, R9
81B0	10D3		CTRL $0, #$D3
81B2	420E		PUTB $2, (R0)
81B4	3A01		MOVE $02, R10
81B6	10D3		CTRL $0, #$D3
81B8	3320		MOVE $40, R3
81BA	107A		CTRL $0, #$7A
81BC	F040		BRA $817D		; -> -$41(R0)

81BE	FAFE		SUB R10, #$FF
81C0	3300		MOVE $00, R3
81C2	0006		OR R0, R0
81C4	4000		PUTB $0, (R0)+
81C6	0002		INC R0, R0
81C8	C5FE		SNBC R5, R15
81CA	2842		MOVE R8, $84
81CC	0ECC		MHL R14, R12
81CE	1A10		CTRL $A, #$10
81D0	D040		JMP (R4)'
81D2	F3CC		SUB R3, #$CD
81D4	1C10		CTRL $C, #$10
81D6	D040		JMP (R4)'
81D8	F3CC		SUB R3, #$CD
81DA	1F10		CTRL $F, #$10
81DC	D040		JMP (R4)'
81DE	F338		SUB R3, #$39
81E0	0410		DEC2 R4, R1
81E2	D341		MOVE R3, (R4)+
81E4	DDFE		MOVE R13, (R15)
81E6	3908		MOVE $10, R9
81E8	10D3		CTRL $0, #$D3
81EA	420E		PUTB $2, (R0)
81EC	3A08		MOVE $10, R10
81EE	10D3		CTRL $0, #$D3
81F0	3320		MOVE $40, R3
81F2	1076		CTRL $0, #$76
81F4	3420		MOVE $40, R4
81F6	1064		CTRL $0, #$64
81F8	3320		MOVE $40, R3
81FA	0F48		ADD R15, R4
81FC	F810		SUB R8, #$11
81FE	0070		DEC2 R0, R7
8200	1200		CTRL $2, #$00
8202	420E		PUTB $2, (R0)
8204	4105		PUTB $1, (R0)--
8206	420E		PUTB $2, (R0)
8208	420E		PUTB $2, (R0)
820A	F10B		SUB R1, #$0C
820C	E4FE		
820E	3520		MOVE $40, R5
8210	1064		CTRL $0, #$64
8212	CE50		SLE R14, R5
8214	0F48		ADD R15, R4
8216	420E		PUTB $2, (R0)
8218	B450		SET R4, #$50
821A	0039		SUB R0, R3
821C	8010		LBI R0, #$10
821E	D341		MOVE R3, (R4)+
8220	14FE		CTRL $4, #$FE
8222	DC6B		MOVE R12, (R6)
8224	0040		DEC2 R0, R4
8226	7CFE		MOVB (R15), R12
8228	DD40		MOVE R13, (R4)'
822A	0042		INC R0, R4
822C	0E33		INC2 R14, R3
822E	2010		JMP ($0020)

8230	D5CC		MOVE R5, (R12)
8232	1C10		CTRL $C, #$10
8234	D041		JMP (R4)+
8236	29CC		MOVE R9, $198
8238	1A10		CTRL $A, #$10
823A	D041		JMP (R4)+
823C	2939		MOVE R9, $72
823E	C010		SLE R0, R1
8240	D441		MOVE R4, (R4)+
8242	27FE		MOVE R7, $1FC
8244	3904		MOVE $08, R9
8246	10D3		CTRL $0, #$D3
8248	4127		PUTB $1, (R2)----
824A	F041		BRA $820A		; -> -$42(R0)

824C	29FE		MOVE R9, $1FC
824E	B320		SET R3, #$20
8250	03FE		GETB R15, $3
8252	FB50		SUB R11, #$51
8254	1033		CTRL $0, #$33
8256	1010		CTRL $0, #$10
8258	6E39		MOVB R14, (R3)
825A	8010		LBI R0, #$10
825C	D341		MOVE R3, (R4)+
825E	5AFE		MOVE (R15), R10
8260	7310		MOVB (R1)+, R3
8262	0239		SUB R2, R3
8264	4010		PUTB $0, (R1)+
8266	D341		MOVE R3, (R4)+
8268	5AFE		MOVE (R15), R10
826A	7310		MOVB (R1)+, R3
826C	0239		SUB R2, R3
826E	2010		JMP ($0020)

8270	D341		MOVE R3, (R4)+
8272	5AFE		MOVE (R15), R10
8274	7310		MOVB (R1)+, R3
8276	0239		SUB R2, R3
8278	1010		CTRL $0, #$10
827A	D341		MOVE R3, (R4)+
827C	5AFE		MOVE (R15), R10
827E	7310		MOVB (R1)+, R3
8280	0239		SUB R2, R3
8282	0810		DEC2 R8, R1
8284	D341		MOVE R3, (R4)+
8286	5AFE		MOVE (R15), R10
8288	7310		MOVB (R1)+, R3
828A	0239		SUB R2, R3
828C	0210		DEC2 R2, R1
828E	D341		MOVE R3, (R4)+
8290	5AFE		MOVE (R15), R10
8292	7310		MOVB (R1)+, R3
8294	0239		SUB R2, R3
8296	0110		DEC2 R1, R1
8298	D341		MOVE R3, (R4)+
829A	5AFE		MOVE (R15), R10
829C	FB10		SUB R11, #$11
829E	50CD		MOVE (R12), R0
82A0	1F10		CTRL $F, #$10
82A2	D041		JMP (R4)+
82A4	5FCC		MOVE (R12), R15
82A6	0010		DEC2 R0, R1
82A8	D342		MOVE R3, (R4)+'
82AA	0E0C		MHL R14, R0
82AC	0F10		DEC2 R15, R1
82AE	D110		MOVE R1, (R1)'
82B0	D3F0		MOVE R3, (R15)'
82B2	420B		PUTB $2, (R0)
82B4	9C01		CLR R12, #$01
82B6	0000		HALT
82B8	B320		SET R3, #$20
82BA	02FC		MHL R2, R15
82BC	8000		LBI R0, #$00
82BE	3420		MOVE $40, R4
82C0	1064		CTRL $0, #$64
82C2	C813		SZ R8
82C4	10D0		CTRL $0, #$D0
82C6	4169		PUTB $1, (R6)
82C8	3500		MOVE $00, R5
82CA	10D0		CTRL $0, #$D0
82CC	F700		SUB R7, #$01
82CE	09F0		DEC2 R9, R15
82D0	4195		PUTB $1, (R9)--
82D2	C815		SBS R8, R1
82D4	10D0		CTRL $0, #$D0
82D6	4170		PUTB $1, (R7)+
82D8	3300		MOVE $00, R3
82DA	0005		AND R0, R0
82DC	F041		BRA $829C		; -> -$42(R0)

82DE	95FE		CLR R5, #$FE
82E0	C817		SBSH R8, R1
82E2	10D0		CTRL $0, #$D0
82E4	4177		PUTB $1, (R7)----
82E6	3300		MOVE $00, R3
82E8	0006		OR R0, R0
82EA	F041		BRA $82AA		; -> -$42(R0)

82EC	95FE		CLR R5, #$FE
82EE	C819		SGE R8, R1
82F0	10D0		CTRL $0, #$D0
82F2	417E		PUTB $1, (R7)
82F4	3300		MOVE $00, R3
82F6	0007		XOR R0, R0
82F8	F041		BRA $82B8		; -> -$42(R0)

82FA	95FE		CLR R5, #$FE
82FC	C81A		SNE R8, R1
82FE	10D0		CTRL $0, #$D0
8300	4185		PUTB $1, (R8)--
8302	3300		MOVE $00, R3
8304	0008		ADD R0, R0
8306	F041		BRA $82C6		; -> -$42(R0)

8308	95FE		CLR R5, #$FE
830A	C81C		SNS R8
830C	10D0		CTRL $0, #$D0
830E	418C		PUTB $1, (R8)
8310	3300		MOVE $00, R3
8312	0009		SUB R0, R0
8314	F041		BRA $82D4		; -> -$42(R0)

8316	95FE		CLR R5, #$FE
8318	C81E		SNBC R8, R1
831A	10D0		CTRL $0, #$D0
831C	4193		PUTB $1, (R9)++++
831E	3300		MOVE $00, R3
8320	000A		ADDH R0, R0
8322	F041		BRA $82E2		; -> -$42(R0)

8324	95FE		CLR R5, #$FE
8326	3300		MOVE $00, R3
8328	000B		ADDH2 R0, R0
832A	3310		MOVE $20, R3
832C	421D		PUTB $2, (R1)
832E	F810		SUB R8, #$11
8330	00D6		OR R0, R13
8332	0000		HALT
8334	3310		MOVE $20, R3
8336	107C		CTRL $0, #$7C
8338	3320		MOVE $40, R3
833A	107E		CTRL $0, #$7E
833C	7400		MOVB (R0)+, R4
833E	008C		MHL R0, R8
8340	0000		HALT
8342	10D3		CTRL $0, #$D3
8344	3C06		MOVE $0C, R12
8346	0B5A		ADDH R11, R5
8348	CB14		SS R11
834A	10D0		CTRL $0, #$D0
834C	41AC		PUTB $1, (R10)
834E	3802		MOVE $04, R8
8350	10D0		CTRL $0, #$D0
8352	41AC		PUTB $1, (R10)
8354	7A10		MOVB (R1)+, R10
8356	00FE		GETB R15, $0
8358	4320		PUTB $3, (R2)+
835A	0000		HALT
835C	0078		ADD R0, R7
835E	8000		LBI R0, #$00
8360	41B9		PUTB $1, (R11)
8362	3F01		MOVE $02, R15
8364	0B5A		ADDH R11, R5
8366	C001		SLT R0, R0
8368	41AC		PUTB $1, (R10)
836A	3520		MOVE $40, R5
836C	1064		CTRL $0, #$64
836E	F041		BRA $832E		; -> -$42(R0)

8370	FCFE		SUB R12, #$FF
8372	B880		SET R8, #$80
8374	0041		DEC R0, R4
8376	B1FE		SET R1, #$FE
8378	CC02		SE R12, R0
837A	0B5A		ADDH R11, R5
837C	41B1		PUTB $1, (R11)++
837E	093F		GETA R3, $9
8380	05C0		DEC2 R5, R12
8382	0040		DEC2 R0, R4
8384	CD06		SBC R13, R0
8386	0B5A		ADDH R11, R5
8388	41CA		PUTB $1, (R12)
838A	0503		INC2 R5, R0
838C	05CB		ADDH2 R5, R12
838E	02AB		ADDH2 R2, R10
8390	F041		BRA $8350		; -> -$42(R0)

8392	F6FE		SUB R6, #$FF
8394	CD05		SBS R13, R0
8396	0B5A		ADDH R11, R5
8398	41D2		PUTB $1, (R13)+++
839A	0505		AND R5, R0
839C	05CB		ADDH2 R5, R12
839E	02B8		ADD R2, R11
83A0	F041		BRA $8360		; -> -$42(R0)

83A2	F6FE		SUB R6, #$FF
83A4	CD04		SS R13
83A6	0B5A		ADDH R11, R5
83A8	41DA		PUTB $1, (R13)
83AA	0504		MOVE R5, R0
83AC	05CB		ADDH2 R5, R12
83AE	02B5		AND R2, R11
83B0	F041		BRA $8370		; -> -$42(R0)

83B2	F6FE		SUB R6, #$FF
83B4	CD03		SZ R13
83B6	0B5A		ADDH R11, R5
83B8	41E5		PUTB $1, (R14)--
83BA	093F		GETA R3, $9
83BC	05C0		DEC2 R5, R12
83BE	0040		DEC2 R0, R4
83C0	0505		AND R5, R0
83C2	05CB		ADDH2 R5, R12
83C4	02C5		AND R2, R12
83C6	F041		BRA $8386		; -> -$42(R0)

83C8	F6FE		SUB R6, #$FF
83CA	CD01		SLT R13, R0
83CC	0B5A		ADDH R11, R5
83CE	41F0		PUTB $1, (R15)+
83D0	093F		GETA R3, $9
83D2	05C0		DEC2 R5, R12
83D4	0040		DEC2 R0, R4
83D6	0505		AND R5, R0
83D8	05CB		ADDH2 R5, R12
83DA	02C8		ADD R2, R12
83DC	F041		BRA $839C		; -> -$42(R0)

83DE	F6FE		SUB R6, #$FF
83E0	093F		GETA R3, $9
83E2	05C0		DEC2 R5, R12
83E4	0040		DEC2 R0, R4
83E6	0506		OR R5, R0
83E8	05CB		ADDH2 R5, R12
83EA	02CB		ADDH2 R2, R12
83EC	3C09		MOVE $12, R12
83EE	0BB4		MOVE R11, R11
83F0	3A10		MOVE $20, R10
83F2	0BA1		DEC R11, R10
83F4	F08F		BRA $8366		; -> -$90(R0)

83F6	EEFE		
83F8	3510		MOVE $20, R5
83FA	0FC6		OR R15, R12
83FC	7350		MOVB (R5)+, R3
83FE	0233		INC2 R2, R3
8400	1010		CTRL $0, #$10
8402	E2F9		
8404	5010		MOVE (R1)', R0
8406	FA10		SUB R10, #$11
8408	2020		JMP ($0040)

840A	420B		PUTB $2, (R0)
840C	9450		CLR R4, #$50
840E	0000		HALT
8410	391C		MOVE $38, R9
8412	0B58		ADD R11, R5
8414	4215		PUTB $2, (R1)--
8416	3808		MOVE $10, R8
8418	0BA3		INC2 R11, R10
841A	3BE2		MOVE $1C4, R11
841C	FB20		SUB R11, #$21
841E	70BC		MOVB (R11), R0
8420	E300		
8422	3C00		MOVE $00, R12
8424	0B5A		ADDH R11, R5
8426	F00B		BRA $841C		; -> -$0C(R0)

8428	E6FE		
842A	3300		MOVE $00, R3
842C	0005		AND R0, R0
842E	F800		SUB R8, #$01
8430	5004		MOVE (R0)~, R0
8432	0010		DEC2 R0, R1
8434	D110		MOVE R1, (R1)'
8436	D3F0		MOVE R3, (R15)'
8438	420B		PUTB $2, (R0)
843A	6000		MOVB R0, (R0)+
843C	7E00		MOVB (R0)+, R14
843E	7100		MOVB (R0)+, R1
8440	1000		CTRL $0, #$00
8442	7E00		MOVB (R0)+, R14
8444	7000		MOVB (R0)+, R0
8446	6000		MOVB R0, (R0)+
8448	6000		MOVB R0, (R0)+
844A	2200		MOVE R2, $00
844C	2E00		MOVE R14, $00
844E	1000		CTRL $0, #$00
8450	2000		JMP ($0000)

8452	300C		MOVE $18, R0
8454	0C5C		MHL R12, R5
8456	3520		MOVE $40, R5
8458	0EA2		INC R14, R10
845A	C500		SLE R5, R0
845C	0EA4		MOVE R14, R10
845E	C001		SLT R0, R0
8460	425B		PUTB $2, (R5)
8462	F147		SUB R1, #$48
8464	EEFE		
8466	3520		MOVE $40, R5
8468	0EA2		INC R14, R10
846A	EDFF		STAT R15, $D
846C	0042		INC R0, R4
846E	3F35		MOVE $6A, R15
8470	200E		JMP ($001C)

8472	A0B3		BRA $8528		; $B4(R0)

8474	2007		JMP ($000E)

8476	3420		MOVE $40, R4
8478	0EA2		INC R14, R10
847A	F147		SUB R1, #$48
847C	EEFE		
847E	3520		MOVE $40, R5
8480	0EA2		INC R14, R10
8482	0C01		DEC R12, R0
8484	0EA4		MOVE R14, R10
8486	0EDB		ADDH2 R14, R13
8488	B012		SET R0, #$12
848A	0042		INC R0, R4
848C	4A42		PUTB $A, (R4)+++
848E	5242		MOVE (R4)+', R2
8490	4A42		PUTB $A, (R4)+++
8492	4A00		PUTB $A, (R0)+
8494	F143		SUB R1, #$44
8496	B0FE		SET R0, #$FE
8498	C087		SBSH R0, R8
849A	4259		PUTB $2, (R5)
849C	F143		SUB R1, #$44
849E	9AFE		CLR R10, #$FE
84A0	F042		BRA $845F		; -> -$43(R0)

84A2	54FE		MOVE (R15), R4
84A4	F143		SUB R1, #$44
84A6	80FE		LBI R0, #$FE
84A8	0C01		DEC R12, R0
84AA	0EA4		MOVE R14, R10
84AC	0DBB		ADDH2 R13, R11
84AE	B320		SET R3, #$20
84B0	01FE		GETB R15, $1
84B2	3420		MOVE $40, R4
84B4	0EA2		INC R14, R10
84B6	0928		ADD R9, R2
84B8	0FC0		DEC2 R15, R12
84BA	0000		HALT
84BC	3C08		MOVE $10, R12
84BE	0FC2		INC R15, R12
84C0	ECD3		
84C2	0042		INC R0, R4
84C4	67ED		MOVB R7, (R14)
84C6	E200		
84C8	426D		PUTB $2, (R6)
84CA	3C04		MOVE $08, R12
84CC	0FC2		INC R15, R12
84CE	2C00		MOVE R12, $00
84D0	0FC0		DEC2 R15, R12
84D2	00B3		INC2 R0, R11
84D4	2001		JMP ($0002)

84D6	F042		BRA $8495		; -> -$43(R0)

84D8	C9FE		SNBC R9, R15
84DA	EDC3		
84DC	0042		INC R0, R4
84DE	763C		MOVB (R3), R6
84E0	000D		MLH R0, R0
84E2	BB0C		SET R11, #$0C
84E4	000D		MLH R0, R0
84E6	BC0E		SET R12, #$0E
84E8	B6F0		SET R6, #$F0
84EA	427D		PUTB $2, (R7)
84EC	EDC2		
84EE	0042		INC R0, R4
84F0	8C3C		LBI R12, #$3C
84F2	000D		MLH R0, R0
84F4	BB3C		SET R11, #$3C
84F6	040D		MLH R4, R0
84F8	BCFE		SET R12, #$FE
84FA	2C00		MOVE R12, $00
84FC	0FC0		DEC2 R15, R12
84FE	00B3		INC2 R0, R11
8500	2001		JMP ($0002)

8502	B012		SET R0, #$12
8504	0042		INC R0, R4
8506	8743		LBI R7, #$43
8508	8042		LBI R0, #$42
850A	8742		LBI R7, #$42
850C	8700		LBI R7, #$00
850E	0C01		DEC R12, R0
8510	0FC1		DEC R15, R12
8512	0DBB		ADDH2 R13, R11
8514	F042		BRA $84D3		; -> -$43(R0)

8516	C9FE		SNBC R9, R15
8518	3300		MOVE $00, R3
851A	0002		INC R0, R0
851C	8000		LBI R0, #$00
851E	0043		INC2 R0, R4
8520	BFFE		SET R15, #$FE
8522	2042		JMP ($0084)

8524	9A80		CLR R10, #$80
8526	0000		HALT
8528	43BE		PUTB $3, (R11)
852A	2842		MOVE R8, $84
852C	AE09		ADD R14, #$0A
852E	010F		GETA R0, $1
8530	C300		SLE R3, R0
8532	FFFE		SUB R15, #$FF
8534	2C00		MOVE R12, $00
8536	0FC0		DEC2 R15, R12
8538	00B3		INC2 R0, R11
853A	2002		JMP ($0004)

853C	F143		SUB R1, #$44
853E	80FE		LBI R0, #$FE
8540	0C01		DEC R12, R0
8542	0FC1		DEC R15, R12
8544	0DBB		ADDH2 R13, R11
8546	ED4B		
8548	0042		INC R0, R4
854A	ACB3		ADD R12, #$B4
854C	2001		JMP ($0002)

854E	F143		SUB R1, #$44
8550	80FE		LBI R0, #$FE
8552	0C01		DEC R12, R0
8554	0FC3		INC2 R15, R12
8556	0DBB		ADDH2 R13, R11
8558	F042		BRA $8517		; -> -$43(R0)

855A	C9FE		SNBC R9, R15
855C	3CE7		MOVE $1CE, R12
855E	0FC0		DEC2 R15, R12
8560	2C00		MOVE R12, $00
8562	0FC7		XOR R15, R12
8564	042C		MHL R4, R2
8566	000F		GETA R0, $0
8568	C805		SBS R8, R0
856A	2C00		MOVE R12, $00
856C	0FC2		INC R15, R12
856E	062C		MHL R6, R2
8570	000F		GETA R0, $0
8572	C607		SBSH R6, R0
8574	2C00		MOVE R12, $00
8576	0FC4		MOVE R15, R12
8578	0809		SUB R8, R0
857A	1F0F		CTRL $F, #$0F
857C	C900		SLE R9, R0
857E	0035		AND R0, R3
8580	000F		GETA R0, $0
8582	C124		SS R1
8584	000F		GETA R0, $0
8586	C909		SGE R9, R0
8588	B320		SET R3, #$20
858A	0AF8		ADD R10, R15
858C	2000		JMP ($0000)

858E	F042		BRA $854D		; -> -$43(R0)

8590	C9FE		SNBC R9, R15
8592	0F10		DEC2 R15, R1
8594	0EA4		MOVE R14, R10
8596	0EDB		ADDH2 R14, R13
8598	C084		SS R0
859A	42D0		PUTB $2, (R13)+
859C	3420		MOVE $40, R4
859E	0EA2		INC R14, R10
85A0	300E		MOVE $1C, R0
85A2	0C5C		MHL R12, R5
85A4	300C		MOVE $18, R0
85A6	0FB8		ADD R15, R11
85A8	3510		MOVE $20, R5
85AA	0DB9		SUB R13, R11
85AC	7801		MOVB (R0)++, R8
85AE	1442		CTRL $4, #$42
85B0	DEFE		MOVE R14, (R15)
85B2	7540		MOVB (R4)+, R5
85B4	0476		OR R4, R7
85B6	4006		PUTB $0, (R0)---
85B8	F042		BRA $8577		; -> -$43(R0)

85BA	E1FE		
85BC	7540		MOVB (R4)+, R5
85BE	2476		MOVE R4, $EC
85C0	401C		PUTB $0, (R1)
85C2	1C00		CTRL $C, #$00
85C4	0FBE		GETB R11, $F
85C6	141C		CTRL $4, #$1C
85C8	000F		GETA R0, $0
85CA	BF02		SET R15, #$02
85CC	3520		MOVE $40, R5
85CE	0B65		AND R11, R6
85D0	EA10		
85D2	0642		INC R6, R4
85D4	EFE8		
85D6	1306		CTRL $3, #$06
85D8	42EF		PUTB $2, (R14)
85DA	3C02		MOVE $04, R12
85DC	0FBF		GETA R11, $F
85DE	7510		MOVB (R1)+, R5
85E0	1635		CTRL $6, #$35
85E2	200E		JMP ($001C)

85E4	A2FE		ADD R2, #$FF
85E6	ED6B		
85E8	0042		INC R0, R4
85EA	F9B3		SUB R9, #$B4
85EC	2001		JMP ($0002)

85EE	F042		BRA $85AD		; -> -$43(R0)

85F0	F3FE		SUB R3, #$FF
85F2	B012		SET R0, #$12
85F4	0042		INC R0, R4
85F6	FF43		SUB R15, #$44
85F8	7843		MOVB (R4)++++, R8
85FA	1B42		CTRL $B, #$42
85FC	FF00		SUB R15, #$01
85FE	ED3F		STAT R3, $D
8600	0043		INC2 R0, R4
8602	78B2		MOVB (R11)+++, R8
8604	0001		DEC R0, R0
8606	B320		SET R3, #$20
8608	02FE		GETB R15, $2
860A	FA10		SUB R10, #$11
860C	4010		PUTB $0, (R1)+
860E	430D		PUTB $3, (R0)
8610	3801		MOVE $02, R8
8612	0FBE		GETB R11, $F
8614	8FE0		LBI R15, #$E0
8616	F13B		SUB R1, #$3C
8618	C4FE		SNBC R4, R15
861A	CD02		SE R13, R0
861C	0FBF		GETA R11, $F
861E	4312		PUTB $3, (R1)+++
8620	6C00		MOVB R12, (R0)+
8622	0000		HALT
8624	7310		MOVB (R1)+, R3
8626	01B3		INC2 R1, R11
8628	2001		JMP ($0002)

862A	3700		MOVE $00, R7
862C	0EDB		ADDH2 R14, R13
862E	C001		SLT R0, R0
8630	4305		PUTB $3, (R0)--
8632	F042		BRA $85F1		; -> -$43(R0)

8634	F3FE		SUB R3, #$FF
8636	F143		SUB R1, #$44
8638	B0FE		SET R0, #$FE
863A	C087		SBSH R0, R8
863C	4321		PUTB $3, (R2)++
863E	F043		BRA $85FC		; -> -$44(R0)

8640	78FE		MOVB (R15), R8
8642	EDE7		
8644	0043		INC2 R0, R4
8646	3CB3		MOVE $166, R12
8648	2001		JMP ($0002)

864A	0C01		DEC R12, R0
864C	0DBB		ADDH2 R13, R11
864E	0EDB		ADDH2 R14, R13
8650	B012		SET R0, #$12
8652	0043		INC2 R0, R4
8654	2E43		MOVE R14, $86
8656	8043		LBI R0, #$43
8658	9A43		CLR R10, #$43
865A	2E00		MOVE R14, $00
865C	3610		MOVE $20, R6
865E	0DBB		ADDH2 R13, R11
8660	C0A0		SLE R0, R10
8662	4335		PUTB $3, (R3)--
8664	FA10		SUB R10, #$11
8666	4008		PUTB $0, (R0)
8668	42F3		PUTB $2, (R15)++++
866A	3801		MOVE $02, R8
866C	0FBE		GETB R11, $F
866E	8FE0		LBI R15, #$E0
8670	F13B		SUB R1, #$3C
8672	C4FE		SNBC R4, R15
8674	F042		BRA $8633		; -> -$43(R0)

8676	F3FE		SUB R3, #$FF
8678	3300		MOVE $00, R3
867A	0003		INC2 R0, R0
867C	8000		LBI R0, #$00
867E	0002		INC R0, R0
8680	A3FE		ADD R3, #$FF
8682	2843		MOVE R8, $86
8684	5BB3		MOVE (R11)++, R11
8686	2003		JMP ($0006)

8688	0C01		DEC R12, R0
868A	0DBB		ADDH2 R13, R11
868C	0EDB		ADDH2 R14, R13
868E	B012		SET R0, #$12
8690	0043		INC2 R0, R4
8692	4D43		PUTB $D, (R4)++++
8694	8043		LBI R0, #$43
8696	9A43		CLR R10, #$43
8698	4D00		PUTB $D, (R0)+
869A	3510		MOVE $20, R5
869C	0DB9		SUB R13, R11
869E	7801		MOVB (R0)++, R8
86A0	1443		CTRL $4, #$43
86A2	55FE		MOVE (R15), R5
86A4	7510		MOVB (R1)+, R5
86A6	04F0		DEC2 R4, R15
86A8	4357		PUTB $3, (R5)----
86AA	7510		MOVB (R1)+, R5
86AC	24FE		MOVE R4, $1FC
86AE	3710		MOVE $20, R7
86B0	0EDB		ADDH2 R14, R13
86B2	F043		BRA $8670		; -> -$44(R0)

86B4	2EFE		MOVE R14, $1FC
86B6	3300		MOVE $00, R3
86B8	0004		NOP
86BA	8000		LBI R0, #$00
86BC	0001		DEC R0, R0
86BE	DDFE		MOVE R13, (R15)
86C0	2843		MOVE R8, $86
86C2	78B3		MOVB (R11)++++, R8
86C4	2004		JMP ($0008)

86C6	0C01		DEC R12, R0
86C8	0DBB		ADDH2 R13, R11
86CA	0EDB		ADDH2 R14, R13
86CC	B012		SET R0, #$12
86CE	0043		INC2 R0, R4
86D0	6C43		MOVB R12, (R4)++++
86D2	8043		LBI R0, #$43
86D4	9A43		CLR R10, #$43
86D6	6C00		MOVB R12, (R0)+
86D8	3801		MOVE $02, R8
86DA	0FBE		GETB R11, $F
86DC	42F3		PUTB $2, (R15)++++
86DE	F13B		SUB R1, #$3C
86E0	C4FE		SNBC R4, R15
86E2	0F10		DEC2 R15, R1
86E4	0DBB		ADDH2 R13, R11
86E6	0EDB		ADDH2 R14, R13
86E8	C001		SLT R0, R0
86EA	436F		PUTB $3, (R6)
86EC	F042		BRA $86AB		; -> -$43(R0)

86EE	F3FE		SUB R3, #$FF
86F0	3420		MOVE $40, R4
86F2	0EA2		INC R14, R10
86F4	3520		MOVE $40, R5
86F6	0DB9		SUB R13, R11
86F8	B410		SET R4, #$10
86FA	1630		CTRL $6, #$30
86FC	0E0F		GETA R0, $E
86FE	B8FE		SET R8, #$FE
8700	FB00		SUB R11, #$01
8702	80F9		LBI R0, #$F9
8704	7070		MOVB (R7)+, R0
8706	B012		SET R0, #$12
8708	0043		INC2 R0, R4
870A	8943		LBI R9, #$43
870C	8D43		LBI R13, #$43
870E	8943		LBI R9, #$43
8710	8900		LBI R9, #$00
8712	3470		MOVE $E0, R4
8714	0DBB		ADDH2 R13, R11
8716	FC00		SUB R12, #$01
8718	00FE		GETB R15, $0
871A	3380		MOVE $100, R3
871C	000A		ADDH R0, R0
871E	F580		SUB R5, #$81
8720	702C		MOVB (R2), R0
8722	000E		GETB R0, $0
8724	D900		MOVE R9, (R0)'
8726	3FF0		MOVE $1E0, R15
8728	0ED9		SUB R14, R13
872A	3670		MOVE $E0, R6
872C	0ED8		ADD R14, R13
872E	B320		SET R3, #$20
8730	01F0		DEC2 R1, R15
8732	4383		PUTB $3, (R8)++++
8734	300C		MOVE $18, R0
8736	0FB2		INC R15, R11
8738	FB10		SUB R11, #$11
873A	20F1		JMP ($01E2)

873C	83E4		LBI R3, #$E4
873E	3410		MOVE $20, R4
8740	0FB4		MOVE R15, R11
8742	3510		MOVE $20, R5
8744	0DB2		INC R13, R11
8746	DC00		MOVE R12, (R0)'
8748	0043		INC2 R0, R4
874A	AE79		ADD R14, #$7A
874C	8000		LBI R0, #$00
874E	43AE		PUTB $3, (R10)
8750	3410		MOVE $20, R4
8752	0EB4		MOVE R14, R11
8754	3018		MOVE $30, R0
8756	0EB0		DEC2 R14, R11
8758	F12F		SUB R1, #$30
875A	E2FE		
875C	300E		MOVE $1C, R0
875E	0FB2		INC R15, R11
8760	EC5C		
8762	0143		INC2 R1, R4
8764	B8EC		SET R8, #$EC
8766	FF01		SUB R15, #$02
8768	43BC		PUTB $3, (R11)
876A	ED5C		
876C	0243		INC2 R2, R4
876E	BCFE		SET R12, #$FE
8770	3300		MOVE $00, R3
8772	0002		INC R0, R0
8774	F880		SUB R8, #$81
8776	00FE		GETB R15, $0
8778	FC80		SUB R12, #$81
877A	00FE		GETB R15, $0
877C	D5C3		MOVE R5, (R12)++
877E	D7C4		MOVE R7, (R12)~
8780	DDFF		MOVE R13, (R15)
8782	0043		INC2 R0, R4
8784	C6F1		SLT R6, R15
8786	3BC2		MOVE $184, R11
8788	F044		BRA $8745		; -> -$45(R0)

878A	85FE		LBI R5, #$FE
878C	3C00		MOVE $00, R12
878E	0DAA		ADDH R13, R10
8790	3C03		MOVE $06, R12
8792	0F7F		GETA R7, $F
8794	3B80		MOVE $100, R11
8796	0DA8		ADD R13, R10
8798	DC6B		MOVE R12, (R6)
879A	0043		INC2 R0, R4
879C	EDDC		
879E	5E00		MOVE (R0)', R14
87A0	43ED		PUTB $3, (R14)
87A2	3520		MOVE $40, R5
87A4	0B65		AND R11, R6
87A6	F10B		SUB R1, #$0C
87A8	D6FE		MOVE R6, (R15)
87AA	F13B		SUB R1, #$3C
87AC	C0FE		SNBC R0, R15
87AE	3908		MOVE $10, R9
87B0	0BA3		INC2 R11, R10
87B2	4493		PUTB $4, (R9)++++
87B4	3980		MOVE $100, R9
87B6	0DA8		ADD R13, R10
87B8	43ED		PUTB $3, (R14)
87BA	0C00		DEC2 R12, R0
87BC	0F7E		GETB R7, $F
87BE	0DAA		ADDH R13, R10
87C0	3E02		MOVE $04, R14
87C2	0F7E		GETB R7, $F
87C4	3C03		MOVE $06, R12
87C6	0F7F		GETA R7, $F
87C8	3E03		MOVE $06, R14
87CA	0F7F		GETA R7, $F
87CC	0D00		DEC2 R13, R0
87CE	0F7E		GETB R7, $F
87D0	0F7F		GETA R7, $F
87D2	0043		INC2 R0, R4
87D4	E43C		
87D6	000F		GETA R0, $0
87D8	7EFE		MOVB (R15), R14
87DA	3C6B		MOVE $D6, R12
87DC	0F80		DEC2 R15, R8
87DE	0903		INC2 R9, R0
87E0	0F81		DEC R15, R8
87E2	0000		HALT
87E4	3C12		MOVE $24, R12
87E6	0F82		INC R15, R8
87E8	3C01		MOVE $02, R12
87EA	0F84		MOVE R15, R8
87EC	3C00		MOVE $00, R12
87EE	0F86		OR R15, R8
87F0	DCFF		MOVE R12, (R15)
87F2	0044		RET R4

87F4	091C		MHL R9, R1
87F6	000F		GETA R0, $0
87F8	8000		LBI R0, #$00
87FA	DC6B		MOVE R12, (R6)
87FC	0044		RET R4

87FE	05DC		MHL R5, R13
8800	3600		MOVE $00, R6
8802	4405		PUTB $4, (R0)--
8804	DD5E		MOVE R13, (R5)
8806	0044		RET R4

8808	09FE		GETB R15, $9
880A	7310		MOVB (R1)+, R3
880C	013C		MHL R1, R3
880E	FF0F		SUB R15, #$10
8810	86FE		LBI R6, #$FE
8812	FB70		SUB R11, #$71
8814	1035		CTRL $0, #$35
8816	200D		JMP ($001A)

8818	B9B5		SET R9, #$B5
881A	3004		MOVE $08, R0
881C	FB40		SUB R11, #$41
881E	30B6		MOVE $16C, R0
8820	4006		PUTB $0, (R0)---
8822	B510		SET R5, #$10
8824	1638		CTRL $6, #$38
8826	100D		CTRL $0, #$0D
8828	BF44		SET R15, #$44
882A	2CFE		MOVE R12, $1FC
882C	3B10		MOVE $20, R11
882E	0DBF		GETA R11, $D
8830	B550		SET R5, #$50
8832	0633		INC2 R6, R3
8834	00FF		GETA R15, $0
8836	FF36		SUB R15, #$37
8838	000D		MLH R0, R0
883A	BBFE		SET R11, #$FE
883C	FA50		SUB R10, #$51
883E	0000		HALT
8840	4424		PUTB $4, (R2)-
8842	F900		SUB R9, #$01
8844	50F0		MOVE (R15)', R0
8846	441E		PUTB $4, (R1)
8848	F800		SUB R8, #$01
884A	30FA		MOVE $1F4, R0
884C	0010		DEC2 R0, R1
884E	403B		PUTB $0, (R3)
8850	C4FE		SNBC R4, R15
8852	B400		SET R4, #$00
8854	16F0		CTRL $6, #$F0
8856	4478		PUTB $4, (R7)
8858	3560		MOVE $C0, R5
885A	0DA9		SUB R13, R10
885C	FB50		SUB R11, #$51
885E	40F9		PUTB $0, (R15)
8860	5010		MOVE (R1)', R0
8862	C004		SS R0
8864	4441		PUTB $4, (R4)++
8866	3880		MOVE $100, R8
8868	0DA8		ADD R13, R10
886A	443E		PUTB $4, (R3)
886C	CD6B		SNZ R13
886E	0F80		DEC2 R15, R8
8870	4443		PUTB $4, (R4)++++
8872	CC00		SLE R12, R0
8874	0F86		OR R15, R8
8876	4443		PUTB $4, (R4)++++
8878	3360		MOVE $C0, R3
887A	0012		INC R0, R1
887C	FA50		SUB R10, #$51
887E	6018		MOVB R0, (R1)
8880	4443		PUTB $4, (R4)++++
8882	F13B		SUB R1, #$3C
8884	C4FE		SNBC R4, R15
8886	3520		MOVE $40, R5
8888	0DA6		OR R13, R10
888A	3560		MOVE $C0, R5
888C	0DA9		SUB R13, R10
888E	3550		MOVE $A0, R5
8890	0F7E		GETB R7, $F
8892	CD6B		SNZ R13
8894	0F80		DEC2 R15, R8
8896	4453		PUTB $4, (R5)++++
8898	F950		SUB R9, #$51
889A	50FE		MOVE (R15), R0
889C	3650		MOVE $A0, R6
889E	0F81		DEC R15, R8
88A0	FA50		SUB R10, #$51
88A2	6010		MOVB R0, (R1)+
88A4	444E		PUTB $4, (R4)
88A6	F850		SUB R8, #$51
88A8	10FE		CTRL $0, #$FE
88AA	3760		MOVE $C0, R7
88AC	0F83		INC2 R15, R8
88AE	C082		SE R0, R8
88B0	4469		PUTB $4, (R6)
88B2	FA10		SUB R10, #$11
88B4	4010		PUTB $0, (R1)+
88B6	4462		PUTB $4, (R6)+++
88B8	F13B		SUB R1, #$3C
88BA	C4FE		SNBC R4, R15
88BC	3660		MOVE $C0, R6
88BE	0F83		INC2 R15, R8
88C0	F044		BRA $887D		; -> -$45(R0)

88C2	47FE		PUTB $7, (R15)
88C4	6C00		MOVB R12, (R0)+
88C6	0000		HALT
88C8	7310		MOVB (R1)+, R3
88CA	01B3		INC2 R1, R11
88CC	2001		JMP ($0002)

88CE	F044		BRA $888B		; -> -$45(R0)

88D0	55FE		MOVE (R15), R5
88D2	CC6B		SNZ R12
88D4	0F80		DEC2 R15, R8
88D6	446F		PUTB $4, (R6)
88D8	3980		MOVE $100, R9
88DA	0DA8		ADD R13, R10
88DC	4471		PUTB $4, (R7)++
88DE	FB10		SUB R11, #$11
88E0	50FE		MOVE (R15), R0
88E2	3520		MOVE $40, R5
88E4	0DB9		SUB R13, R11
88E6	B410		SET R4, #$10
88E8	16FA		CTRL $6, #$FA
88EA	4010		PUTB $0, (R1)+
88EC	383B		MOVE $76, R8
88EE	C2FE		SNBC R2, R15
88F0	FB10		SUB R11, #$11
88F2	7038		MOVB (R3), R0
88F4	020D		MLH R2, R0
88F6	BF44		SET R15, #$44
88F8	7FFE		MOVB (R15), R15
88FA	300E		MOVE $1C, R0
88FC	0C5C		MHL R12, R5
88FE	CC00		SLE R12, R0
8900	0F86		OR R15, R8
8902	448B		PUTB $4, (R8)
8904	DDFF		MOVE R13, (R15)
8906	0043		INC2 R0, R4
8908	C6FE		SNBC R6, R15
890A	3520		MOVE $40, R5
890C	0B65		AND R11, R6
890E	3B20		MOVE $40, R11
8910	0DBF		GETA R11, $D
8912	F03B		BRA $88D8		; -> -$3C(R0)

8914	D8FE		MOVE R8, (R15)
8916	3520		MOVE $40, R5
8918	0DB9		SUB R13, R11
891A	AD01		ADD R13, #$02
891C	1604		CTRL $6, #$04
891E	583B		MOVE (R3), R8
8920	C2FE		SNBC R2, R15
8922	F044		BRA $88DF		; -> -$45(R0)

8924	85FE		LBI R5, #$FE
8926	300C		MOVE $18, R0
8928	0F88		ADD R15, R8
892A	3C02		MOVE $04, R12
892C	0EEA		ADDH R14, R14
892E	3C7D		MOVE $FA, R12
8930	0EEB		ADDH2 R14, R14
8932	3980		MOVE $100, R9
8934	0DA8		ADD R13, R10
8936	449E		PUTB $4, (R9)
8938	3C4D		MOVE $9A, R12
893A	0EEB		ADDH2 R14, R14
893C	0C00		DEC2 R12, R0
893E	0F85		AND R15, R8
8940	0DAA		ADDH R13, R10
8942	3310		MOVE $20, R3
8944	0EEB		ADDH2 R14, R14
8946	3520		MOVE $40, R5
8948	0DA6		OR R13, R10
894A	3F01		MOVE $02, R15
894C	0F85		AND R15, R8
894E	C082		SE R0, R8
8950	44BB		PUTB $4, (R11)
8952	6C00		MOVB R12, (R0)+
8954	0100		DEC2 R1, R0
8956	3E01		MOVE $02, R14
8958	0EEA		ADDH R14, R14
895A	7310		MOVB (R1)+, R3
895C	01ED		MLH R1, R14
895E	7D00		MOVB (R0)+, R13
8960	44B6		PUTB $4, (R11)---
8962	7C7D		MOVB (R7), R12
8964	013E		GETB R3, $1
8966	010E		GETB R0, $1
8968	EA73		
896A	1001		CTRL $0, #$01
896C	B320		SET R3, #$20
896E	01C9		SUB R1, R12
8970	250E		MOVE R5, $1C
8972	EA44		
8974	A5FE		ADD R5, #$FF
8976	7C7D		MOVB (R7), R12
8978	0139		SUB R1, R3
897A	800D		LBI R0, #$0D
897C	A844		ADD R8, #$45
897E	C2FE		SNBC R2, R15
8980	7C5D		MOVB (R5), R12
8982	01FE		GETB R15, $1
8984	300E		MOVE $1C, R0
8986	0F88		ADD R15, R8
8988	300C		MOVE $18, R0
898A	1016		CTRL $0, #$16
898C	F147		SUB R1, #$48
898E	E4FE		
8990	0D01		DEC R13, R0
8992	0EA2		INC R14, R10
8994	0EA4		MOVE R14, R10
8996	2844		MOVE R8, $88
8998	DA3D		MOVE R10, (R3)
899A	5E0D		MOVE (R0), R14
899C	C058		SGT R0, R5
899E	3BC4		MOVE $188, R11
89A0	0C01		DEC R12, R0
89A2	0EA2		INC R14, R10
89A4	0EA0		DEC2 R14, R10
89A6	F147		SUB R1, #$48
89A8	E4FE		
89AA	0D01		DEC R13, R0
89AC	0EA2		INC R14, R10
89AE	0EA4		MOVE R14, R10
89B0	2045		JMP ($008A)

89B2	7BFE		MOVB (R15), R11
89B4	0906		OR R9, R0
89B6	0FC1		DEC R15, R12
89B8	0000		HALT
89BA	3CE7		MOVE $1CE, R12
89BC	0FC0		DEC2 R15, R12
89BE	3C40		MOVE $80, R12
89C0	0FC8		ADD R15, R12
89C2	3CE9		MOVE $1D2, R12
89C4	0ED9		SUB R14, R13
89C6	3510		MOVE $20, R5
89C8	0EA2		INC R14, R10
89CA	3320		MOVE $40, R3
89CC	0FC9		SUB R15, R12
89CE	891F		LBI R9, #$1F
89D0	0000		HALT
89D2	FEDC		SUB R14, #$DD
89D4	4E00		PUTB $E, (R0)+
89D6	44FE		PUTB $4, (R15)
89D8	DC60		MOVE R12, (R6)'
89DA	0044		RET R4

89DC	FE35		SUB R14, #$36
89DE	100E		CTRL $0, #$0E
89E0	B478		SET R4, #$78
89E2	8000		LBI R0, #$00
89E4	44FA		PUTB $4, (R15)
89E6	3C60		MOVE $C0, R12
89E8	0ED9		SUB R14, R13
89EA	3A0C		MOVE $18, R10
89EC	0FC7		XOR R15, R12
89EE	0901		DEC R9, R0
89F0	0FC5		AND R15, R12
89F2	00FF		GETA R15, $0
89F4	3510		MOVE $20, R5
89F6	0EA2		INC R14, R10
89F8	F045		BRA $89B4		; -> -$46(R0)

89FA	08FE		GETB R15, $8
89FC	3A08		MOVE $10, R10
89FE	0FC7		XOR R15, R12
8A00	9C00		CLR R12, #$00
8A02	0000		HALT
8A04	7310		MOVB (R1)+, R3
8A06	01B3		INC2 R1, R11
8A08	2001		JMP ($0002)

8A0A	0E10		DEC2 R14, R1
8A0C	0FC1		DEC R15, R12
8A0E	0EDB		ADDH2 R14, R13
8A10	C410		SLE R4, R1
8A12	0EA4		MOVE R14, R10
8A14	2045		JMP ($008A)

8A16	2ADD		MOVE R10, $1BA
8A18	7B00		MOVB (R0)+, R11
8A1A	451C		PUTB $5, (R1)
8A1C	0E10		DEC2 R14, R1
8A1E	0FC5		AND R15, R12
8A20	0EDB		ADDH2 R14, R13
8A22	8C00		LBI R12, #$00
8A24	000E		GETB R0, $0
8A26	D938		MOVE R9, (R3)
8A28	800F		LBI R0, #$0F
8A2A	C745		SBS R7, R4
8A2C	02FE		GETB R15, $2
8A2E	0E10		DEC2 R14, R1
8A30	0FC3		INC2 R15, R12
8A32	0EDB		ADDH2 R14, R13
8A34	F045		BRA $89F0		; -> -$46(R0)

8A36	00FE		GETB R15, $0
8A38	DD4B		MOVE R13, (R4)
8A3A	0045		AND R0, R4
8A3C	2639		MOVE R6, $72
8A3E	800F		LBI R0, #$0F
8A40	C745		SBS R7, R4
8A42	2AFE		MOVE R10, $1FC
8A44	3A80		MOVE $100, R10
8A46	0FC7		XOR R15, R12
8A48	F045		BRA $8A04		; -> -$46(R0)

8A4A	00FE		GETB R15, $0
8A4C	4D03		PUTB $D, (R0)++++
8A4E	0010		DEC2 R0, R1
8A50	2C20		MOVE R12, $40
8A52	4533		PUTB $5, (R3)++++
8A54	3720		MOVE $40, R7
8A56	0EDB		ADDH2 R14, R13
8A58	8D00		LBI R13, #$00
8A5A	000E		GETB R0, $0
8A5C	D928		MOVE R9, (R2)
8A5E	453B		PUTB $5, (R3)
8A60	BC7B		SET R12, #$7B
8A62	00F0		DEC2 R0, R15
8A64	453B		PUTB $5, (R3)
8A66	9C03		CLR R12, #$03
8A68	0000		HALT
8A6A	7310		MOVB (R1)+, R3
8A6C	043E		GETB R3, $4
8A6E	040F		GETA R0, $4
8A70	C23A		SNE R2, R3
8A72	020F		GETA R0, $2
8A74	C7FE		SNBC R7, R15
8A76	3410		MOVE $20, R4
8A78	0EA2		INC R14, R10
8A7A	3BC0		MOVE $180, R11
8A7C	0FC7		XOR R15, R12
8A7E	300E		MOVE $1C, R0
8A80	1016		CTRL $0, #$16
8A82	300C		MOVE $18, R0
8A84	101C		CTRL $0, #$1C
8A86	3510		MOVE $20, R5
8A88	0DB9		SUB R13, R11
8A8A	7540		MOVB (R4)+, R5
8A8C	0476		OR R4, R7
8A8E	4006		PUTB $0, (R0)---
8A90	7510		MOVB (R1)+, R5
8A92	1605		CTRL $6, #$05
8A94	0D10		DEC2 R13, R1
8A96	2245		MOVE R2, $8A
8A98	7FFE		MOVB (R15), R15
8A9A	3520		MOVE $40, R5
8A9C	0EA2		INC R14, R10
8A9E	C420		SLE R4, R2
8AA0	0EA4		MOVE R14, R10
8AA2	2045		JMP ($008A)

8AA4	73EC		MOVB (R14), R3
8AA6	7B00		MOVB (R0)+, R11
8AA8	4573		PUTB $5, (R7)++++
8AAA	8D01		LBI R13, #$01
8AAC	0010		DEC2 R0, R1
8AAE	2A20		MOVE R10, $40
8AB0	4573		PUTB $5, (R7)++++
8AB2	8D01		LBI R13, #$01
8AB4	0010		DEC2 R0, R1
8AB6	2820		MOVE R8, $40
8AB8	4573		PUTB $5, (R7)++++
8ABA	8D01		LBI R13, #$01
8ABC	0010		DEC2 R0, R1
8ABE	2320		MOVE R3, $40
8AC0	4573		PUTB $5, (R7)++++
8AC2	8D02		LBI R13, #$02
8AC4	0010		DEC2 R0, R1
8AC6	2220		MOVE R2, $40
8AC8	4573		PUTB $5, (R7)++++
8ACA	8D02		LBI R13, #$02
8ACC	0010		DEC2 R0, R1
8ACE	2520		MOVE R5, $40
8AD0	4573		PUTB $5, (R7)++++
8AD2	FA10		SUB R10, #$11
8AD4	4048		PUTB $0, (R4)
8AD6	3BC4		MOVE $188, R11
8AD8	6C00		MOVB R12, (R0)+
8ADA	0000		HALT
8ADC	7310		MOVB (R1)+, R3
8ADE	01B3		INC2 R1, R11
8AE0	2001		JMP ($0002)

8AE2	F045		BRA $8A9E		; -> -$46(R0)

8AE4	4FFE		PUTB $F, (R15)
8AE6	3420		MOVE $40, R4
8AE8	0EA2		INC R14, R10
8AEA	3520		MOVE $40, R5
8AEC	0DB9		SUB R13, R11
8AEE	B410		SET R4, #$10
8AF0	1630		CTRL $6, #$30
8AF2	0E10		DEC2 R14, R1
8AF4	1CFE		CTRL $C, #$FE
8AF6	3C97		MOVE $12E, R12
8AF8	0BB4		MOVE R11, R11
8AFA	F03B		BRA $8AC0		; -> -$3C(R0)

8AFC	CEFE		SNBC R14, R15
8AFE	4E4B		PUTB $E, (R4)
8B00	7B60		MOVB (R6)+, R11
8B02	4B7B		PUTB $B, (R7)
8B04	4E7B		PUTB $E, (R7)
8B06	607B		MOVB R0, (R7)
8B08	4F4F		PUTB $F, (R4)
8B0A	4F4F		PUTB $F, (R4)
8B0C	CC3C		SNS R12
8B0E	10D0		CTRL $0, #$D0
8B10	459A		PUTB $5, (R9)
8B12	7310		MOVB (R1)+, R3
8B14	06DC		MHL R6, R13
8B16	4000		PUTB $0, (R0)+
8B18	4593		PUTB $5, (R9)++++
8B1A	3410		MOVE $20, R4
8B1C	0FD5		AND R15, R13
8B1E	F18F		SUB R1, #$90
8B20	F4FE		SUB R4, #$FF
8B22	F045		BRA $8ADE		; -> -$46(R0)

8B24	96FE		CLR R6, #$FE
8B26	3901		MOVE $02, R9
8B28	0B6D		MLH R11, R6
8B2A	4606		PUTB $6, (R0)---
8B2C	DD40		MOVE R13, (R4)'
8B2E	0046		OR R0, R4
8B30	15F0		CTRL $5, #$F0
8B32	3BE2		MOVE $1C4, R11
8B34	3B04		MOVE $08, R11
8B36	0BA4		MOVE R11, R10
8B38	7310		MOVB (R1)+, R3
8B3A	0333		INC2 R3, R3
8B3C	7000		MOVB (R0)+, R0
8B3E	0240		DEC2 R2, R4
8B40	7000		MOVB (R0)+, R0
8B42	02FB		ADDH2 R2, R15
8B44	2846		MOVE R8, $8C
8B46	1573		CTRL $5, #$73
8B48	1002		CTRL $0, #$02
8B4A	7012		MOVB (R1)+++, R0
8B4C	0046		OR R0, R4
8B4E	1546		CTRL $5, #$46
8B50	1545		CTRL $5, #$45
8B52	AB46		ADD R11, #$47
8B54	1500		CTRL $5, #$00
8B56	F10B		SUB R1, #$0C
8B58	F2FE		SUB R2, #$FF
8B5A	DD5B		MOVE R13, (R5)
8B5C	0045		AND R0, R4
8B5E	B5F1		SET R5, #$F1
8B60	0BF2		INC R11, R15
8B62	3A04		MOVE $08, R10
8B64	0BA4		MOVE R11, R10
8B66	F045		BRA $8B22		; -> -$46(R0)

8B68	B8FE		SET R8, #$FE
8B6A	BC40		SET R12, #$40
8B6C	00B3		INC2 R0, R11
8B6E	2001		JMP ($0002)

8B70	8909		LBI R9, #$09
8B72	0000		HALT
8B74	00B3		INC2 R0, R11
8B76	200A		JMP ($0014)

8B78	DD4D		MOVE R13, (R4)
8B7A	0045		AND R0, R4
8B7C	E073		
8B7E	1001		CTRL $0, #$01
8B80	7012		MOVB (R1)+++, R0
8B82	0046		OR R0, R4
8B84	1546		CTRL $5, #$46
8B86	1545		CTRL $5, #$45
8B88	C646		SBC R6, R4
8B8A	1500		CTRL $5, #$00
8B8C	F10B		SUB R1, #$0C
8B8E	F2FE		SUB R2, #$FF
8B90	DD5B		MOVE R13, (R5)
8B92	0045		AND R0, R4
8B94	D2F1		MOVE R2, (R15)+
8B96	0BF2		INC R11, R15
8B98	DD6B		MOVE R13, (R6)
8B9A	0045		AND R0, R4
8B9C	DC73		MOVE R12, (R7)++
8B9E	1001		CTRL $0, #$01
8BA0	F045		BRA $8B5C		; -> -$46(R0)

8BA2	C0FE		SNBC R0, R15
8BA4	DC6B		MOVE R12, (R6)
8BA6	0045		AND R0, R4
8BA8	F4DD		SUB R4, #$DE
8BAA	5D00		MOVE (R0)', R13
8BAC	45F9		PUTB $5, (R15)
8BAE	BC40		SET R12, #$40
8BB0	00F1		DEC R0, R15
8BB2	0BF0		DEC2 R11, R15
8BB4	F045		BRA $8B70		; -> -$46(R0)

8BB6	E0FE		ROR3 R15
8BB8	DD5D		MOVE R13, (R5)
8BBA	0045		AND R0, R4
8BBC	F973		SUB R9, #$74
8BBE	1001		CTRL $0, #$01
8BC0	DD7E		MOVE R13, (R7)
8BC2	0045		AND R0, R4
8BC4	F033		BRA $8B92		; -> -$34(R0)

8BC6	0046		OR R0, R4
8BC8	1534		CTRL $5, #$34
8BCA	0010		DEC2 R0, R1
8BCC	6273		MOVB R2, (R7)++++
8BCE	1001		CTRL $0, #$01
8BD0	BCFE		SET R12, #$FE
8BD2	00B3		INC2 R0, R11
8BD4	2001		JMP ($0002)

8BD6	3904		MOVE $08, R9
8BD8	0BA4		MOVE R11, R10
8BDA	4611		PUTB $6, (R1)++
8BDC	F18F		SUB R1, #$90
8BDE	F8FE		SUB R8, #$FF
8BE0	DD40		MOVE R13, (R4)'
8BE2	0046		OR R0, R4
8BE4	15F0		CTRL $5, #$F0
8BE6	3BE2		MOVE $1C4, R11
8BE8	BC40		SET R12, #$40
8BEA	00F1		DEC R0, R15
8BEC	0BF0		DEC2 R11, R15
8BEE	F045		BRA $8BAA		; -> -$46(R0)

8BF0	C0FE		SNBC R0, R15
8BF2	DAF0		MOVE R10, (R15)'
8BF4	0046		OR R0, R4
8BF6	15D8		CTRL $5, #$D8
8BF8	F900		SUB R9, #$01
8BFA	4615		PUTB $6, (R1)--
8BFC	F10B		SUB R1, #$0C
8BFE	F2FE		SUB R2, #$FF
8C00	DD6B		MOVE R13, (R6)
8C02	0045		AND R0, R4
8C04	DC73		MOVE R12, (R7)++
8C06	1001		CTRL $0, #$01
8C08	F045		BRA $8BC4		; -> -$46(R0)

8C0A	C0FE		SNBC R0, R15
8C0C	C510		SLE R5, R1
8C0E	0B5B		ADDH2 R11, R5
8C10	C081		SLT R0, R8
8C12	3BE2		MOVE $1C4, R11
8C14	7B40		MOVB (R4)+, R11
8C16	007A		ADDH R0, R7
8C18	8000		LBI R0, #$00
8C1A	3A02		MOVE $04, R10
8C1C	0BA3		INC2 R11, R10
8C1E	F03B		BRA $8BE4		; -> -$3C(R0)

8C20	E2FE		
8C22	F18F		SUB R1, #$90
8C24	F6FE		SUB R6, #$FF
8C26	F045		BRA $8BE2		; -> -$46(R0)

8C28	F0FE		BRA $8B2B		; -> -$FF(R0)

8C2A	3C00		MOVE $00, R12
8C2C	0B5A		ADDH R11, R5
8C2E	F00B		BRA $8C24		; -> -$0C(R0)

8C30	E6FE		
8C32	050F		GETA R0, $5
8C34	0FA4		MOVE R15, R10
8C36	467C		PUTB $6, (R7)
8C38	F046		BRA $8BF3		; -> -$47(R0)

8C3A	21FE		MOVE R1, $1FC
8C3C	050F		GETA R0, $5
8C3E	0FA4		MOVE R15, R10
8C40	4684		PUTB $6, (R8)-
8C42	300C		MOVE $18, R0
8C44	0FBC		MHL R15, R11
8C46	301C		MOVE $38, R0
8C48	0EB0		DEC2 R14, R11
8C4A	D708		MOVE R7, (R0)
8C4C	0039		SUB R0, R3
8C4E	800F		LBI R0, #$0F
8C50	A446		ADD R4, #$47
8C52	32FE		MOVE $1FC, R2
8C54	C702		SE R7, R0
8C56	0FAC		MHL R15, R10
8C58	C700		SLE R7, R0
8C5A	0FA4		MOVE R15, R10
8C5C	301A		MOVE $34, R0
8C5E	0EBA		ADDH R14, R11
8C60	300E		MOVE $1C, R0
8C62	0FBC		MHL R15, R11
8C64	C700		SLE R7, R0
8C66	0FA4		MOVE R15, R10
8C68	C702		SE R7, R0
8C6A	0FAC		MHL R15, R10
8C6C	F046		BRA $8C27		; -> -$47(R0)

8C6E	2EFE		MOVE R14, $1FC
8C70	300C		MOVE $18, R0
8C72	0FBC		MHL R15, R11
8C74	3510		MOVE $20, R5
8C76	0EB4		MOVE R14, R11
8C78	3230		MOVE $60, R2
8C7A	0EB6		OR R14, R11
8C7C	3006		MOVE $0C, R0
8C7E	0EB0		DEC2 R14, R11
8C80	C410		SLE R4, R1
8C82	0EC2		INC R14, R12
8C84	0846		OR R8, R4
8C86	4634		PUTB $6, (R3)-
8C88	100E		CTRL $0, #$0E
8C8A	C4FE		SNBC R4, R15
8C8C	3B02		MOVE $04, R11
8C8E	0BA4		MOVE R11, R10
8C90	F830		SUB R8, #$31
8C92	10F1		CTRL $0, #$F1
8C94	23F4		MOVE R3, $1E8
8C96	F046		BRA $8C51		; -> -$47(R0)

8C98	50FE		MOVE (R15), R0
8C9A	FA10		SUB R10, #$11
8C9C	3020		MOVE $40, R0
8C9E	462E		PUTB $6, (R2)
8CA0	3CD5		MOVE $1AA, R12
8CA2	0BB4		MOVE R11, R11
8CA4	F03B		BRA $8C6A		; -> -$3C(R0)

8CA6	D0FE		JMP (R15)
8CA8	300C		MOVE $18, R0
8CAA	0FBC		MHL R15, R11
8CAC	3510		MOVE $20, R5
8CAE	0EB4		MOVE R14, R11
8CB0	3240		MOVE $80, R2
8CB2	0EB6		OR R14, R11
8CB4	3006		MOVE $0C, R0
8CB6	0EB0		DEC2 R14, R11
8CB8	FB20		SUB R11, #$21
8CBA	10F8		CTRL $0, #$F8
8CBC	2040		JMP ($0080)

8CBE	3720		MOVE $40, R7
8CC0	0EDB		ADDH2 R14, R13
8CC2	ED40		
8CC4	0046		OR R0, R4
8CC6	6B37		MOVB R11, (R3)----
8CC8	200E		JMP ($001C)

8CCA	DB37		MOVE R11, (R3)--
8CCC	400E		PUTB $0, (R0)
8CCE	DBFA		MOVE R11, (R15)
8CD0	2010		JMP ($0020)

8CD2	1846		CTRL $8, #$46
8CD4	61FE		MOVB R1, (R15)
8CD6	C410		SLE R4, R1
8CD8	0EC2		INC R14, R12
8CDA	0846		OR R8, R4
8CDC	7134		MOVB (R3)-, R1
8CDE	100E		CTRL $0, #$0E
8CE0	C4FE		SNBC R4, R15
8CE2	0907		XOR R9, R0
8CE4	0FB4		MOVE R15, R11
8CE6	0000		HALT
8CE8	3C44		MOVE $88, R12
8CEA	0FB4		MOVE R15, R11
8CEC	3440		MOVE $80, R4
8CEE	0FB5		AND R15, R11
8CF0	C70A		SNE R7, R0
8CF2	0FB4		MOVE R15, R11
8CF4	F046		BRA $8CAF		; -> -$47(R0)

8CF6	2EFE		MOVE R14, $1FC
8CF8	C220		SLE R2, R2
8CFA	0000		HALT
8CFC	0000		HALT
8CFE	0000		HALT
8D00	408E		PUTB $0, (R8)
8D02	38E3		MOVE $1C6, R8
8D04	8E38		LBI R14, #$38
8D06	E366		
8D08	4220		PUTB $2, (R2)+
8D0A	0000		HALT
8D0C	0000		HALT
8D0E	0000		HALT
8D10	411C		PUTB $1, (R1)
8D12	CCCC		SNS R12
8D14	CCCC		SNS R12
8D16	CCCC		SNS R12
8D18	300C		MOVE $18, R0
8D1A	0FCC		MHL R15, R12
8D1C	301C		MOVE $38, R0
8D1E	0EB0		DEC2 R14, R11
8D20	D708		MOVE R7, (R0)
8D22	0033		INC2 R0, R3
8D24	200F		JMP ($001E)

8D26	B4E7		SET R4, #$E7
8D28	0C00		DEC2 R12, R0
8D2A	E846		
8D2C	0046		OR R0, R4
8D2E	C6E7		SBSH R6, R14
8D30	1208		CTRL $2, #$08
8D32	E70C		
8D34	0889		SUB R8, R8
8D36	030C		MHL R3, R0
8D38	0000		HALT
8D3A	E70A		
8D3C	08E7		XOR R8, R14
8D3E	0600		DEC2 R6, R0
8D40	C001		SLT R0, R0
8D42	46C6		PUTB $6, (R12)---
8D44	8C07		LBI R12, #$07
8D46	0010		DEC2 R0, R1
8D48	8030		LBI R0, #$30
8D4A	1C0E		CTRL $C, #$0E
8D4C	B0D7		SET R0, #$D7
8D4E	0800		DEC2 R8, R0
8D50	E70C		
8D52	10ED		CTRL $0, #$ED
8D54	0010		DEC2 R0, R1
8D56	46B4		PUTB $6, (R11)-
8D58	CE00		SLE R14, R0
8D5A	0FBE		GETB R11, $F
8D5C	46DC		PUTB $6, (R13)
8D5E	F046		BRA $8D19		; -> -$47(R0)

8D60	B4FE		SET R4, #$FE
8D62	E702		
8D64	10E7		CTRL $0, #$E7
8D66	0C10		DEC2 R12, R1
8D68	B801		SET R8, #$01
8D6A	0B46		OR R11, R4
8D6C	BCFE		SET R12, #$FE
8D6E	E702		
8D70	00E7		XOR R0, R14
8D72	0C00		DEC2 R12, R0
8D74	E708		
8D76	10FE		CTRL $0, #$FE
8D78	8220		LBI R2, #$20
8D7A	0900		DEC2 R9, R0
8D7C	00C0		DEC2 R0, R12
8D7E	0146		OR R1, R4
8D80	B1E7		SET R1, #$E7
8D82	0800		DEC2 R8, R0
8D84	301A		MOVE $34, R0
8D86	0EBA		ADDH R14, R11
8D88	B00E		SET R0, #$0E
8D8A	18FE		CTRL $8, #$FE
8D8C	3510		MOVE $20, R5
8D8E	0EB4		MOVE R14, R11
8D90	DC00		MOVE R12, (R0)'
8D92	0046		OR R0, R4
8D94	D979		MOVE R9, (R7)
8D96	8000		LBI R0, #$00
8D98	46E0		PUTB $6, (R14)+
8D9A	F18F		SUB R1, #$90
8D9C	D8FE		MOVE R8, (R15)
8D9E	3510		MOVE $20, R5
8DA0	0EB4		MOVE R14, R11
8DA2	D708		MOVE R7, (R0)
8DA4	00E7		XOR R0, R14
8DA6	0200		DEC2 R2, R0
8DA8	D70C		MOVE R7, (R0)
8DAA	00F1		DEC R0, R15
8DAC	17E6		CTRL $7, #$E6
8DAE	B00E		SET R0, #$0E
8DB0	18FE		CTRL $8, #$FE
8DB2	B880		SET R8, #$80
8DB4	0046		OR R0, R4
8DB6	D7FE		MOVE R7, (R15)
8DB8	3CD3		MOVE $1A6, R12
8DBA	0BB4		MOVE R11, R11
8DBC	F03B		BRA $8D82		; -> -$3C(R0)

8DBE	D0FE		JMP (R15)
8DC0	3CD4		MOVE $1A8, R12
8DC2	0BB4		MOVE R11, R11
8DC4	F03B		BRA $8D8A		; -> -$3C(R0)

8DC6	D0FE		JMP (R15)
8DC8	3300		MOVE $00, R3
8DCA	0003		INC2 R0, R0
8DCC	8000		LBI R0, #$00
8DCE	0701		DEC R7, R0
8DD0	E1FE		
8DD2	2846		MOVE R8, $8C
8DD4	FCB3		SUB R12, #$B4
8DD6	100A		CTRL $0, #$0A
8DD8	F16B		SUB R1, #$6C
8DDA	FCFE		SUB R12, #$FF
8DDC	301C		MOVE $38, R0
8DDE	0EB0		DEC2 R14, R11
8DE0	D846		MOVE R8, (R4)-~
8DE2	0046		OR R0, R4
8DE4	FCD7		SUB R12, #$D8
8DE6	0800		DEC2 R8, R0
8DE8	D712		MOVE R7, (R1)+'
8DEA	00C7		XOR R0, R12
8DEC	0C0F		GETA R0, $C
8DEE	240C		MOVE R4, $18
8DF0	000B		ADDH2 R0, R0
8DF2	A00F		BRA $8E04		; $10(R0)

8DF4	27F0		MOVE R7, $1E0
8DF6	46FE		PUTB $6, (R15)
8DF8	3C00		MOVE $00, R12
8DFA	0BA0		DEC2 R11, R10
8DFC	F117		SUB R1, #$18
8DFE	F2FE		SUB R2, #$FF
8E00	0901		DEC R9, R0
8E02	0EE6		OR R14, R14
8E04	0000		HALT
8E06	3908		MOVE $10, R9
8E08	0B6C		MHL R11, R6
8E0A	17F8		CTRL $7, #$F8
8E0C	0901		DEC R9, R0
8E0E	0B6E		GETB R6, $B
8E10	0000		HALT
8E12	3C80		MOVE $100, R12
8E14	0BB5		AND R11, R11
8E16	F03B		BRA $8DDC		; -> -$3C(R0)

8E18	CCFE		SNBC R12, R15
8E1A	300C		MOVE $18, R0
8E1C	0C5C		MHL R12, R5
8E1E	3510		MOVE $20, R5
8E20	0EB4		MOVE R14, R11
8E22	CD00		SLE R13, R0
8E24	0EB6		OR R14, R11
8E26	471A		PUTB $7, (R1)
8E28	3500		MOVE $00, R5
8E2A	0EBE		GETB R11, $E
8E2C	3002		MOVE $04, R0
8E2E	0EBA		ADDH R14, R11
8E30	F047		BRA $8DEA		; -> -$48(R0)

8E32	1CFE		CTRL $C, #$FE
8E34	3200		MOVE $00, R2
8E36	0EB6		OR R14, R11
8E38	3006		MOVE $0C, R0
8E3A	0EB0		DEC2 R14, R11
8E3C	3520		MOVE $40, R5
8E3E	0DB9		SUB R13, R11
8E40	B530		SET R5, #$30
8E42	16F8		CTRL $6, #$F8
8E44	3000		MOVE $00, R0
8E46	B540		SET R5, #$40
8E48	24B6		MOVE R4, $16C
8E4A	401C		PUTB $0, (R1)
8E4C	FA30		SUB R10, #$31
8E4E	4000		PUTB $0, (R0)+
8E50	8FE0		LBI R15, #$E0
8E52	B430		SET R4, #$30
8E54	16F9		CTRL $6, #$F9
8E56	3000		MOVE $00, R0
8E58	FB20		SUB R11, #$21
8E5A	3064		MOVE $C8, R0
8E5C	0000		HALT
8E5E	000C		MHL R0, R0
8E60	010C		MHL R1, R0
8E62	600D		MOVB R0, (R0)
8E64	B730		SET R7, #$30
8E66	0E0C		MHL R14, R0
8E68	5CFE		MOVE (R15), R12
8E6A	FB00		SUB R11, #$01
8E6C	1030		CTRL $0, #$30
8E6E	1C0E		CTRL $C, #$0E
8E70	B0D7		SET R0, #$D7
8E72	0800		DEC2 R8, R0
8E74	301A		MOVE $34, R0
8E76	0EBA		ADDH R14, R11
8E78	7B80		MOVB (R8)+, R11
8E7A	00FB		ADDH2 R0, R15
8E7C	1000		CTRL $0, #$00
8E7E	FC80		SUB R12, #$81
8E80	0000		HALT
8E82	0000		HALT
8E84	0000		HALT
8E86	0000		HALT
8E88	0000		HALT
8E8A	0000		HALT
8E8C	0000		HALT
8E8E	0000		HALT
8E90	0000		HALT
8E92	0000		HALT
8E94	0000		HALT
8E96	0000		HALT
8E98	0000		HALT
8E9A	0000		HALT
8E9C	0000		HALT
8E9E	0000		HALT
8EA0	0000		HALT
8EA2	0000		HALT
8EA4	0000		HALT
8EA6	0000		HALT
8EA8	0000		HALT
8EAA	0000		HALT
8EAC	0000		HALT
8EAE	0000		HALT
8EB0	0000		HALT
8EB2	0000		HALT
8EB4	0000		HALT
8EB6	0000		HALT
8EB8	0000		HALT
8EBA	0000		HALT
8EBC	0000		HALT
8EBE	0000		HALT
8EC0	0000		HALT
8EC2	0000		HALT
8EC4	0000		HALT
8EC6	0000		HALT
8EC8	0000		HALT
8ECA	0000		HALT
8ECC	0000		HALT
8ECE	0000		HALT
8ED0	0000		HALT
8ED2	0000		HALT
8ED4	0000		HALT
8ED6	0000		HALT
8ED8	0000		HALT
8EDA	0000		HALT
8EDC	0000		HALT
8EDE	0000		HALT
8EE0	0000		HALT
8EE2	0000		HALT
8EE4	0000		HALT
8EE6	0000		HALT
8EE8	0000		HALT
8EEA	0000		HALT
8EEC	0000		HALT
8EEE	0000		HALT
8EF0	0000		HALT
8EF2	0000		HALT
8EF4	0000		HALT
8EF6	0000		HALT
8EF8	0000		HALT
8EFA	0000		HALT
8EFC	0000		HALT
8EFE	0000		HALT
8F00	0000		HALT
8F02	0000		HALT
8F04	0000		HALT
8F06	0000		HALT
8F08	0000		HALT
8F0A	0000		HALT
8F0C	0000		HALT
8F0E	0000		HALT
8F10	0000		HALT
8F12	0000		HALT
8F14	0000		HALT
8F16	0000		HALT
8F18	0000		HALT
8F1A	0000		HALT
8F1C	0000		HALT
8F1E	0000		HALT
8F20	0000		HALT
8F22	0000		HALT
8F24	0000		HALT
8F26	0000		HALT
8F28	0000		HALT
8F2A	0000		HALT
8F2C	0000		HALT
8F2E	0000		HALT
8F30	0000		HALT
8F32	0000		HALT
8F34	0000		HALT
8F36	0000		HALT
8F38	0000		HALT
8F3A	0000		HALT
8F3C	0000		HALT
8F3E	0000		HALT
8F40	0000		HALT
8F42	0000		HALT
8F44	0000		HALT
8F46	0000		HALT
8F48	0000		HALT
8F4A	0000		HALT
8F4C	0000		HALT
8F4E	0000		HALT
8F50	0000		HALT
8F52	0000		HALT
8F54	0000		HALT
8F56	0000		HALT
8F58	0000		HALT
8F5A	0000		HALT
8F5C	0000		HALT
8F5E	0000		HALT
8F60	0000		HALT
8F62	0000		HALT
8F64	0000		HALT
8F66	0000		HALT
8F68	0000		HALT
8F6A	0000		HALT
8F6C	0000		HALT
8F6E	0000		HALT
8F70	0000		HALT
8F72	0000		HALT
8F74	0000		HALT
8F76	0000		HALT
8F78	0000		HALT
8F7A	0000		HALT
8F7C	0000		HALT
8F7E	0000		HALT
8F80	0000		HALT
8F82	0000		HALT
8F84	0000		HALT
8F86	0000		HALT
8F88	0000		HALT
8F8A	0000		HALT
8F8C	0000		HALT
8F8E	0000		HALT
8F90	0000		HALT
8F92	0000		HALT
8F94	0000		HALT
8F96	0000		HALT
8F98	0000		HALT
8F9A	0000		HALT
8F9C	0000		HALT
8F9E	0000		HALT
8FA0	F047		BRA $8F5A		; -> -$48(R0)

8FA2	3500		MOVE $00, R5
8FA4	F047		BRA $8F5E		; -> -$48(R0)

8FA6	0D00		DEC2 R13, R0
8FA8	F046		BRA $8F63		; -> -$47(R0)

8FAA	FC00		SUB R12, #$01
8FAC	F046		BRA $8F67		; -> -$47(R0)

8FAE	E400		
8FB0	F046		BRA $8F6B		; -> -$47(R0)

8FB2	8C00		LBI R12, #$00
8FB4	F046		BRA $8F6F		; -> -$47(R0)

8FB6	5400		MOVE (R0)', R4
8FB8	F046		BRA $8F73		; -> -$47(R0)

8FBA	3800		MOVE $00, R8
8FBC	F046		BRA $8F77		; -> -$47(R0)

8FBE	1E00		CTRL $E, #$00
8FC0	F046		BRA $8F7B		; -> -$47(R0)

8FC2	1900		CTRL $9, #$00
8FC4	F045		BRA $8F80		; -> -$46(R0)

8FC6	8600		LBI R6, #$00
8FC8	F045		BRA $8F84		; -> -$46(R0)

8FCA	4100		PUTB $1, (R0)+
8FCC	F044		BRA $8F89		; -> -$45(R0)

8FCE	C400		SLE R4, R0
8FD0	F043		BRA $8F8E		; -> -$44(R0)

8FD2	D500		MOVE R5, (R0)'
8FD4	F043		BRA $8F92		; -> -$44(R0)

8FD6	C600		SLE R6, R0
8FD8	F043		BRA $8F96		; -> -$44(R0)

8FDA	C000		SLE R0, R0
8FDC	F042		BRA $8F9B		; -> -$43(R0)

8FDE	D200		MOVE R2, (R0)'
8FE0	F042		BRA $8F9F		; -> -$43(R0)

8FE2	2900		MOVE R9, $00
8FE4	F040		BRA $8FA5		; -> -$41(R0)

8FE6	7300		MOVB (R0)+, R3
8FE8	F040		BRA $8FA9		; -> -$41(R0)

8FEA	6500		MOVB R5, (R0)+
8FEC	F03F		BRA $8FAE		; -> -$40(R0)

8FEE	E300		
8FF0	F03F		BRA $8FB2		; -> -$40(R0)

8FF2	DC00		MOVE R12, (R0)'
8FF4	F03F		BRA $8FB6		; -> -$40(R0)

8FF6	D400		MOVE R4, (R0)'
8FF8	F03C		BRA $8FBD		; -> -$3D(R0)

8FFA	0000		HALT
8FFC	0415		AND R4, R1
8FFE	B070		SET R0, #$70
9000	FB50		SUB R11, #$51
9002	10FB		CTRL $0, #$FB
9004	6020		MOVB R0, (R2)+
9006	FB70		SUB R11, #$71
9008	80D5		LBI R0, #$D5
900A	0002		INC R0, R0
900C	C001		SLT R0, R0
900E	480B		PUTB $8, (R0)
9010	4901		PUTB $9, (R0)++
9012	0200		DEC2 R2, R0
9014	FFFE		SUB R15, #$FF
9016	7C00		MOVB (R0)+, R12
9018	0C75		AND R12, R7
901A	2000		JMP ($0000)

901C	B320		SET R3, #$20
901E	01F7		XOR R1, R15
9020	2000		JMP ($0000)

9022	F620		SUB R6, #$21
9024	0033		INC2 R0, R3
9026	0000		HALT
9028	44F8		PUTB $4, (R15)
902A	0020		DEC2 R0, R2
902C	C0A0		SLE R0, R10
902E	4B1D		PUTB $B, (R1)
9030	D400		MOVE R4, (R0)'
9032	0208		ADD R2, R0
9034	4B1D		PUTB $B, (R1)
9036	8943		LBI R9, #$43
9038	0000		HALT
903A	009C		MHL R0, R9
903C	0100		DEC2 R1, R0
903E	049C		MHL R4, R9
9040	011A		ADDH R1, R1
9042	069C		MHL R6, R9
9044	011C		MHL R1, R1
9046	0A33		INC2 R10, R3
9048	3000		MOVE $00, R0
904A	C4F8		SGT R4, R15
904C	3020		MOVE $40, R0
904E	C0A0		SLE R0, R10
9050	4B1D		PUTB $B, (R1)
9052	D430		MOVE R4, (R3)'
9054	0208		ADD R2, R0
9056	4B1D		PUTB $B, (R1)
9058	B300		SET R3, #$00
905A	44B4		PUTB $4, (R11)-
905C	0004		NOP
905E	8910		LBI R9, #$10
9060	2900		MOVE R9, $00
9062	40D5		PUTB $0, (R13)--
9064	1008		CTRL $0, #$08
9066	C081		SLT R0, R8
9068	4837		PUTB $8, (R3)----
906A	9C10		CLR R12, #$10
906C	2900		MOVE R9, $00
906E	BC00		SET R12, #$00
9070	02E9		SUB R2, R14
9072	0400		DEC2 R4, R0
9074	4B38		PUTB $B, (R3)
9076	E300		
9078	00FE		GETB R15, $0
907A	E500		
907C	0CC0		DEC2 R12, R12
907E	014B		ADDH2 R1, R4
9080	3CB5		MOVE $16A, R12
9082	1004		CTRL $0, #$04
9084	9C07		CLR R12, #$07
9086	3A04		MOVE $08, R10
9088	FB10		SUB R11, #$11
908A	5079		MOVE (R7), R0
908C	0810		DEC2 R8, R1
908E	4874		PUTB $8, (R7)-
9090	3310		MOVE $20, R3
9092	0B3C		MHL R11, R3
9094	7340		MOVB (R4)+, R3
9096	18FE		CTRL $8, #$FE
9098	7330		MOVB (R3)+, R3
909A	02D5		AND R2, R13
909C	1000		CTRL $0, #$00
909E	C081		SLT R0, R8
90A0	486F		PUTB $8, (R6)
90A2	FA20		SUB R10, #$21
90A4	1020		CTRL $0, #$20
90A6	486F		PUTB $8, (R6)
90A8	6D01		MOVB R13, (R0)++
90AA	0000		HALT
90AC	2848		MOVE R8, $90
90AE	6F78		MOVB R15, (R7)
90B0	0814		MOVE R8, R1
90B2	486F		PUTB $8, (R6)
90B4	B840		SET R8, #$40
90B6	0348		ADD R3, R4
90B8	5FFE		MOVE (R15), R15
90BA	7A40		MOVB (R4)+, R10
90BC	15FE		CTRL $5, #$FE
90BE	E500		
90C0	1AC0		CTRL $A, #$C0
90C2	8148		LBI R1, #$48
90C4	686D		MOVB R8, (R6)
90C6	011A		ADDH R1, R1
90C8	1A28		CTRL $A, #$28
90CA	486C		PUTB $8, (R6)
90CC	F04B		BRA $9082		; -> -$4C(R0)

90CE	34FE		MOVE $1FC, R4
90D0	6D10		MOVB R13, (R1)+
90D2	2929		MOVE R9, $52
90D4	204B		JMP ($0096)

90D6	34FE		MOVE $1FC, R4
90D8	B810		SET R8, #$10
90DA	104B		CTRL $0, #$4B
90DC	6CFE		MOVB R12, (R15)
90DE	FB10		SUB R11, #$11
90E0	30FA		MOVE $1F4, R0
90E2	1040		CTRL $0, #$40
90E4	1048		CTRL $0, #$48
90E6	4CFE		PUTB $C, (R15)
90E8	FB10		SUB R11, #$11
90EA	50B9		MOVE (R11), R0
90EC	2010		JMP ($0020)

90EE	487D		PUTB $8, (R7)
90F0	7804		MOVB (R0)-, R8
90F2	1048		CTRL $0, #$48
90F4	7DFE		MOVB (R15), R13
90F6	7B80		MOVB (R8)+, R11
90F8	10FE		CTRL $0, #$FE
90FA	7880		MOVB (R8)+, R8
90FC	1048		CTRL $0, #$48
90FE	85FE		LBI R5, #$FE
9100	B880		SET R8, #$80
9102	104B		CTRL $0, #$4B
9104	38FE		MOVE $1FC, R8
9106	BA80		SET R10, #$80
9108	14FE		CTRL $4, #$FE
910A	7840		MOVB (R4)+, R8
910C	1048		CTRL $0, #$48
910E	8DFE		LBI R13, #$FE
9110	B840		SET R8, #$40
9112	104B		CTRL $0, #$4B
9114	38FE		MOVE $1FC, R8
9116	BA40		SET R10, #$40
9118	14FE		CTRL $4, #$FE
911A	78C0		MOVB (R12)+, R8
911C	1048		CTRL $0, #$48
911E	93FE		CLR R3, #$FE
9120	B880		SET R8, #$80
9122	114B		CTRL $1, #$4B
9124	34FE		MOVE $1FC, R4
9126	3330		MOVE $60, R3
9128	0045		AND R0, R4
912A	F830		SUB R8, #$31
912C	20C0		JMP ($0180)

912E	A04B		BRA $917C		; $4C(R0)

9130	1DF7		CTRL $D, #$F7
9132	3000		MOVE $00, R0
9134	F630		SUB R6, #$31
9136	00FB		ADDH2 R0, R15
9138	4030		PUTB $0, (R3)+
913A	B640		SET R6, #$40
913C	08C0		DEC2 R8, R12
913E	A04B		BRA $918C		; $4C(R0)

9140	1DD4		CTRL $D, #$D4
9142	4002		PUTB $0, (R0)+++
9144	084B		ADDH2 R8, R4
9146	1DFB		CTRL $D, #$FB
9148	1030		CTRL $0, #$30
914A	3300		MOVE $00, R3
914C	FFFF		SUB R15, #$100
914E	B600		SET R6, #$00
9150	08C0		DEC2 R8, R12
9152	2048		JMP ($0090)

9154	AE7C		ADD R14, #$7D
9156	0000		HALT
9158	5400		MOVE (R0)', R4
915A	0100		DEC2 R1, R0
915C	FB10		SUB R11, #$11
915E	50B4		MOVE (R11)~, R0
9160	300A		MOVE $14, R0
9162	B630		SET R6, #$30
9164	0836		OR R8, R3
9166	300E		MOVE $1C, R0
9168	DBF7		MOVE R11, (R15)--
916A	3000		MOVE $00, R0
916C	F630		SUB R6, #$31
916E	00B4		RET R11

9170	3004		MOVE $08, R0
9172	B630		SET R6, #$30
9174	06C0		DEC2 R6, R12
9176	A04B		BRA $91C4		; $4C(R0)

9178	1DD4		CTRL $D, #$D4
917A	3002		MOVE $04, R0
917C	104B		CTRL $0, #$4B
917E	1DB9		CTRL $D, #$B9
9180	2010		JMP ($0020)

9182	48D8		PUTB $8, (R13)
9184	B880		SET R8, #$80
9186	1448		CTRL $4, #$48
9188	CBFE		SNBC R11, R15
918A	7C09		MOVB (R0), R12
918C	0FB9		SUB R15, R11
918E	0810		DEC2 R8, R1
9190	48CB		PUTB $8, (R12)
9192	7C02		MOVB (R0)+++, R12
9194	0FFE		GETB R15, $F
9196	AC01		ADD R12, #$02
9198	1C06		CTRL $C, #$06
919A	BA04		SET R10, #$04
919C	14DD		CTRL $4, #$DD
919E	090F		GETA R0, $9
91A0	4ADC		PUTB $A, (R13)
91A2	BA10		SET R10, #$10
91A4	14BC		CTRL $4, #$BC
91A6	0123		INC2 R1, R2
91A8	8902		LBI R9, #$02
91AA	2600		MOVE R6, $00
91AC	FFF0		SUB R15, #$F1
91AE	4ADC		PUTB $A, (R13)
91B0	1C00		CTRL $C, #$00
91B2	10CE		CTRL $0, #$CE
91B4	101C		CTRL $0, #$1C
91B6	0010		DEC2 R0, R1
91B8	CF0F		SNBSH R15, R0
91BA	BA80		SET R10, #$80
91BC	03B9		SUB R3, R11
91BE	0210		DEC2 R2, R1
91C0	4904		PUTB $9, (R0)-
91C2	ED40		
91C4	2948		MOVE R9, $90
91C6	E7AD		
91C8	0F29		SUB R15, R2
91CA	2A20		MOVE R10, $40
91CC	4904		PUTB $9, (R0)-
91CE	BA04		SET R10, #$04
91D0	039C		MHL R3, R9
91D2	0108		ADD R1, R0
91D4	08BC		MHL R8, R11
91D6	0402		INC R4, R0
91D8	E300		
91DA	00FE		GETB R15, $0
91DC	E500		
91DE	0CC0		DEC2 R12, R12
91E0	0148		ADD R1, R4
91E2	FCE5		SUB R12, #$E6
91E4	001A		ADDH R0, R1
91E6	AC01		ADD R12, #$02
91E8	1A08		CTRL $A, #$08
91EA	C081		SLT R0, R8
91EC	490F		PUTB $9, (R0)
91EE	E400		
91F0	0820		DEC2 R8, R2
91F2	490F		PUTB $9, (R0)
91F4	F04B		BRA $91AA		; -> -$4C(R0)

91F6	60FE		MOVB R0, (R15)
91F8	3300		MOVE $00, R3
91FA	F4F1		SUB R4, #$F2
91FC	E400		
91FE	0C28		ADD R12, R2
9200	4B3C		PUTB $B, (R3)
9202	B980		SET R9, #$80
9204	144B		CTRL $4, #$4B
9206	3CFE		MOVE $1FC, R12
9208	9C01		CLR R12, #$01
920A	0806		OR R8, R0
920C	BC04		SET R12, #$04
920E	02BB		ADDH2 R2, R11
9210	0403		INC2 R4, R0
9212	E300		
9214	00FE		GETB R15, $0
9216	E500		
9218	0CC0		DEC2 R12, R12
921A	014B		ADDH2 R1, R4
921C	3CFE		MOVE $1FC, R12
921E	BB80		SET R11, #$80
9220	03B9		SUB R3, R11
9222	0210		DEC2 R2, R1
9224	4A6B		PUTB $A, (R6)
9226	3310		MOVE $20, R3
9228	FFE0		SUB R15, #$E1
922A	3610		MOVE $20, R6
922C	00BE		GETB R11, $0
922E	1C0C		CTRL $C, #$0C
9230	10F4		CTRL $0, #$F4
9232	00B5		AND R0, R11
9234	100E		CTRL $0, #$0E
9236	3300		MOVE $00, R3
9238	0004		NOP
923A	4000		PUTB $0, (R0)+
923C	004B		ADDH2 R0, R4
923E	8AFE		LBI R10, #$FE
9240	284B		MOVE R8, $96
9242	3EDD		MOVE $1BA, R14
9244	4029		PUTB $0, (R2)
9246	4B42		PUTB $B, (R4)+++
9248	1C01		CTRL $C, #$01
924A	0F1A		ADDH R15, R1
924C	250E		MOVE R5, $1C
924E	100F		CTRL $0, #$0F
9250	1A0E		CTRL $A, #$0E
9252	DB2C		MOVE R11, (R2)
9254	010F		GETA R0, $1
9256	1C06		CTRL $C, #$06
9258	F15F		SUB R1, #$60
925A	BEFE		SET R14, #$FE
925C	0C03		INC2 R12, R0
925E	0F20		DEC2 R15, R2
9260	0F14		MOVE R15, R1
9262	3C00		MOVE $00, R12
9264	0F1F		GETA R1, $F
9266	3300		MOVE $00, R3
9268	0400		DEC2 R4, R0
926A	3400		MOVE $00, R4
926C	0F1A		ADDH R15, R1
926E	F15F		SUB R1, #$60
9270	C0FE		SNBC R0, R15
9272	C0A5		SBS R0, R10
9274	4B42		PUTB $B, (R4)+++
9276	0C01		DEC R12, R0
9278	10D0		CTRL $0, #$D0
927A	0F18		ADD R15, R1
927C	B880		SET R8, #$80
927E	1449		CTRL $4, #$49
9280	DCFE		MOVE R12, (R15)
9282	9C10		CLR R12, #$10
9284	2905		MOVE R9, $0A
9286	DE00		MOVE R14, (R0)'
9288	4D49		PUTB $D, (R4)
928A	99DC		CLR R9, #$DC
928C	402B		PUTB $0, (R2)
928E	49B9		PUTB $9, (R11)
9290	DDC5		MOVE R13, (R12)-
9292	2B4B		MOVE R11, $96
9294	42DE		PUTB $2, (R13)
9296	006C		MHL R0, R6
9298	4952		PUTB $9, (R5)+++
929A	3300		MOVE $00, R3
929C	4040		PUTB $0, (R4)+
929E	D400		MOVE R4, (R0)'
92A0	6C28		MOVB R12, (R2)
92A2	499D		PUTB $9, (R9)
92A4	DDC4		MOVE R13, (R12)~
92A6	4949		PUTB $9, (R4)
92A8	56BA		MOVE (R11), R6
92AA	0803		INC2 R8, R0
92AC	DC40		MOVE R12, (R4)'
92AE	1B49		CTRL $B, #$49
92B0	B9DD		SET R9, #$DD
92B2	D91B		MOVE R9, (R1)
92B4	4B42		PUTB $B, (R4)+++
92B6	1C04		CTRL $C, #$04
92B8	0F1F		GETA R1, $F
92BA	16F1		CTRL $6, #$F1
92BC	4B7A		PUTB $B, (R7)
92BE	2F10		MOVE R15, $20
92C0	0DBB		ADDH2 R13, R11
92C2	06C0		DEC2 R6, R12
92C4	8449		LBI R4, #$49
92C6	5FC0		MOVE (R12)', R15
92C8	824B		LBI R2, #$4B
92CA	421C		PUTB $2, (R1)
92CC	030F		GETA R0, $3
92CE	2035		JMP ($006A)

92D0	F14B		SUB R1, #$4C
92D2	7AFE		MOVB (R15), R10
92D4	8C01		LBI R12, #$01
92D6	1C0D		CTRL $C, #$0D
92D8	BBDC		SET R11, #$DC
92DA	4027		PUTB $0, (R2)----
92DC	4972		PUTB $9, (R7)+++
92DE	DDC6		MOVE R13, (R12)-~
92E0	274B		MOVE R7, $96
92E2	42FE		PUTB $2, (R15)
92E4	1C04		CTRL $C, #$04
92E6	0F1F		GETA R1, $F
92E8	39F1		MOVE $1E2, R9
92EA	4B7A		PUTB $B, (R7)
92EC	2C01		MOVE R12, $02
92EE	0F1A		ADDH R15, R1
92F0	061C		MHL R6, R1
92F2	010F		GETA R0, $1
92F4	1C4D		CTRL $C, #$4D
92F6	F15F		SUB R1, #$60
92F8	BEFE		SET R14, #$FE
92FA	0C03		INC2 R12, R0
92FC	0F20		DEC2 R15, R2
92FE	0F14		MOVE R15, R1
9300	0905		AND R9, R0
9302	0F1A		ADDH R15, R1
9304	0000		HALT
9306	0C01		DEC R12, R0
9308	0F1C		MHL R15, R1
930A	0DBB		ADDH2 R13, R11
930C	0F30		DEC2 R15, R3
930E	0F20		DEC2 R15, R2
9310	0F1A		ADDH R15, R1
9312	2C01		MOVE R12, $02
9314	0F1A		ADDH R15, R1
9316	1CF1		CTRL $C, #$F1
9318	5FC0		MOVE (R12)', R15
931A	C0A0		SLE R0, R10
931C	4B46		PUTB $B, (R4)---
931E	8C02		LBI R12, #$02
9320	260F		MOVE R6, $1E
9322	173C		CTRL $7, #$3C
9324	0910		DEC2 R9, R1
9326	CFBA		SNE R15, R11
9328	1014		CTRL $0, #$14
932A	F14A		SUB R1, #$4B
932C	E9FE		
932E	F049		BRA $92E6		; -> -$4A(R0)

9330	B1FE		SET R1, #$FE
9332	3C00		MOVE $00, R12
9334	10CF		CTRL $0, #$CF
9336	F049		BRA $92EE		; -> -$4A(R0)

9338	B1FE		SET R1, #$FE
933A	4D0C		PUTB $D, (R0)
933C	5F10		MOVE (R1)', R15
933E	F428		SUB R4, #$29
9340	4B42		PUTB $B, (R4)+++
9342	3C00		MOVE $00, R12
9344	10CF		CTRL $0, #$CF
9346	1803		CTRL $8, #$03
9348	10CF		CTRL $0, #$CF
934A	6DDD		MOVB R13, (R13)
934C	F16C		SUB R1, #$6D
934E	49AA		PUTB $9, (R10)
9350	3E0A		MOVE $14, R14
9352	10CF		CTRL $0, #$CF
9354	DDF2		MOVE R13, (R15)+'
9356	6C49		MOVB R12, (R4)
9358	AF3E		ADD R15, #$3F
935A	1410		CTRL $4, #$10
935C	CFFE		SNBC R15, R15
935E	BC01		SET R12, #$01
9360	23FE		MOVE R3, $1FC
9362	FB10		SUB R11, #$11
9364	504C		MOVE (R4), R0
9366	000F		GETA R0, $0
9368	10CF		CTRL $0, #$CF
936A	4C01		PUTB $C, (R0)++
936C	0D10		DEC2 R13, R1
936E	D0F0		JMP (R15)'
9370	4ADC		PUTB $A, (R13)
9372	0910		DEC2 R9, R1
9374	10E3		CTRL $0, #$E3
9376	0040		DEC2 R0, R4
9378	4D03		PUTB $D, (R0)++++
937A	3510		MOVE $20, R5
937C	E320		
937E	49C9		PUTB $9, (R12)
9380	1A00		CTRL $A, #$00
9382	10E3		CTRL $0, #$E3
9384	16CD		CTRL $6, #$CD
9386	0010		DEC2 R0, R1
9388	E34B		
938A	425D		PUTB $2, (R5)
938C	0335		AND R3, R3
938E	1728		CTRL $7, #$28
9390	4B3E		PUTB $B, (R3)
9392	1C04		CTRL $C, #$04
9394	0F1F		GETA R1, $F
9396	16F1		CTRL $6, #$F1
9398	4B7A		PUTB $B, (R7)
939A	8C01		LBI R12, #$01
939C	1C0D		CTRL $C, #$0D
939E	BBAD		SET R11, #$AD
93A0	011C		MHL R1, R1
93A2	0600		DEC2 R6, R0
93A4	4B3E		PUTB $B, (R3)
93A6	BA14		SET R10, #$14
93A8	14BC		CTRL $4, #$BC
93AA	0026		OR R0, R2
93AC	9C01		CLR R12, #$01
93AE	274D		MOVE R7, $9A
93B0	3C09		MOVE $12, R12
93B2	10CF		CTRL $0, #$CF
93B4	F049		BRA $936C		; -> -$4A(R0)

93B6	AFFE		ADD R15, #$FF
93B8	DC40		MOVE R12, (R4)'
93BA	2A49		MOVE R10, $92
93BC	E3DD		
93BE	D72A		MOVE R7, (R2)
93C0	4B3E		PUTB $B, (R3)
93C2	F04B		BRA $9378		; -> -$4C(R0)

93C4	4AFE		PUTB $A, (R15)
93C6	DE00		MOVE R14, (R0)'
93C8	4D49		PUTB $D, (R4)
93CA	E96D		
93CC	1005		CTRL $0, #$05
93CE	2928		MOVE R9, $50
93D0	4B64		PUTB $B, (R6)-
93D2	0910		DEC2 R9, R1
93D4	10E3		CTRL $0, #$E3
93D6	0040		DEC2 R0, R4
93D8	4D05		PUTB $D, (R0)--
93DA	4210		PUTB $2, (R1)+
93DC	E328		
93DE	4B4A		PUTB $B, (R4)
93E0	7C40		MOVB (R4)+, R12
93E2	2A49		MOVE R10, $92
93E4	0542		INC R5, R4
93E6	0040		DEC2 R0, R4
93E8	2C01		MOVE R12, $02
93EA	0F1A		ADDH R15, R1
93EC	1CF1		CTRL $C, #$F1
93EE	0BC6		OR R11, R12
93F0	6C10		MOVB R12, (R1)+
93F2	0529		SUB R5, R2
93F4	3310		MOVE $20, R3
93F6	10D2		CTRL $0, #$D2
93F8	6C10		MOVB R12, (R1)+
93FA	0029		SUB R0, R2
93FC	3300		MOVE $00, R3
93FE	4B4E		PUTB $B, (R4)
9400	3450		MOVE $A0, R4
9402	1101		CTRL $1, #$01
9404	3460		MOVE $C0, R4
9406	1103		CTRL $1, #$03
9408	3470		MOVE $E0, R4
940A	1105		CTRL $1, #$05
940C	3430		MOVE $60, R4
940E	1107		CTRL $1, #$07
9410	7C7D		MOVB (R7), R12
9412	11F1		CTRL $1, #$F1
9414	5FE0		MOVE (R14)', R15
9416	3550		MOVE $A0, R5
9418	1101		CTRL $1, #$01
941A	3560		MOVE $C0, R5
941C	1103		CTRL $1, #$03
941E	3570		MOVE $E0, R5
9420	1105		CTRL $1, #$05
9422	3530		MOVE $60, R5
9424	1107		CTRL $1, #$07
9426	B510		SET R5, #$10
9428	0ECD		MLH R14, R12
942A	0910		DEC2 R9, R1
942C	CF4A		SNE R15, R4
942E	4A33		PUTB $A, (R3)++++
9430	0040		DEC2 R0, R4
9432	4074		PUTB $0, (R7)-
9434	006C		MHL R0, R6
9436	7C40		MOVB (R4)+, R12
9438	27BA		MOVE R7, $174
943A	1014		CTRL $0, #$14
943C	490C		PUTB $9, (R0)
943E	5F00		MOVE (R0)', R15
9440	407C		PUTB $0, (R7)
9442	4049		PUTB $0, (R4)
9444	3910		MOVE $20, R9
9446	10CE		CTRL $0, #$CE
9448	4A28		PUTB $A, (R2)
944A	BA08		SET R10, #$08
944C	037C		MHL R3, R7
944E	C449		SGE R4, R4
9450	3820		MOVE $40, R8
9452	10CE		CTRL $0, #$CE
9454	4A42		PUTB $A, (R4)+++
9456	AD01		ADD R13, #$02
9458	1C06		CTRL $C, #$06
945A	004B		ADDH2 R0, R4
945C	584B		MOVE (R4), R8
945E	0416		OR R4, R1
9460	0F17		XOR R15, R1
9462	4B03		PUTB $B, (R0)++++
9464	350F		MOVE $1E, R5
9466	187C		CTRL $8, #$7C
9468	401B		PUTB $0, (R1)
946A	7C40		MOVB (R4)+, R12
946C	2BBC		MOVE R11, $178
946E	0123		INC2 R1, R2
9470	BA04		SET R10, #$04
9472	14B9		CTRL $4, #$B9
9474	0803		INC2 R8, R0
9476	4A3F		PUTB $A, (R3)
9478	3810		MOVE $20, R8
947A	0BA2		INC R11, R10
947C	49B1		PUTB $9, (R11)++
947E	7CC5		MOVB (R12)--, R12
9480	2BF0		MOVE R11, $1E0
9482	49B1		PUTB $9, (R11)++
9484	7CD9		MOVB (R13), R12
9486	1B7C		CTRL $B, #$7C
9488	C52B		SNZ R5
948A	F14A		SUB R1, #$4B
948C	E9FE		
948E	B510		SET R5, #$10
9490	0EF0		DEC2 R14, R15
9492	4A60		PUTB $A, (R6)+
9494	4C0C		PUTB $C, (R0)
9496	5F10		MOVE (R1)', R15
9498	F433		SUB R4, #$34
949A	00F1		DEC R0, R15
949C	F2CC		SUB R2, #$CD
949E	0C10		DEC2 R12, R1
94A0	CF4A		SNE R15, R4
94A2	5D33		MOVE (R3)++, R13
94A4	00F1		DEC R0, R15
94A6	F1CC		SUB R1, #$CD
94A8	0B10		DEC2 R11, R1
94AA	CF4A		SNE R15, R4
94AC	5D33		MOVE (R3)++, R13
94AE	0010		DEC2 R0, R1
94B0	0034		RET R3

94B2	000F		GETA R0, $0
94B4	1833		CTRL $8, #$33
94B6	0040		DEC2 R0, R4
94B8	F2FE		SUB R2, #$FF
94BA	7400		MOVB (R0)+, R4
94BC	6C7C		MOVB R12, (R7)
94BE	C52B		SNZ R5
94C0	4B03		PUTB $B, (R0)++++
94C2	350F		MOVE $1E, R5
94C4	182C		CTRL $8, #$2C
94C6	010F		GETA R0, $1
94C8	1A06		CTRL $A, #$06
94CA	F10B		SUB R1, #$0C
94CC	C6FE		SNBC R6, R15
94CE	4B04		PUTB $B, (R0)-
94D0	160F		CTRL $6, #$0F
94D2	17F0		CTRL $7, #$F0
94D4	49B1		PUTB $9, (R11)++
94D6	B510		SET R5, #$10
94D8	04DC		MHL R4, R13
94DA	FF00		SUB R15, #$01
94DC	4B5C		PUTB $B, (R5)
94DE	1C01		CTRL $C, #$01
94E0	10D0		CTRL $0, #$D0
94E2	03B8		ADD R3, R11
94E4	8014		LBI R0, #$14
94E6	4A8D		PUTB $A, (R8)
94E8	1C00		CTRL $C, #$00
94EA	10CF		CTRL $0, #$CF
94EC	00DC		MHL R0, R13
94EE	0100		DEC2 R1, R0
94F0	4A7C		PUTB $A, (R7)
94F2	DD03		MOVE R13, (R0)++
94F4	004A		ADDH R0, R4
94F6	7EFE		MOVB (R15), R14
94F8	3C02		MOVE $04, R12
94FA	10CF		CTRL $0, #$CF
94FC	9C10		CLR R12, #$10
94FE	2980		MOVE R9, $100
9500	9C02		CLR R12, #$02
9502	26CD		MOVE R6, $19A
9504	B340		SET R3, #$40
9506	29BA		MOVE R9, $174
9508	2003		JMP ($0006)

950A	DD04		MOVE R13, (R0)~
950C	054A		ADDH R5, R4
950E	C0B8		SGT R0, R11
9510	8011		LBI R0, #$11
9512	4AC0		PUTB $A, (R12)+
9514	BA08		SET R10, #$08
9516	03F0		DEC2 R3, R15
9518	4AC0		PUTB $A, (R12)+
951A	DC00		MOVE R12, (R0)'
951C	004A		ADDH R0, R4
951E	9CBA		CLR R12, #$BA
9520	2003		JMP ($0006)

9522	BCFD		SET R12, #$FD
9524	02E3		INC2 R2, R14
9526	0000		HALT
9528	6D10		MOVB R13, (R1)+
952A	8029		LBI R0, #$29
952C	284B		MOVE R8, $96
952E	64BB		MOVB R4, (R11)
9530	2003		JMP ($0006)

9532	BA10		SET R10, #$10
9534	03E3		INC2 R3, R14
9536	0000		HALT
9538	DD00		MOVE R13, (R0)'
953A	B04B		SET R0, #$4B
953C	705D		MOVB (R5), R0
953E	06B0		DEC2 R6, R11
9540	B128		SET R1, #$28
9542	4B70		PUTB $B, (R7)+
9544	4C00		PUTB $C, (R0)+
9546	0010		DEC2 R0, R1
9548	CFB5		SBS R15, R11
954A	001C		MHL R0, R1
954C	DC09		MOVE R12, (R0)
954E	004A		ADDH R0, R4
9550	AB33		ADD R11, #$34
9552	0003		INC2 R0, R0
9554	E8FE		
9556	7400		MOVB (R0)+, R4
9558	CA6C		SNS R10
955A	1080		CTRL $0, #$80
955C	2973		MOVE R9, $E6
955E	4080		PUTB $0, (R8)+
9560	BA10		SET R10, #$10
9562	0349		SUB R3, R4
9564	0106		OR R1, R0
9566	0000		HALT
9568	7C00		MOVB (R0)+, R12
956A	05BB		ADDH2 R5, R11
956C	0803		INC2 R8, R0
956E	3910		MOVE $20, R9
9570	10CE		CTRL $0, #$CE
9572	4AC0		PUTB $A, (R12)+
9574	B880		SET R8, #$80
9576	114A		CTRL $1, #$4A
9578	C0FE		SNBC R0, R15
957A	BA08		SET R10, #$08
957C	037C		MHL R3, R7
957E	0405		AND R4, R0
9580	BCFD		SET R12, #$FD
9582	02B5		AND R2, R11
9584	0004		NOP
9586	B440		SET R4, #$40
9588	04B5		AND R4, R11
958A	4006		PUTB $0, (R0)---
958C	BC00		SET R12, #$00
958E	06BC		MHL R6, R11
9590	1107		CTRL $1, #$07
9592	E300		
9594	00FE		GETB R15, $0
9596	B400		SET R4, #$00
9598	04B4		MOVE R4, R11
959A	4006		PUTB $0, (R0)---
959C	DD09		MOVE R13, (R0)
959E	0049		SUB R0, R4
95A0	B1BA		SET R1, #$BA
95A2	1014		CTRL $0, #$14
95A4	9C01		CLR R12, #$01
95A6	1CCA		CTRL $C, #$CA
95A8	DD04		MOVE R13, (R0)~
95AA	054A		ADDH R5, R4
95AC	D8BA		MOVE R8, (R11)
95AE	0803		INC2 R8, R0
95B0	F14A		SUB R1, #$4B
95B2	E9FE		
95B4	F049		BRA $956C		; -> -$4A(R0)

95B6	B1FE		SET R1, #$FE
95B8	8901		LBI R9, #$01
95BA	0800		DEC2 R8, R0
95BC	00FB		ADDH2 R0, R15
95BE	1050		CTRL $0, #$50
95C0	7420		MOVB (R2)+, R4
95C2	0074		RET R7

95C4	3002		MOVE $04, R0
95C6	F930		SUB R9, #$31
95C8	20B4		JMP ($0168)

95CA	3018		MOVE $30, R0
95CC	FB20		SUB R11, #$21
95CE	60FC		MOVB R0, (R15)
95D0	7000		MOVB (R0)+, R0
95D2	BC00		SET R12, #$00
95D4	23EE		MOVE R3, $1DC
95D6	001C		MHL R0, R1
95D8	4B68		PUTB $B, (R6)
95DA	F900		SUB R9, #$01
95DC	00AD		MLH R0, R10
95DE	011C		MHL R1, R1
95E0	0610		DEC2 R6, R1
95E2	4B00		PUTB $B, (R0)+
95E4	B600		SET R6, #$00
95E6	06BE		GETB R11, $6
95E8	0123		INC2 R1, R2
95EA	E400		
95EC	1C00		CTRL $C, #$00
95EE	4AF2		PUTB $A, (R15)+++
95F0	E400		
95F2	1C20		CTRL $C, #$20
95F4	4B0E		PUTB $B, (R0)
95F6	B600		SET R6, #$00
95F8	06BE		GETB R11, $6
95FA	0123		INC2 R1, R2
95FC	F04B		BRA $95B2		; -> -$4C(R0)

95FE	0EFE		GETB R15, $E
9600	B600		SET R6, #$00
9602	1CE4		CTRL $C, #$E4
9604	0006		OR R0, R0
9606	004B		ADDH2 R0, R4
9608	00BC		MHL R0, R11
960A	0123		INC2 R1, R2
960C	B700		SET R7, #$00
960E	06B5		AND R6, R11
9610	0006		OR R0, R0
9612	C081		SLT R0, R8
9614	4B0E		PUTB $B, (R0)
9616	B600		SET R6, #$00
9618	06BC		MHL R6, R11
961A	0223		INC2 R2, R2
961C	B600		SET R6, #$00
961E	04C0		DEC2 R4, R12
9620	A04B		BRA $966E		; $4C(R0)

9622	1DFA		CTRL $D, #$FA
9624	0030		DEC2 R0, R3
9626	084B		ADDH2 R8, R4
9628	1BFB		CTRL $B, #$FB
962A	3000		MOVE $00, R0
962C	FB10		SUB R11, #$11
962E	50D4		MOVE (R13)~, R0
9630	3002		MOVE $04, R0
9632	104B		CTRL $0, #$4B
9634	1DFE		CTRL $D, #$FE
9636	FC80		SUB R12, #$81
9638	00FE		GETB R15, $0
963A	3C68		MOVE $D0, R12
963C	0ED9		SUB R14, R13
963E	F04B		BRA $95F4		; -> -$4C(R0)

9640	74FE		MOVB (R15), R4
9642	3C78		MOVE $F0, R12
9644	0ED9		SUB R14, R13
9646	7B08		MOVB (R0), R11
9648	14FE		CTRL $4, #$FE
964A	FB10		SUB R11, #$11
964C	3073		MOVE $E6, R0
964E	3002		MOVE $04, R0
9650	FA10		SUB R10, #$11
9652	4018		PUTB $0, (R1)
9654	4B74		PUTB $B, (R7)-
9656	D510		MOVE R5, (R1)'
9658	00C0		DEC2 R0, R12
965A	814B		LBI R1, #$4B
965C	256D		MOVE R5, $DA
965E	0100		DEC2 R1, R0
9660	0028		ADD R0, R2
9662	4B25		PUTB $B, (R2)--
9664	F04B		BRA $961A		; -> -$4C(R0)

9666	23FE		MOVE R3, $1FC
9668	3C64		MOVE $C8, R12
966A	0ED9		SUB R14, R13
966C	F04B		BRA $9622		; -> -$4C(R0)

966E	74FE		MOVB (R15), R4
9670	3C39		MOVE $72, R12
9672	0ED9		SUB R14, R13
9674	F04B		BRA $962A		; -> -$4C(R0)

9676	74FE		MOVB (R15), R4
9678	F04A		BRA $962F		; -> -$4B(R0)

967A	DCFE		MOVE R12, (R15)
967C	3C69		MOVE $D2, R12
967E	0ED9		SUB R14, R13
9680	F04B		BRA $9636		; -> -$4C(R0)

9682	74FE		MOVB (R15), R4
9684	3C6A		MOVE $D4, R12
9686	0ED9		SUB R14, R13
9688	F04B		BRA $963E		; -> -$4C(R0)

968A	74FE		MOVB (R15), R4
968C	3C73		MOVE $E6, R12
968E	0ED9		SUB R14, R13
9690	F04B		BRA $9646		; -> -$4C(R0)

9692	74FE		MOVB (R15), R4
9694	3C6F		MOVE $DE, R12
9696	0ED9		SUB R14, R13
9698	F04B		BRA $964E		; -> -$4C(R0)

969A	74FE		MOVB (R15), R4
969C	3C6E		MOVE $DC, R12
969E	0ED9		SUB R14, R13
96A0	3550		MOVE $A0, R5
96A2	1101		CTRL $1, #$01
96A4	3560		MOVE $C0, R5
96A6	1103		CTRL $1, #$03
96A8	3570		MOVE $E0, R5
96AA	1105		CTRL $1, #$05
96AC	F04B		BRA $9662		; -> -$4C(R0)

96AE	74FE		MOVB (R15), R4
96B0	3C74		MOVE $E8, R12
96B2	0ED9		SUB R14, R13
96B4	F04B		BRA $966A		; -> -$4C(R0)

96B6	74FE		MOVB (R15), R4
96B8	3C6C		MOVE $D8, R12
96BA	0ED9		SUB R14, R13
96BC	F04B		BRA $9672		; -> -$4C(R0)

96BE	74FE		MOVB (R15), R4
96C0	3C72		MOVE $E4, R12
96C2	0ED9		SUB R14, R13
96C4	F04B		BRA $967A		; -> -$4C(R0)

96C6	74FE		MOVB (R15), R4
96C8	3C77		MOVE $EE, R12
96CA	0ED9		SUB R14, R13
96CC	F04B		BRA $9682		; -> -$4C(R0)

96CE	74FE		MOVB (R15), R4
96D0	3C75		MOVE $EA, R12
96D2	0ED9		SUB R14, R13
96D4	F04B		BRA $968A		; -> -$4C(R0)

96D6	74FE		MOVB (R15), R4
96D8	3C67		MOVE $CE, R12
96DA	0ED9		SUB R14, R13
96DC	F04B		BRA $9692		; -> -$4C(R0)

96DE	74FE		MOVB (R15), R4
96E0	3C6B		MOVE $D6, R12
96E2	0ED9		SUB R14, R13
96E4	F04B		BRA $969A		; -> -$4C(R0)

96E6	74FE		MOVB (R15), R4
96E8	FB10		SUB R11, #$11
96EA	504C		MOVE (R4), R0
96EC	000C		MHL R0, R0
96EE	0ED9		SUB R14, R13
96F0	F04A		BRA $96A7		; -> -$4B(R0)

96F2	E6FE		
96F4	0904		MOVE R9, R0
96F6	0F14		MOVE R15, R1
96F8	0000		HALT
96FA	0A04		MOVE R10, R0
96FC	0F19		SUB R15, R1
96FE	0F1F		GETA R1, $F
9700	C726		SBC R7, R2
9702	0F14		MOVE R15, R1
9704	D712		MOVE R7, (R1)+'
9706	00C7		XOR R0, R12
9708	0C0F		GETA R0, $C
970A	140C		CTRL $4, #$0C
970C	010D		MLH R1, R0
970E	BB0F		SET R11, #$0F
9710	16FC		CTRL $6, #$FC
9712	8000		LBI R0, #$00
9714	C8C4		SS R8
9716	D9F1		MOVE R9, (R15)+
9718	300C		MOVE $18, R0
971A	0FA4		MOVE R15, R10
971C	0C09		SUB R12, R0
971E	0FAA		ADDH R15, R10
9720	0F14		MOVE R15, R1
9722	3C40		MOVE $80, R12
9724	0FB3		INC2 R15, R11
9726	0953		INC2 R9, R5
9728	0FB7		XOR R15, R11
972A	0000		HALT
972C	3520		MOVE $40, R5
972E	0FAE		GETB R10, $F
9730	EE20		
9732	424D		PUTB $2, (R4)
9734	5C34		MOVE (R3)~, R12
9736	200D		JMP ($001A)

9738	B9FB		SET R9, #$FB
973A	1020		CTRL $0, #$20
973C	B610		SET R6, #$10
973E	421C		PUTB $2, (R1)
9740	0510		DEC2 R5, R1
9742	1100		CTRL $1, #$00
9744	7200		MOVB (R0)+, R2
9746	0573		INC2 R5, R7
9748	3006		MOVE $0C, R0
974A	F830		SUB R8, #$31
974C	0038		ADD R0, R3
974E	200F		JMP ($001E)

9750	AA4B		ADD R10, #$4C
9752	BCFE		SET R12, #$FE
9754	1400		CTRL $4, #$00
9756	0FB7		XOR R15, R11
9758	061C		MHL R6, R1
975A	000F		GETA R0, $0
975C	AD05		ADD R13, #$06
975E	3310		MOVE $20, R3
9760	0FB7		XOR R15, R11
9762	F810		SUB R8, #$11
9764	00FE		GETB R15, $0
9766	3710		MOVE $20, R7
9768	0EDB		ADDH2 R14, R13
976A	7E01		MOVB (R0)++, R14
976C	00C0		DEC2 R0, R12
976E	A04B		BRA $97BC		; $4C(R0)

9770	B33B		SET R3, #$3B
9772	200F		JMP ($001E)

9774	AAF0		ADD R10, #$F1
9776	4BD2		PUTB $B, (R13)+++
9778	3200		MOVE $00, R2
977A	0FAD		MLH R15, R10
977C	0D00		DEC2 R13, R0
977E	0FAD		MLH R15, R10
9780	1016		CTRL $0, #$16
9782	084B		ADDH2 R8, R4
9784	C832		SE R8, R3
9786	0010		DEC2 R0, R1
9788	160C		CTRL $6, #$0C
978A	000F		GETA R0, $0
978C	AD10		ADD R13, #$11
978E	16FE		CTRL $6, #$FE
9790	3510		MOVE $20, R5
9792	0FAB		ADDH2 R15, R10
9794	1400		CTRL $4, #$00
9796	0FB7		XOR R15, R11
9798	00DC		MHL R0, R13
979A	0000		HALT
979C	4D60		PUTB $D, (R6)+
979E	DCFF		MOVE R12, (R15)
97A0	004D		MLH R0, R4
97A2	60FE		MOVB R0, (R15)
97A4	FB10		SUB R11, #$11
97A6	3032		MOVE $64, R0
97A8	000F		GETA R0, $0
97AA	AD32		ADD R13, #$33
97AC	3010		MOVE $20, R0
97AE	16FE		CTRL $6, #$FE
97B0	1400		CTRL $4, #$00
97B2	0FD3		INC2 R15, R13
97B4	020D		MLH R2, R0
97B6	1B0F		CTRL $B, #$0F
97B8	D30F		MOVE R3, (R0)
97BA	B718		SET R7, #$18
97BC	4BE4		PUTB $B, (R14)-
97BE	7310		MOVB (R1)+, R3
97C0	02F8		ADD R2, R15
97C2	1030		CTRL $0, #$30
97C4	F04B		BRA $977A		; -> -$4C(R0)

97C6	D8FE		MOVE R8, (R15)
97C8	1C01		CTRL $C, #$01
97CA	1019		CTRL $0, #$19
97CC	00F8		ADD R0, R15
97CE	1030		CTRL $0, #$30
97D0	1C01		CTRL $C, #$01
97D2	0FB4		MOVE R15, R11
97D4	028C		MHL R2, R8
97D6	0108		ADD R1, R0
97D8	1019		CTRL $0, #$19
97DA	0C00		DEC2 R12, R0
97DC	0FB6		OR R15, R11
97DE	1016		CTRL $0, #$16
97E0	2F10		MOVE R15, $20
97E2	0FB4		MOVE R15, R11
97E4	0833		INC2 R8, R3
97E6	300F		MOVE $1E, R0
97E8	B4B4		SET R4, #$B4
97EA	300E		MOVE $1C, R0
97EC	BC0C		SET R12, #$0C
97EE	02BB		ADDH2 R2, R11
97F0	1003		CTRL $0, #$03
97F2	BA20		SET R10, #$20
97F4	03E3		INC2 R3, R14
97F6	0000		HALT
97F8	B910		SET R9, #$10
97FA	114B		CTRL $1, #$4B
97FC	FCFE		SUB R12, #$FF
97FE	EE00		
9800	0C4C		MHL R12, R4
9802	4933		PUTB $9, (R3)++++
9804	00F2		INC R0, R15
9806	F9E4		SUB R9, #$E5
9808	000C		MHL R0, R0
980A	204C		JMP ($0098)

980C	4933		PUTB $9, (R3)++++
980E	00F0		DEC2 R0, R15
9810	F2E4		SUB R2, #$E5
9812	000C		MHL R0, R0
9814	284D		MOVE R8, $9A
9816	64BC		MOVB R4, (R11)
9818	0102		INC R1, R0
981A	E300		
981C	00FE		GETB R15, $0
981E	B910		SET R9, #$10
9820	114C		CTRL $1, #$4C
9822	0FFE		GETB R15, $F
9824	E500		
9826	0CC0		DEC2 R12, R12
9828	014D		MLH R1, R4
982A	6432		MOVB R4, (R3)+++
982C	0010		DEC2 R0, R1
982E	16B5		CTRL $6, #$B5
9830	1004		CTRL $0, #$04
9832	1400		CTRL $4, #$00
9834	0FD3		INC2 R15, R13
9836	000D		MLH R0, R0
9838	1B0F		CTRL $B, #$0F
983A	D30F		MOVE R3, (R0)
983C	B718		SET R7, #$18
983E	4C27		PUTB $C, (R2)----
9840	0F10		DEC2 R15, R1
9842	0FB4		MOVE R15, R11
9844	0EDB		ADDH2 R14, R13
9846	C084		SS R0
9848	4C0D		PUTB $C, (R0)
984A	F04C		BRA $97FF		; -> -$4D(R0)

984C	49FE		PUTB $9, (R15)
984E	0D1B		ADDH2 R13, R1
9850	0FD3		INC2 R15, R13
9852	0FB7		XOR R15, R11
9854	284C		MOVE R8, $98
9856	300D		MOVE $1A, R0
9858	000F		GETA R0, $0
985A	AD10		ADD R13, #$11
985C	1620		CTRL $6, #$20
985E	4C49		PUTB $C, (R4)
9860	2C01		MOVE R12, $02
9862	0FB4		MOVE R15, R11
9864	080F		GETA R0, $8
9866	100F		CTRL $0, #$0F
9868	B40E		SET R4, #$0E
986A	DB0D		MOVE R11, (R0)
986C	010F		GETA R0, $1
986E	B410		SET R4, #$10
9870	1920		CTRL $9, #$20
9872	4C49		PUTB $C, (R4)
9874	3C02		MOVE $04, R12
9876	0ED9		SUB R14, R13
9878	8F10		LBI R15, #$10
987A	080E		GETB R0, $8
987C	D8BC		MOVE R8, (R11)
987E	0102		INC R1, R0
9880	E300		
9882	00FE		GETB R15, $0
9884	B910		SET R9, #$10
9886	114C		CTRL $1, #$4C
9888	42FE		PUTB $2, (R15)
988A	E500		
988C	0CC0		DEC2 R12, R12
988E	014D		MLH R1, R4
9890	64FE		MOVB R4, (R15)
9892	8901		LBI R9, #$01
9894	0C00		DEC2 R12, R0
9896	00AC		MHL R0, R10
9898	0121		DEC R1, R2
989A	088F		GETA R8, $8
989C	1021		CTRL $0, #$21
989E	0EDB		ADDH2 R14, R13
98A0	AC01		ADD R12, #$02
98A2	2404		MOVE R4, $08
98A4	0909		SUB R9, R0
98A6	0F1A		ADDH R15, R1
98A8	0000		HALT
98AA	2C01		MOVE R12, $02
98AC	0F22		INC R15, R2
98AE	062C		MHL R6, R2
98B0	010F		GETA R0, $1
98B2	1A1C		CTRL $A, #$1C
98B4	F15F		SUB R1, #$60
98B6	C0FE		SNBC R0, R15
98B8	3500		MOVE $00, R5
98BA	0F18		ADD R15, R1
98BC	B510		SET R5, #$10
98BE	21F5		MOVE R1, $1EA
98C0	0010		DEC2 R0, R1
98C2	B400		SET R4, #$00
98C4	1EAC		CTRL $E, #$AC
98C6	001E		GETB R1, $0
98C8	1FB4		CTRL $F, #$B4
98CA	101F		CTRL $0, #$1F
98CC	8E20		LBI R14, #$20
98CE	1E0E		CTRL $E, #$0E
98D0	DA09		MOVE R10, (R0)
98D2	1B0F		CTRL $B, #$0F
98D4	D300		MOVE R3, (R0)'
98D6	0033		INC2 R0, R3
98D8	00FF		GETA R15, $0
98DA	FDB6		SUB R13, #$B7
98DC	001C		MHL R0, R1
98DE	3400		MOVE $00, R4
98E0	1017		CTRL $0, #$17
98E2	F04C		BRA $9897		; -> -$4D(R0)

98E4	75FE		MOVB (R15), R5
98E6	F177		SUB R1, #$78
98E8	FAFE		SUB R10, #$FF
98EA	B510		SET R5, #$10
98EC	2432		MOVE R4, $64
98EE	000F		GETA R0, $0
98F0	AD14		ADD R13, #$15
98F2	000F		GETA R0, $0
98F4	D300		MOVE R3, (R0)'
98F6	0D1B		ADDH2 R13, R1
98F8	0FD3		INC2 R15, R13
98FA	0FB7		XOR R15, R11
98FC	104C		CTRL $0, #$4C
98FE	73DC		MOVB (R13), R3
9900	FF00		SUB R15, #$01
9902	4CC1		PUTB $C, (R12)++
9904	3610		MOVE $20, R6
9906	1017		CTRL $0, #$17
9908	1C02		CTRL $C, #$02
990A	100B		CTRL $0, #$0B
990C	000D		MLH R0, R0
990E	1B0F		CTRL $B, #$0F
9910	D30F		MOVE R3, (R0)
9912	B720		SET R7, #$20
9914	4C94		PUTB $C, (R9)-
9916	3980		MOVE $100, R9
9918	0FAA		ADDH R15, R10
991A	4CC1		PUTB $C, (R12)++
991C	0D02		INC R13, R0
991E	0EDA		ADDH R14, R13
9920	100B		CTRL $0, #$0B
9922	004C		MHL R0, R4
9924	73F0		MOVB (R15)+, R3
9926	4CAA		PUTB $C, (R10)
9928	3980		MOVE $100, R9
992A	0FAA		ADDH R15, R10
992C	4C9D		PUTB $C, (R9)
992E	0D02		INC R13, R0
9930	0EDA		ADDH R14, R13
9932	100B		CTRL $0, #$0B
9934	004C		MHL R0, R4
9936	73F0		MOVB (R15)+, R3
9938	4CAA		PUTB $C, (R10)
993A	0D02		INC R13, R0
993C	0EDA		ADDH R14, R13
993E	100B		CTRL $0, #$0B
9940	084C		MHL R8, R4
9942	AA0D		ADD R10, #$0E
9944	000F		GETA R0, $0
9946	AD10		ADD R13, #$11
9948	1628		CTRL $6, #$28
994A	4C73		PUTB $C, (R7)++++
994C	3C20		MOVE $40, R12
994E	0FB3		INC2 R15, R11
9950	F04D		BRA $9904		; -> -$4E(R0)

9952	29FE		MOVE R9, $1FC
9954	B510		SET R5, #$10
9956	2432		MOVE R4, $64
9958	0010		DEC2 R0, R1
995A	1614		CTRL $6, #$14
995C	000F		GETA R0, $0
995E	EF00		
9960	0C02		INC R12, R0
9962	0FB0		DEC2 R15, R11
9964	100B		CTRL $0, #$0B
9966	2C02		MOVE R12, $04
9968	100E		CTRL $0, #$0E
996A	1E3C		CTRL $E, #$3C
996C	800F		LBI R0, #$0F
996E	B30D		SET R3, #$0D
9970	1B0F		CTRL $B, #$0F
9972	D30F		MOVE R3, (R0)
9974	B728		SET R7, #$28
9976	4CC1		PUTB $C, (R12)++
9978	0D00		DEC2 R13, R0
997A	1016		CTRL $0, #$16
997C	0FAD		MLH R15, R10
997E	204D		JMP ($009A)

9980	29FE		MOVE R9, $1FC
9982	B810		SET R8, #$10
9984	154D		CTRL $5, #$4D
9986	29FE		MOVE R9, $1FC
9988	8C02		LBI R12, #$02
998A	1E10		CTRL $E, #$10
998C	11FE		CTRL $1, #$FE
998E	AD02		ADD R13, #$03
9990	1E26		CTRL $E, #$26
9992	184D		CTRL $8, #$4D
9994	29F1		MOVE R9, $1E2
9996	77FA		MOVB (R15), R7
9998	B510		SET R5, #$10
999A	2432		MOVE R4, $64
999C	0010		DEC2 R0, R1
999E	1614		CTRL $6, #$14
99A0	000F		GETA R0, $0
99A2	D300		MOVE R3, (R0)'
99A4	3610		MOVE $20, R6
99A6	1017		CTRL $0, #$17
99A8	1C02		CTRL $C, #$02
99AA	100B		CTRL $0, #$0B
99AC	00CD		MLH R0, R12
99AE	800F		LBI R0, #$0F
99B0	B34C		SET R3, #$4C
99B2	DE0D		MOVE R14, (R0)
99B4	1B0F		CTRL $B, #$0F
99B6	D30F		MOVE R3, (R0)
99B8	EF18		
99BA	4CC7		PUTB $C, (R12)----
99BC	0D00		DEC2 R13, R0
99BE	0FAD		MLH R15, R10
99C0	1016		CTRL $0, #$16
99C2	204C		JMP ($0098)

99C4	EC09		
99C6	1B0F		CTRL $B, #$0F
99C8	D300		MOVE R3, (R0)'
99CA	0032		INC R0, R3
99CC	000F		GETA R0, $0
99CE	ADB5		ADD R13, #$B6
99D0	1024		CTRL $0, #$24
99D2	1400		CTRL $4, #$00
99D4	0FD3		INC2 R15, R13
99D6	00FE		GETB R15, $0
99D8	3310		MOVE $20, R3
99DA	0FA4		MOVE R15, R10
99DC	5D1B		MOVE (R1), R13
99DE	2F13		MOVE R15, $26
99E0	104C		CTRL $0, #$4C
99E2	C75D		SNBS R7, R5
99E4	1B2F		CTRL $B, #$2F
99E6	1328		CTRL $3, #$28
99E8	4D09		PUTB $D, (R0)
99EA	7880		MOVB (R8)+, R8
99EC	064D		MLH R6, R4
99EE	03FE		GETB R15, $3
99F0	4D02		PUTB $D, (R0)+++
99F2	670E		MOVB R7, (R0)
99F4	DA18		MOVE R10, (R1)
99F6	4D12		PUTB $D, (R1)+++
99F8	5D00		MOVE (R0)', R13
99FA	7209		MOVB (R0), R2
99FC	284C		MOVE R8, $98
99FE	C77C		SNS R7
9A00	200F		JMP ($001E)

9A02	F04D		BRA $99B6		; -> -$4E(R0)

9A04	29FE		MOVE R9, $1FC
9A06	4D02		PUTB $D, (R0)+++
9A08	670E		MOVB R7, (R0)
9A0A	DA18		MOVE R10, (R1)
9A0C	4D12		PUTB $D, (R1)+++
9A0E	F04C		BRA $99C3		; -> -$4D(R0)

9A10	C7FE		SNBC R7, R15
9A12	7980		MOVB (R8)+, R9
9A14	064C		MHL R6, R4
9A16	C7FE		SNBC R7, R15
9A18	4D02		PUTB $D, (R0)+++
9A1A	670E		MOVB R7, (R0)
9A1C	DA18		MOVE R10, (R1)
9A1E	4D12		PUTB $D, (R1)+++
9A20	F04C		BRA $99D5		; -> -$4D(R0)

9A22	C7FE		SNBC R7, R15
9A24	B510		SET R5, #$10
9A26	2432		MOVE R4, $64
9A28	0010		DEC2 R0, R1
9A2A	1614		CTRL $6, #$14
9A2C	000F		GETA R0, $0
9A2E	EF00		
9A30	0C02		INC R12, R0
9A32	0FB0		DEC2 R15, R11
9A34	100B		CTRL $0, #$0B
9A36	2C02		MOVE R12, $04
9A38	100E		CTRL $0, #$0E
9A3A	1E3C		CTRL $E, #$3C
9A3C	800F		LBI R0, #$0F
9A3E	B30D		SET R3, #$0D
9A40	1B0F		CTRL $B, #$0F
9A42	B70F		SET R7, #$0F
9A44	D328		MOVE R3, (R2)
9A46	4CC7		PUTB $C, (R12)----
9A48	0D00		DEC2 R13, R0
9A4A	1016		CTRL $0, #$16
9A4C	0FAD		MLH R15, R10
9A4E	284C		MOVE R8, $98
9A50	C7FE		SNBC R7, R15
9A52	CD80		SLE R13, R8
9A54	0FB3		INC2 R15, R11
9A56	4D54		PUTB $D, (R5)-
9A58	8D02		LBI R13, #$02
9A5A	1E10		CTRL $E, #$10
9A5C	0E20		DEC2 R14, R2
9A5E	4D34		PUTB $D, (R3)-
9A60	8C02		LBI R12, #$02
9A62	1E10		CTRL $E, #$10
9A64	0EF1		DEC R14, R15
9A66	77F8		MOVB (R15), R7
9A68	0C01		DEC R12, R0
9A6A	0DB9		SUB R13, R11
9A6C	0FAE		GETB R10, $F
9A6E	3810		MOVE $20, R8
9A70	0FAA		ADDH R15, R10
9A72	4D54		PUTB $D, (R5)-
9A74	3520		MOVE $40, R5
9A76	0DB9		SUB R13, R11
9A78	8C02		LBI R12, #$02
9A7A	1E0F		CTRL $E, #$0F
9A7C	B0F1		SET R0, #$F1
9A7E	77F8		MOVB (R15), R7
9A80	B510		SET R5, #$10
9A82	42B5		PUTB $2, (R11)--
9A84	2024		JMP ($0048)

9A86	7610		MOVB (R1)+, R6
9A88	4275		PUTB $2, (R7)--
9A8A	3003		MOVE $06, R0
9A8C	3730		MOVE $60, R7
9A8E	0EDB		ADDH2 R14, R13
9A90	F820		SUB R8, #$21
9A92	3072		MOVE $E4, R0
9A94	0005		AND R0, R0
9A96	2400		MOVE R4, $00
9A98	0FD3		INC2 R15, R13
9A9A	000D		MLH R0, R0
9A9C	1B0F		CTRL $B, #$0F
9A9E	D30F		MOVE R3, (R0)
9AA0	EF28		
9AA2	4D66		PUTB $D, (R6)---
9AA4	6400		MOVB R4, (R0)+
9AA6	0600		DEC2 R6, R0
9AA8	0C09		SUB R12, R0
9AAA	0F14		MOVE R15, R1
9AAC	0FAA		ADDH R15, R10
9AAE	0C01		DEC R12, R0
9AB0	0DB9		SUB R13, R11
9AB2	0FAE		GETB R10, $F
9AB4	300E		MOVE $1C, R0
9AB6	0FA4		MOVE R15, R10
9AB8	3C82		MOVE $104, R12
9ABA	0BB4		MOVE R11, R11
9ABC	F03B		BRA $9A82		; -> -$3C(R0)

9ABE	CEFE		SNBC R14, R15
9AC0	3C83		MOVE $106, R12
9AC2	0BB4		MOVE R11, R11
9AC4	F03B		BRA $9A8A		; -> -$3C(R0)

9AC6	CEFE		SNBC R14, R15
9AC8	F08F		BRA $9A3A		; -> -$90(R0)

9ACA	EAFE		
9ACC	3C84		MOVE $108, R12
9ACE	0BB4		MOVE R11, R11
9AD0	F03B		BRA $9A96		; -> -$3C(R0)

9AD2	CEFE		SNBC R14, R15
9AD4	5C01		MOVE (R0)+, R12
9AD6	4218		PUTB $2, (R1)
9AD8	2C04		MOVE R12, $08
9ADA	0FA4		MOVE R15, R10
9ADC	0078		ADD R0, R7
9ADE	0803		INC2 R8, R0
9AE0	4EE7		PUTB $E, (R14)----
9AE2	7980		MOVB (R8)+, R9
9AE4	144D		CTRL $4, #$4D
9AE6	DFFE		MOVE R15, (R15)
9AE8	3520		MOVE $40, R5
9AEA	0B65		AND R11, R6
9AEC	3300		MOVE $00, R3
9AEE	0B42		INC R11, R4
9AF0	B600		SET R6, #$00
9AF2	07FB		ADDH2 R7, R15
9AF4	2000		JMP ($0000)

9AF6	B520		SET R5, #$20
9AF8	0032		INC R0, R3
9AFA	000F		GETA R0, $0
9AFC	A636		ADD R6, #$37
9AFE	000F		GETA R0, $0
9B00	A4C0		ADD R4, #$C1
9B02	A04E		BRA $9B53		; $4F(R0)

9B04	EB37		
9B06	000E		GETB R0, $0
9B08	DBE4		MOVE R11, (R14)~
9B0A	001C		MHL R0, R1
9B0C	104E		CTRL $0, #$4E
9B0E	EBB9		
9B10	8014		LBI R0, #$14
9B12	4EEF		PUTB $E, (R14)
9B14	3330		MOVE $60, R3
9B16	000A		ADDH R0, R0
9B18	3200		MOVE $00, R2
9B1A	0FA6		OR R15, R10
9B1C	F830		SUB R8, #$31
9B1E	00F8		ADD R0, R15
9B20	3000		MOVE $00, R0
9B22	3520		MOVE $40, R5
9B24	0B63		INC2 R11, R6
9B26	F830		SUB R8, #$31
9B28	20C0		JMP ($0180)

9B2A	A04E		BRA $9B7B		; $4F(R0)

9B2C	F3C4		SUB R3, #$C5
9B2E	300D		MOVE $1A, R0
9B30	B008		SET R0, #$08
9B32	4EF3		PUTB $E, (R15)++++
9B34	8901		LBI R9, #$01
9B36	0000		HALT
9B38	00BC		MHL R0, R11
9B3A	0202		INC R2, R0
9B3C	8C02		LBI R12, #$02
9B3E	030F		GETA R0, $3
9B40	A437		ADD R4, #$38
9B42	000E		GETB R0, $0
9B44	DBBC		MOVE R11, (R11)
9B46	0006		OR R0, R0
9B48	A400		ADD R4, #$01
9B4A	0706		OR R7, R0
9B4C	B320		SET R3, #$20
9B4E	07F8		ADD R7, R15
9B50	2000		JMP ($0000)

9B52	8901		LBI R9, #$01
9B54	0000		HALT
9B56	00BC		MHL R0, R11
9B58	FF02		SUB R15, #$03
9B5A	A400		ADD R4, #$01
9B5C	0302		INC R3, R0
9B5E	F820		SUB R8, #$21
9B60	008C		MHL R0, R8
9B62	0103		INC2 R1, R0
9B64	0EDB		ADDH2 R14, R13
9B66	B320		SET R3, #$20
9B68	0534		MOVE R5, R3
9B6A	200B		JMP ($0016)

9B6C	63F9		MOVB R3, (R15)
9B6E	2010		JMP ($0020)

9B70	7420		MOVB (R2)+, R4
9B72	1875		CTRL $8, #$75
9B74	2024		JMP ($0048)

9B76	3300		MOVE $00, R3
9B78	FFFC		SUB R15, #$FD
9B7A	7600		MOVB (R0)+, R6
9B7C	1CBC		CTRL $C, #$BC
9B7E	0000		HALT
9B80	A400		ADD R4, #$01
9B82	0100		DEC2 R1, R0
9B84	F820		SUB R8, #$21
9B86	00BC		MHL R0, R11
9B88	0000		HALT
9B8A	8C00		LBI R12, #$00
9B8C	010F		GETA R0, $1
9B8E	A68C		ADD R6, #$8D
9B90	0102		INC R1, R0
9B92	0FA4		MOVE R15, R10
9B94	FB20		SUB R11, #$21
9B96	108E		CTRL $0, #$8E
9B98	2026		JMP ($004C)

9B9A	0EDA		ADDH R14, R13
9B9C	F177		SUB R1, #$78
9B9E	F6FE		SUB R6, #$FF
9BA0	B510		SET R5, #$10
9BA2	2432		MOVE R4, $64
9BA4	000F		GETA R0, $0
9BA6	A67C		ADD R6, #$7D
9BA8	FF00		SUB R15, #$01
9BAA	5400		MOVE (R0)', R4
9BAC	0100		DEC2 R1, R0
9BAE	8E20		LBI R14, #$20
9BB0	260E		MOVE R6, $1C
9BB2	DAF1		MOVE R10, (R15)+
9BB4	77F6		MOVB (R15)---, R7
9BB6	3520		MOVE $40, R5
9BB8	0B65		AND R11, R6
9BBA	F03B		BRA $9B80		; -> -$3C(R0)

9BBC	D8FE		MOVE R8, (R15)
9BBE	FB20		SUB R11, #$21
9BC0	10F1		CTRL $0, #$F1
9BC2	77FA		MOVB (R15), R7
9BC4	B510		SET R5, #$10
9BC6	2433		MOVE R4, $66
9BC8	00FF		GETA R15, $0
9BCA	FCB6		SUB R12, #$B7
9BCC	001C		MHL R0, R1
9BCE	F810		SUB R8, #$11
9BD0	001C		MHL R0, R1
9BD2	000F		GETA R0, $0
9BD4	A601		ADD R6, #$02
9BD6	1C01		CTRL $C, #$01
9BD8	0FA4		MOVE R15, R10
9BDA	02DD		MLH R2, R13
9BDC	0000		HALT
9BDE	4EF7		PUTB $E, (R15)----
9BE0	D81C		MOVE R8, (R1)
9BE2	014E		GETB R4, $1
9BE4	F772		SUB R7, #$73
9BE6	0001		DEC R0, R0
9BE8	7600		MOVB (R0)+, R6
9BEA	02C0		DEC2 R2, R12
9BEC	A04E		BRA $9C3D		; $4F(R0)

9BEE	EB37		
9BF0	000E		GETB R0, $0
9BF2	DB35		MOVE R11, (R3)-
9BF4	100B		CTRL $0, #$0B
9BF6	6533		MOVB R5, (R3)++++
9BF8	300B		MOVE $16, R0
9BFA	4276		PUTB $2, (R7)---
9BFC	3007		MOVE $0E, R0
9BFE	FB10		SUB R11, #$11
9C00	3075		MOVE $EA, R0
9C02	1000		CTRL $0, #$00
9C04	D400		MOVE R4, (R0)'
9C06	1C10		CTRL $C, #$10
9C08	4EEB		PUTB $E, (R14)
9C0A	1C00		CTRL $C, #$00
9C0C	0FA9		SUB R15, R10
9C0E	143B		CTRL $4, #$3B
9C10	3F0F		MOVE $1E, R15
9C12	A92C		ADD R9, #$2D
9C14	000F		GETA R0, $0
9C16	AA14		ADD R10, #$15
9C18	3B3F		MOVE $7E, R11
9C1A	0FAA		ADDH R15, R10
9C1C	0D00		DEC2 R13, R0
9C1E	0FAA		ADDH R15, R10
9C20	0FA9		SUB R15, R10
9C22	284E		MOVE R8, $9C
9C24	EFB5		
9C26	1024		CTRL $0, #$24
9C28	091F		GETA R1, $9
9C2A	0FAB		ADDH2 R15, R10
9C2C	0000		HALT
9C2E	3200		MOVE $00, R2
9C30	0FA6		OR R15, R10
9C32	1400		CTRL $4, #$00
9C34	0FAB		ADDH2 R15, R10
9C36	00DD		MLH R0, R13
9C38	0000		HALT
9C3A	4EFB		PUTB $E, (R15)
9C3C	0D1E		GETB R1, $D
9C3E	0FAB		ADDH2 R15, R10
9C40	0FAC		MHL R15, R10
9C42	284E		MOVE R8, $9C
9C44	FBAC		SUB R11, #$AD
9C46	021E		GETB R1, $2
9C48	26F1		MOVE R6, $1E2
9C4A	77F8		MOVB (R15), R7
9C4C	B510		SET R5, #$10
9C4E	24DC		MOVE R4, $1B8
9C50	FF00		SUB R15, #$01
9C52	4E36		PUTB $E, (R3)---
9C54	8F20		LBI R15, #$20
9C56	1E0E		CTRL $E, #$0E
9C58	DAC0		MOVE R10, (R12)'
9C5A	044E		GETB R4, $4
9C5C	FBF1		SUB R11, #$F2
9C5E	77F8		MOVB (R15), R7
9C60	B510		SET R5, #$10
9C62	24DD		MOVE R4, $1BA
9C64	FF00		SUB R15, #$01
9C66	4E2A		PUTB $E, (R2)
9C68	BA10		SET R10, #$10
9C6A	15FE		CTRL $5, #$FE
9C6C	2C02		MOVE R12, $04
9C6E	0FCB		ADDH2 R15, R12
9C70	1E2C		CTRL $E, #$2C
9C72	010F		GETA R0, $1
9C74	CE21		SLT R14, R2
9C76	3510		MOVE $20, R5
9C78	0B63		INC2 R11, R6
9C7A	3300		MOVE $00, R3
9C7C	000A		ADDH R0, R0
9C7E	F800		SUB R8, #$01
9C80	10C0		CTRL $0, #$C0
9C82	A04E		BRA $9CD3		; $4F(R0)

9C84	F332		SUB R3, #$33
9C86	300F		MOVE $1E, R0
9C88	A6F8		ADD R6, #$F9
9C8A	0030		DEC2 R0, R3
9C8C	C0A0		SLE R0, R10
9C8E	4EF3		PUTB $E, (R15)++++
9C90	F800		SUB R8, #$01
9C92	30C0		MOVE $180, R0
9C94	A04E		BRA $9CE5		; $4F(R0)

9C96	F3C4		SUB R3, #$C5
9C98	000D		MLH R0, R0
9C9A	B008		SET R0, #$08
9C9C	4EF3		PUTB $E, (R15)++++
9C9E	7C00		MOVB (R0)+, R12
9CA0	0554		MOVE R5, R5
9CA2	3006		MOVE $0C, R0
9CA4	054C		MHL R5, R4
9CA6	0200		DEC2 R2, R0
9CA8	0FCB		ADDH2 R15, R12
9CAA	4C01		PUTB $C, (R0)++
9CAC	030F		GETA R0, $3
9CAE	A44C		ADD R4, #$4D
9CB0	0005		AND R0, R0
9CB2	0FA6		OR R15, R10
9CB4	3540		MOVE $80, R5
9CB6	0DB0		DEC2 R13, R11
9CB8	F940		SUB R9, #$41
9CBA	00C4		RET R12

9CBC	400F		PUTB $0, (R0)
9CBE	A718		ADD R7, #$19
9CC0	4E7C		PUTB $E, (R7)
9CC2	3540		MOVE $80, R5
9CC4	0FA7		XOR R15, R10
9CC6	0902		INC R9, R0
9CC8	0F1F		GETA R1, $F
9CCA	0000		HALT
9CCC	3440		MOVE $80, R4
9CCE	0F22		INC R15, R2
9CD0	3340		MOVE $80, R3
9CD2	0002		INC R0, R0
9CD4	3200		MOVE $00, R2
9CD6	0FA6		OR R15, R10
9CD8	F840		SUB R8, #$41
9CDA	0034		RET R3

9CDC	400F		PUTB $0, (R0)
9CDE	1AF1		CTRL $A, #$F1
9CE0	5FC0		MOVE (R12)', R15
9CE2	0C01		DEC R12, R0
9CE4	0FD0		DEC2 R15, R13
9CE6	0F18		ADD R15, R1
9CE8	0D01		DEC R13, R0
9CEA	0FCE		GETB R12, $F
9CEC	0FD0		DEC2 R15, R13
9CEE	184E		CTRL $8, #$4E
9CF0	7C0C		MOVB (R0), R12
9CF2	010F		GETA R0, $1
9CF4	D00F		JMP (R0)
9CF6	CEFE		SNBC R14, R15
9CF8	0901		DEC R9, R0
9CFA	0F1F		GETA R1, $F
9CFC	0000		HALT
9CFE	0C02		INC R12, R0
9D00	0F21		DEC R15, R2
9D02	0FCB		ADDH2 R15, R12
9D04	0C01		DEC R12, R0
9D06	0F1A		ADDH R15, R1
9D08	0FD0		DEC2 R15, R13
9D0A	0902		INC R9, R0
9D0C	0FD5		AND R15, R13
9D0E	00FF		GETA R15, $0
9D10	CE00		SLE R14, R0
9D12	0FD0		DEC2 R15, R13
9D14	4EA9		PUTB $E, (R10)
9D16	F15F		SUB R1, #$60
9D18	C0FE		SNBC R0, R15
9D1A	0C02		INC R12, R0
9D1C	0FD2		INC R15, R13
9D1E	0F17		XOR R15, R1
9D20	0902		INC R9, R0
9D22	0F1F		GETA R1, $F
9D24	0000		HALT
9D26	2C01		MOVE R12, $02
9D28	0F22		INC R15, R2
9D2A	062C		MHL R6, R2
9D2C	010F		GETA R0, $1
9D2E	1A1C		CTRL $A, #$1C
9D30	F15F		SUB R1, #$60
9D32	C0FE		SNBC R0, R15
9D34	C500		SLE R5, R0
9D36	0F22		INC R15, R2
9D38	C001		SLT R0, R0
9D3A	4EFB		PUTB $E, (R15)
9D3C	0902		INC R9, R0
9D3E	0FD5		AND R15, R13
9D40	0000		HALT
9D42	0E20		DEC2 R14, R2
9D44	0FD5		AND R15, R13
9D46	0F17		XOR R15, R1
9D48	0D02		INC R13, R0
9D4A	0FD5		AND R15, R13
9D4C	0FD2		INC R15, R13
9D4E	104E		CTRL $0, #$4E
9D50	A1FE		ADD R1, #$FF
9D52	8C02		LBI R12, #$02
9D54	1E0F		CTRL $E, #$0F
9D56	D532		MOVE R5, (R3)+'
9D58	000F		GETA R0, $0
9D5A	A673		ADD R6, #$74
9D5C	1006		CTRL $0, #$06
9D5E	F810		SUB R8, #$11
9D60	0049		SUB R0, R4
9D62	0100		DEC2 R1, R0
9D64	0000		HALT
9D66	F04E		BRA $9D19		; -> -$4F(R0)

9D68	B8FE		SET R8, #$FE
9D6A	8E20		LBI R14, #$20
9D6C	1E0F		CTRL $E, #$0F
9D6E	D5FE		MOVE R5, (R15)
9D70	8D02		LBI R13, #$02
9D72	1E0F		CTRL $E, #$0F
9D74	CB18		SGT R11, R1
9D76	4ED1		PUTB $E, (R13)++
9D78	F177		SUB R1, #$78
9D7A	F8FE		SUB R8, #$FF
9D7C	3200		MOVE $00, R2
9D7E	0FA6		OR R15, R10
9D80	7330		MOVB (R3)+, R3
9D82	02B5		AND R2, R11
9D84	1024		CTRL $0, #$24
9D86	1400		CTRL $4, #$00
9D88	0FAB		ADDH2 R15, R10
9D8A	00FB		ADDH2 R0, R15
9D8C	1030		CTRL $0, #$30
9D8E	4400		PUTB $4, (R0)+
9D90	000F		GETA R0, $0
9D92	ABF8		ADD R11, #$F9
9D94	1000		CTRL $0, #$00
9D96	6C01		MOVB R12, (R0)++
9D98	0021		DEC R0, R2
9D9A	4E10		PUTB $E, (R1)+
9D9C	000E		GETB R0, $0
9D9E	DBF0		MOVE R11, (R15)'
9DA0	4EB5		PUTB $E, (R11)--
9DA2	7CFF		MOVB (R15), R12
9DA4	0232		INC R2, R3
9DA6	000F		GETA R0, $0
9DA8	A654		ADD R6, #$55
9DAA	0003		INC2 R0, R0
9DAC	02F8		ADD R2, R15
9DAE	1000		CTRL $0, #$00
9DB0	4C01		PUTB $C, (R0)++
9DB2	020F		GETA R0, $2
9DB4	CE4E		SNBC R14, R4
9DB6	1002		CTRL $0, #$02
9DB8	0EDB		ADDH2 R14, R13
9DBA	7310		MOVB (R1)+, R3
9DBC	0534		MOVE R5, R3
9DBE	100B		CTRL $0, #$0B
9DC0	63F9		MOVB R3, (R15)
9DC2	1020		CTRL $0, #$20
9DC4	B410		SET R4, #$10
9DC6	1835		CTRL $8, #$35
9DC8	200B		JMP ($0016)

9DCA	65F0		MOVB R5, (R15)+
9DCC	3BD8		MOVE $1B0, R11
9DCE	3C7C		MOVE $F8, R12
9DD0	0BB4		MOVE R11, R11
9DD2	F03B		BRA $9D98		; -> -$3C(R0)

9DD4	CEFE		SNBC R14, R15
9DD6	3C7D		MOVE $FA, R12
9DD8	0BB4		MOVE R11, R11
9DDA	F03B		BRA $9DA0		; -> -$3C(R0)

9DDC	CEFE		SNBC R14, R15
9DDE	3C7E		MOVE $FC, R12
9DE0	0BB4		MOVE R11, R11
9DE2	F03B		BRA $9DA8		; -> -$3C(R0)

9DE4	CEFE		SNBC R14, R15
9DE6	3C7F		MOVE $FE, R12
9DE8	0BB4		MOVE R11, R11
9DEA	F03B		BRA $9DB0		; -> -$3C(R0)

9DEC	CEFE		SNBC R14, R15
9DEE	3C80		MOVE $100, R12
9DF0	0BB4		MOVE R11, R11
9DF2	F03B		BRA $9DB8		; -> -$3C(R0)

9DF4	CEFE		SNBC R14, R15
9DF6	3C81		MOVE $102, R12
9DF8	0BB4		MOVE R11, R11
9DFA	F03B		BRA $9DC0		; -> -$3C(R0)

9DFC	CEFE		SNBC R14, R15
9DFE	093F		GETA R3, $9
9E00	05C0		DEC2 R5, R12
9E02	0040		DEC2 R0, R4
9E04	F950		SUB R9, #$51
9E06	503B		MOVE (R3), R0
9E08	010B		ADDH2 R1, R0
9E0A	A13B		ADD R1, #$3C
9E0C	010B		ADDH2 R1, R0
9E0E	A533		ADD R5, #$34
9E10	4000		PUTB $0, (R0)+
9E12	0433		INC2 R4, R3
9E14	200F		JMP ($001E)

9E16	C073		SZ R0
9E18	1002		CTRL $0, #$02
9E1A	DD40		MOVE R13, (R4)'
9E1C	004F		GETA R4, $0
9E1E	2AFE		MOVE R10, $1FC
9E20	093F		GETA R3, $9
9E22	05C0		DEC2 R5, R12
9E24	0040		DEC2 R0, R4
9E26	3B01		MOVE $02, R11
9E28	0BA1		DEC R11, R10
9E2A	3B01		MOVE $02, R11
9E2C	0BA5		AND R11, R10
9E2E	3B01		MOVE $02, R11
9E30	0B6C		MHL R11, R6
9E32	C500		SLE R5, R0
9E34	0B6E		GETB R6, $B
9E36	C081		SLT R0, R8
9E38	5026		MOVE (R2)-~, R0
9E3A	3C01		MOVE $02, R12
9E3C	0B02		INC R11, R0
9E3E	C300		SLE R3, R0
9E40	0B00		DEC2 R11, R0
9E42	3901		MOVE $02, R9
9E44	0BA1		DEC R11, R10
9E46	4F26		PUTB $F, (R2)---
9E48	3100		MOVE $00, R1
9E4A	0B6E		GETB R6, $B
9E4C	3B01		MOVE $02, R11
9E4E	0BA1		DEC R11, R10
9E50	F03B		BRA $9E16		; -> -$3C(R0)

9E52	DCFE		MOVE R12, (R15)
9E54	3300		MOVE $00, R3
9E56	0003		INC2 R0, R0
9E58	4000		PUTB $0, (R0)+
9E5A	0002		INC R0, R0
9E5C	5BFE		MOVE (R15), R11
9E5E	284F		MOVE R8, $9E
9E60	3A73		MOVE $E6, R10
9E62	1003		CTRL $0, #$03
9E64	DD40		MOVE R13, (R4)'
9E66	0050		DEC2 R0, R5
9E68	2AC5		MOVE R10, $18A
9E6A	000B		ADDH2 R0, R0
9E6C	70C0		MOVB (R12)+, R0
9E6E	8150		LBI R1, #$50
9E70	26FC		MOVE R6, $1F8
9E72	0000		HALT
9E74	7012		MOVB (R1)+++, R0
9E76	0050		DEC2 R0, R5
9E78	2A4F		MOVE R10, $9E
9E7A	404F		PUTB $0, (R4)
9E7C	5150		MOVE (R5)', R1
9E7E	2A00		MOVE R10, $00
9E80	F10B		SUB R1, #$0C
9E82	E4FE		
9E84	3A01		MOVE $02, R10
9E86	0BA1		DEC R11, R10
9E88	0C01		DEC R12, R0
9E8A	0B67		XOR R11, R6
9E8C	0FC0		DEC2 R15, R12
9E8E	3902		MOVE $04, R9
9E90	0B6D		MLH R11, R6
9E92	5026		MOVE (R2)-~, R0
9E94	DC40		MOVE R12, (R4)'
9E96	004F		GETA R4, $0
9E98	1DDD		CTRL $D, #$DD
9E9A	6B00		MOVB R11, (R0)+
9E9C	502A		MOVE (R2), R0
9E9E	7310		MOVB (R1)+, R3
9EA0	01FE		GETB R15, $1
9EA2	3300		MOVE $00, R3
9EA4	0005		AND R0, R0
9EA6	4000		PUTB $0, (R0)+
9EA8	0001		DEC R0, R0
9EAA	F9FE		SUB R9, #$FF
9EAC	204F		JMP ($009E)

9EAE	8A33		LBI R10, #$33
9EB0	0000		HALT
9EB2	0440		DEC2 R4, R4
9EB4	0000		HALT
9EB6	01F5		AND R1, R15
9EB8	204F		JMP ($009E)

9EBA	7933		MOVB (R3)++++, R9
9EBC	0000		HALT
9EBE	0340		DEC2 R3, R4
9EC0	0000		HALT
9EC2	01FE		GETB R15, $1
9EC4	204F		JMP ($009E)

9EC6	BA40		SET R10, #$40
9EC8	0000		HALT
9ECA	01CB		ADDH2 R1, R12
9ECC	2850		MOVE R8, $A0
9ECE	2A39		MOVE R10, $72
9ED0	010B		ADDH2 R1, R0
9ED2	A14F		ADD R1, #$50
9ED4	6FFE		MOVB R15, (R15)
9ED6	C500		SLE R5, R0
9ED8	0B6E		GETB R6, $B
9EDA	C081		SLT R0, R8
9EDC	502A		MOVE (R2), R0
9EDE	7310		MOVB (R1)+, R3
9EE0	033B		ADDH2 R3, R3
9EE2	400B		PUTB $0, (R0)
9EE4	6C3B		MOVB R12, (R3)
9EE6	200B		JMP ($0016)

9EE8	6CDC		MOVB R12, (R13)
9EEA	6B00		MOVB R11, (R0)+
9EEC	4FB1		PUTB $F, (R11)++
9EEE	F04F		BRA $9EA0		; -> -$50(R0)

9EF0	99FE		CLR R9, #$FE
9EF2	3901		MOVE $02, R9
9EF4	0BA1		DEC R11, R10
9EF6	4F80		PUTB $F, (R8)+
9EF8	C500		SLE R5, R0
9EFA	0B6E		GETB R6, $B
9EFC	C081		SLT R0, R8
9EFE	5026		MOVE (R2)-~, R0
9F00	3B20		MOVE $40, R11
9F02	0B6C		MHL R11, R6
9F04	3A40		MOVE $80, R10
9F06	0B6C		MHL R11, R6
9F08	7310		MOVB (R1)+, R3
9F0A	04DC		MHL R4, R13
9F0C	6B00		MOVB R11, (R0)+
9F0E	4FB1		PUTB $F, (R11)++
9F10	F04F		BRA $9EC2		; -> -$50(R0)

9F12	99FE		CLR R9, #$FE
9F14	3901		MOVE $02, R9
9F16	0BA1		DEC R11, R10
9F18	4F91		PUTB $F, (R9)++
9F1A	C500		SLE R5, R0
9F1C	0B6E		GETB R6, $B
9F1E	C081		SLT R0, R8
9F20	5026		MOVE (R2)-~, R0
9F22	3A20		MOVE $40, R10
9F24	0B6C		MHL R11, R6
9F26	3B40		MOVE $80, R11
9F28	0B6C		MHL R11, R6
9F2A	7310		MOVB (R1)+, R3
9F2C	05DC		MHL R5, R13
9F2E	6B00		MOVB R11, (R0)+
9F30	4F9F		PUTB $F, (R9)
9F32	DD40		MOVE R13, (R4)'
9F34	0050		DEC2 R0, R5
9F36	2A3B		MOVE R10, $76
9F38	020B		ADDH2 R2, R0
9F3A	A2F0		ADD R2, #$F1
9F3C	4F1D		PUTB $F, (R1)
9F3E	7310		MOVB (R1)+, R3
9F40	0133		INC2 R1, R3
9F42	0000		HALT
9F44	0540		DEC2 R5, R4
9F46	0000		HALT
9F48	0282		INC R2, R8
9F4A	284F		MOVE R8, $9E
9F4C	B373		SET R3, #$73
9F4E	1005		CTRL $0, #$05
9F50	3A02		MOVE $04, R10
9F52	0BA2		INC R11, R10
9F54	DC6B		MOVE R12, (R6)
9F56	004F		GETA R4, $0
9F58	B1DD		SET R1, #$DD
9F5A	4000		PUTB $0, (R0)+
9F5C	502A		MOVE (R2), R0
9F5E	F04F		BRA $9F10		; -> -$50(R0)

9F60	1DFE		CTRL $D, #$FE
9F62	7310		MOVB (R1)+, R3
9F64	01FE		GETB R15, $1
9F66	3300		MOVE $00, R3
9F68	0003		INC2 R0, R0
9F6A	4000		PUTB $0, (R0)+
9F6C	0001		DEC R0, R0
9F6E	FEFE		SUB R14, #$FF
9F70	2850		MOVE R8, $A0
9F72	2AFE		MOVE R10, $1FC
9F74	3901		MOVE $02, R9
9F76	0BA1		DEC R11, R10
9F78	4FC1		PUTB $F, (R12)++
9F7A	C500		SLE R5, R0
9F7C	0B6E		GETB R6, $B
9F7E	C081		SLT R0, R8
9F80	5026		MOVE (R2)-~, R0
9F82	7310		MOVB (R1)+, R3
9F84	03FE		GETB R15, $3
9F86	DCF1		MOVE R12, (R15)+
9F88	0050		DEC2 R0, R5
9F8A	00DD		MLH R0, R13
9F8C	F000		BRA $9F8D		; -> -$01(R0)

9F8E	4FCB		PUTB $F, (R12)
9F90	7310		MOVB (R1)+, R3
9F92	01F0		DEC2 R1, R15
9F94	4FC3		PUTB $F, (R12)++++
9F96	DAF2		MOVE R10, (R15)+'
9F98	0050		DEC2 R0, R5
9F9A	2AD8		MOVE R10, $1B0
9F9C	F900		SUB R9, #$01
9F9E	502A		MOVE (R2), R0
9FA0	1C00		CTRL $C, #$00
9FA2	0B5A		ADDH R11, R5
9FA4	003F		GETA R3, $0
9FA6	F00B		BRA $9F9C		; -> -$0C(R0)

9FA8	5AFE		MOVE (R15), R10
9FAA	7310		MOVB (R1)+, R3
9FAC	01DD		MLH R1, R13
9FAE	4000		PUTB $0, (R0)+
9FB0	502A		MOVE (R2), R0
9FB2	0C00		DEC2 R12, R0
9FB4	0C62		INC R12, R6
9FB6	0B5A		ADDH R11, R5
9FB8	3C50		MOVE $A0, R12
9FBA	1081		CTRL $0, #$81
9FBC	C70A		SNE R7, R0
9FBE	1080		CTRL $0, #$80
9FC0	3C10		MOVE $20, R12
9FC2	1081		CTRL $0, #$81
9FC4	0C00		DEC2 R12, R0
9FC6	0F24		MOVE R15, R2
9FC8	0C62		INC R12, R6
9FCA	C620		SLE R6, R2
9FCC	77E6		MOVB (R14)---, R7
9FCE	CA0A		SNE R10, R0
9FD0	0F24		MOVE R15, R2
9FD2	4FF1		PUTB $F, (R15)++
9FD4	2507		MOVE R5, $0E
9FD6	0F25		AND R15, R2
9FD8	58FE		MOVE (R15), R8
9FDA	C702		SE R7, R0
9FDC	0F25		AND R15, R2
9FDE	3F0A		MOVE $14, R15
9FE0	0F24		MOVE R15, R2
9FE2	B320		SET R3, #$20
9FE4	7C32		MOVB (R3)+++, R12
9FE6	000F		GETA R0, $0
9FE8	24F6		MOVE R4, $1EC
9FEA	0001		DEC R0, R0
9FEC	F920		SUB R9, #$21
9FEE	0025		AND R0, R2
9FF0	070F		GETA R0, $7
9FF2	2500		MOVE R5, $00
9FF4	C702		SE R7, R0
9FF6	0F25		AND R15, R2
9FF8	C70C		SNS R7
9FFA	0168		ADD R1, R6
9FFC	F050		BRA $9FAD		; -> -$51(R0)

9FFE	1DFE		CTRL $D, #$FE
A000	3C0A		MOVE $14, R12
A002	0B5A		ADDH R11, R5
A004	7310		MOVB (R1)+, R3
A006	01DD		MLH R1, R13
A008	4000		PUTB $0, (R0)+
A00A	500A		MOVE (R0), R0
A00C	3C01		MOVE $02, R12
A00E	0C62		INC R12, R6
A010	F04F		BRA $9FC2		; -> -$50(R0)

A012	DCFE		MOVE R12, (R15)
A014	DBF6		MOVE R11, (R15)-~
A016	0050		DEC2 R0, R5
A018	2ADA		MOVE R10, $1B4
A01A	F000		BRA $A01B		; -> -$01(R0)

A01C	502A		MOVE (R2), R0
A01E	7FF0		MOVB (R15)+, R15
A020	001E		GETB R1, $0
A022	000B		ADDH2 R0, R0
A024	5A00		MOVE (R0)', R10
A026	7EF0		MOVB (R15)+, R14
A028	00F0		DEC2 R0, R15
A02A	4FD5		PUTB $F, (R13)--
A02C	3A80		MOVE $100, R10
A02E	0BA2		INC R11, R10
A030	093F		GETA R3, $9
A032	05C0		DEC2 R5, R12
A034	0040		DEC2 R0, R4
A036	F04F		BRA $9FE8		; -> -$50(R0)

A038	C1FE		SNBC R1, R15
A03A	3880		MOVE $100, R8
A03C	0BA2		INC R11, R10
A03E	4F1D		PUTB $F, (R1)
A040	3B80		MOVE $100, R11
A042	0BA2		INC R11, R10
A044	3A80		MOVE $100, R10
A046	0BB5		AND R11, R11
A048	F08F		BRA $9FBA		; -> -$90(R0)

A04A	EEFE		
A04C	3C33		MOVE $66, R12
A04E	0BB4		MOVE R11, R11
A050	F08F		BRA $9FC2		; -> -$90(R0)

A052	EEFE		
A054	3C32		MOVE $64, R12
A056	0B5A		ADDH R11, R5
A058	F00B		BRA $A04E		; -> -$0C(R0)

A05A	E6FE		
A05C	3A80		MOVE $100, R10
A05E	102C		CTRL $0, #$2C
A060	F050		BRA $A011		; -> -$51(R0)

A062	34FE		MOVE $1FC, R4
A064	3B80		MOVE $100, R11
A066	102C		CTRL $0, #$2C
A068	300C		MOVE $18, R0
A06A	0FA4		MOVE R15, R10
A06C	3510		MOVE $20, R5
A06E	0EB4		MOVE R14, R11
A070	3250		MOVE $A0, R2
A072	0ED5		AND R14, R13
A074	CD00		SLE R13, R0
A076	0EB6		OR R14, R11
A078	505E		MOVE (R5), R0
A07A	3006		MOVE $0C, R0
A07C	0EB0		DEC2 R14, R11
A07E	3002		MOVE $04, R0
A080	0EBA		ADDH R14, R11
A082	D708		MOVE R7, (R0)
A084	00FE		GETB R15, $0
A086	3750		MOVE $A0, R7
A088	0EDB		ADDH2 R14, R13
A08A	C081		SLT R0, R8
A08C	505A		MOVE (R5), R0
A08E	3510		MOVE $20, R5
A090	0EB4		MOVE R14, R11
A092	3006		MOVE $0C, R0
A094	0EB0		DEC2 R14, R11
A096	3002		MOVE $04, R0
A098	0EBA		ADDH R14, R11
A09A	D706		MOVE R7, (R0)-~
A09C	0038		ADD R0, R3
A09E	8010		LBI R0, #$10
A0A0	2C50		MOVE R12, $A0
A0A2	56FE		MOVE (R15), R6
A0A4	C002		SE R0, R0
A0A6	5043		MOVE (R4)++, R0
A0A8	F050		BRA $A059		; -> -$51(R0)

A0AA	41FE		PUTB $1, (R15)
A0AC	C004		SS R0
A0AE	5043		MOVE (R4)++, R0
A0B0	F050		BRA $A061		; -> -$51(R0)

A0B2	41FE		PUTB $1, (R15)
A0B4	301A		MOVE $34, R0
A0B6	0EBA		ADDH R14, R11
A0B8	300E		MOVE $1C, R0
A0BA	0FA4		MOVE R15, R10
A0BC	0909		SUB R9, R0
A0BE	1022		CTRL $0, #$22
A0C0	0000		HALT
A0C2	3230		MOVE $60, R2
A0C4	0EB6		OR R14, R11
A0C6	3410		MOVE $20, R4
A0C8	1027		CTRL $0, #$27
A0CA	3430		MOVE $60, R4
A0CC	1029		CTRL $0, #$29
A0CE	3006		MOVE $0C, R0
A0D0	0EB0		DEC2 R14, R11
A0D2	C410		SLE R4, R1
A0D4	0EC2		INC R14, R12
A0D6	1050		CTRL $0, #$50
A0D8	713A		MOVB (R3), R1
A0DA	8010		LBI R0, #$10
A0DC	2B34		MOVE R11, $68
A0DE	100E		CTRL $0, #$0E
A0E0	C4FE		SNBC R4, R15
A0E2	3750		MOVE $A0, R7
A0E4	0EDB		ADDH2 R14, R13
A0E6	C081		SLT R0, R8
A0E8	50BB		MOVE (R11), R0
A0EA	3520		MOVE $40, R5
A0EC	0EB4		MOVE R14, R11
A0EE	3240		MOVE $80, R2
A0F0	0EB6		OR R14, R11
A0F2	3420		MOVE $40, R4
A0F4	1022		CTRL $0, #$22
A0F6	3440		MOVE $80, R4
A0F8	1024		CTRL $0, #$24
A0FA	3006		MOVE $0C, R0
A0FC	0EB0		DEC2 R14, R11
A0FE	3750		MOVE $A0, R7
A100	0EDB		ADDH2 R14, R13
A102	C420		SLE R4, R2
A104	0EC2		INC R14, R12
A106	1050		CTRL $0, #$50
A108	893A		LBI R9, #$3A
A10A	8010		LBI R0, #$10
A10C	2634		MOVE R6, $68
A10E	200E		JMP ($001C)

A110	C4FE		SNBC R4, R15
A112	3360		MOVE $C0, R3
A114	003C		MHL R0, R3
A116	093B		ADDH2 R9, R3
A118	0FAA		ADDH R15, R10
A11A	0040		DEC2 R0, R4
A11C	FA40		SUB R10, #$41
A11E	6008		MOVB R0, (R0)
A120	5098		MOVE (R9), R0
A122	2460		MOVE R4, $C0
A124	0FAA		ADDH R15, R10
A126	00F9		SUB R0, R15
A128	4060		PUTB $0, (R6)+
A12A	F820		SUB R8, #$21
A12C	60F0		MOVB R0, (R15)+
A12E	509C		MOVE (R9), R0
A130	2440		MOVE R4, $80
A132	0FAA		ADDH R15, R10
A134	00F9		SUB R0, R15
A136	4040		PUTB $0, (R4)+
A138	FA30		SUB R10, #$31
A13A	6008		MOVB R0, (R0)
A13C	50A6		MOVE (R10)-~, R0
A13E	1460		CTRL $4, #$60
A140	0FE6		OR R15, R14
A142	00F9		SUB R0, R15
A144	3060		MOVE $C0, R0
A146	F810		SUB R8, #$11
A148	60F0		MOVB R0, (R15)+
A14A	50AA		MOVE (R10), R0
A14C	1430		CTRL $4, #$30
A14E	0FE6		OR R15, R14
A150	00F9		SUB R0, R15
A152	3030		MOVE $60, R0
A154	0D3B		ADDH2 R13, R3
A156	0FAA		ADDH R15, R10
A158	0FE6		OR R15, R14
A15A	2050		JMP ($00A0)

A15C	F939		SUB R9, #$3A
A15E	8010		LBI R0, #$10
A160	2C51		MOVE R12, $A2
A162	05FE		GETB R15, $5
A164	0D3B		ADDH2 R13, R3
A166	0FAA		ADDH R15, R10
A168	0FE6		OR R15, R14
A16A	1050		CTRL $0, #$50
A16C	D9FE		MOVE R9, (R15)
A16E	C450		SLE R4, R5
A170	0EDA		ADDH R14, R13
A172	2851		MOVE R8, $A2
A174	00FE		GETB R15, $0
A176	0C04		MOVE R12, R0
A178	1022		CTRL $0, #$22
A17A	1027		CTRL $0, #$27
A17C	3520		MOVE $40, R5
A17E	1022		CTRL $0, #$22
A180	3500		MOVE $00, R5
A182	1024		CTRL $0, #$24
A184	3880		MOVE $100, R8
A186	1026		CTRL $0, #$26
A188	50D0		MOVE (R13)', R0
A18A	FB40		SUB R11, #$41
A18C	0035		AND R0, R3
A18E	100E		CTRL $0, #$0E
A190	C4F8		SGT R4, R15
A192	4010		PUTB $0, (R1)+
A194	3440		MOVE $80, R4
A196	0EC4		MOVE R14, R12
A198	6400		MOVB R4, (R0)+
A19A	0000		HALT
A19C	FB20		SUB R11, #$21
A19E	10FE		CTRL $0, #$FE
A1A0	0C00		DEC2 R12, R0
A1A2	0EB6		OR R14, R11
A1A4	1025		CTRL $0, #$25
A1A6	3420		MOVE $40, R4
A1A8	0EB4		MOVE R14, R11
A1AA	3004		MOVE $08, R0
A1AC	0EB0		DEC2 R14, R11
A1AE	300E		MOVE $1C, R0
A1B0	0FA4		MOVE R15, R10
A1B2	C450		SLE R4, R5
A1B4	0EDA		ADDH R14, R13
A1B6	2050		JMP ($00A0)

A1B8	BEFE		SET R14, #$FE
A1BA	3B80		MOVE $100, R11
A1BC	102B		CTRL $0, #$2B
A1BE	3510		MOVE $20, R5
A1C0	0EB4		MOVE R14, R11
A1C2	3230		MOVE $60, R2
A1C4	0EB6		OR R14, R11
A1C6	3410		MOVE $20, R4
A1C8	1027		CTRL $0, #$27
A1CA	3430		MOVE $60, R4
A1CC	1029		CTRL $0, #$29
A1CE	3750		MOVE $A0, R7
A1D0	0EDB		ADDH2 R14, R13
A1D2	3006		MOVE $0C, R0
A1D4	0EB0		DEC2 R14, R11
A1D6	C410		SLE R4, R1
A1D8	0EC2		INC R14, R12
A1DA	1050		CTRL $0, #$50
A1DC	F334		SUB R3, #$35
A1DE	100E		CTRL $0, #$0E
A1E0	C43A		SNE R4, R3
A1E2	8010		LBI R0, #$10
A1E4	2BFE		MOVE R11, $1FC
A1E6	3520		MOVE $40, R5
A1E8	1022		CTRL $0, #$22
A1EA	3540		MOVE $80, R5
A1EC	1024		CTRL $0, #$24
A1EE	F050		BRA $A19F		; -> -$51(R0)

A1F0	8BFE		LBI R11, #$FE
A1F2	FB00		SUB R11, #$01
A1F4	40F8		PUTB $0, (R15)
A1F6	0030		DEC2 R0, R3
A1F8	C001		SLT R0, R0
A1FA	508B		MOVE (R8), R0
A1FC	F050		BRA $A1AD		; -> -$51(R0)

A1FE	BEFE		SET R14, #$FE
A200	0C04		MOVE R12, R0
A202	1022		CTRL $0, #$22
A204	1027		CTRL $0, #$27
A206	F050		BRA $A1B7		; -> -$51(R0)

A208	DDFE		MOVE R13, (R15)
A20A	0D3B		ADDH2 R13, R3
A20C	0FAA		ADDH R15, R10
A20E	0FE6		OR R15, R14
A210	0050		DEC2 R0, R5
A212	D9F0		MOVE R9, (R15)'
A214	50B7		MOVE (R11)--, R0
A216	300C		MOVE $18, R0
A218	103A		CTRL $0, #$3A
A21A	B820		SET R8, #$20
A21C	1551		CTRL $5, #$51
A21E	9CFE		CLR R12, #$FE
A220	B510		SET R5, #$10
A222	4276		PUTB $2, (R7)---
A224	1042		CTRL $0, #$42
A226	7200		MOVB (R0)+, R2
A228	051C		MHL R5, R1
A22A	0010		DEC2 R0, R1
A22C	4005		PUTB $0, (R0)--
A22E	7530		MOVB (R3)+, R5
A230	0309		SUB R3, R0
A232	3710		MOVE $20, R7
A234	4500		PUTB $5, (R0)+
A236	0014		RET R1

A238	0010		DEC2 R0, R1
A23A	6106		MOVB R1, (R0)---
A23C	FB40		SUB R11, #$41
A23E	10B5		CTRL $0, #$B5
A240	1024		CTRL $0, #$24
A242	F810		SUB R8, #$11
A244	3037		MOVE $6E, R0
A246	100E		CTRL $0, #$0E
A248	DB14		MOVE R11, (R1)~
A24A	0010		DEC2 R0, R1
A24C	4500		PUTB $5, (R0)+
A24E	3510		MOVE $20, R5
A250	0B65		AND R11, R6
A252	DA0C		MOVE R10, (R0)
A254	0651		DEC R6, R5
A256	340D		MOVE $1A, R4
A258	1B10		CTRL $B, #$10
A25A	4510		PUTB $5, (R1)+
A25C	6120		MOVB R1, (R2)+
A25E	519C		MOVE (R9), R1
A260	3C85		MOVE $10A, R12
A262	0BB4		MOVE R11, R11
A264	F03B		BRA $A22A		; -> -$3C(R0)

A266	CEFE		SNBC R14, R15
A268	2C02		MOVE R12, $04
A26A	1041		CTRL $0, #$41
A26C	1EB9		CTRL $E, #$B9
A26E	8014		LBI R0, #$14
A270	514F		MOVE (R4), R1
A272	0D1B		ADDH2 R13, R1
A274	1045		CTRL $0, #$45
A276	1061		CTRL $0, #$61
A278	0851		DEC R8, R5
A27A	45FB		PUTB $5, (R15)
A27C	1040		CTRL $0, #$40
A27E	4400		PUTB $4, (R0)+
A280	0610		DEC2 R6, R1
A282	45B5		PUTB $5, (R11)--
A284	2042		JMP ($0084)

A286	F051		BRA $A236		; -> -$52(R0)

A288	73FE		MOVB (R15), R3
A28A	B520		SET R5, #$20
A28C	42AC		PUTB $2, (R10)
A28E	021E		GETB R1, $2
A290	26F1		MOVE R6, $1E2
A292	77F8		MOVB (R15), R7
A294	BA80		SET R10, #$80
A296	14F1		CTRL $4, #$F1
A298	77F6		MOVB (R15)---, R7
A29A	BB80		SET R11, #$80
A29C	14FE		CTRL $4, #$FE
A29E	0C00		DEC2 R12, R0
A2A0	0F17		XOR R15, R1
A2A2	1040		CTRL $0, #$40
A2A4	0C01		DEC R12, R0
A2A6	0F18		ADD R15, R1
A2A8	103C		CTRL $0, #$3C
A2AA	3300		MOVE $00, R3
A2AC	1045		CTRL $0, #$45
A2AE	3400		MOVE $00, R4
A2B0	0F15		AND R15, R1
A2B2	3C80		MOVE $100, R12
A2B4	0F14		MOVE R15, R1
A2B6	F153		SUB R1, #$54
A2B8	FAFE		SUB R10, #$FF
A2BA	CC80		SLE R12, R8
A2BC	0F1D		MLH R15, R1
A2BE	51A0		MOVE (R10)', R1
A2C0	3520		MOVE $40, R5
A2C2	103C		CTRL $0, #$3C
A2C4	B520		SET R5, #$20
A2C6	42CD		PUTB $2, (R12)
A2C8	400F		PUTB $0, (R0)
A2CA	1D51		CTRL $D, #$51
A2CC	842C		LBI R4, #$2C
A2CE	0010		DEC2 R0, R1
A2D0	4414		PUTB $4, (R1)-
A2D2	AC02		ADD R12, #$03
A2D4	1E26		CTRL $E, #$26
A2D6	F177		SUB R1, #$78
A2D8	F8FE		SUB R8, #$FF
A2DA	BB80		SET R11, #$80
A2DC	14F1		CTRL $4, #$F1
A2DE	77F6		MOVB (R15)---, R7
A2E0	8C00		LBI R12, #$00
A2E2	1410		CTRL $4, #$10
A2E4	44FE		PUTB $4, (R15)
A2E6	B510		SET R5, #$10
A2E8	2433		MOVE R4, $66
A2EA	00FF		GETA R15, $0
A2EC	FFB6		SUB R15, #$B7
A2EE	001C		MHL R0, R1
A2F0	7C40		MOVB (R4)+, R12
A2F2	0054		RET R5

A2F4	0001		DEC R0, R0
A2F6	0032		INC R0, R3
A2F8	0010		DEC2 R0, R1
A2FA	4044		PUTB $0, (R4)-
A2FC	0000		HALT
A2FE	1045		CTRL $0, #$45
A300	8E20		LBI R14, #$20
A302	260E		MOVE R6, $1C
A304	DABA		MOVE R10, (R11)
A306	1015		CTRL $0, #$15
A308	3310		MOVE $20, R3
A30A	FFFD		SUB R15, #$FE
A30C	B610		SET R6, #$10
A30E	1CB6		CTRL $C, #$B6
A310	1024		CTRL $0, #$24
A312	4C02		PUTB $C, (R0)+++
A314	0010		DEC2 R0, R1
A316	4134		PUTB $1, (R3)-
A318	200D		JMP ($001A)

A31A	B9F1		SET R9, #$F1
A31C	77F6		MOVB (R15)---, R7
A31E	B880		SET R8, #$80
A320	1451		CTRL $4, #$51
A322	98FE		CLR R8, #$FE
A324	B620		SET R6, #$20
A326	4232		PUTB $2, (R3)+++
A328	0010		DEC2 R0, R1
A32A	4084		PUTB $0, (R8)-
A32C	0006		OR R0, R0
A32E	1045		CTRL $0, #$45
A330	3520		MOVE $40, R5
A332	103C		CTRL $0, #$3C
A334	3420		MOVE $40, R4
A336	0DB9		SUB R13, R11
A338	F177		SUB R1, #$78
A33A	F6FE		SUB R6, #$FF
A33C	300E		MOVE $1C, R0
A33E	103A		CTRL $0, #$3A
A340	F08F		BRA $A2B2		; -> -$90(R0)

A342	E2FE		
A344	300C		MOVE $18, R0
A346	0F7E		GETB R7, $F
A348	3510		MOVE $20, R5
A34A	0EB4		MOVE R14, R11
A34C	0C00		DEC2 R12, R0
A34E	0C63		INC2 R12, R6
A350	0EB6		OR R14, R11
A352	3006		MOVE $0C, R0
A354	0EB0		DEC2 R14, R11
A356	3380		MOVE $100, R3
A358	51B1		MOVE (R11)+, R1
A35A	300C		MOVE $18, R0
A35C	0C5C		MHL R12, R5
A35E	F00B		BRA $A354		; -> -$0C(R0)

A360	D4FE		MOVE R4, (R15)
A362	3520		MOVE $40, R5
A364	0DB9		SUB R13, R11
A366	B530		SET R5, #$30
A368	04B6		OR R4, R11
A36A	3006		MOVE $0C, R0
A36C	B520		SET R5, #$20
A36E	1635		CTRL $6, #$35
A370	100D		CTRL $0, #$0D
A372	A635		ADD R6, #$36
A374	500D		MOVE (R0), R0
A376	BD39		SET R13, #$39
A378	800D		LBI R0, #$0D
A37A	A851		ADD R8, #$52
A37C	F9FE		SUB R9, #$FF
A37E	CC00		SLE R12, R0
A380	0DAA		ADDH R13, R10
A382	51D4		MOVE (R13)~, R1
A384	FA20		SUB R10, #$21
A386	3048		MOVE $90, R0
A388	5205		MOVE (R0)-, R2
A38A	9C00		CLR R12, #$00
A38C	0000		HALT
A38E	B320		SET R3, #$20
A390	0136		OR R1, R3
A392	500E		MOVE (R0), R0
A394	DB7D		MOVE R11, (R7)
A396	7D00		MOVB (R0)+, R13
A398	5051		MOVE (R5)+, R0
A39A	F9FE		SUB R9, #$FF
A39C	7310		MOVB (R1)+, R3
A39E	013F		GETA R3, $1
A3A0	010D		MLH R1, R0
A3A2	AAC0		ADD R10, #$C1
A3A4	0151		DEC R1, R5
A3A6	C2FE		SNBC R2, R15
A3A8	3980		MOVE $100, R9
A3AA	0DA8		ADD R13, R10
A3AC	51F9		MOVE (R15), R1
A3AE	FA20		SUB R10, #$21
A3B0	3048		MOVE $90, R0
A3B2	5205		MOVE (R0)-, R2
A3B4	BC15		SET R12, #$15
A3B6	0039		SUB R0, R3
A3B8	050E		GETB R0, $5
A3BA	D651		MOVE R6, (R5)+
A3BC	E1FE		
A3BE	BC6B		SET R12, #$6B
A3C0	00FE		GETB R15, $0
A3C2	B320		SET R3, #$20
A3C4	0135		AND R1, R3
A3C6	100D		CTRL $0, #$0D
A3C8	B974		SET R9, #$74
A3CA	2016		JMP ($002C)

A3CC	3905		MOVE $0A, R9
A3CE	0ED6		OR R14, R13
A3D0	51EF		MOVE (R14), R1
A3D2	3650		MOVE $A0, R6
A3D4	0EDB		ADDH2 R14, R13
A3D6	3450		MOVE $A0, R4
A3D8	0DBD		MLH R13, R11
A3DA	300E		MOVE $1C, R0
A3DC	0F7E		GETB R7, $F
A3DE	D450		MOVE R4, (R5)'
A3E0	1C18		CTRL $C, #$18
A3E2	51F4		MOVE (R15)~, R1
A3E4	7450		MOVB (R5)+, R4
A3E6	1CFE		CTRL $C, #$FE
A3E8	0901		DEC R9, R0
A3EA	0DBD		MLH R13, R11
A3EC	0000		HALT
A3EE	300E		MOVE $1C, R0
A3F0	0F7E		GETB R7, $F
A3F2	FB70		SUB R11, #$71
A3F4	80FA		LBI R0, #$FA
A3F6	2030		JMP ($0060)

A3F8	4852		PUTB $8, (R5)+++
A3FA	05FE		GETB R15, $5
A3FC	BC7D		SET R12, #$7D
A3FE	00B3		INC2 R0, R11
A400	2001		JMP ($0002)

A402	3650		MOVE $A0, R6
A404	0EDB		ADDH2 R14, R13
A406	FC70		SUB R12, #$71
A408	00FE		GETB R15, $0
A40A	FB40		SUB R11, #$41
A40C	10FB		CTRL $0, #$FB
A40E	6080		MOVB R0, (R8)+
A410	3510		MOVE $20, R5
A412	0DB9		SUB R13, R11
A414	7C02		MOVB (R0)+++, R12
A416	0279		SUB R2, R7
A418	8011		LBI R0, #$11
A41A	5216		MOVE (R1)-~, R2
A41C	4C01		PUTB $C, (R0)++
A41E	080E		GETB R0, $8
A420	DB78		MOVE R11, (R7)
A422	0815		AND R8, R1
A424	5216		MOVE (R1)-~, R2
A426	4C00		PUTB $C, (R0)+
A428	090F		GETA R0, $9
A42A	13FE		CTRL $3, #$FE
A42C	D300		MOVE R3, (R0)'
A42E	00FE		GETB R15, $0
A430	7910		MOVB (R1)+, R9
A432	1152		CTRL $1, #$52
A434	18FE		CTRL $8, #$FE
A436	3300		MOVE $00, R3
A438	F3F0		SUB R3, #$F1
A43A	D400		MOVE R4, (R0)'
A43C	0C28		ADD R12, R2
A43E	5228		MOVE (R2), R2
A440	F123		SUB R1, #$24
A442	E4FE		
A444	F16B		SUB R1, #$6C
A446	E2FE		
A448	C087		SBSH R0, R8
A44A	522F		MOVE (R2), R2
A44C	F052		BRA $A3FB		; -> -$53(R0)

A44E	16FE		CTRL $6, #$FE
A450	DD00		MOVE R13, (R0)'
A452	0C52		INC R12, R5
A454	2F75		MOVE R15, $EA
A456	2004		JMP ($0008)

A458	FB10		SUB R11, #$11
A45A	40FC		PUTB $0, (R15)
A45C	6000		MOVB R0, (R0)+
A45E	5C01		MOVE (R0)+, R12
A460	1604		CTRL $6, #$04
A462	5E10		MOVE (R1)', R14
A464	1606		CTRL $6, #$06
A466	F08F		BRA $A3D8		; -> -$90(R0)

A468	EAFE		
A46A	B310		SET R3, #$10
A46C	09F1		DEC R9, R15
A46E	6BFC		MOVB R11, (R15)
A470	CD00		SLE R13, R0
A472	0EB6		OR R14, R11
A474	5244		MOVE (R4)~, R2
A476	3B80		MOVE $100, R11
A478	0DBF		GETA R11, $D
A47A	F12F		SUB R1, #$30
A47C	E2FE		
A47E	0C01		DEC R12, R0
A480	0DB7		XOR R13, R11
A482	0DBB		ADDH2 R13, R11
A484	F052		BRA $A433		; -> -$53(R0)

A486	5BFE		MOVE (R15), R11
A488	3510		MOVE $20, R5
A48A	0EB4		MOVE R14, R11
A48C	3200		MOVE $00, R2
A48E	0EB6		OR R14, R11
A490	DD4B		MOVE R13, (R4)
A492	0052		INC R0, R5
A494	5133		MOVE (R3)++, R1
A496	0000		HALT
A498	0440		DEC2 R4, R4
A49A	0001		DEC R0, R0
A49C	01CF		GETA R12, $1
A49E	2052		JMP ($00A4)

A4A0	6CFE		MOVB R12, (R15)
A4A2	0910		DEC2 R9, R1
A4A4	10CE		CTRL $0, #$CE
A4A6	0040		DEC2 R0, R4
A4A8	1400		CTRL $4, #$00
A4AA	10CE		CTRL $0, #$CE
A4AC	003A		ADDH R0, R3
A4AE	800D		LBI R0, #$0D
A4B0	BF30		SET R15, #$30
A4B2	060E		GETB R0, $6
A4B4	B0FE		SET R0, #$FE
A4B6	EC5B		
A4B8	0852		INC R8, R5
A4BA	622C		MOVB R2, (R2)
A4BC	010D		MLH R1, R0
A4BE	B507		SET R5, #$07
A4C0	F052		BRA $A46F		; -> -$53(R0)

A4C2	68FE		MOVB R8, (R15)
A4C4	B310		SET R3, #$10
A4C6	07F1		DEC R7, R15
A4C8	23E8		MOVE R3, $1D0
A4CA	0C01		DEC R12, R0
A4CC	0DB5		AND R13, R11
A4CE	0F25		AND R15, R2
A4D0	3A08		MOVE $10, R10
A4D2	0B6C		MHL R11, R6
A4D4	F047		BRA $A48E		; -> -$48(R0)

A4D6	D4FE		MOVE R4, (R15)
A4D8	3410		MOVE $20, R4
A4DA	0FC8		ADD R15, R12
A4DC	F147		SUB R1, #$48
A4DE	DAFE		MOVE R10, (R15)
A4E0	301C		MOVE $38, R0
A4E2	0EB0		DEC2 R14, R11
A4E4	D708		MOVE R7, (R0)
A4E6	00D7		XOR R0, R13
A4E8	1200		CTRL $2, #$00
A4EA	D70C		MOVE R7, (R0)
A4EC	0072		INC R0, R7
A4EE	4003		PUTB $0, (R0)++++
A4F0	3330		MOVE $60, R3
A4F2	003D		MLH R0, R3
A4F4	FA40		SUB R10, #$41
A4F6	3000		MOVE $00, R0
A4F8	52B2		MOVE (R11)+', R2
A4FA	3C6B		MOVE $D6, R12
A4FC	0FCC		MHL R15, R12
A4FE	EC5B		
A500	0852		INC R8, R5
A502	A62C		ADD R6, #$2D
A504	010F		GETA R0, $1
A506	CE07		SBSH R14, R0
A508	0C00		DEC2 R12, R0
A50A	0FCD		MLH R15, R12
A50C	0FCE		GETB R12, $F
A50E	3EF0		MOVE $1E0, R14
A510	0FCD		MLH R15, R12
A512	C9F9		SGE R9, R15
A514	0FCD		MLH R15, R12
A516	528E		MOVE (R8), R2
A518	3F39		MOVE $72, R15
A51A	0FCD		MLH R15, R12
A51C	0B01		DEC R11, R0
A51E	0FCE		GETB R12, $F
A520	0FCF		GETA R12, $F
A522	3C02		MOVE $04, R12
A524	0B02		INC R11, R0
A526	C300		SLE R3, R0
A528	0B00		DEC2 R11, R0
A52A	3310		MOVE $20, R3
A52C	0580		DEC2 R5, R8
A52E	3520		MOVE $40, R5
A530	0FC8		ADD R15, R12
A532	3740		MOVE $80, R7
A534	0EDB		ADDH2 R14, R13
A536	6440		MOVB R4, (R4)+
A538	0001		DEC R0, R0
A53A	F810		SUB R8, #$11
A53C	404C		PUTB $0, (R4)
A53E	0300		DEC2 R3, R0
A540	0FCC		MHL R15, R12
A542	F910		SUB R9, #$11
A544	40F1		PUTB $0, (R15)++
A546	17F2		CTRL $7, #$F2
A548	F00B		BRA $A53E		; -> -$0C(R0)

A54A	F4FE		SUB R4, #$FF
A54C	3440		MOVE $80, R4
A54E	0FCA		ADDH R15, R12
A550	B310		SET R3, #$10
A552	07F1		DEC R7, R15
A554	23E8		MOVE R3, $1D0
A556	3540		MOVE $80, R5
A558	0FCA		ADDH R15, R12
A55A	0C01		DEC R12, R0
A55C	0FCE		GETB R12, $F
A55E	0F25		AND R15, R2
A560	F052		BRA $A50F		; -> -$53(R0)

A562	84FE		LBI R4, #$FE
A564	3CAE		MOVE $15C, R12
A566	0BB4		MOVE R11, R11
A568	F03B		BRA $A52E		; -> -$3C(R0)

A56A	CEFE		SNBC R14, R15
A56C	300C		MOVE $18, R0
A56E	0C5C		MHL R12, R5
A570	3940		MOVE $80, R9
A572	0DBF		GETA R11, $D
A574	52E2		MOVE (R14)+', R2
A576	3A40		MOVE $80, R10
A578	0DBF		GETA R11, $D
A57A	C520		SLE R5, R2
A57C	0EE2		INC R14, R14
A57E	C081		SLT R0, R8
A580	52C9		MOVE (R12), R2
A582	3420		MOVE $40, R4
A584	0DAB		ADDH2 R13, R10
A586	F13B		SUB R1, #$3C
A588	B4FE		SET R4, #$FE
A58A	3420		MOVE $40, R4
A58C	0DB9		SUB R13, R11
A58E	F052		BRA $A53D		; -> -$53(R0)

A590	E4FE		
A592	3520		MOVE $40, R5
A594	0B80		DEC2 R11, R8
A596	EC28		
A598	0652		INC R6, R5
A59A	DAFE		MOVE R10, (R15)
A59C	E520		
A59E	00C0		DEC2 R0, R12
A5A0	0152		INC R1, R5
A5A2	CB3C		SNS R11
A5A4	990B		CLR R9, #$0B
A5A6	B43B		SET R4, #$3B
A5A8	200D		JMP ($001A)

A5AA	BF09		SET R15, #$09
A5AC	030E		GETB R0, $3
A5AE	E200		
A5B0	00F0		DEC2 R0, R15
A5B2	3BCE		MOVE $19C, R11
A5B4	B310		SET R3, #$10
A5B6	072C		MHL R7, R2
A5B8	010E		GETB R0, $1
A5BA	E204		
A5BC	3420		MOVE $40, R4
A5BE	0DB9		SUB R13, R11
A5C0	F052		BRA $A56F		; -> -$53(R0)

A5C2	E8FE		
A5C4	3520		MOVE $40, R5
A5C6	0DB9		SUB R13, R11
A5C8	FB10		SUB R11, #$11
A5CA	2036		JMP ($006C)

A5CC	100E		CTRL $0, #$0E
A5CE	E4FE		
A5D0	DD6B		MOVE R13, (R6)
A5D2	0052		INC R0, R5
A5D4	EEFE		
A5D6	7310		MOVB (R1)+, R3
A5D8	01F0		DEC2 R1, R15
A5DA	52E8		MOVE (R14), R2
A5DC	DCFF		MOVE R12, (R15)
A5DE	0052		INC R0, R5
A5E0	CEDC		SNS R14
A5E2	4000		PUTB $0, (R0)+
A5E4	52EB		MOVE (R14), R2
A5E6	FB00		SUB R11, #$01
A5E8	1030		CTRL $0, #$30
A5EA	0A00		DEC2 R10, R0
A5EC	FFFB		SUB R15, #$FC
A5EE	3010		MOVE $20, R0
A5F0	FB10		SUB R11, #$11
A5F2	00F1		DEC R0, R15
A5F4	77EE		MOVB (R14), R7
A5F6	F910		SUB R9, #$11
A5F8	2034		JMP ($0068)

A5FA	100E		CTRL $0, #$0E
A5FC	E40C		
A5FE	010C		MHL R1, R0
A600	600D		MOVB R0, (R0)
A602	B730		SET R7, #$30
A604	0E0C		MHL R14, R0
A606	5CFE		MOVE (R15), R12
A608	FB00		SUB R11, #$01
A60A	10D9		CTRL $0, #$D9
A60C	1706		CTRL $7, #$06
A60E	5317		MOVE (R1)--, R3
A610	D91F		MOVE R9, (R1)
A612	0653		INC2 R6, R5
A614	1CDC		CTRL $C, #$DC
A616	2A06		MOVE R10, $0C
A618	5321		MOVE (R2)+, R3
A61A	DC3C		MOVE R12, (R3)
A61C	0653		INC2 R6, R5
A61E	24D9		MOVE R4, $1B2
A620	2206		MOVE R2, $0C
A622	5329		MOVE (R2), R3
A624	7310		MOVB (R1)+, R3
A626	0730		DEC2 R7, R3
A628	0800		DEC2 R8, R0
A62A	FFFC		SUB R15, #$FD
A62C	8000		LBI R0, #$00
A62E	7310		MOVB (R1)+, R3
A630	0B30		DEC2 R11, R3
A632	0800		DEC2 R8, R0
A634	FFFC		SUB R15, #$FD
A636	8000		LBI R0, #$00
A638	7310		MOVB (R1)+, R3
A63A	0930		DEC2 R9, R3
A63C	0800		DEC2 R8, R0
A63E	FFFC		SUB R15, #$FD
A640	8000		LBI R0, #$00
A642	7310		MOVB (R1)+, R3
A644	1DFC		CTRL $D, #$FC
A646	8000		LBI R0, #$00
A648	7310		MOVB (R1)+, R3
A64A	1330		CTRL $3, #$30
A64C	0800		DEC2 R8, R0
A64E	FFFC		SUB R15, #$FD
A650	8000		LBI R0, #$00
A652	7310		MOVB (R1)+, R3
A654	0630		DEC2 R6, R3
A656	0A00		DEC2 R10, R0
A658	FFFC		SUB R15, #$FD
A65A	8000		LBI R0, #$00
A65C	300C		MOVE $18, R0
A65E	0F46		OR R15, R4
A660	3908		MOVE $10, R9
A662	0BA3		INC2 R11, R10
A664	5352		MOVE (R5)+', R3
A666	3A08		MOVE $10, R10
A668	0B6C		MHL R11, R6
A66A	F183		SUB R1, #$84
A66C	F0FE		BRA $A56F		; -> -$FF(R0)

A66E	3B08		MOVE $10, R11
A670	0B6C		MHL R11, R6
A672	3BF0		MOVE $1E0, R11
A674	0B7C		MHL R11, R7
A676	3200		MOVE $00, R2
A678	0B7C		MHL R11, R7
A67A	3310		MOVE $20, R3
A67C	0003		INC2 R0, R0
A67E	F500		SUB R5, #$01
A680	1033		CTRL $0, #$33
A682	000B		ADDH2 R0, R0
A684	80F8		LBI R0, #$F8
A686	1000		CTRL $0, #$00
A688	1C01		CTRL $C, #$01
A68A	0B7D		MLH R11, R7
A68C	0009		SUB R0, R0
A68E	010B		ADDH2 R1, R0
A690	6500		MOVB R5, (R0)+
A692	000C		MHL R0, R0
A694	010D		MLH R1, R0
A696	AB0B		ADD R11, #$0C
A698	67F1		MOVB R7, (R15)++
A69A	3BB4		MOVE $168, R11
A69C	3420		MOVE $40, R4
A69E	0B65		AND R11, R6
A6A0	3420		MOVE $40, R4
A6A2	0F48		ADD R15, R4
A6A4	300E		MOVE $1C, R0
A6A6	0F46		OR R15, R4
A6A8	B310		SET R3, #$10
A6AA	073B		ADDH2 R7, R3
A6AC	400D		PUTB $0, (R0)
A6AE	BF33		SET R15, #$33
A6B0	3053		MOVE $A6, R0
A6B2	E634		
A6B4	300D		MOVE $1A, R0
A6B6	B5EC		SET R5, #$EC
A6B8	2306		MOVE R3, $0C
A6BA	3BB8		MOVE $170, R11
A6BC	F02F		BRA $A68E		; -> -$30(R0)

A6BE	F200		SUB R2, #$01
A6C0	0000		HALT
A6C2	0000		HALT
A6C4	0000		HALT
A6C6	0000		HALT
A6C8	0000		HALT
A6CA	0000		HALT
A6CC	0000		HALT
A6CE	0000		HALT
A6D0	0000		HALT
A6D2	0000		HALT
A6D4	0000		HALT
A6D6	0000		HALT
A6D8	0000		HALT
A6DA	0000		HALT
A6DC	0000		HALT
A6DE	0000		HALT
A6E0	0000		HALT
A6E2	0000		HALT
A6E4	0000		HALT
A6E6	0000		HALT
A6E8	0000		HALT
A6EA	0000		HALT
A6EC	0000		HALT
A6EE	0000		HALT
A6F0	0000		HALT
A6F2	0000		HALT
A6F4	0000		HALT
A6F6	0000		HALT
A6F8	0000		HALT
A6FA	0000		HALT
A6FC	0000		HALT
A6FE	0000		HALT
A700	0000		HALT
A702	0000		HALT
A704	0000		HALT
A706	0000		HALT
A708	0000		HALT
A70A	0000		HALT
A70C	0000		HALT
A70E	0000		HALT
A710	0000		HALT
A712	0000		HALT
A714	0000		HALT
A716	0000		HALT
A718	0000		HALT
A71A	0000		HALT
A71C	0000		HALT
A71E	0000		HALT
A720	0000		HALT
A722	0000		HALT
A724	0000		HALT
A726	0000		HALT
A728	0000		HALT
A72A	0000		HALT
A72C	0000		HALT
A72E	0000		HALT
A730	0000		HALT
A732	0000		HALT
A734	0000		HALT
A736	0000		HALT
A738	0000		HALT
A73A	0000		HALT
A73C	0000		HALT
A73E	0000		HALT
A740	0000		HALT
A742	0000		HALT
A744	0000		HALT
A746	0000		HALT
A748	0000		HALT
A74A	0000		HALT
A74C	0000		HALT
A74E	0000		HALT
A750	0000		HALT
A752	0000		HALT
A754	0000		HALT
A756	0000		HALT
A758	0000		HALT
A75A	0000		HALT
A75C	0000		HALT
A75E	0000		HALT
A760	0000		HALT
A762	0000		HALT
A764	0000		HALT
A766	0000		HALT
A768	0000		HALT
A76A	0000		HALT
A76C	0000		HALT
A76E	0000		HALT
A770	0000		HALT
A772	0000		HALT
A774	0000		HALT
A776	0000		HALT
A778	0000		HALT
A77A	0000		HALT
A77C	0000		HALT
A77E	0000		HALT
A780	0000		HALT
A782	0000		HALT
A784	0000		HALT
A786	0000		HALT
A788	0000		HALT
A78A	0000		HALT
A78C	0000		HALT
A78E	0000		HALT
A790	0000		HALT
A792	0000		HALT
A794	0000		HALT
A796	0000		HALT
A798	0000		HALT
A79A	0000		HALT
A79C	0000		HALT
A79E	0000		HALT
A7A0	0000		HALT
A7A2	0000		HALT
A7A4	0000		HALT
A7A6	0000		HALT
A7A8	0000		HALT
A7AA	0000		HALT
A7AC	0000		HALT
A7AE	0000		HALT
A7B0	0000		HALT
A7B2	0000		HALT
A7B4	0000		HALT
A7B6	0000		HALT
A7B8	0000		HALT
A7BA	0000		HALT
A7BC	0000		HALT
A7BE	0000		HALT
A7C0	F053		BRA $A76E		; -> -$54(R0)

A7C2	5400		MOVE (R0)', R4
A7C4	F053		BRA $A772		; -> -$54(R0)

A7C6	2E00		MOVE R14, $00
A7C8	F053		BRA $A776		; -> -$54(R0)

A7CA	0400		DEC2 R4, R0
A7CC	F052		BRA $A77B		; -> -$53(R0)

A7CE	B600		SET R6, #$00
A7D0	F052		BRA $A77F		; -> -$53(R0)

A7D2	3500		MOVE $00, R5
A7D4	F051		BRA $A784		; -> -$52(R0)

A7D6	A200		ADD R2, #$01
A7D8	F051		BRA $A788		; -> -$52(R0)

A7DA	0B00		DEC2 R11, R0
A7DC	F050		BRA $A78D		; -> -$51(R0)

A7DE	3200		MOVE $00, R2
A7E0	F050		BRA $A791		; -> -$51(R0)

A7E2	2E00		MOVE R14, $00
A7E4	F050		BRA $A795		; -> -$51(R0)

A7E6	1600		CTRL $6, #$00
A7E8	F04F		BRA $A79A		; -> -$50(R0)

A7EA	1000		CTRL $0, #$00
A7EC	F04E		BRA $A79F		; -> -$4F(R0)

A7EE	FF00		SUB R15, #$01
A7F0	F04D		BRA $A7A4		; -> -$4E(R0)

A7F2	6A00		MOVB R10, (R0)+
A7F4	F04B		BRA $A7AA		; -> -$4C(R0)

A7F6	8C00		LBI R12, #$00
A7F8	F048		BRA $A7B1		; -> -$49(R0)

A7FA	0000		HALT
A7FC	0416		OR R4, R1
A7FE	1797		CTRL $7, #$97
A800	0995		AND R9, R9
A802	0F24		MOVE R15, R2
A804	0000		HALT
A806	050B		ADDH2 R5, R0
A808	103A		CTRL $0, #$3A
A80A	5715		MOVE (R1)-, R7
A80C	093F		GETA R3, $9
A80E	05C0		DEC2 R5, R12
A810	0040		DEC2 R0, R4
A812	0903		INC2 R9, R0
A814	0F7A		ADDH R15, R7
A816	00F0		DEC2 R0, R15
A818	0910		DEC2 R9, R1
A81A	0F5C		MHL R15, R5
A81C	0040		DEC2 R0, R4
A81E	7310		MOVB (R1)+, R3
A820	05DC		MHL R5, R13
A822	7D00		MOVB (R0)+, R13
A824	541A		MOVE (R1), R4
A826	3370		MOVE $E0, R3
A828	5494		MOVE (R9)~, R4
A82A	F15F		SUB R1, #$60
A82C	F8FE		SUB R8, #$FF
A82E	DD7D		MOVE R13, (R7)
A830	0054		RET R5

A832	32FE		MOVE $1FC, R2
A834	7310		MOVB (R1)+, R3
A836	013C		MHL R1, R3
A838	110F		CTRL $1, #$0F
A83A	6D33		MOVB R13, (R3)++++
A83C	200F		JMP ($001E)

A83E	5CFE		MOVE (R15), R12
A840	DC7D		MOVE R12, (R7)
A842	0054		RET R5

A844	2A3F		MOVE R10, $7E
A846	010F		GETA R0, $1
A848	6DC0		MOVB R13, (R12)+
A84A	825F		LBI R2, #$5F
A84C	F4F1		SUB R4, #$F2
A84E	0BF2		INC R11, R15
A850	F054		BRA $A7FD		; -> -$55(R0)

A852	20FE		JMP ($01FC)

A854	7310		MOVB (R1)+, R3
A856	01DC		MHL R1, R13
A858	4000		PUTB $0, (R0)+
A85A	5494		MOVE (R9)~, R4
A85C	DD6B		MOVE R13, (R6)
A85E	005F		GETA R5, $0
A860	F473		SUB R4, #$74
A862	1001		CTRL $0, #$01
A864	DC6B		MOVE R12, (R6)
A866	0054		RET R5

A868	4D33		PUTB $D, (R3)++++
A86A	7000		MOVB (R0)+, R0
A86C	0340		DEC2 R3, R4
A86E	7000		MOVB (R0)+, R0
A870	0200		DEC2 R2, R0
A872	285F		MOVE R8, $BE
A874	F4DA		SUB R4, #$DB
A876	F003		BRA $A874		; -> -$04(R0)

A878	5FF4		MOVE (R15)~, R15
A87A	D8F9		MOVE R8, (R15)
A87C	035F		GETA R5, $3
A87E	F41C		SUB R4, #$1D
A880	000F		GETA R0, $0
A882	A103		ADD R1, #$04
A884	1C00		CTRL $C, #$00
A886	0B56		OR R11, R5
A888	033A		ADDH R3, R3
A88A	200F		JMP ($001E)

A88C	9A73		CLR R10, #$73
A88E	1004		CTRL $0, #$04
A890	DC40		MOVE R12, (R4)'
A892	0054		RET R5

A894	94DD		CLR R4, #$DD
A896	6B00		MOVB R11, (R0)+
A898	5FF4		MOVE (R15)~, R15
A89A	7310		MOVB (R1)+, R3
A89C	01FE		GETB R15, $1
A89E	DD6B		MOVE R13, (R6)
A8A0	0054		RET R5

A8A2	560C		MOVE (R0), R6
A8A4	010F		GETA R0, $1
A8A6	9010		CLR R0, #$10
A8A8	3AF0		MOVE $1E0, R10
A8AA	5462		MOVE (R6)+', R4
A8AC	F154		SUB R1, #$55
A8AE	9FFE		CLR R15, #$FE
A8B0	0A03		INC2 R10, R0
A8B2	0F90		DEC2 R15, R9
A8B4	0F96		OR R15, R9
A8B6	C550		SLE R5, R5
A8B8	0F90		DEC2 R15, R9
A8BA	C081		SLT R0, R8
A8BC	5FF4		MOVE (R15)~, R15
A8BE	DD6B		MOVE R13, (R6)
A8C0	0054		RET R5

A8C2	97FE		CLR R7, #$FE
A8C4	7310		MOVB (R1)+, R3
A8C6	01DD		MLH R1, R13
A8C8	6B00		MOVB R11, (R0)+
A8CA	546B		MOVE (R6), R4
A8CC	0C01		DEC R12, R0
A8CE	0F92		INC R15, R9
A8D0	103C		CTRL $0, #$3C
A8D2	F054		BRA $A87F		; -> -$55(R0)

A8D4	7BFE		MOVB (R15), R11
A8D6	F154		SUB R1, #$55
A8D8	9FFE		CLR R15, #$FE
A8DA	0A03		INC2 R10, R0
A8DC	0F92		INC R15, R9
A8DE	0F96		OR R15, R9
A8E0	C550		SLE R5, R5
A8E2	0F92		INC R15, R9
A8E4	C081		SLT R0, R8
A8E6	5FF4		MOVE (R15)~, R15
A8E8	0D01		DEC R13, R0
A8EA	0F92		INC R15, R9
A8EC	0F90		DEC2 R15, R9
A8EE	105F		CTRL $0, #$5F
A8F0	F4DD		SUB R4, #$DE
A8F2	6B00		MOVB R11, (R0)+
A8F4	549A		MOVE (R9), R4
A8F6	7310		MOVB (R1)+, R3
A8F8	01DC		MHL R1, R13
A8FA	6B00		MOVB R11, (R0)+
A8FC	548D		MOVE (R8), R4
A8FE	3A20		MOVE $40, R10
A900	0F6E		GETB R6, $F
A902	F154		SUB R1, #$55
A904	9FFE		CLR R15, #$FE
A906	0A03		INC2 R10, R0
A908	0F94		MOVE R15, R9
A90A	0F96		OR R15, R9
A90C	C550		SLE R5, R5
A90E	0F94		MOVE R15, R9
A910	C081		SLT R0, R8
A912	5FF4		MOVE (R15)~, R15
A914	DD6B		MOVE R13, (R6)
A916	0054		RET R5

A918	9AFE		CLR R10, #$FE
A91A	7310		MOVB (R1)+, R3
A91C	01F1		DEC R1, R15
A91E	5FF6		MOVE (R15)-~, R15
A920	DC40		MOVE R12, (R4)'
A922	0054		RET R5

A924	BEF0		SET R14, #$F0
A926	5FF4		MOVE (R15)~, R15
A928	0C01		DEC R12, R0
A92A	0F90		DEC2 R15, R9
A92C	103A		CTRL $0, #$3A
A92E	0C01		DEC R12, R0
A930	0F92		INC R15, R9
A932	103C		CTRL $0, #$3C
A934	0C02		INC R12, R0
A936	0F7F		GETA R7, $F
A938	0B69		SUB R11, R6
A93A	F054		BRA $A8E7		; -> -$55(R0)

A93C	90FE		CLR R0, #$FE
A93E	0903		INC2 R9, R0
A940	0F96		OR R15, R9
A942	00F0		DEC2 R0, R15
A944	3C00		MOVE $00, R12
A946	0F6D		MLH R15, R6
A948	DAF0		MOVE R10, (R15)'
A94A	005F		GETA R5, $0
A94C	F4D8		SUB R4, #$D9
A94E	F900		SUB R9, #$01
A950	5FF4		MOVE (R15)~, R15
A952	3E01		MOVE $02, R14
A954	0F6D		MLH R15, R6
A956	C804		SS R8
A958	0F6D		MLH R15, R6
A95A	5FF4		MOVE (R15)~, R15
A95C	1C00		CTRL $C, #$00
A95E	0F99		SUB R15, R9
A960	0073		INC2 R0, R7
A962	1001		CTRL $0, #$01
A964	DC6B		MOVE R12, (R6)
A966	0054		RET R5

A968	BCDC		SET R12, #$DC
A96A	4000		PUTB $0, (R0)+
A96C	54BC		MOVE (R11), R4
A96E	0C02		INC R12, R0
A970	0F96		OR R15, R9
A972	0F97		XOR R15, R9
A974	F054		BRA $A921		; -> -$55(R0)

A976	A4FE		ADD R4, #$FF
A978	FC80		SUB R12, #$81
A97A	00FE		GETB R15, $0
A97C	3820		MOVE $40, R8
A97E	0F9A		ADDH R15, R9
A980	54D7		MOVE (R13)--, R4
A982	3320		MOVE $40, R3
A984	0B82		INC R11, R8
A986	3350		MOVE $A0, R3
A988	0BA0		DEC2 R11, R10
A98A	3F01		MOVE $02, R15
A98C	0FA1		DEC R15, R10
A98E	CAF0		SLE R10, R15
A990	0FA1		DEC R15, R10
A992	54D0		MOVE (R13)', R4
A994	B320		SET R3, #$20
A996	03FA		ADDH R3, R15
A998	2050		JMP ($00A0)

A99A	0057		XOR R0, R5
A99C	0DF0		DEC2 R13, R15
A99E	54C5		MOVE (R12)-, R4
A9A0	B880		SET R8, #$80
A9A2	0057		XOR R0, R5
A9A4	0DFE		GETB R15, $D
A9A6	3420		MOVE $40, R4
A9A8	0B5B		ADDH2 R11, R5
A9AA	3A01		MOVE $02, R10
A9AC	0B6D		MLH R11, R6
A9AE	3C01		MOVE $02, R12
A9B0	0B02		INC R11, R0
A9B2	C300		SLE R3, R0
A9B4	0B00		DEC2 R11, R0
A9B6	3310		MOVE $20, R3
A9B8	0F24		MOVE R15, R2
A9BA	3350		MOVE $A0, R3
A9BC	0200		DEC2 R2, R0
A9BE	7450		MOVB (R5)+, R4
A9C0	0033		INC2 R0, R3
A9C2	5006		MOVE (R0)-~, R0
A9C4	0074		RET R7

A9C6	5002		MOVE (R0)+', R0
A9C8	F15F		SUB R1, #$60
A9CA	E8FE		
A9CC	4C01		PUTB $C, (R0)++
A9CE	040F		GETA R0, $4
A9D0	7FCD		MOVB (R12), R15
A9D2	F00F		BRA $A9C4		; -> -$10(R0)

A9D4	7A54		MOVB (R5)-, R10
A9D6	F00D		BRA $A9CA		; -> -$0E(R0)

A9D8	020F		GETA R0, $2
A9DA	7A0F		MOVB (R0), R10
A9DC	7B20		MOVB (R2)+, R11
A9DE	54F5		MOVE (R15)-, R4
A9E0	F15F		SUB R1, #$60
A9E2	F2FE		SUB R2, #$FF
A9E4	4C01		PUTB $C, (R0)++
A9E6	060F		GETA R0, $6
A9E8	82FE		LBI R2, #$FE
A9EA	CD40		SLE R13, R4
A9EC	0F5C		MHL R15, R5
A9EE	54FD		MOVE (R15), R4
A9F0	0D0F		GETA R0, $D
A9F2	0F5C		MHL R15, R5
A9F4	0F5D		MLH R15, R5
A9F6	2055		JMP ($00AA)

A9F8	01FE		GETB R15, $1
A9FA	3350		MOVE $A0, R3
A9FC	0F5C		MHL R15, R5
A9FE	7450		MOVB (R5)+, R4
AA00	08FE		GETB R15, $8
AA02	7C90		MOVB (R9)+, R12
AA04	10F1		CTRL $0, #$F1
AA06	53FC		MOVE (R15), R3
AA08	DC00		MOVE R12, (R0)'
AA0A	0C55		AND R12, R5
AA0C	0B1C		MHL R11, R1
AA0E	000B		ADDH2 R0, R0
AA10	B40C		SET R4, #$0C
AA12	F05F		BRA $A9B4		; -> -$60(R0)

AA14	E2FE		
AA16	7520		MOVB (R2)+, R5
AA18	0034		RET R3

AA1A	200F		JMP ($001E)

AA1C	72E5		MOVB (R14)--, R2
AA1E	000C		MHL R0, R0
AA20	C001		SLT R0, R0
AA22	5FDC		MOVE (R13), R15
AA24	2C01		MOVE R12, $02
AA26	0F74		MOVE R15, R7
AA28	042C		MHL R4, R2
AA2A	010F		GETA R0, $1
AA2C	7606		MOVB (R0)---, R6
AA2E	3802		MOVE $04, R8
AA30	0B6D		MLH R11, R6
AA32	551E		MOVE (R1), R5
AA34	DD02		MOVE R13, (R0)+'
AA36	0F56		OR R15, R5
AA38	F8F0		SUB R8, #$F1
AA3A	5521		MOVE (R2)+, R5
AA3C	DD0B		MOVE R13, (R0)
AA3E	0F56		OR R15, R5
AA40	F8FE		SUB R8, #$FF
AA42	F183		SUB R1, #$84
AA44	F2FE		SUB R2, #$FF
AA46	3510		MOVE $20, R5
AA48	0F74		MOVE R15, R7
AA4A	3530		MOVE $60, R5
AA4C	0F76		OR R15, R7
AA4E	F830		SUB R8, #$31
AA50	103C		CTRL $0, #$3C
AA52	000F		GETA R0, $0
AA54	9A3A		CLR R10, #$3A
AA56	200B		JMP ($0016)

AA58	6DFB		MOVB R13, (R15)
AA5A	1030		CTRL $0, #$30
AA5C	7C15		MOVB (R1)--, R12
AA5E	00FE		GETB R15, $0
AA60	3510		MOVE $20, R5
AA62	0F72		INC R15, R7
AA64	7C01		MOVB (R0)++, R12
AA66	02D3		INC2 R2, R13
AA68	0000		HALT
AA6A	7910		MOVB (R1)+, R9
AA6C	1155		CTRL $1, #$55
AA6E	35FE		MOVE $1FC, R5
AA70	4D01		PUTB $D, (R0)++
AA72	0C10		DEC2 R12, R1
AA74	3E20		MOVE $40, R14
AA76	56FC		MOVE (R15), R6
AA78	4D01		PUTB $D, (R0)++
AA7A	0C10		DEC2 R12, R1
AA7C	4020		PUTB $0, (R2)+
AA7E	56FC		MOVE (R15), R6
AA80	4D01		PUTB $D, (R0)++
AA82	0C0E		GETB R0, $C
AA84	DA28		MOVE R10, (R2)
AA86	5FDC		MOVE (R13), R15
AA88	3980		MOVE $100, R9
AA8A	00A4		RET R10

AA8C	5FDA		MOVE (R13), R15
AA8E	7510		MOVB (R1)+, R5
AA90	04FE		GETB R15, $4
AA92	3802		MOVE $04, R8
AA94	0B6D		MLH R11, R6
AA96	55B4		MOVE (R11)~, R5
AA98	3901		MOVE $02, R9
AA9A	0F9A		ADDH R15, R9
AA9C	5557		MOVE (R5)--, R5
AA9E	0601		DEC R6, R0
AAA0	0F9F		GETA R9, $F
AAA2	1042		CTRL $0, #$42
AAA4	0C01		DEC R12, R0
AAA6	10CE		CTRL $0, #$CE
AAA8	0F9F		GETA R9, $F
AAAA	3320		MOVE $40, R3
AAAC	10D0		CTRL $0, #$D0
AAAE	3B01		MOVE $02, R11
AAB0	0F9A		ADDH R15, R9
AAB2	FB60		SUB R11, #$61
AAB4	1030		CTRL $0, #$30
AAB6	0A00		DEC2 R10, R0
AAB8	15FB		CTRL $5, #$FB
AABA	7010		MOVB (R1)+, R0
AABC	FB10		SUB R11, #$11
AABE	60F9		MOVB R0, (R15)
AAC0	7060		MOVB (R6)+, R0
AAC2	3350		MOVE $A0, R3
AAC4	1218		CTRL $2, #$18
AAC6	FB00		SUB R11, #$01
AAC8	20F8		JMP ($01F0)

AACA	0070		DEC2 R0, R7
AACC	FA00		SUB R10, #$01
AACE	5000		MOVE (R0)', R0
AAD0	5711		MOVE (R1)+, R7
AAD2	9470		CLR R4, #$70
AAD4	0000		HALT
AAD6	F820		SUB R8, #$21
AAD8	70F8		MOVB (R15), R0
AADA	1070		CTRL $0, #$70
AADC	FA10		SUB R10, #$11
AADE	3020		MOVE $40, R0
AAE0	5585		MOVE (R8)-, R5
AAE2	7310		MOVB (R1)+, R3
AAE4	01FA		ADDH R1, R15
AAE6	1030		CTRL $0, #$30
AAE8	2055		JMP ($00AA)

AAEA	89DC		LBI R9, #$DC
AAEC	FF00		SUB R15, #$01
AAEE	5589		MOVE (R8), R5
AAF0	DC1E		MOVE R12, (R1)
AAF2	0055		AND R0, R5
AAF4	89FE		LBI R9, #$FE
AAF6	BCFF		SET R12, #$FF
AAF8	00FE		GETB R15, $0
AAFA	3320		MOVE $40, R3
AAFC	10CE		CTRL $0, #$CE
AAFE	8D01		LBI R13, #$01
AB00	000F		GETA R0, $0
AB02	9010		CLR R0, #$10
AB04	558D		MOVE (R8), R5
AB06	F055		BRA $AAB2		; -> -$56(R0)

AB08	94FE		CLR R4, #$FE
AB0A	3A01		MOVE $02, R10
AB0C	0F9A		ADDH R15, R9
AB0E	F055		BRA $AABA		; -> -$56(R0)

AB10	30FE		MOVE $1FC, R0
AB12	3A02		MOVE $04, R10
AB14	0F9A		ADDH R15, R9
AB16	F055		BRA $AAC2		; -> -$56(R0)

AB18	7BFE		MOVB (R15), R11
AB1A	3802		MOVE $04, R8
AB1C	0F9A		ADDH R15, R9
AB1E	5549		MOVE (R4), R5
AB20	3B02		MOVE $04, R11
AB22	0F9A		ADDH R15, R9
AB24	F055		BRA $AAD0		; -> -$56(R0)

AB26	30FE		MOVE $1FC, R0
AB28	8D01		LBI R13, #$01
AB2A	000F		GETA R0, $0
AB2C	9200		CLR R2, #$00
AB2E	56FC		MOVE (R15), R6
AB30	8D01		LBI R13, #$01
AB32	000F		GETA R0, $0
AB34	9228		CLR R2, #$28
AB36	559E		MOVE (R9), R5
AB38	3A04		MOVE $08, R10
AB3A	0F9A		ADDH R15, R9
AB3C	3410		MOVE $20, R4
AB3E	0F8A		ADDH R15, R8
AB40	3430		MOVE $60, R4
AB42	0F8C		MHL R15, R8
AB44	3820		MOVE $40, R8
AB46	0F6E		GETB R6, $F
AB48	55A7		MOVE (R10)--, R5
AB4A	F056		BRA $AAF5		; -> -$57(R0)

AB4C	0BFE		GETB R15, $B
AB4E	3320		MOVE $40, R3
AB50	55AB		MOVE (R10), R5
AB52	F03B		BRA $AB18		; -> -$3C(R0)

AB54	E2FE		
AB56	3904		MOVE $08, R9
AB58	0F9A		ADDH R15, R9
AB5A	56FC		MOVE (R15), R6
AB5C	3510		MOVE $20, R5
AB5E	0F8A		ADDH R15, R8
AB60	3530		MOVE $60, R5
AB62	0F8C		MHL R15, R8
AB64	F055		BRA $AB10		; -> -$56(R0)

AB66	8DFE		LBI R13, #$FE
AB68	3901		MOVE $02, R9
AB6A	0F9A		ADDH R15, R9
AB6C	55E4		MOVE (R14)~, R5
AB6E	3940		MOVE $80, R9
AB70	0F9A		ADDH R15, R9
AB72	55C4		MOVE (R12)~, R5
AB74	3A40		MOVE $80, R10
AB76	0F9A		ADDH R15, R9
AB78	7310		MOVB (R1)+, R3
AB7A	09DD		MLH R9, R13
AB7C	FF00		SUB R15, #$01
AB7E	55C2		MOVE (R12)+', R5
AB80	3A20		MOVE $40, R10
AB82	0BA4		MOVE R11, R10
AB84	7310		MOVB (R1)+, R3
AB86	01FE		GETB R15, $1
AB88	3320		MOVE $40, R3
AB8A	10CE		CTRL $0, #$CE
AB8C	7540		MOVB (R4)+, R5
AB8E	00FB		ADDH2 R0, R15
AB90	6010		MOVB R0, (R1)+
AB92	F860		SUB R8, #$61
AB94	40FA		PUTB $0, (R15)
AB96	6030		MOVB R0, (R3)+
AB98	0055		AND R0, R5
AB9A	F833		SUB R8, #$34
AB9C	5001		MOVE (R0)+, R0
AB9E	4AFA		PUTB $A, (R15)
ABA0	4050		PUTB $0, (R5)+
ABA2	0057		XOR R0, R5
ABA4	11FE		CTRL $1, #$FE
ABA6	9440		CLR R4, #$40
ABA8	0000		HALT
ABAA	F810		SUB R8, #$11
ABAC	40F8		PUTB $0, (R15)
ABAE	2040		JMP ($0080)

ABB0	FA10		SUB R10, #$11
ABB2	3020		MOVE $40, R0
ABB4	55E0		MOVE (R14)', R5
ABB6	DCFF		MOVE R12, (R15)
ABB8	0055		AND R0, R5
ABBA	E0DD		ROR R13
ABBC	1E00		CTRL $E, #$00
ABBE	5601		MOVE (R0)+, R6
ABC0	3A02		MOVE $04, R10
ABC2	0F9A		ADDH R15, R9
ABC4	F056		BRA $AB6F		; -> -$57(R0)

ABC6	01FE		GETB R15, $1
ABC8	3540		MOVE $80, R5
ABCA	0F8E		GETB R8, $F
ABCC	3B01		MOVE $02, R11
ABCE	0F9A		ADDH R15, R9
ABD0	3B02		MOVE $04, R11
ABD2	0F9A		ADDH R15, R9
ABD4	9C00		CLR R12, #$00
ABD6	0000		HALT
ABD8	3570		MOVE $E0, R5
ABDA	10CE		CTRL $0, #$CE
ABDC	3350		MOVE $A0, R3
ABDE	014A		ADDH R1, R4
ABE0	FA70		SUB R10, #$71
ABE2	5000		MOVE (R0)', R0
ABE4	5711		MOVE (R1)+, R7
ABE6	F970		SUB R9, #$71
ABE8	40FB		PUTB $0, (R15)
ABEA	4070		PUTB $0, (R7)+
ABEC	F055		BRA $AB98		; -> -$56(R0)

ABEE	D3FE		MOVE R3, (R15)
ABF0	F960		SUB R9, #$61
ABF2	30F9		MOVE $1F2, R0
ABF4	4060		PUTB $0, (R6)+
ABF6	3440		MOVE $80, R4
ABF8	0F8E		GETB R8, $F
ABFA	3A01		MOVE $02, R10
ABFC	0F9A		ADDH R15, R9
ABFE	F055		BRA $ABAA		; -> -$56(R0)

AC00	D3FE		MOVE R3, (R15)
AC02	3901		MOVE $02, R9
AC04	0F9A		ADDH R15, R9
AC06	5530		MOVE (R3)', R5
AC08	3320		MOVE $40, R3
AC0A	10CE		CTRL $0, #$CE
AC0C	B570		SET R5, #$70
AC0E	00A4		RET R10

AC10	7000		MOVB (R0)+, R0
AC12	04F0		DEC2 R4, R15
AC14	557D		MOVE (R7), R5
AC16	3908		MOVE $10, R9
AC18	0F9A		ADDH R15, R9
AC1A	5623		MOVE (R2)++, R6
AC1C	3A08		MOVE $10, R10
AC1E	0F9A		ADDH R15, R9
AC20	2D01		MOVE R13, $02
AC22	0F94		MOVE R15, R9
AC24	0010		DEC2 R0, R1
AC26	5618		MOVE (R1), R6
AC28	2701		MOVE R7, $02
AC2A	0F94		MOVE R15, R9
AC2C	00F0		DEC2 R0, R15
AC2E	5623		MOVE (R2)++, R6
AC30	3A10		MOVE $20, R10
AC32	0F9A		ADDH R15, R9
AC34	2C01		MOVE R12, $02
AC36	0F96		OR R15, R9
AC38	0007		XOR R0, R0
AC3A	010F		GETA R0, $1
AC3C	960F		CLR R6, #$0F
AC3E	940C		CLR R4, #$0C
AC40	010F		GETA R0, $1
AC42	940F		CLR R4, #$0F
AC44	96FE		CLR R6, #$FE
AC46	3802		MOVE $04, R8
AC48	0B6D		MLH R11, R6
AC4A	5640		MOVE (R4)', R6
AC4C	2C01		MOVE R12, $02
AC4E	0F9C		MHL R15, R9
AC50	0038		ADD R0, R3
AC52	100F		CTRL $0, #$0F
AC54	9A56		CLR R10, #$56
AC56	31FE		MOVE $1FC, R1
AC58	0701		DEC R7, R0
AC5A	0F9C		MHL R15, R9
AC5C	0F94		MOVE R15, R9
AC5E	F056		BRA $AC09		; -> -$57(R0)

AC60	34FE		MOVE $1FC, R4
AC62	0601		DEC R6, R0
AC64	0F9C		MHL R15, R9
AC66	0F94		MOVE R15, R9
AC68	0D01		DEC R13, R0
AC6A	0F9C		MHL R15, R9
AC6C	1044		CTRL $0, #$44
AC6E	0057		XOR R0, R5
AC70	09CD		MLH R9, R12
AC72	000F		GETA R0, $0
AC74	9B57		CLR R11, #$57
AC76	098C		MHL R9, R8
AC78	0100		DEC2 R1, R0
AC7A	0F9C		MHL R15, R9
AC7C	F055		BRA $AC28		; -> -$56(R0)

AC7E	A7FE		ADD R7, #$FF
AC80	FB10		SUB R11, #$11
AC82	20F1		JMP ($01E2)

AC84	56D7		MOVE (R13)--, R6
AC86	B510		SET R5, #$10
AC88	02F7		XOR R2, R15
AC8A	1007		CTRL $0, #$07
AC8C	3370		MOVE $E0, R3
AC8E	5652		MOVE (R5)+', R6
AC90	F810		SUB R8, #$11
AC92	70D6		MOVB (R13)---, R0
AC94	7000		MOVB (R0)+, R0
AC96	FB10		SUB R11, #$11
AC98	20F9		JMP ($01F2)

AC9A	5050		MOVE (R5)', R0
AC9C	3C00		MOVE $00, R12
AC9E	107C		CTRL $0, #$7C
ACA0	FC70		SUB R12, #$71
ACA2	0000		HALT
ACA4	56A8		MOVE (R10), R6
ACA6	56A8		MOVE (R10), R6
ACA8	56A6		MOVE (R10)-~, R6
ACAA	56A6		MOVE (R10)-~, R6
ACAC	56A8		MOVE (R10), R6
ACAE	56A8		MOVE (R10), R6
ACB0	56A6		MOVE (R10)-~, R6
ACB2	56A6		MOVE (R10)-~, R6
ACB4	56A8		MOVE (R10), R6
ACB6	56A8		MOVE (R10), R6
ACB8	56A6		MOVE (R10)-~, R6
ACBA	56A6		MOVE (R10)-~, R6
ACBC	56A8		MOVE (R10), R6
ACBE	56A8		MOVE (R10), R6
ACC0	56A6		MOVE (R10)-~, R6
ACC2	56A6		MOVE (R10)-~, R6
ACC4	56A8		MOVE (R10), R6
ACC6	56A8		MOVE (R10), R6
ACC8	56A6		MOVE (R10)-~, R6
ACCA	56A6		MOVE (R10)-~, R6
ACCC	56A8		MOVE (R10), R6
ACCE	56A8		MOVE (R10), R6
ACD0	56A8		MOVE (R10), R6
ACD2	56A8		MOVE (R10), R6
ACD4	56AA		MOVE (R10), R6
ACD6	56AA		MOVE (R10), R6
ACD8	56AA		MOVE (R10), R6
ACDA	56AA		MOVE (R10), R6
ACDC	56AA		MOVE (R10), R6
ACDE	56AA		MOVE (R10), R6
ACE0	56AA		MOVE (R10), R6
ACE2	56AA		MOVE (R10), R6
ACE4	56A8		MOVE (R10), R6
ACE6	56A8		MOVE (R10), R6
ACE8	55A7		MOVE (R10)--, R5
ACEA	55A7		MOVE (R10)--, R5
ACEC	55A7		MOVE (R10)--, R5
ACEE	5698		MOVE (R9), R6
ACF0	55A7		MOVE (R10)--, R5
ACF2	55A7		MOVE (R10)--, R5
ACF4	55A7		MOVE (R10)--, R5
ACF6	55A7		MOVE (R10)--, R5
ACF8	55A7		MOVE (R10)--, R5
ACFA	55A7		MOVE (R10)--, R5
ACFC	55A7		MOVE (R10)--, R5
ACFE	55A7		MOVE (R10)--, R5
AD00	568F		MOVE (R8), R6
AD02	55A7		MOVE (R10)--, R5
AD04	5698		MOVE (R9), R6
AD06	5698		MOVE (R9), R6
AD08	55A7		MOVE (R10)--, R5
AD0A	55A7		MOVE (R10)--, R5
AD0C	55A7		MOVE (R10)--, R5
AD0E	55A7		MOVE (R10)--, R5
AD10	55A7		MOVE (R10)--, R5
AD12	55A7		MOVE (R10)--, R5
AD14	55A7		MOVE (R10)--, R5
AD16	55A7		MOVE (R10)--, R5
AD18	55A7		MOVE (R10)--, R5
AD1A	55A7		MOVE (R10)--, R5
AD1C	55A7		MOVE (R10)--, R5
AD1E	7310		MOVB (R1)+, R3
AD20	0330		DEC2 R3, R3
AD22	0800		DEC2 R8, R0
AD24	FE73		SUB R14, #$74
AD26	1001		CTRL $0, #$01
AD28	F156		SUB R1, #$57
AD2A	D7FE		MOVE R7, (R15)
AD2C	F055		BRA $ACD8		; -> -$56(R0)

AD2E	A7FE		ADD R7, #$FF
AD30	7310		MOVB (R1)+, R3
AD32	03DC		MHL R3, R13
AD34	FF00		SUB R15, #$01
AD36	55A7		MOVE (R10)--, R5
AD38	F156		SUB R1, #$57
AD3A	D7FE		MOVE R7, (R15)
AD3C	7310		MOVB (R1)+, R3
AD3E	02DC		MHL R2, R13
AD40	FE00		SUB R14, #$01
AD42	55A7		MOVE (R10)--, R5
AD44	DCFF		MOVE R12, (R15)
AD46	0055		AND R0, R5
AD48	A7F0		ADD R7, #$F1
AD4A	569C		MOVE (R9), R6
AD4C	3E01		MOVE $02, R14
AD4E	107C		CTRL $0, #$7C
AD50	3350		MOVE $A0, R3
AD52	0002		INC R0, R0
AD54	7310		MOVB (R1)+, R3
AD56	03F8		ADD R3, R15
AD58	1050		CTRL $0, #$50
AD5A	1C00		CTRL $C, #$00
AD5C	107E		CTRL $0, #$7E
AD5E	0079		SUB R0, R7
AD60	0400		DEC2 R4, R0
AD62	56B7		MOVE (R11)--, R6
AD64	79C0		MOVB (R12)+, R9
AD66	0156		OR R1, R5
AD68	B7FE		SET R7, #$FE
AD6A	F056		BRA $AD15		; -> -$57(R0)

AD6C	B9FE		SET R9, #$FE
AD6E	7310		MOVB (R1)+, R3
AD70	03FE		GETB R15, $3
AD72	7310		MOVB (R1)+, R3
AD74	0202		INC R2, R0
AD76	0010		DEC2 R0, R1
AD78	7E00		MOVB (R0)+, R14
AD7A	02C0		DEC2 R2, R12
AD7C	0156		OR R1, R5
AD7E	C4CC		SNS R4
AD80	0010		DEC2 R0, R1
AD82	7C55		MOVB (R5)--, R12
AD84	A7F0		ADD R7, #$F1
AD86	56CE		MOVE (R12), R6
AD88	3801		MOVE $02, R8
AD8A	107E		CTRL $0, #$7E
AD8C	56C9		MOVE (R12), R6
AD8E	3E01		MOVE $02, R14
AD90	107C		CTRL $0, #$7C
AD92	0200		DEC2 R2, R0
AD94	107E		CTRL $0, #$7E
AD96	0000		HALT
AD98	C001		SLT R0, R0
AD9A	56C4		MOVE (R12)~, R6
AD9C	F156		SUB R1, #$57
AD9E	D7FE		MOVE R7, (R15)
ADA0	7310		MOVB (R1)+, R3
ADA2	023F		GETA R3, $2
ADA4	0110		DEC2 R1, R1
ADA6	7CC0		MOVB (R12)+, R12
ADA8	0156		OR R1, R5
ADAA	CEF0		SLE R14, R15
ADAC	55A7		MOVE (R10)--, R5
ADAE	FB70		SUB R11, #$71
ADB0	801C		LBI R0, #$1C
ADB2	010F		GETA R0, $1
ADB4	9C00		CLR R12, #$00
ADB6	0D01		DEC R13, R0
ADB8	0F9C		MHL R15, R9
ADBA	103C		CTRL $0, #$3C
ADBC	0056		OR R0, R5
ADBE	F638		SUB R6, #$39
ADC0	100F		CTRL $0, #$0F
ADC2	9A56		CLR R10, #$56
ADC4	E8FE		
ADC6	0701		DEC R7, R0
ADC8	0F9C		MHL R15, R9
ADCA	0F94		MOVE R15, R9
ADCC	F056		BRA $AD77		; -> -$57(R0)

ADCE	F3FE		SUB R3, #$FF
ADD0	0601		DEC R6, R0
ADD2	0F9C		MHL R15, R9
ADD4	0F94		MOVE R15, R9
ADD6	0D01		DEC R13, R0
ADD8	0F9C		MHL R15, R9
ADDA	103C		CTRL $0, #$3C
ADDC	0057		XOR R0, R5
ADDE	09CD		MLH R9, R12
ADE0	000F		GETA R0, $0
ADE2	9B57		CLR R11, #$57
ADE4	09FE		GETB R15, $9
ADE6	4C01		PUTB $C, (R0)++
ADE8	000F		GETA R0, $0
ADEA	9CFE		CLR R12, #$FE
ADEC	FC70		SUB R12, #$71
ADEE	00FE		GETB R15, $0
ADF0	3C3C		MOVE $78, R12
ADF2	0BB4		MOVE R11, R11
ADF4	F057		BRA $AD9E		; -> -$58(R0)

ADF6	00FE		GETB R15, $0
ADF8	3A10		MOVE $20, R10
ADFA	0BA1		DEC R11, R10
ADFC	3C80		MOVE $100, R12
ADFE	0BB5		AND R11, R11
AE00	3B20		MOVE $40, R11
AE02	0B6D		MLH R11, R6
AE04	3B01		MOVE $02, R11
AE06	0B6D		MLH R11, R6
AE08	0901		DEC R9, R0
AE0A	0B5B		ADDH2 R11, R5
AE0C	0000		HALT
AE0E	F05F		BRA $ADB0		; -> -$60(R0)

AE10	E2FE		
AE12	3C37		MOVE $6E, R12
AE14	0BB4		MOVE R11, R11
AE16	F057		BRA $ADC0		; -> -$58(R0)

AE18	00FE		GETB R15, $0
AE1A	3C35		MOVE $6A, R12
AE1C	0BB4		MOVE R11, R11
AE1E	F057		BRA $ADC8		; -> -$58(R0)

AE20	00FE		GETB R15, $0
AE22	3C3D		MOVE $7A, R12
AE24	0BB4		MOVE R11, R11
AE26	F057		BRA $ADD0		; -> -$58(R0)

AE28	00FE		GETB R15, $0
AE2A	0001		DEC R0, R0
AE2C	9989		CLR R9, #$89
AE2E	F0F9		BRA $AD36		; -> -$FA(R0)

AE30	F1F0		SUB R1, #$F1
AE32	0001		DEC R0, R0
AE34	9999		CLR R9, #$99
AE36	B808		SET R8, #$08
AE38	0A57		XOR R10, R5
AE3A	27FE		MOVE R7, $1FC
AE3C	3310		MOVE $20, R3
AE3E	0B42		INC R11, R4
AE40	B610		SET R6, #$10
AE42	07DE		GETB R13, $7
AE44	1000		CTRL $0, #$00
AE46	5907		MOVE (R0)--, R9
AE48	7310		MOVB (R1)+, R3
AE4A	42F1		PUTB $2, (R15)++
AE4C	17F4		CTRL $7, #$F4
AE4E	3940		MOVE $80, R9
AE50	0ED7		XOR R14, R13
AE52	53E2		MOVE (R14)+', R3
AE54	B908		SET R9, #$08
AE56	0A57		XOR R10, R5
AE58	34FE		MOVE $1FC, R4
AE5A	3310		MOVE $20, R3
AE5C	0B42		INC R11, R4
AE5E	B610		SET R6, #$10
AE60	07D5		AND R7, R13
AE62	1000		CTRL $0, #$00
AE64	C001		SLT R0, R0
AE66	5903		MOVE (R0)++, R9
AE68	B310		SET R3, #$10
AE6A	09F1		DEC R9, R15
AE6C	8FEC		LBI R15, #$EC
AE6E	0921		DEC R9, R2
AE70	0F46		OR R15, R4
AE72	0000		HALT
AE74	0910		DEC2 R9, R1
AE76	0F57		XOR R15, R5
AE78	0040		DEC2 R0, R4
AE7A	0C01		DEC R12, R0
AE7C	0F69		SUB R15, R6
AE7E	0F24		MOVE R15, R2
AE80	3410		MOVE $20, R4
AE82	0F46		OR R15, R4
AE84	3804		MOVE $08, R8
AE86	0F24		MOVE R15, R2
AE88	5750		MOVE (R5)', R7
AE8A	3310		MOVE $20, R3
AE8C	0F26		OR R15, R2
AE8E	F18F		SUB R1, #$90
AE90	CEFE		SNBC R14, R15
AE92	CE10		SLE R14, R1
AE94	0FA5		AND R15, R10
AE96	5913		MOVE (R1)++, R9
AE98	3410		MOVE $20, R4
AE9A	0F50		DEC2 R15, R5
AE9C	3510		MOVE $20, R5
AE9E	0F46		OR R15, R4
AEA0	1C00		CTRL $C, #$00
AEA2	0F56		OR R15, R5
AEA4	003B		ADDH2 R0, R3
AEA6	3F0F		MOVE $1E, R15
AEA8	56ED		MOVE (R14), R6
AEAA	2106		MOVE R1, $0C
AEAC	5762		MOVE (R6)+', R7
AEAE	3908		MOVE $10, R9
AEB0	0F6A		ADDH R15, R6
AEB2	5762		MOVE (R6)+', R7
AEB4	3904		MOVE $08, R9
AEB6	0F69		SUB R15, R6
AEB8	5762		MOVE (R6)+', R7
AEBA	3980		MOVE $100, R9
AEBC	0F56		OR R15, R5
AEBE	5762		MOVE (R6)+', R7
AEC0	3A84		MOVE $108, R10
AEC2	0F56		OR R15, R5
AEC4	1C00		CTRL $C, #$00
AEC6	0F68		ADD R15, R6
AEC8	0073		INC2 R0, R7
AECA	1001		CTRL $0, #$01
AECC	3820		MOVE $40, R8
AECE	0F68		ADD R15, R6
AED0	576F		MOVE (R6), R7
AED2	1C01		CTRL $C, #$01
AED4	0F4A		ADDH R15, R4
AED6	0073		INC2 R0, R7
AED8	1002		CTRL $0, #$02
AEDA	F057		BRA $AE84		; -> -$58(R0)

AEDC	78FE		MOVB (R15), R8
AEDE	F123		SUB R1, #$24
AEE0	E8FE		
AEE2	0C01		DEC R12, R0
AEE4	0F4A		ADDH R15, R4
AEE6	0F25		AND R15, R2
AEE8	3510		MOVE $20, R5
AEEA	0F46		OR R15, R4
AEEC	7310		MOVB (R1)+, R3
AEEE	03FE		GETB R15, $3
AEF0	3810		MOVE $20, R8
AEF2	0F68		ADD R15, R6
AEF4	5782		MOVE (R8)+', R7
AEF6	F18F		SUB R1, #$90
AEF8	CEFE		SNBC R14, R15
AEFA	0C01		DEC R12, R0
AEFC	0F4C		MHL R15, R4
AEFE	0FA5		AND R15, R10
AF00	7310		MOVB (R1)+, R3
AF02	03FE		GETB R15, $3
AF04	3804		MOVE $08, R8
AF06	0F68		ADD R15, R6
AF08	5787		MOVE (R8)--, R7
AF0A	3A20		MOVE $40, R10
AF0C	0F56		OR R15, R5
AF0E	3902		MOVE $04, R9
AF10	0F68		ADD R15, R6
AF12	578D		MOVE (R8), R7
AF14	EC21		
AF16	0657		XOR R6, R5
AF18	8FFE		LBI R15, #$FE
AF1A	3A10		MOVE $20, R10
AF1C	0F56		OR R15, R5
AF1E	3808		MOVE $10, R8
AF20	0F68		ADD R15, R6
AF22	57AB		MOVE (R10), R7
AF24	DD7D		MOVE R13, (R7)
AF26	0057		XOR R0, R5
AF28	9A1C		CLR R10, #$1C
AF2A	100F		CTRL $0, #$0F
AF2C	5701		MOVE (R0)+, R7
AF2E	7310		MOVB (R1)+, R3
AF30	12F0		CTRL $2, #$F0
AF32	57AB		MOVE (R10), R7
AF34	F183		SUB R1, #$84
AF36	E4FE		
AF38	CA11		SLT R10, R1
AF3A	0DB4		MOVE R13, R11
AF3C	57A1		MOVE (R10)+, R7
AF3E	3C11		MOVE $22, R12
AF40	0DB4		MOVE R13, R11
AF42	3200		MOVE $00, R2
AF44	0DB4		MOVE R13, R11
AF46	FB30		SUB R11, #$31
AF48	1035		CTRL $0, #$35
AF4A	100D		CTRL $0, #$0D
AF4C	B214		SET R2, #$14
AF4E	000F		GETA R0, $0
AF50	5700		MOVE (R0)', R7
AF52	FB10		SUB R11, #$11
AF54	30FE		MOVE $1FC, R0
AF56	0904		MOVE R9, R0
AF58	0F6C		MHL R15, R6
AF5A	0000		HALT
AF5C	3804		MOVE $08, R8
AF5E	0F6A		ADDH R15, R6
AF60	57BD		MOVE (R11), R7
AF62	F18F		SUB R1, #$90
AF64	CEFE		SNBC R14, R15
AF66	CD00		SLE R13, R0
AF68	0FA4		MOVE R15, R10
AF6A	590B		MOVE (R0), R9
AF6C	CE00		SLE R14, R0
AF6E	0FA5		AND R15, R10
AF70	590B		MOVE (R0), R9
AF72	3400		MOVE $00, R4
AF74	0F6C		MHL R15, R6
AF76	7310		MOVB (R1)+, R3
AF78	03FE		GETB R15, $3
AF7A	3802		MOVE $04, R8
AF7C	0F6A		ADDH R15, R6
AF7E	57DF		MOVE (R13), R7
AF80	F18F		SUB R1, #$90
AF82	CEFE		SNBC R14, R15
AF84	C500		SLE R5, R0
AF86	0FA4		MOVE R15, R10
AF88	C001		SLT R0, R0
AF8A	590B		MOVE (R0), R9
AF8C	CC00		SLE R12, R0
AF8E	0FA6		OR R15, R10
AF90	590B		MOVE (R0), R9
AF92	C81C		SNS R8
AF94	0FA6		OR R15, R10
AF96	590B		MOVE (R0), R9
AF98	0C00		DEC2 R12, R0
AF9A	0F6E		GETB R6, $F
AF9C	0FA6		OR R15, R10
AF9E	3300		MOVE $00, R3
AFA0	0020		DEC2 R0, R2
AFA2	C80C		SNS R8
AFA4	0F6E		GETB R6, $F
AFA6	57DB		MOVE (R13), R7
AFA8	3300		MOVE $00, R3
AFAA	0010		DEC2 R0, R1
AFAC	C804		SS R8
AFAE	0F6E		GETB R6, $F
AFB0	57DB		MOVE (R13), R7
AFB2	3300		MOVE $00, R3
AFB4	0008		ADD R0, R0
AFB6	3400		MOVE $00, R4
AFB8	0F50		DEC2 R15, R5
AFBA	7310		MOVB (R1)+, R3
AFBC	03FE		GETB R15, $3
AFBE	3801		MOVE $02, R8
AFC0	0F6A		ADDH R15, R6
AFC2	57EC		MOVE (R14), R7
AFC4	F18F		SUB R1, #$90
AFC6	CEFE		SNBC R14, R15
AFC8	CD00		SLE R13, R0
AFCA	0FA4		MOVE R15, R10
AFCC	590B		MOVE (R0), R9
AFCE	0C01		DEC R12, R0
AFD0	0F6F		GETA R6, $F
AFD2	0FA5		AND R15, R10
AFD4	7310		MOVB (R1)+, R3
AFD6	03FE		GETB R15, $3
AFD8	3C02		MOVE $04, R12
AFDA	0F55		AND R15, R5
AFDC	ED21		
AFDE	0657		XOR R6, R5
AFE0	F33C		SUB R3, #$3D
AFE2	090F		GETA R0, $9
AFE4	55FE		MOVE (R15), R5
AFE6	0C01		DEC R12, R0
AFE8	0F46		OR R15, R4
AFEA	0B63		INC2 R11, R6
AFEC	0C01		DEC R12, R0
AFEE	0F48		ADD R15, R4
AFF0	0DB0		DEC2 R13, R11
AFF2	3310		MOVE $20, R3
AFF4	0F46		OR R15, R4
AFF6	7300		MOVB (R0)+, R3
AFF8	1174		CTRL $1, #$74
AFFA	0008		ADD R0, R0
AFFC	DC00		MOVE R12, (R0)'
AFFE	0458		ADD R4, R5
B000	ADF1		ADD R13, #$F2
B002	53FC		MOVE (R15), R3
B004	DD00		MOVE R13, (R0)'
B006	0C58		ADD R12, R5
B008	FB75		SUB R11, #$76
B00A	2000		JMP ($0000)

B00C	3420		MOVE $40, R4
B00E	0DB9		SUB R13, R11
B010	0C01		DEC R12, R0
B012	0B63		INC2 R11, R6
B014	0F48		ADD R15, R4
B016	E500		
B018	0CC0		DEC2 R12, R12
B01A	0159		SUB R1, R5
B01C	19ED		CTRL $9, #$ED
B01E	0500		DEC2 R5, R0
B020	5814		MOVE (R1)~, R8
B022	BA02		SET R10, #$02
B024	03BA		ADDH R3, R11
B026	0815		AND R8, R1
B028	B980		SET R9, #$80
B02A	1458		CTRL $4, #$58
B02C	24FE		MOVE R4, $1FC
B02E	B820		SET R8, #$20
B030	1058		CTRL $0, #$58
B032	24FE		MOVE R4, $1FC
B034	BC0B		SET R12, #$0B
B036	02E3		INC2 R2, R14
B038	0000		HALT
B03A	B910		SET R9, #$10
B03C	1158		CTRL $1, #$58
B03E	1DFE		CTRL $D, #$FE
B040	E500		
B042	0CC0		DEC2 R12, R12
B044	0159		SUB R1, R5
B046	19FE		CTRL $9, #$FE
B048	3B3F		MOVE $7E, R11
B04A	0F68		ADD R15, R6
B04C	BBC0		SET R11, #$C0
B04E	148E		CTRL $4, #$8E
B050	0014		RET R1

B052	0F68		ADD R15, R6
B054	B510		SET R5, #$10
B056	04B5		AND R4, R11
B058	0006		OR R0, R0
B05A	3700		MOVE $00, R7
B05C	0EDB		ADDH2 R14, R13
B05E	7C40		MOVB (R4)+, R12
B060	00B8		ADD R0, R11
B062	1014		CTRL $0, #$14
B064	5837		MOVE (R3)--, R8
B066	EA0B		
B068	0458		ADD R4, R5
B06A	377C		MOVE $F8, R7
B06C	0000		HALT
B06E	5400		MOVE (R0)', R4
B070	0100		DEC2 R1, R0
B072	B810		SET R8, #$10
B074	1458		CTRL $4, #$58
B076	77FE		MOVB (R15), R7
B078	B820		SET R8, #$20
B07A	1058		CTRL $0, #$58
B07C	65FE		MOVB R5, (R15)
B07E	CD09		SGE R13, R0
B080	0F55		AND R15, R5
B082	58FF		MOVE (R15), R8
B084	8901		LBI R9, #$01
B086	2100		MOVE R1, $00
B088	F089		BRA $B000		; -> -$8A(R0)

B08A	021E		GETB R1, $2
B08C	0000		HALT
B08E	B980		SET R9, #$80
B090	1458		CTRL $4, #$58
B092	6AFE		MOVB R10, (R15)
B094	C500		SLE R5, R0
B096	0F50		DEC2 R15, R5
B098	C001		SLT R0, R0
B09A	5865		MOVE (R6)-, R8
B09C	B808		SET R8, #$08
B09E	0358		ADD R3, R5
B0A0	59FE		MOVE (R15), R9
B0A2	AC02		ADD R12, #$03
B0A4	1E26		CTRL $E, #$26
B0A6	F177		SUB R1, #$78
B0A8	F8FE		SUB R8, #$FF
B0AA	F177		SUB R1, #$78
B0AC	F6FE		SUB R6, #$FF
B0AE	F058		BRA $B057		; -> -$59(R0)

B0B0	6AFE		MOVB R10, (R15)
B0B2	AD02		ADD R13, #$03
B0B4	1E26		CTRL $E, #$26
B0B6	2058		JMP ($00B0)

B0B8	60F1		MOVB R0, (R15)++
B0BA	77FA		MOVB (R15), R7
B0BC	F058		BRA $B065		; -> -$59(R0)

B0BE	59FE		MOVE (R15), R9
B0C0	BA08		SET R10, #$08
B0C2	033C		MHL R3, R3
B0C4	FF0F		SUB R15, #$10
B0C6	52F0		MOVE (R15)', R2
B0C8	5855		MOVE (R5)-, R8
B0CA	8901		LBI R9, #$01
B0CC	2100		MOVE R1, $00
B0CE	00AC		MHL R0, R10
B0D0	0124		MOVE R1, R2
B0D2	04FE		GETB R15, $4
B0D4	3C21		MOVE $42, R12
B0D6	0ED9		SUB R14, R13
B0D8	B8C0		SET R8, #$C0
B0DA	1458		CTRL $4, #$58
B0DC	8BFE		LBI R11, #$FE
B0DE	B908		SET R9, #$08
B0E0	0358		ADD R3, R5
B0E2	8BFE		LBI R11, #$FE
B0E4	3CFF		MOVE $1FE, R12
B0E6	0F52		INC R15, R5
B0E8	BA08		SET R10, #$08
B0EA	03F0		DEC2 R3, R15
B0EC	588B		MOVE (R8), R8
B0EE	AC01		ADD R12, #$02
B0F0	1604		CTRL $6, #$04
B0F2	8901		LBI R9, #$01
B0F4	0800		DEC2 R8, R0
B0F6	00B8		ADD R0, R11
B0F8	8014		LBI R0, #$14
B0FA	5889		MOVE (R8), R8
B0FC	AE10		ADD R14, #$11
B0FE	1606		CTRL $6, #$06
B100	B820		SET R8, #$20
B102	1058		CTRL $0, #$58
B104	89FE		LBI R9, #$FE
B106	CC01		SLT R12, R0
B108	0F55		AND R15, R5
B10A	5889		MOVE (R8), R8
B10C	CD02		SE R13, R0
B10E	0F55		AND R15, R5
B110	58FF		MOVE (R15), R8
B112	3C20		MOVE $40, R12
B114	0ED9		SUB R14, R13
B116	3520		MOVE $40, R5
B118	0B65		AND R11, R6
B11A	8D00		LBI R13, #$00
B11C	060E		GETB R0, $6
B11E	D928		MOVE R9, (R2)
B120	58FF		MOVE (R15), R8
B122	3310		MOVE $20, R3
B124	0B42		INC R11, R4
B126	B610		SET R6, #$10
B128	0738		ADD R7, R3
B12A	080F		GETA R0, $8
B12C	6A58		MOVB R10, (R5)
B12E	9DFE		CLR R13, #$FE
B130	7510		MOVB (R1)+, R5
B132	007A		ADDH R0, R7
B134	2015		JMP ($002A)

B136	7310		MOVB (R1)+, R3
B138	42FE		PUTB $2, (R15)
B13A	4C01		PUTB $C, (R0)++
B13C	000F		GETA R0, $0
B13E	4675		PUTB $6, (R7)--
B140	1000		CTRL $0, #$00
B142	7A08		MOVB (R0), R10
B144	14CC		CTRL $4, #$CC
B146	FF0F		SUB R15, #$10
B148	5259		MOVE (R5), R2
B14A	1D38		CTRL $D, #$38
B14C	080F		GETA R0, $8
B14E	6A3B		MOVB R10, (R3)
B150	D8FE		MOVE R8, (R15)
B152	3320		MOVE $40, R3
B154	0F6C		MHL R15, R6
B156	F053		BRA $B104		; -> -$54(R0)

B158	F8FE		SUB R8, #$FF
B15A	3908		MOVE $10, R9
B15C	0F6A		ADDH R15, R6
B15E	590F		MOVE (R0), R9
B160	CD00		SLE R13, R0
B162	0F4B		ADDH2 R15, R4
B164	58C3		MOVE (R12)++, R8
B166	3840		MOVE $80, R8
B168	0F56		OR R15, R5
B16A	58F7		MOVE (R15)--, R8
B16C	3980		MOVE $100, R9
B16E	0F56		OR R15, R5
B170	58F7		MOVE (R15)--, R8
B172	CD02		SE R13, R0
B174	0F55		AND R15, R5
B176	58F7		MOVE (R15)--, R8
B178	3310		MOVE $20, R3
B17A	0B00		DEC2 R11, R0
B17C	7A40		MOVB (R4)+, R10
B17E	1434		CTRL $4, #$34
B180	100F		CTRL $0, #$0F
B182	46F0		PUTB $6, (R15)+
B184	5889		MOVE (R8), R8
B186	CD01		SLT R13, R0
B188	0F4B		ADDH2 R15, R4
B18A	58D6		MOVE (R13)-~, R8
B18C	3880		MOVE $100, R8
B18E	0F56		OR R15, R5
B190	58F7		MOVE (R15)--, R8
B192	3940		MOVE $80, R9
B194	0F56		OR R15, R5
B196	58F7		MOVE (R15)--, R8
B198	CD02		SE R13, R0
B19A	0F55		AND R15, R5
B19C	58F7		MOVE (R15)--, R8
B19E	3310		MOVE $20, R3
B1A0	0B22		INC R11, R2
B1A2	7A80		MOVB (R8)+, R10
B1A4	1434		CTRL $4, #$34
B1A6	100F		CTRL $0, #$0F
B1A8	46F0		PUTB $6, (R15)+
B1AA	5889		MOVE (R8), R8
B1AC	CD02		SE R13, R0
B1AE	0F4B		ADDH2 R15, R4
B1B0	58F7		MOVE (R15)--, R8
B1B2	CD09		SGE R13, R0
B1B4	0F55		AND R15, R5
B1B6	58F7		MOVE (R15)--, R8
B1B8	0E10		DEC2 R14, R1
B1BA	0F46		OR R15, R4
B1BC	0EDB		ADDH2 R14, R13
B1BE	3B01		MOVE $02, R11
B1C0	0F47		XOR R15, R4
B1C2	3510		MOVE $20, R5
B1C4	0F46		OR R15, R4
B1C6	7300		MOVB (R0)+, R3
B1C8	2EC5		MOVE R14, $18A
B1CA	300F		MOVE $1E, R0
B1CC	48C0		PUTB $8, (R12)+
B1CE	8158		LBI R1, #$58
B1D0	ECC4		
B1D2	000F		GETA R0, $0
B1D4	4808		PUTB $8, (R0)
B1D6	58F7		MOVE (R15)--, R8
B1D8	3400		MOVE $00, R4
B1DA	0F48		ADD R15, R4
B1DC	3410		MOVE $20, R4
B1DE	0F46		OR R15, R4
B1E0	452D		PUTB $5, (R2)
B1E2	0059		SUB R0, R5
B1E4	21FE		MOVE R1, $1FC
B1E6	3310		MOVE $20, R3
B1E8	0F46		OR R15, R4
B1EA	F058		BRA $B193		; -> -$59(R0)

B1EC	02FE		GETB R15, $2
B1EE	3C6D		MOVE $DA, R12
B1F0	0BB4		MOVE R11, R11
B1F2	F059		BRA $B19A		; -> -$5A(R0)

B1F4	15FE		CTRL $5, #$FE
B1F6	1C00		CTRL $C, #$00
B1F8	0BB4		MOVE R11, R11
B1FA	0CF0		DEC2 R12, R15
B1FC	5915		MOVE (R1)-, R9
B1FE	3C6C		MOVE $D8, R12
B200	0BB4		MOVE R11, R11
B202	F059		BRA $B1AA		; -> -$5A(R0)

B204	15FE		CTRL $5, #$FE
B206	3C65		MOVE $CA, R12
B208	0BB4		MOVE R11, R11
B20A	F059		BRA $B1B2		; -> -$5A(R0)

B20C	15FE		CTRL $5, #$FE
B20E	3C66		MOVE $CC, R12
B210	0BB4		MOVE R11, R11
B212	F059		BRA $B1BA		; -> -$5A(R0)

B214	15FE		CTRL $5, #$FE
B216	3C7B		MOVE $F6, R12
B218	0BB4		MOVE R11, R11
B21A	F03B		BRA $B1E0		; -> -$3C(R0)

B21C	CEFE		SNBC R14, R15
B21E	3C7A		MOVE $F4, R12
B220	0BB4		MOVE R11, R11
B222	F059		BRA $B1CA		; -> -$5A(R0)

B224	15FE		CTRL $5, #$FE
B226	3C75		MOVE $EA, R12
B228	0BB4		MOVE R11, R11
B22A	3A40		MOVE $80, R10
B22C	0ED7		XOR R14, R13
B22E	F03B		BRA $B1F4		; -> -$3C(R0)

B230	CEFE		SNBC R14, R15
B232	3A40		MOVE $80, R10
B234	0ED7		XOR R14, R13
B236	F08F		BRA $B1A8		; -> -$90(R0)

B238	EAFE		
B23A	3C8F		MOVE $11E, R12
B23C	0BB4		MOVE R11, R11
B23E	F03B		BRA $B204		; -> -$3C(R0)

B240	CEFE		SNBC R14, R15
B242	0400		DEC2 R4, R0
B244	0008		ADD R0, R0
B246	0200		DEC2 R2, R0
B248	0380		DEC2 R3, R8
B24A	0000		HALT
B24C	0102		INC R1, R0
B24E	0000		HALT
B250	0000		HALT
B252	0000		HALT
B254	0000		HALT
B256	1000		CTRL $0, #$00
B258	0200		DEC2 R2, R0
B25A	002E		GETB R2, $0
B25C	0000		HALT
B25E	0380		DEC2 R3, R8
B260	0000		HALT
B262	0000		HALT
B264	0001		DEC R0, R0
B266	0200		DEC2 R2, R0
B268	F000		BRA $B269		; -> -$01(R0)

B26A	0000		HALT
B26C	0000		HALT
B26E	0000		HALT
B270	FB00		SUB R11, #$01
B272	8033		LBI R0, #$33
B274	200F		JMP ($001E)

B276	7A89		MOVB (R8), R10
B278	0300		DEC2 R3, R0
B27A	00F0		DEC2 R0, R15
B27C	3C00		MOVE $00, R12
B27E	0F7E		GETB R7, $F
B280	DAF0		MOVE R10, (R15)'
B282	0059		SUB R0, R5
B284	74D8		MOVB (R13), R4
B286	F900		SUB R9, #$01
B288	5974		MOVE (R7)~, R9
B28A	3E01		MOVE $02, R14
B28C	0F7E		GETB R7, $F
B28E	C804		SS R8
B290	0F7E		GETB R7, $F
B292	5974		MOVE (R7)~, R9
B294	F10B		SUB R1, #$0C
B296	F2FE		SUB R2, #$FF
B298	DC6B		MOVE R12, (R6)
B29A	0059		SUB R0, R5
B29C	53DC		MOVE (R13), R3
B29E	4000		PUTB $0, (R0)+
B2A0	5956		MOVE (R5)-~, R9
B2A2	F059		BRA $B24A		; -> -$5A(R0)

B2A4	40FE		PUTB $0, (R15)
B2A6	7310		MOVB (R1)+, R3
B2A8	01FC		MHL R1, R15
B2AA	0000		HALT
B2AC	FC70		SUB R12, #$71
B2AE	00FE		GETB R15, $0
B2B0	DAC1		MOVE R10, (R12)+
B2B2	0059		SUB R0, R5
B2B4	74D8		MOVB (R13), R4
B2B6	C500		SLE R5, R0
B2B8	596D		MOVE (R6), R9
B2BA	DAF0		MOVE R10, (R15)'
B2BC	0159		SUB R1, R5
B2BE	74D8		MOVB (R13), R4
B2C0	F901		SUB R9, #$02
B2C2	5974		MOVE (R7)~, R9
B2C4	DAF0		MOVE R10, (R15)'
B2C6	0259		SUB R2, R5
B2C8	74D8		MOVB (R13), R4
B2CA	F902		SUB R9, #$03
B2CC	5974		MOVE (R7)~, R9
B2CE	1C02		CTRL $C, #$02
B2D0	0F7F		GETA R7, $F
B2D2	0073		INC2 R0, R7
B2D4	1003		CTRL $0, #$03
B2D6	FC80		SUB R12, #$81
B2D8	00FE		GETB R15, $0
B2DA	DAF0		MOVE R10, (R15)'
B2DC	0059		SUB R0, R5
B2DE	74D8		MOVB (R13), R4
B2E0	F900		SUB R9, #$01
B2E2	5974		MOVE (R7)~, R9
B2E4	F059		BRA $B28C		; -> -$5A(R0)

B2E6	5DFE		MOVE (R15), R13
B2E8	3330		MOVE $60, R3
B2EA	108B		CTRL $0, #$8B
B2EC	F910		SUB R9, #$11
B2EE	3034		MOVE $68, R0
B2F0	100B		CTRL $0, #$0B
B2F2	B43C		SET R4, #$3C
B2F4	320B		MOVE $16, R2
B2F6	B4FE		SET R4, #$FE
B2F8	3802		MOVE $04, R8
B2FA	0F6E		GETB R6, $F
B2FC	5A49		MOVE (R4), R10
B2FE	0C01		DEC R12, R0
B300	0B6C		MHL R11, R6
B302	0F70		DEC2 R15, R7
B304	F05A		BRA $B2AB		; -> -$5B(R0)

B306	49FE		PUTB $9, (R15)
B308	3320		MOVE $40, R3
B30A	0F7A		ADDH R15, R7
B30C	0F10		DEC2 R15, R1
B30E	0F82		INC R15, R8
B310	0F82		INC R15, R8
B312	2C00		MOVE R12, $00
B314	0F87		XOR R15, R8
B316	003F		GETA R3, $0
B318	F00F		BRA $B30A		; -> -$10(R0)

B31A	870C		LBI R7, #$0C
B31C	010F		GETA R0, $1
B31E	840F		LBI R4, #$0F
B320	8203		LBI R2, #$03
B322	100F		CTRL $0, #$0F
B324	8200		LBI R2, #$00
B326	010E		GETB R0, $1
B328	100F		CTRL $0, #$0F
B32A	820F		LBI R2, #$0F
B32C	840E		LBI R4, #$0E
B32E	100F		CTRL $0, #$0F
B330	820F		LBI R2, #$0F
B332	820E		LBI R2, #$0E
B334	100F		CTRL $0, #$0F
B336	820F		LBI R2, #$0F
B338	86B3		LBI R6, #$B3
B33A	2001		JMP ($0002)

B33C	3F01		MOVE $02, R15
B33E	0F7E		GETB R7, $F
B340	C001		SLT R0, R0
B342	5989		MOVE (R8), R9
B344	FC80		SUB R12, #$81
B346	00FE		GETB R15, $0
B348	3C01		MOVE $02, R12
B34A	0B02		INC R11, R0
B34C	C300		SLE R3, R0
B34E	0B00		DEC2 R11, R0
B350	FB70		SUB R11, #$71
B352	8033		LBI R0, #$33
B354	100F		CTRL $0, #$0F
B356	2439		MOVE R4, $72
B358	040F		GETA R0, $4
B35A	6E59		MOVB R14, (R5)
B35C	B4FE		SET R4, #$FE
B35E	F15A		SUB R1, #$5B
B360	24FE		MOVE R4, $1FC
B362	4C01		PUTB $C, (R0)++
B364	000F		GETA R0, $0
B366	7FFE		MOVB (R15), R15
B368	7C00		MOVB (R0)+, R12
B36A	0233		INC2 R2, R3
B36C	2002		JMP ($0004)

B36E	0074		RET R7

B370	2004		JMP ($0008)

B372	B320		SET R3, #$20
B374	8074		LBI R0, #$74
B376	200A		JMP ($0014)

B378	D300		MOVE R3, (R0)'
B37A	00FE		GETB R15, $0
B37C	7910		MOVB (R1)+, R9
B37E	1159		CTRL $1, #$59
B380	BEFE		SET R14, #$FE
B382	3320		MOVE $40, R3
B384	0B3C		MHL R11, R3
B386	B360		SET R3, #$60
B388	1AFE		CTRL $A, #$FE
B38A	B350		SET R3, #$50
B38C	02E5		AND R2, R14
B38E	2000		JMP ($0000)

B390	C081		SLT R0, R8
B392	59D4		MOVE (R13)~, R9
B394	B808		SET R8, #$08
B396	1459		CTRL $4, #$59
B398	D4FE		MOVE R4, (R15)
B39A	B910		SET R9, #$10
B39C	1059		CTRL $0, #$59
B39E	D4FE		MOVE R4, (R15)
B3A0	8D01		LBI R13, #$01
B3A2	000F		GETA R0, $0
B3A4	2420		MOVE R4, $40
B3A6	5A62		MOVE (R6)+', R10
B3A8	FB20		SUB R11, #$21
B3AA	50FA		MOVE (R15), R0
B3AC	2060		JMP ($00C0)

B3AE	1059		CTRL $0, #$59
B3B0	C533		SZ R5
B3B2	00F4		RET R15

B3B4	F3D4		SUB R3, #$D5
B3B6	000C		MHL R0, R0
B3B8	2859		MOVE R8, $B2
B3BA	E338		
B3BC	100F		CTRL $0, #$0F
B3BE	6E5A		MOVB R14, (R5)
B3C0	ABFE		ADD R11, #$FF
B3C2	FC70		SUB R12, #$71
B3C4	00FE		GETB R15, $0
B3C6	4D01		PUTB $D, (R0)++
B3C8	0C0E		GETB R0, $C
B3CA	DA28		MOVE R10, (R2)
B3CC	5AAB		MOVE (R10), R10
B3CE	7820		MOVB (R2)+, R8
B3D0	105A		CTRL $0, #$5A
B3D2	C2FE		SNBC R2, R15
B3D4	1C01		CTRL $C, #$01
B3D6	0F78		ADD R15, R7
B3D8	08FC		MHL R8, R15
B3DA	7000		MOVB (R0)+, R0
B3DC	FB70		SUB R11, #$71
B3DE	8033		LBI R0, #$33
B3E0	100F		CTRL $0, #$0F
B3E2	2438		MOVE R4, $70
B3E4	010F		GETA R0, $1
B3E6	6F59		MOVB R15, (R5)
B3E8	F7FE		SUB R7, #$FF
B3EA	7C04		MOVB (R0)-, R12
B3EC	03FE		GETB R15, $3
B3EE	7C04		MOVB (R0)-, R12
B3F0	0238		ADD R2, R3
B3F2	8000		LBI R0, #$00
B3F4	A459		ADD R4, #$5A
B3F6	FEFE		SUB R14, #$FF
B3F8	7A80		MOVB (R8)+, R10
B3FA	03FE		GETB R15, $3
B3FC	3350		MOVE $A0, R3
B3FE	0200		DEC2 R2, R0
B400	7450		MOVB (R5)+, R4
B402	0433		INC2 R4, R3
B404	4003		PUTB $0, (R0)++++
B406	00F8		ADD R0, R15
B408	5040		MOVE (R4)', R0
B40A	7450		MOVB (R5)+, R4
B40C	0A35		AND R10, R3
B40E	400F		PUTB $0, (R0)
B410	7837		MOVB (R3)----, R8
B412	400E		PUTB $0, (R0)
B414	DBFB		MOVE R11, (R15)
B416	2050		JMP ($00A0)

B418	BC00		SET R12, #$00
B41A	00A4		RET R10

B41C	4001		PUTB $0, (R0)++
B41E	004C		MHL R0, R4
B420	0108		ADD R1, R0
B422	0F82		INC R15, R8
B424	D300		MOVE R3, (R0)'
B426	00FE		GETB R15, $0
B428	7910		MOVB (R1)+, R9
B42A	115A		CTRL $1, #$5A
B42C	14FE		CTRL $4, #$FE
B42E	3901		MOVE $02, R9
B430	0F6E		GETB R6, $F
B432	5A21		MOVE (R2)+, R10
B434	3904		MOVE $08, R9
B436	0F6E		GETB R6, $F
B438	5A21		MOVE (R2)+, R10
B43A	4D01		PUTB $D, (R0)++
B43C	0C0E		GETB R0, $C
B43E	DA28		MOVE R10, (R2)
B440	5AAB		MOVE (R10), R10
B442	7520		MOVB (R2)+, R5
B444	04FC		MHL R4, R15
B446	7000		MOVB (R0)+, R0
B448	3FF0		MOVE $1E0, R15
B44A	0F7F		GETA R7, $F
B44C	C002		SE R0, R0
B44E	5A2A		MOVE (R2), R10
B450	3E39		MOVE $72, R14
B452	0F7F		GETA R7, $F
B454	0A01		DEC R10, R0
B456	0F80		DEC2 R15, R8
B458	0F80		DEC2 R15, R8
B45A	FC80		SUB R12, #$81
B45C	00FE		GETB R15, $0
B45E	FB70		SUB R11, #$71
B460	80F1		LBI R0, #$F1
B462	0BC6		OR R11, R12
B464	4B03		PUTB $B, (R0)++++
B466	000F		GETA R0, $0
B468	187C		CTRL $8, #$7C
B46A	6B04		MOVB R11, (R0)-
B46C	7310		MOVB (R1)+, R3
B46E	05FC		MHL R5, R15
B470	7000		MOVB (R0)+, R0
B472	FB70		SUB R11, #$71
B474	80F1		LBI R0, #$F1
B476	0BC6		OR R11, R12
B478	4B03		PUTB $B, (R0)++++
B47A	000F		GETA R0, $0
B47C	18FC		CTRL $8, #$FC
B47E	7000		MOVB (R0)+, R0
B480	FB70		SUB R11, #$71
B482	8033		LBI R0, #$33
B484	1002		CTRL $0, #$02
B486	0033		INC2 R0, R3
B488	5003		MOVE (R0)++, R0
B48A	3F7C		MOVE $F8, R15
B48C	4000		PUTB $0, (R0)+
B48E	5450		MOVE (R5)', R4
B490	0100		DEC2 R1, R0
B492	3C00		MOVE $00, R12
B494	0B02		INC R11, R0
B496	C300		SLE R3, R0
B498	0B00		DEC2 R11, R0
B49A	3B10		MOVE $20, R11
B49C	0BA2		INC R11, R10
B49E	3904		MOVE $08, R9
B4A0	0F6E		GETB R6, $F
B4A2	5A5E		MOVE (R5), R10
B4A4	3802		MOVE $04, R8
B4A6	0F6E		GETB R6, $F
B4A8	8FEE		LBI R15, #$EE
B4AA	0C01		DEC R12, R0
B4AC	0B6C		MHL R11, R6
B4AE	0F70		DEC2 R15, R7
B4B0	3B20		MOVE $40, R11
B4B2	0BA1		DEC R11, R10
B4B4	3B08		MOVE $10, R11
B4B6	0B6C		MHL R11, R6
B4B8	F08F		BRA $B42A		; -> -$90(R0)

B4BA	EEFE		
B4BC	3B04		MOVE $08, R11
B4BE	0F6E		GETB R6, $F
B4C0	FC70		SUB R12, #$71
B4C2	00FE		GETB R15, $0
B4C4	3C67		MOVE $CE, R12
B4C6	0BB4		MOVE R11, R11
B4C8	F05A		BRA $B46F		; -> -$5B(R0)

B4CA	40FE		PUTB $0, (R15)
B4CC	FB70		SUB R11, #$71
B4CE	803B		LBI R0, #$3B
B4D0	100B		CTRL $0, #$0B
B4D2	A233		ADD R2, #$34
B4D4	3000		MOVE $00, R0
B4D6	1133		CTRL $1, #$33
B4D8	4000		PUTB $0, (R0)+
B4DA	00FE		GETB R15, $0
B4DC	3350		MOVE $A0, R3
B4DE	0008		ADD R0, R0
B4E0	3B01		MOVE $02, R11
B4E2	0BA2		INC R11, R10
B4E4	DAC1		MOVE R10, (R12)+
B4E6	005A		ADDH R0, R5
B4E8	A970		ADD R9, #$71
B4EA	1200		CTRL $2, #$00
B4EC	5AA9		MOVE (R10), R10
B4EE	5AA9		MOVE (R10), R10
B4F0	5A7A		MOVE (R7), R10
B4F2	5AA9		MOVE (R10), R10
B4F4	3640		MOVE $80, R6
B4F6	0EDB		ADDH2 R14, R13
B4F8	7310		MOVB (R1)+, R3
B4FA	0137		XOR R1, R3
B4FC	300E		MOVE $1C, R0
B4FE	DBC0		MOVE R11, (R12)'
B500	815A		LBI R1, #$5A
B502	A639		ADD R6, #$3A
B504	010B		ADDH2 R1, R0
B506	A25A		ADD R2, #$5B
B508	6EFE		MOVB R14, (R15)
B50A	3750		MOVE $A0, R7
B50C	0EDB		ADDH2 R14, R13
B50E	C081		SLT R0, R8
B510	5A91		MOVE (R9)+, R10
B512	DAC1		MOVE R10, (R12)+
B514	005A		ADDH R0, R5
B516	9170		CLR R1, #$70
B518	1200		CTRL $2, #$00
B51A	5A9C		MOVE (R9), R10
B51C	5A7A		MOVE (R7), R10
B51E	5A7A		MOVE (R7), R10
B520	5A91		MOVE (R9)+, R10
B522	DC40		MOVE R12, (R4)'
B524	005A		ADDH R0, R5
B526	9CDD		CLR R12, #$DD
B528	4B00		PUTB $B, (R0)+
B52A	5AA0		MOVE (R10)', R10
B52C	3A10		MOVE $20, R10
B52E	0BA2		INC R11, R10
B530	3A01		MOVE $02, R10
B532	0BA2		INC R11, R10
B534	F05A		BRA $B4DB		; -> -$5B(R0)

B536	7AFE		MOVB (R15), R10
B538	7310		MOVB (R1)+, R3
B53A	01DC		MHL R1, R13
B53C	4000		PUTB $0, (R0)+
B53E	5A9C		MOVE (R9), R10
B540	DD7D		MOVE R13, (R7)
B542	005A		ADDH R0, R5
B544	A973		ADD R9, #$74
B546	1001		CTRL $0, #$01
B548	FC70		SUB R12, #$71
B54A	00FE		GETB R15, $0
B54C	3801		MOVE $02, R8
B54E	0BA2		INC R11, R10
B550	5AA0		MOVE (R10)', R10
B552	FC00		SUB R12, #$01
B554	00FE		GETB R15, $0
B556	3A80		MOVE $100, R10
B558	0B6C		MHL R11, R6
B55A	3310		MOVE $20, R3
B55C	0F24		MOVE R15, R2
B55E	3410		MOVE $20, R4
B560	0BB6		OR R11, R11
B562	0910		DEC2 R9, R1
B564	05C0		DEC2 R5, R12
B566	0040		DEC2 R0, R4
B568	F05A		BRA $B50F		; -> -$5B(R0)

B56A	40FE		PUTB $0, (R15)
B56C	3310		MOVE $20, R3
B56E	0F24		MOVE R15, R2
B570	3520		MOVE $40, R5
B572	0F72		INC R15, R7
B574	6C39		MOVB R12, (R3)
B576	0000		HALT
B578	F05A		BRA $B51F		; -> -$5B(R0)

B57A	ADFE		ADD R13, #$FF
B57C	3C40		MOVE $80, R12
B57E	0BA2		INC R11, R10
B580	F05A		BRA $B527		; -> -$5B(R0)

B582	40FE		PUTB $0, (R15)
B584	3C39		MOVE $72, R12
B586	0BB4		MOVE R11, R11
B588	F05A		BRA $B52F		; -> -$5B(R0)

B58A	40FE		PUTB $0, (R15)
B58C	B310		SET R3, #$10
B58E	07F1		DEC R7, R15
B590	8FEC		LBI R15, #$EC
B592	DCFF		MOVE R12, (R15)
B594	003B		ADDH2 R0, R3
B596	D81C		MOVE R8, (R1)
B598	000E		GETB R0, $0
B59A	D900		MOVE R9, (R0)'
B59C	7330		MOVB (R3)+, R3
B59E	0272		INC R2, R7
B5A0	0001		DEC R0, R0
B5A2	3310		MOVE $20, R3
B5A4	0B42		INC R11, R4
B5A6	F810		SUB R8, #$11
B5A8	00D5		AND R0, R13
B5AA	1000		CTRL $0, #$00
B5AC	C081		SLT R0, R8
B5AE	5BD4		MOVE (R13)~, R11
B5B0	3410		MOVE $20, R4
B5B2	0DB9		SUB R13, R11
B5B4	7910		MOVB (R1)+, R9
B5B6	145B		CTRL $4, #$5B
B5B8	35FE		MOVE $1FC, R5
B5BA	ED1B		
B5BC	065B		ADDH2 R6, R5
B5BE	EE39		
B5C0	800E		LBI R0, #$0E
B5C2	D95B		MOVE R9, (R5)
B5C4	13FE		CTRL $3, #$FE
B5C6	7808		MOVB (R0), R8
B5C8	035A		ADDH R3, R5
B5CA	E9FE		
B5CC	7980		MOVB (R8)+, R9
B5CE	115A		CTRL $1, #$5A
B5D0	FFFE		SUB R15, #$FF
B5D2	7820		MOVB (R2)+, R8
B5D4	105B		CTRL $0, #$5B
B5D6	D7FE		MOVE R7, (R15)
B5D8	5C01		MOVE (R0)+, R12
B5DA	081A		ADDH R8, R1
B5DC	7C04		MOVB (R0)-, R12
B5DE	027B		ADDH2 R2, R7
B5E0	0403		INC2 R4, R0
B5E2	7A80		MOVB (R8)+, R10
B5E4	03D3		INC2 R3, R13
B5E6	0000		HALT
B5E8	7910		MOVB (R1)+, R9
B5EA	115A		CTRL $1, #$5A
B5EC	F4FE		SUB R4, #$FF
B5EE	7B80		MOVB (R8)+, R11
B5F0	03DE		GETB R13, $3
B5F2	000C		MHL R0, R0
B5F4	5AFF		MOVE (R15), R10
B5F6	F15B		SUB R1, #$5C
B5F8	DFFE		MOVE R15, (R15)
B5FA	F05A		BRA $B5A1		; -> -$5B(R0)

B5FC	F1FE		SUB R1, #$FF
B5FE	4901		PUTB $9, (R0)++
B600	0800		DEC2 R8, R0
B602	0033		INC2 R0, R3
B604	00FF		GETA R15, $0
B606	FF76		SUB R15, #$77
B608	0006		OR R0, R0
B60A	7520		MOVB (R2)+, R5
B60C	04BC		MHL R4, R11
B60E	4000		PUTB $0, (R0)+
B610	A400		ADD R4, #$01
B612	0100		DEC2 R1, R0
B614	3520		MOVE $40, R5
B616	0B65		AND R11, R6
B618	7880		MOVB (R8)+, R8
B61A	145B		CTRL $4, #$5B
B61C	D7FE		MOVE R7, (R15)
B61E	5E10		MOVE (R1)', R14
B620	1606		CTRL $6, #$06
B622	F05B		BRA $B5C8		; -> -$5C(R0)

B624	D7FE		MOVE R7, (R15)
B626	7903		MOVB (R0)++++, R9
B628	145B		CTRL $4, #$5B
B62A	D7FE		MOVE R7, (R15)
B62C	7B80		MOVB (R8)+, R11
B62E	147A		CTRL $4, #$7A
B630	4014		PUTB $0, (R1)-
B632	5C01		MOVE (R0)+, R12
B634	1604		CTRL $6, #$04
B636	7C01		MOVB (R0)++, R12
B638	02FE		GETB R15, $2
B63A	D300		MOVE R3, (R0)'
B63C	00FE		GETB R15, $0
B63E	7910		MOVB (R1)+, R9
B640	115B		CTRL $1, #$5B
B642	1FFE		CTRL $F, #$FE
B644	DE00		MOVE R14, (R0)'
B646	0C5B		ADDH2 R12, R5
B648	1D33		CTRL $D, #$33
B64A	00F0		DEC2 R0, R15
B64C	F9D4		SUB R9, #$D5
B64E	000C		MHL R0, R0
B650	285B		MOVE R8, $B6
B652	3149		MOVE $92, R1
B654	010C		MHL R1, R0
B656	0000		HALT
B658	7B20		MOVB (R2)+, R11
B65A	037A		ADDH R3, R7
B65C	1003		CTRL $0, #$03
B65E	F05B		BRA $B604		; -> -$5C(R0)

B660	D7FE		MOVE R7, (R15)
B662	F15B		SUB R1, #$5C
B664	DFFE		MOVE R15, (R15)
B666	F05B		BRA $B60C		; -> -$5C(R0)

B668	1DFE		CTRL $D, #$FE
B66A	ED1C		
B66C	065B		ADDH2 R6, R5
B66E	EE39		
B670	400E		PUTB $0, (R0)
B672	D95B		MOVE R9, (R5)
B674	89FE		LBI R9, #$FE
B676	3930		MOVE $60, R9
B678	0ED9		SUB R14, R13
B67A	5BA0		MOVE (R10)', R11
B67C	7820		MOVB (R2)+, R8
B67E	155B		CTRL $5, #$5B
B680	5FFE		MOVE (R15), R15
B682	7880		MOVB (R8)+, R8
B684	145B		CTRL $4, #$5B
B686	50FE		MOVE (R15), R0
B688	7510		MOVB (R1)+, R5
B68A	4276		PUTB $2, (R7)---
B68C	1042		CTRL $0, #$42
B68E	7200		MOVB (R0)+, R2
B690	0537		XOR R5, R3
B692	000E		GETB R0, $0
B694	DB7C		MOVE R11, (R7)
B696	0006		OR R0, R0
B698	5400		MOVE (R0)', R4
B69A	0706		OR R7, R0
B69C	F05B		BRA $B642		; -> -$5C(R0)

B69E	D7FE		MOVE R7, (R15)
B6A0	7520		MOVB (R2)+, R5
B6A2	4289		PUTB $2, (R8)
B6A4	011E		GETB R1, $1
B6A6	0000		HALT
B6A8	BC02		SET R12, #$02
B6AA	2034		JMP ($0068)

B6AC	300C		MOVE $18, R0
B6AE	5CF1		MOVE (R15)+, R12
B6B0	77F8		MOVB (R15), R7
B6B2	F177		SUB R1, #$78
B6B4	F6FE		SUB R6, #$FF
B6B6	3530		MOVE $60, R5
B6B8	0C5C		MHL R12, R5
B6BA	3520		MOVE $40, R5
B6BC	0B65		AND R11, R6
B6BE	4902		PUTB $9, (R0)+++
B6C0	1E00		CTRL $E, #$00
B6C2	0079		SUB R0, R7
B6C4	8014		LBI R0, #$14
B6C6	5B6A		MOVE (R6), R11
B6C8	5C01		MOVE (R0)+, R12
B6CA	2404		MOVE R4, $08
B6CC	5C01		MOVE (R0)+, R12
B6CE	211E		MOVE R1, $3C
B6D0	5C02		MOVE (R0)+', R12
B6D2	261E		MOVE R6, $3C
B6D4	7980		MOVB (R8)+, R9
B6D6	115B		CTRL $1, #$5B
B6D8	D7FE		MOVE R7, (R15)
B6DA	7820		MOVB (R2)+, R8
B6DC	105B		CTRL $0, #$5B
B6DE	D7FE		MOVE R7, (R15)
B6E0	5C01		MOVE (R0)+, R12
B6E2	081A		ADDH R8, R1
B6E4	7C04		MOVB (R0)-, R12
B6E6	02FE		GETB R15, $2
B6E8	7A80		MOVB (R8)+, R10
B6EA	03D3		INC2 R3, R13
B6EC	0000		HALT
B6EE	7910		MOVB (R1)+, R9
B6F0	115B		CTRL $1, #$5B
B6F2	77FE		MOVB (R15), R7
B6F4	7B80		MOVB (R8)+, R11
B6F6	03DE		GETB R13, $3
B6F8	000C		MHL R0, R0
B6FA	5B82		MOVE (R8)+', R11
B6FC	F15B		SUB R1, #$5C
B6FE	DFFE		MOVE R15, (R15)
B700	F05B		BRA $B6A6		; -> -$5C(R0)

B702	74FE		MOVB (R15), R4
B704	7880		MOVB (R8)+, R8
B706	145B		CTRL $4, #$5B
B708	D7FE		MOVE R7, (R15)
B70A	4901		PUTB $9, (R0)++
B70C	2100		MOVE R1, $00
B70E	FEF0		SUB R14, #$F1
B710	5BD7		MOVE (R13)--, R11
B712	7880		MOVB (R8)+, R8
B714	115B		CTRL $1, #$5B
B716	F2FE		SUB R2, #$FF
B718	7808		MOVB (R0), R8
B71A	035B		ADDH2 R3, R5
B71C	F2FE		SUB R2, #$FF
B71E	FB10		SUB R11, #$11
B720	30F1		MOVE $1E2, R0
B722	8FCE		LBI R15, #$CE
B724	7330		MOVB (R3)+, R3
B726	0335		AND R3, R3
B728	100D		CTRL $0, #$0D
B72A	B94C		SET R9, #$4C
B72C	021E		GETB R1, $2
B72E	0FA4		MOVE R15, R10
B730	5D02		MOVE (R0)+', R13
B732	1E26		CTRL $E, #$26
B734	008F		GETA R8, $0
B736	E64F		STAT R4, $6
B738	201E		JMP ($003C)

B73A	0EDA		ADDH R14, R13
B73C	F05B		BRA $B6E2		; -> -$5C(R0)

B73E	D7FE		MOVE R7, (R15)
B740	7820		MOVB (R2)+, R8
B742	155B		CTRL $5, #$5B
B744	F6FE		SUB R6, #$FF
B746	7880		MOVB (R8)+, R8
B748	145B		CTRL $4, #$5B
B74A	F6FE		SUB R6, #$FF
B74C	FB10		SUB R11, #$11
B74E	3073		MOVE $E6, R0
B750	1001		CTRL $0, #$01
B752	F183		SUB R1, #$84
B754	E4FE		
B756	0C01		DEC R12, R0
B758	0F18		ADD R15, R1
B75A	0DB9		SUB R13, R11
B75C	0C01		DEC R12, R0
B75E	0F15		AND R15, R1
B760	0DB2		INC R13, R11
B762	0C00		DEC2 R12, R0
B764	0F17		XOR R15, R1
B766	0DB4		MOVE R13, R11
B768	3C90		MOVE $120, R12
B76A	0F14		MOVE R15, R1
B76C	3920		MOVE $40, R9
B76E	0ED9		SUB R14, R13
B770	5BBB		MOVE (R11), R11
B772	3C50		MOVE $A0, R12
B774	0F14		MOVE R15, R1
B776	F153		SUB R1, #$54
B778	FAFE		SUB R10, #$FF
B77A	FB30		SUB R11, #$31
B77C	10CD		CTRL $0, #$CD
B77E	800F		LBI R0, #$0F
B780	1D8F		CTRL $D, #$8F
B782	E435		
B784	100F		CTRL $0, #$0F
B786	1875		CTRL $8, #$75
B788	1042		CTRL $0, #$42
B78A	7610		MOVB (R1)+, R6
B78C	4272		PUTB $2, (R7)+++
B78E	0005		AND R0, R0
B790	7310		MOVB (R1)+, R3
B792	05F8		ADD R5, R15
B794	1000		CTRL $0, #$00
B796	F05B		BRA $B73C		; -> -$5C(R0)

B798	CFFE		SNBC R15, R15
B79A	3710		MOVE $20, R7
B79C	0EDB		ADDH2 R14, R13
B79E	7F01		MOVB (R0)++, R15
B7A0	00C0		DEC2 R0, R12
B7A2	825B		LBI R2, #$5B
B7A4	CDF0		SLE R13, R15
B7A6	5BD7		MOVE (R13)--, R11
B7A8	3970		MOVE $E0, R9
B7AA	0ED9		SUB R14, R13
B7AC	5BDA		MOVE (R13), R11
B7AE	FB10		SUB R11, #$11
B7B0	30F0		MOVE $1E0, R0
B7B2	5AC9		MOVE (R12), R10
B7B4	FB10		SUB R11, #$11
B7B6	3073		MOVE $E6, R0
B7B8	1003		CTRL $0, #$03
B7BA	F05A		BRA $B761		; -> -$5B(R0)

B7BC	C9FE		SNBC R9, R15
B7BE	300C		MOVE $18, R0
B7C0	0C5C		MHL R12, R5
B7C2	3300		MOVE $00, R3
B7C4	F3F0		SUB R3, #$F1
B7C6	D400		MOVE R4, (R0)'
B7C8	0C28		ADD R12, R2
B7CA	8FEA		LBI R15, #$EA
B7CC	F123		SUB R1, #$24
B7CE	E4FE		
B7D0	F16B		SUB R1, #$6C
B7D2	E2FE		
B7D4	C087		SBSH R0, R8
B7D6	8FEA		LBI R15, #$EA
B7D8	300E		MOVE $1C, R0
B7DA	0C5C		MHL R12, R5
B7DC	3C8E		MOVE $11C, R12
B7DE	0BB4		MOVE R11, R11
B7E0	F03B		BRA $B7A6		; -> -$3C(R0)

B7E2	CEFE		SNBC R14, R15
B7E4	3C8F		MOVE $11E, R12
B7E6	0BB4		MOVE R11, R11
B7E8	F03B		BRA $B7AE		; -> -$3C(R0)

B7EA	CEFE		SNBC R14, R15
B7EC	3C8C		MOVE $118, R12
B7EE	0BB4		MOVE R11, R11
B7F0	F03B		BRA $B7B6		; -> -$3C(R0)

B7F2	CEFE		SNBC R14, R15
B7F4	3C8D		MOVE $11A, R12
B7F6	0BB4		MOVE R11, R11
B7F8	F03B		BRA $B7BE		; -> -$3C(R0)

B7FA	CEFE		SNBC R14, R15
B7FC	3300		MOVE $00, R3
B7FE	0004		NOP
B800	4000		PUTB $0, (R0)+
B802	0301		DEC R3, R0
B804	F5FE		SUB R5, #$FF
B806	205C		JMP ($00B8)

B808	0B73		INC2 R11, R7
B80A	1001		CTRL $0, #$01
B80C	3C04		MOVE $08, R12
B80E	0EBF		GETA R11, $E
B810	D714		MOVE R7, (R1)~
B812	00F0		DEC2 R0, R15
B814	5C0F		MOVE (R0), R12
B816	3C08		MOVE $10, R12
B818	0EBF		GETA R11, $E
B81A	D704		MOVE R7, (R0)~
B81C	00FE		GETB R15, $0
B81E	093F		GETA R3, $9
B820	05C0		DEC2 R5, R12
B822	0040		DEC2 R0, R4
B824	3B01		MOVE $02, R11
B826	0BA4		MOVE R11, R10
B828	3902		MOVE $04, R9
B82A	0B6D		MLH R11, R6
B82C	5CF0		MOVE (R15)', R12
B82E	C500		SLE R5, R0
B830	0B80		DEC2 R11, R8
B832	C081		SLT R0, R8
B834	5CF0		MOVE (R15)', R12
B836	7310		MOVB (R1)+, R3
B838	033C		MHL R3, R3
B83A	000D		MLH R0, R0
B83C	BF3B		SET R15, #$3B
B83E	020B		ADDH2 R2, R0
B840	A23B		ADD R2, #$3C
B842	200B		JMP ($0016)

B844	6C3B		MOVB R12, (R3)
B846	400B		PUTB $0, (R0)
B848	6CDD		MOVB R12, (R13)
B84A	4000		PUTB $0, (R0)+
B84C	5C35		MOVE (R3)-, R12
B84E	DD40		MOVE R13, (R4)'
B850	005C		MHL R0, R5
B852	F43C		SUB R4, #$3D
B854	010B		ADDH2 R1, R0
B856	02C3		INC2 R2, R12
B858	000B		ADDH2 R0, R0
B85A	00FE		GETB R15, $0
B85C	0C01		DEC R12, R0
B85E	0DB0		DEC2 R13, R11
B860	0DAE		GETB R10, $D
B862	F183		SUB R1, #$84
B864	F2FE		SUB R2, #$FF
B866	F03B		BRA $B82C		; -> -$3C(R0)

B868	DEFE		MOVE R14, (R15)
B86A	3300		MOVE $00, R3
B86C	0003		INC2 R0, R0
B86E	4000		PUTB $0, (R0)+
B870	0001		DEC R0, R0
B872	FEFE		SUB R14, #$FF
B874	205C		JMP ($00B8)

B876	8140		LBI R1, #$40
B878	0000		HALT
B87A	01FC		MHL R1, R15
B87C	205C		JMP ($00B8)

B87E	7233		MOVB (R3)++++, R2
B880	0000		HALT
B882	0440		DEC2 R4, R4
B884	0000		HALT
B886	01DF		GETA R13, $1
B888	205C		JMP ($00B8)

B88A	DD33		MOVE R13, (R3)++
B88C	0000		HALT
B88E	0440		DEC2 R4, R4
B890	0000		HALT
B892	01F5		AND R1, R15
B894	205C		JMP ($00B8)

B896	E533		
B898	0000		HALT
B89A	0540		DEC2 R5, R4
B89C	0000		HALT
B89E	01F9		SUB R1, R15
B8A0	285C		MOVE R8, $B8
B8A2	F473		SUB R4, #$74
B8A4	1005		CTRL $0, #$05
B8A6	3A20		MOVE $40, R10
B8A8	0B6C		MHL R11, R6
B8AA	3920		MOVE $40, R9
B8AC	0BA4		MOVE R11, R10
B8AE	5CF0		MOVE (R15)', R12
B8B0	DD6B		MOVE R13, (R6)
B8B2	005C		MHL R0, R5
B8B4	2773		MOVE R7, $E6
B8B6	1001		CTRL $0, #$01
B8B8	3300		MOVE $00, R3
B8BA	0005		AND R0, R0
B8BC	4000		PUTB $0, (R0)+
B8BE	0002		INC R0, R0
B8C0	82FE		LBI R2, #$FE
B8C2	285C		MOVE R8, $B8
B8C4	6B3A		MOVB R11, (R3)
B8C6	020B		ADDH2 R2, R0
B8C8	A273		ADD R2, #$74
B8CA	1005		CTRL $0, #$05
B8CC	DD6B		MOVE R13, (R6)
B8CE	005C		MHL R0, R5
B8D0	27FE		MOVE R7, $1FC
B8D2	7310		MOVB (R1)+, R3
B8D4	01FE		GETB R15, $1
B8D6	3300		MOVE $00, R3
B8D8	0003		INC2 R0, R0
B8DA	4000		PUTB $0, (R0)+
B8DC	0001		DEC R0, R0
B8DE	FCFE		SUB R12, #$FF
B8E0	285C		MOVE R8, $B8
B8E2	7AFE		MOVB (R15), R10
B8E4	3A01		MOVE $02, R10
B8E6	0DBF		GETA R11, $D
B8E8	7310		MOVB (R1)+, R3
B8EA	03DD		MLH R3, R13
B8EC	6B00		MOVB R11, (R0)+
B8EE	5C27		MOVE (R2)--, R12
B8F0	7310		MOVB (R1)+, R3
B8F2	01FE		GETB R15, $1
B8F4	3300		MOVE $00, R3
B8F6	0003		INC2 R0, R0
B8F8	4000		PUTB $0, (R0)+
B8FA	0001		DEC R0, R0
B8FC	FEFE		SUB R14, #$FF
B8FE	285C		MOVE R8, $B8
B900	D6FE		MOVE R6, (R15)
B902	7310		MOVB (R1)+, R3
B904	03FE		GETB R15, $3
B906	DCF1		MOVE R12, (R15)+
B908	005C		MHL R0, R5
B90A	C0DD		SNBS R0, R13
B90C	F000		BRA $B90D		; -> -$01(R0)

B90E	5C8B		MOVE (R8), R12
B910	7310		MOVB (R1)+, R3
B912	01F0		DEC2 R1, R15
B914	5C83		MOVE (R8)++, R12
B916	DAF2		MOVE R10, (R15)+'
B918	005C		MHL R0, R5
B91A	F4D8		SUB R4, #$D9
B91C	F900		SUB R9, #$01
B91E	5CF4		MOVE (R15)~, R12
B920	1C00		CTRL $C, #$00
B922	0B5A		ADDH R11, R5
B924	003F		GETA R3, $0
B926	F00B		BRA $B91C		; -> -$0C(R0)

B928	5AFE		MOVE (R15), R10
B92A	7310		MOVB (R1)+, R3
B92C	01DD		MLH R1, R13
B92E	4000		PUTB $0, (R0)+
B930	5CF4		MOVE (R15)~, R12
B932	0C00		DEC2 R12, R0
B934	0C62		INC R12, R6
B936	0B5A		ADDH R11, R5
B938	3C50		MOVE $A0, R12
B93A	1081		CTRL $0, #$81
B93C	C70A		SNE R7, R0
B93E	1080		CTRL $0, #$80
B940	3C10		MOVE $20, R12
B942	1081		CTRL $0, #$81
B944	0C00		DEC2 R12, R0
B946	0F24		MOVE R15, R2
B948	0C62		INC R12, R6
B94A	C620		SLE R6, R2
B94C	77E6		MOVB (R14)---, R7
B94E	CA0A		SNE R10, R0
B950	0F24		MOVE R15, R2
B952	5CB1		MOVE (R11)+, R12
B954	2507		MOVE R5, $0E
B956	0F25		AND R15, R2
B958	58FE		MOVE (R15), R8
B95A	C702		SE R7, R0
B95C	0F25		AND R15, R2
B95E	3F0A		MOVE $14, R15
B960	0F24		MOVE R15, R2
B962	B320		SET R3, #$20
B964	7C32		MOVB (R3)+++, R12
B966	000F		GETA R0, $0
B968	24F6		MOVE R4, $1EC
B96A	0001		DEC R0, R0
B96C	F920		SUB R9, #$21
B96E	0025		AND R0, R2
B970	070F		GETA R0, $7
B972	2500		MOVE R5, $00
B974	C702		SE R7, R0
B976	0F25		AND R15, R2
B978	C70C		SNS R7
B97A	0168		ADD R1, R6
B97C	F05C		BRA $B921		; -> -$5D(R0)

B97E	27FE		MOVE R7, $1FC
B980	3C0A		MOVE $14, R12
B982	0B5A		ADDH R11, R5
B984	7310		MOVB (R1)+, R3
B986	01DD		MLH R1, R13
B988	4000		PUTB $0, (R0)+
B98A	5CCA		MOVE (R12), R12
B98C	3C01		MOVE $02, R12
B98E	0C62		INC R12, R6
B990	F05C		BRA $B935		; -> -$5D(R0)

B992	9CFE		CLR R12, #$FE
B994	DBF6		MOVE R11, (R15)-~
B996	005C		MHL R0, R5
B998	F4DA		SUB R4, #$DB
B99A	F000		BRA $B99B		; -> -$01(R0)

B99C	5CF4		MOVE (R15)~, R12
B99E	7FF0		MOVB (R15)+, R15
B9A0	001E		GETB R1, $0
B9A2	000B		ADDH2 R0, R0
B9A4	5A00		MOVE (R0)', R10
B9A6	7EF0		MOVB (R15)+, R14
B9A8	00F0		DEC2 R0, R15
B9AA	5C95		MOVE (R9)-, R12
B9AC	3300		MOVE $00, R3
B9AE	0004		NOP
B9B0	4000		PUTB $0, (R0)+
B9B2	0001		DEC R0, R0
B9B4	DFFE		MOVE R15, (R15)
B9B6	285C		MOVE R8, $B8
B9B8	F4FE		SUB R4, #$FF
B9BA	3A01		MOVE $02, R10
B9BC	0BA4		MOVE R11, R10
B9BE	7310		MOVB (R1)+, R3
B9C0	04DD		MLH R4, R13
B9C2	4000		PUTB $0, (R0)+
B9C4	5CF4		MOVE (R15)~, R12
B9C6	F05C		BRA $B96B		; -> -$5D(R0)

B9C8	27FE		MOVE R7, $1FC
B9CA	3A40		MOVE $80, R10
B9CC	0B6C		MHL R11, R6
B9CE	3920		MOVE $40, R9
B9D0	0BA4		MOVE R11, R10
B9D2	5CF0		MOVE (R15)', R12
B9D4	7310		MOVB (R1)+, R3
B9D6	04DD		MLH R4, R13
B9D8	6B00		MOVB R11, (R0)+
B9DA	5C27		MOVE (R2)--, R12
B9DC	F05C		BRA $B981		; -> -$5D(R0)

B9DE	69FE		MOVB R9, (R15)
B9E0	3C33		MOVE $66, R12
B9E2	0BB4		MOVE R11, R11
B9E4	F08F		BRA $B956		; -> -$90(R0)

B9E6	EEFE		
B9E8	3C32		MOVE $64, R12
B9EA	0B5A		ADDH R11, R5
B9EC	F00B		BRA $B9E2		; -> -$0C(R0)

B9EE	E6FE		
B9F0	300C		MOVE $18, R0
B9F2	0FA4		MOVE R15, R10
B9F4	3510		MOVE $20, R5
B9F6	0EB4		MOVE R14, R11
B9F8	D936		MOVE R9, (R3)-~
B9FA	005D		MLH R0, R5
B9FC	7B05		MOVB (R0)--, R11
B9FE	570F		MOVE (R0), R7
BA00	BC5D		SET R12, #$5D
BA02	7DFE		MOVB (R15), R13
BA04	3C00		MOVE $00, R12
BA06	0FBA		ADDH R15, R11
BA08	7880		MOVB (R8)+, R8
BA0A	005D		MLH R0, R5
BA0C	18FE		CTRL $8, #$FE
BA0E	3C04		MOVE $08, R12
BA10	0FBA		ADDH R15, R11
BA12	F05D		BRA $B9B6		; -> -$5E(R0)

BA14	18FE		CTRL $8, #$FE
BA16	300C		MOVE $18, R0
BA18	0FA4		MOVE R15, R10
BA1A	0557		XOR R5, R5
BA1C	0FBC		MHL R15, R11
BA1E	5D7D		MOVE (R7), R13
BA20	3C02		MOVE $04, R12
BA22	0FBA		ADDH R15, R11
BA24	D70E		MOVE R7, (R0)
BA26	0035		AND R0, R3
BA28	100E		CTRL $0, #$0E
BA2A	B4D9		SET R4, #$D9
BA2C	3600		MOVE $00, R6
BA2E	5D1A		MOVE (R1), R13
BA30	D708		MOVE R7, (R0)
BA32	00FE		GETB R15, $0
BA34	3006		MOVE $0C, R0
BA36	0EB0		DEC2 R14, R11
BA38	3002		MOVE $04, R0
BA3A	0EBA		ADDH R14, R11
BA3C	3320		MOVE $40, R3
BA3E	0FAA		ADDH R15, R10
BA40	E702		
BA42	1289		CTRL $2, #$89
BA44	0704		MOVE R7, R0
BA46	0000		HALT
BA48	E70C		
BA4A	00BB		ADDH2 R0, R11
BA4C	8000		LBI R0, #$00
BA4E	EA46		
BA50	005D		MLH R0, R5
BA52	2FAC		MOVE R15, $158
BA54	0401		DEC R4, R0
BA56	03BF		GETA R11, $3
BA58	0400		DEC2 R4, R0
BA5A	F05D		BRA $B9FE		; -> -$5E(R0)

BA5C	27FE		MOVE R7, $1FC
BA5E	E70A		
BA60	00E7		XOR R0, R14
BA62	1200		CTRL $2, #$00
BA64	E70C		
BA66	08AC		MHL R8, R10
BA68	0011		DEC R0, R1
BA6A	0B89		SUB R11, R8
BA6C	030C		MHL R3, R0
BA6E	0000		HALT
BA70	BA80		SET R10, #$80
BA72	08E7		XOR R8, R14
BA74	0A08		ADD R10, R0
BA76	E700		
BA78	00E7		XOR R0, R14
BA7A	021A		ADDH R2, R1
BA7C	AE00		ADD R14, #$01
BA7E	1110		CTRL $1, #$10
BA80	BBF8		SET R11, #$F8
BA82	11E8		CTRL $1, #$E8
BA84	0511		DEC R5, R1
BA86	5D4B		MOVE (R4), R13
BA88	E901		
BA8A	115D		CTRL $1, #$5D
BA8C	4BE7		PUTB $B, (R14)----
BA8E	0C00		DEC2 R12, R0
BA90	BA80		SET R10, #$80
BA92	00E7		XOR R0, R14
BA94	0800		DEC2 R8, R0
BA96	B801		SET R8, #$01
BA98	115D		CTRL $1, #$5D
BA9A	51FE		MOVE (R15), R1
BA9C	B310		SET R3, #$10
BA9E	1AF0		CTRL $A, #$F0
BAA0	5D56		MOVE (R5)-~, R13
BAA2	B802		SET R8, #$02
BAA4	115D		CTRL $1, #$5D
BAA6	5CFE		MOVE (R15), R12
BAA8	B310		SET R3, #$10
BAAA	22FE		MOVE R2, $1FC
BAAC	E904		
BAAE	115D		CTRL $1, #$5D
BAB0	5A7A		MOVE (R7), R10
BAB2	8000		LBI R0, #$00
BAB4	D700		MOVE R7, (R0)'
BAB6	00FE		GETB R15, $0
BAB8	E70C		
BABA	00E7		XOR R0, R14
BABC	0200		DEC2 R2, R0
BABE	E70C		
BAC0	08E7		XOR R8, R14
BAC2	082A		ADDH R8, R2
BAC4	E702		
BAC6	08E7		XOR R8, R14
BAC8	0032		INC R0, R3
BACA	E702		
BACC	08E7		XOR R8, R14
BACE	003A		ADDH R0, R3
BAD0	E702		
BAD2	08E7		XOR R8, R14
BAD4	0042		INC R0, R4
BAD6	E702		
BAD8	08E7		XOR R8, R14
BADA	004A		ADDH R0, R4
BADC	E702		
BADE	08E7		XOR R8, R14
BAE0	0052		INC R0, R5
BAE2	E702		
BAE4	08E7		XOR R8, R14
BAE6	005A		ADDH R0, R5
BAE8	E702		
BAEA	08E7		XOR R8, R14
BAEC	0062		INC R0, R6
BAEE	E702		
BAF0	0030		DEC2 R0, R3
BAF2	1A0E		CTRL $A, #$0E
BAF4	BAFE		SET R10, #$FE
BAF6	300E		MOVE $1C, R0
BAF8	0FA4		MOVE R15, R10
BAFA	4114		PUTB $1, (R1)-
BAFC	5F30		MOVE (R3)', R15
BAFE	6DC9		MOVB R13, (R12)
BB00	C882		SE R8, R8
BB02	4080		PUTB $0, (R8)+
BB04	0000		HALT
BB06	0000		HALT
BB08	0000		HALT
BB0A	4110		PUTB $1, (R1)+
BB0C	0000		HALT
BB0E	0000		HALT
BB10	0000		HALT
BB12	B92C		SET R9, #$2C
BB14	384B		MOVE $96, R8
BB16	2189		MOVE R1, $112
BB18	EFB4		
BB1A	3AF4		MOVE $1E8, R10
BB1C	49AF		PUTB $9, (R10)
BB1E	94A4		CLR R4, #$A4
BB20	8B83		LBI R11, #$83
BB22	BC3C		SET R12, #$3C
BB24	60BD		MOVB R0, (R11)
BB26	2ADE		MOVE R10, $1BC
BB28	F592		SUB R5, #$93
BB2A	3DA8		MOVE $150, R13
BB2C	3C18		MOVE $30, R12
BB2E	C981		SLT R9, R8
BB30	06C1		DEC R6, R12
BB32	BF13		SET R15, #$13
BB34	2D2C		MOVE R13, $58
BB36	CDF1		SLT R13, R15
BB38	5D3A		MOVE (R3), R13
BB3A	4014		PUTB $0, (R1)-
BB3C	66BC		MOVB R6, (R11)
BB3E	6774		MOVB R7, (R7)-
BB40	89CB		LBI R9, #$CB
BB42	C0A5		SBS R0, R10
BB44	5DE7		MOVE (R14)--, R13
BB46	312D		MOVE $5A, R1
BB48	E591		
BB4A	4119		PUTB $1, (R1)
BB4C	21FB		MOVE R1, $1F6
BB4E	5444		MOVE (R4)~, R4
BB50	2D99		MOVE R13, $132
BB52	7310		MOVB (R1)+, R3
BB54	02AF		GETA R10, $2
BB56	1000		CTRL $0, #$00
BB58	00B3		INC2 R0, R11
BB5A	2002		JMP ($0004)

BB5C	3B01		MOVE $02, R11
BB5E	0FCD		MLH R15, R12
BB60	F940		SUB R9, #$41
BB62	4033		PUTB $0, (R3)++++
BB64	5000		MOVE (R0)', R0
BB66	04FE		GETB R15, $4
BB68	F18F		SUB R1, #$90
BB6A	F4FE		SUB R4, #$FF
BB6C	DC4C		MOVE R12, (R4)
BB6E	005D		MLH R0, R5
BB70	FDDC		SUB R13, #$DD
BB72	6E00		MOVB R14, (R0)+
BB74	5E0E		MOVE (R0), R14
BB76	DC8C		MOVE R12, (R8)
BB78	005D		MLH R0, R5
BB7A	C5DC		SNS R5
BB7C	AE00		ADD R14, #$01
BB7E	5DC5		MOVE (R12)-, R13
BB80	DCBE		MOVE R12, (R11)
BB82	005D		MLH R0, R5
BB84	C5DD		SNBS R5, R13
BB86	7E00		MOVB (R0)+, R14
BB88	5E24		MOVE (R2)~, R14
BB8A	3901		MOVE $02, R9
BB8C	0FCD		MLH R15, R12
BB8E	5DCB		MOVE (R12), R13
BB90	1C00		CTRL $C, #$00
BB92	10D2		CTRL $0, #$D2
BB94	00FE		GETB R15, $0
BB96	9C00		CLR R12, #$00
BB98	0000		HALT
BB9A	F10B		SUB R1, #$0C
BB9C	F0FE		BRA $BA9F		; -> -$FF(R0)

BB9E	3940		MOVE $80, R9
BBA0	0BA6		OR R11, R10
BBA2	5DD6		MOVE (R13)-~, R13
BBA4	F18F		SUB R1, #$90
BBA6	F8FE		SUB R8, #$FF
BBA8	F05D		BRA $BB4C		; -> -$5E(R0)

BBAA	D8FE		MOVE R8, (R15)
BBAC	F18F		SUB R1, #$90
BBAE	F6FE		SUB R6, #$FF
BBB0	DC50		MOVE R12, (R5)'
BBB2	005E		GETB R5, $0
BBB4	21DC		MOVE R1, $1B8
BBB6	4F00		PUTB $F, (R0)+
BBB8	5E16		MOVE (R1)-~, R14
BBBA	3300		MOVE $00, R3
BBBC	0004		NOP
BBBE	4000		PUTB $0, (R0)+
BBC0	0002		INC R0, R0
BBC2	DBFE		MOVE R11, (R15)
BBC4	205D		JMP ($00BA)

BBC6	E840		
BBC8	0000		HALT
BBCA	023C		MHL R2, R3
BBCC	285E		MOVE R8, $BC
BBCE	24FE		MOVE R4, $1FC
BBD0	7310		MOVB (R1)+, R3
BBD2	04BC		MHL R4, R11
BBD4	FE00		SUB R14, #$01
BBD6	B320		SET R3, #$20
BBD8	01DA		ADDH R1, R13
BBDA	F000		BRA $BBDB		; -> -$01(R0)

BBDC	5E24		MOVE (R2)~, R14
BBDE	D8F9		MOVE R8, (R15)
BBE0	005E		GETB R5, $0
BBE2	24F1		MOVE R4, $1E2
BBE4	0BE4		MOVE R11, R14
BBE6	3300		MOVE $00, R3
BBE8	0002		INC R0, R0
BBEA	F920		SUB R9, #$21
BBEC	00EE		GETB R14, $0
BBEE	0000		HALT
BBF0	5E24		MOVE (R2)~, R14
BBF2	DD40		MOVE R13, (R4)'
BBF4	005E		GETB R5, $0
BBF6	24F0		MOVE R4, $1E0
BBF8	3BE2		MOVE $1C4, R11
BBFA	DD7E		MOVE R13, (R7)
BBFC	015E		GETB R5, $1
BBFE	06BC		MHL R6, R11
BC00	8C00		LBI R12, #$00
BC02	3C8C		MOVE $118, R12
BC04	10D2		CTRL $0, #$D2
BC06	7310		MOVB (R1)+, R3
BC08	01F0		DEC2 R1, R15
BC0A	5DCD		MOVE (R12), R13
BC0C	DD6E		MOVE R13, (R6)
BC0E	015D		MLH R1, R5
BC10	C5BC		SNS R5
BC12	BE00		SET R14, #$00
BC14	3CBE		MOVE $17C, R12
BC16	10D2		CTRL $0, #$D2
BC18	F05E		BRA $BBBB		; -> -$5F(R0)

BC1A	03FE		GETB R15, $3
BC1C	DD7E		MOVE R13, (R7)
BC1E	015D		MLH R1, R5
BC20	C5BC		SNS R5
BC22	AE00		ADD R14, #$01
BC24	3CAE		MOVE $15C, R12
BC26	10D2		CTRL $0, #$D2
BC28	F05E		BRA $BBCB		; -> -$5F(R0)

BC2A	03FE		GETB R15, $3
BC2C	9C00		CLR R12, #$00
BC2E	0000		HALT
BC30	F10B		SUB R1, #$0C
BC32	F0FE		BRA $BB35		; -> -$FF(R0)

BC34	3901		MOVE $02, R9
BC36	0FCD		MLH R15, R12
BC38	5E24		MOVE (R2)~, R14
BC3A	3A01		MOVE $02, R10
BC3C	0FCD		MLH R15, R12
BC3E	F05D		BRA $BBE2		; -> -$5E(R0)

BC40	B4FE		SET R4, #$FE
BC42	BC38		SET R12, #$38
BC44	00F0		DEC2 R0, R15
BC46	5E18		MOVE (R1), R14
BC48	3C00		MOVE $00, R12
BC4A	0B5A		ADDH R11, R5
BC4C	F00B		BRA $BC42		; -> -$0C(R0)

BC4E	E6FE		
BC50	F18F		SUB R1, #$90
BC52	F2FE		SUB R2, #$FF
BC54	3520		MOVE $40, R5
BC56	0DB9		SUB R13, R11
BC58	B890		SET R8, #$90
BC5A	145E		CTRL $4, #$5E
BC5C	88FE		LBI R8, #$FE
BC5E	BC01		SET R12, #$01
BC60	02ED		MLH R2, R14
BC62	0400		DEC2 R4, R0
BC64	5E36		MOVE (R3)-~, R14
BC66	8902		LBI R9, #$02
BC68	2600		MOVE R6, $00
BC6A	FFFE		SUB R15, #$FF
BC6C	B920		SET R9, #$20
BC6E	155E		CTRL $5, #$5E
BC70	4CFE		PUTB $C, (R15)
BC72	39C0		MOVE $180, R9
BC74	0F25		AND R15, R2
BC76	5E99		MOVE (R9), R14
BC78	3804		MOVE $08, R8
BC7A	0F24		MOVE R15, R2
BC7C	5E48		MOVE (R4), R14
BC7E	B808		SET R8, #$08
BC80	035E		GETB R5, $3
BC82	90FE		CLR R0, #$FE
BC84	8C02		LBI R12, #$02
BC86	1E0F		CTRL $E, #$0F
BC88	26F1		MOVE R6, $1E2
BC8A	77F8		MOVB (R15), R7
BC8C	F05E		BRA $BC2F		; -> -$5F(R0)

BC8E	76FE		MOVB (R15), R6
BC90	F177		SUB R1, #$78
BC92	FAFE		SUB R10, #$FF
BC94	F05E		BRA $BC37		; -> -$5F(R0)

BC96	76FE		MOVB (R15), R6
BC98	3904		MOVE $08, R9
BC9A	0F24		MOVE R15, R2
BC9C	5E99		MOVE (R9), R14
BC9E	3420		MOVE $40, R4
BCA0	0F18		ADD R15, R1
BCA2	39C0		MOVE $180, R9
BCA4	0F25		AND R15, R2
BCA6	5E58		MOVE (R5), R14
BCA8	3C30		MOVE $60, R12
BCAA	0F14		MOVE R15, R1
BCAC	F05E		BRA $BC4F		; -> -$5F(R0)

BCAE	62FE		MOVB R2, (R15)
BCB0	3C50		MOVE $A0, R12
BCB2	0F14		MOVE R15, R1
BCB4	3940		MOVE $80, R9
BCB6	0F25		AND R15, R2
BCB8	5E5F		MOVE (R5), R14
BCBA	3C90		MOVE $120, R12
BCBC	0F14		MOVE R15, R1
BCBE	0C02		INC R12, R0
BCC0	0F15		AND R15, R1
BCC2	0F26		OR R15, R2
BCC4	F153		SUB R1, #$54
BCC6	FAFE		SUB R10, #$FF
BCC8	CC80		SLE R12, R8
BCCA	0F1D		MLH R15, R1
BCCC	5E76		MOVE (R7)-~, R14
BCCE	39C0		MOVE $180, R9
BCD0	0F14		MOVE R15, R1
BCD2	8FE4		LBI R15, #$E4
BCD4	F08F		BRA $BC46		; -> -$90(R0)

BCD6	E8FE		
BCD8	F18F		SUB R1, #$90
BCDA	F2FE		SUB R2, #$FF
BCDC	3520		MOVE $40, R5
BCDE	0DB9		SUB R13, R11
BCE0	B890		SET R8, #$90
BCE2	145E		CTRL $4, #$5E
BCE4	88FE		LBI R8, #$FE
BCE6	ED01		
BCE8	025E		GETB R5, $2
BCEA	8CFE		LBI R12, #$FE
BCEC	AC01		ADD R12, #$02
BCEE	1624		CTRL $6, #$24
BCF0	3520		MOVE $40, R5
BCF2	0B65		AND R11, R6
BCF4	3300		MOVE $00, R3
BCF6	47D2		PUTB $7, (R13)+++
BCF8	B802		SET R8, #$02
BCFA	065E		GETB R5, $6
BCFC	81FE		LBI R1, #$FE
BCFE	3300		MOVE $00, R3
BD00	6BF8		MOVB R11, (R15)
BD02	3400		MOVE $00, R4
BD04	0DB5		AND R13, R11
BD06	B801		SET R8, #$01
BD08	063B		ADDH2 R6, R3
BD0A	B8FE		SET R8, #$FE
BD0C	F02F		BRA $BCDE		; -> -$30(R0)

BD0E	F2FE		SUB R2, #$FF
BD10	3C92		MOVE $124, R12
BD12	0BB4		MOVE R11, R11
BD14	F03B		BRA $BCDA		; -> -$3C(R0)

BD16	CEFE		SNBC R14, R15
BD18	3C95		MOVE $12A, R12
BD1A	0BB4		MOVE R11, R11
BD1C	F03B		BRA $BCE2		; -> -$3C(R0)

BD1E	CEFE		SNBC R14, R15
BD20	B880		SET R8, #$80
BD22	115E		CTRL $1, #$5E
BD24	95FE		CLR R5, #$FE
BD26	BA08		SET R10, #$08
BD28	03FE		GETB R15, $3
BD2A	3C8F		MOVE $11E, R12
BD2C	0BB4		MOVE R11, R11
BD2E	F03B		BRA $BCF4		; -> -$3C(R0)

BD30	CEFE		SNBC R14, R15
BD32	3C8A		MOVE $114, R12
BD34	0BB4		MOVE R11, R11
BD36	F03B		BRA $BCFC		; -> -$3C(R0)

BD38	CEFE		SNBC R14, R15
BD3A	C530		SLE R5, R3
BD3C	0B3C		MHL R11, R3
BD3E	C081		SLT R0, R8
BD40	5ED2		MOVE (R13)+', R14
BD42	7310		MOVB (R1)+, R3
BD44	05CD		MLH R5, R12
BD46	000B		ADDH2 R0, R0
BD48	A05E		BRA $BDA9		; $5F(R0)

BD4A	B4FE		SET R4, #$FE
BD4C	3C02		MOVE $04, R12
BD4E	0B02		INC R11, R0
BD50	C300		SLE R3, R0
BD52	0B00		DEC2 R11, R0
BD54	F177		SUB R1, #$78
BD56	EAFE		
BD58	F00B		BRA $BD4E		; -> -$0C(R0)

BD5A	F4FE		SUB R4, #$FF
BD5C	C530		SLE R5, R3
BD5E	0B3C		MHL R11, R3
BD60	C081		SLT R0, R8
BD62	5ED2		MOVE (R13)+', R14
BD64	7310		MOVB (R1)+, R3
BD66	04FE		GETB R15, $4
BD68	7012		MOVB (R1)+++, R0
BD6A	005E		GETB R5, $0
BD6C	DA5E		MOVE R10, (R5)
BD6E	BA5E		SET R10, #$5E
BD70	DA5E		MOVE R10, (R5)
BD72	DA00		MOVE R10, (R0)'
BD74	3320		MOVE $40, R3
BD76	0FD5		AND R15, R13
BD78	F183		SUB R1, #$84
BD7A	EAFE		
BD7C	C530		SLE R5, R3
BD7E	0FD5		AND R15, R13
BD80	C081		SLT R0, R8
BD82	5ED6		MOVE (R13)-~, R14
BD84	3C02		MOVE $04, R12
BD86	0B02		INC R11, R0
BD88	C300		SLE R3, R0
BD8A	0B00		DEC2 R11, R0
BD8C	F177		SUB R1, #$78
BD8E	EAFE		
BD90	3530		MOVE $60, R5
BD92	0FD5		AND R15, R13
BD94	3730		MOVE $60, R7
BD96	0EDB		ADDH2 R14, R13
BD98	C081		SLT R0, R8
BD9A	5EA6		MOVE (R10)-~, R14
BD9C	3430		MOVE $60, R4
BD9E	0FD5		AND R15, R13
BDA0	F05E		BRA $BD43		; -> -$5F(R0)

BDA2	C2FE		SNBC R2, R15
BDA4	3C40		MOVE $80, R12
BDA6	0BB4		MOVE R11, R11
BDA8	F08F		BRA $BD1A		; -> -$90(R0)

BDAA	EEFE		
BDAC	3C41		MOVE $82, R12
BDAE	0BB4		MOVE R11, R11
BDB0	F08F		BRA $BD22		; -> -$90(R0)

BDB2	EEFE		
BDB4	3C32		MOVE $64, R12
BDB6	0B5A		ADDH R11, R5
BDB8	F00B		BRA $BDAE		; -> -$0C(R0)

BDBA	E6FE		
BDBC	300C		MOVE $18, R0
BDBE	0FA4		MOVE R15, R10
BDC0	3300		MOVE $00, R3
BDC2	DFA3		MOVE R15, (R10)++
BDC4	CC00		SLE R12, R0
BDC6	0ED5		AND R14, R13
BDC8	5EF2		MOVE (R15)+', R14
BDCA	301C		MOVE $38, R0
BDCC	0EB0		DEC2 R14, R11
BDCE	DD00		MOVE R13, (R0)'
BDD0	015E		GETB R5, $1
BDD2	ED33		
BDD4	00FA		ADDH R0, R15
BDD6	DFF0		MOVE R15, (R15)'
BDD8	5EF2		MOVE (R15)+', R14
BDDA	1C02		CTRL $C, #$02
BDDC	1089		CTRL $0, #$89
BDDE	013C		MHL R1, R3
BDE0	0010		DEC2 R0, R1
BDE2	88FE		LBI R8, #$FE
BDE4	3A01		MOVE $02, R10
BDE6	108B		CTRL $0, #$8B
BDE8	3520		MOVE $40, R5
BDEA	108A		CTRL $0, #$8A
BDEC	FB10		SUB R11, #$11
BDEE	00F5		AND R0, R15
BDF0	1020		CTRL $0, #$20
BDF2	300C		MOVE $18, R0
BDF4	0FAC		MHL R15, R10
BDF6	3510		MOVE $20, R5
BDF8	1088		CTRL $0, #$88
BDFA	F500		SUB R5, #$01
BDFC	1036		CTRL $0, #$36
BDFE	100F		CTRL $0, #$0F
BE00	AC34		ADD R12, #$35
BE02	100F		CTRL $0, #$0F
BE04	AC3C		ADD R12, #$3D
BE06	400F		PUTB $0, (R0)
BE08	AB09		ADD R11, #$0A
BE0A	020F		GETA R0, $2
BE0C	B000		SET R0, #$00
BE0E	00C7		XOR R0, R12
BE10	0A0F		GETA R0, $A
BE12	AB0C		ADD R11, #$0D
BE14	0310		DEC2 R3, R1
BE16	880F		LBI R8, #$0F
BE18	AC30		ADD R12, #$31
BE1A	1A0E		CTRL $A, #$0E
BE1C	BA30		SET R10, #$30
BE1E	0E0F		GETA R0, $E
BE20	A4FE		ADD R4, #$FF
BE22	FB00		SUB R11, #$01
BE24	1033		CTRL $0, #$33
BE26	100F		CTRL $0, #$0F
BE28	145F		CTRL $4, #$5F
BE2A	5000		MOVE (R0)', R0
BE2C	005C		MHL R0, R5
BE2E	0308		ADD R3, R0
BE30	007C		MHL R0, R7
BE32	8000		LBI R0, #$00
BE34	4240		PUTB $2, (R4)+
BE36	0600		DEC2 R6, R0
BE38	005D		MLH R0, R5
BE3A	040B		ADDH2 R4, R0
BE3C	0610		DEC2 R6, R1
BE3E	5F24		MOVE (R2)~, R15
BE40	5F40		MOVE (R4)', R15
BE42	0B06		OR R11, R0
BE44	5E20		MOVE (R2)', R14
BE46	0300		DEC2 R3, R0
BE48	4220		PUTB $2, (R2)+
BE4A	0000		HALT
BE4C	00C0		DEC2 R0, R12
BE4E	015F		GETA R5, $1
BE50	1A5C		CTRL $A, #$5C
BE52	0006		OR R0, R0
BE54	037F		GETA R7, $3
BE56	0106		OR R1, R0
BE58	C082		SE R0, R8
BE5A	5F30		MOVE (R3)', R15
BE5C	7E02		MOVB (R0)+++, R14
BE5E	06FE		GETB R15, $6
BE60	FB10		SUB R11, #$11
BE62	00FC		MHL R0, R15
BE64	8000		LBI R0, #$00
BE66	300C		MOVE $18, R0
BE68	0F1E		GETB R1, $F
BE6A	3520		MOVE $40, R5
BE6C	0F1A		ADDH R15, R1
BE6E	3510		MOVE $20, R5
BE70	0F1C		MHL R15, R1
BE72	F510		SUB R5, #$11
BE74	2034		JMP ($0068)

BE76	100F		CTRL $0, #$0F
BE78	1434		CTRL $4, #$34
BE7A	200F		JMP ($001E)

BE7C	1633		CTRL $6, #$33
BE7E	10FF		CTRL $0, #$FF
BE80	FF36		SUB R15, #$37
BE82	100F		CTRL $0, #$0F
BE84	1430		CTRL $4, #$30
BE86	0E0F		GETA R0, $E
BE88	1E00		CTRL $E, #$00
BE8A	0000		HALT
BE8C	0000		HALT
BE8E	0000		HALT
BE90	0000		HALT
BE92	0000		HALT
BE94	0000		HALT
BE96	0000		HALT
BE98	0000		HALT
BE9A	0000		HALT
BE9C	0000		HALT
BE9E	0000		HALT
BEA0	0000		HALT
BEA2	0000		HALT
BEA4	0000		HALT
BEA6	0000		HALT
BEA8	0000		HALT
BEAA	0000		HALT
BEAC	0000		HALT
BEAE	0000		HALT
BEB0	0000		HALT
BEB2	0000		HALT
BEB4	0000		HALT
BEB6	0000		HALT
BEB8	0000		HALT
BEBA	0000		HALT
BEBC	0000		HALT
BEBE	0000		HALT
BEC0	0000		HALT
BEC2	0000		HALT
BEC4	0000		HALT
BEC6	0000		HALT
BEC8	0000		HALT
BECA	0000		HALT
BECC	0000		HALT
BECE	0000		HALT
BED0	0000		HALT
BED2	0000		HALT
BED4	0000		HALT
BED6	0000		HALT
BED8	0000		HALT
BEDA	0000		HALT
BEDC	0000		HALT
BEDE	0000		HALT
BEE0	0000		HALT
BEE2	0000		HALT
BEE4	0000		HALT
BEE6	0000		HALT
BEE8	0000		HALT
BEEA	0000		HALT
BEEC	0000		HALT
BEEE	0000		HALT
BEF0	0000		HALT
BEF2	0000		HALT
BEF4	0000		HALT
BEF6	0000		HALT
BEF8	0000		HALT
BEFA	0000		HALT
BEFC	0000		HALT
BEFE	0000		HALT
BF00	0000		HALT
BF02	0000		HALT
BF04	0000		HALT
BF06	0000		HALT
BF08	0000		HALT
BF0A	0000		HALT
BF0C	0000		HALT
BF0E	0000		HALT
BF10	0000		HALT
BF12	0000		HALT
BF14	0000		HALT
BF16	0000		HALT
BF18	0000		HALT
BF1A	0000		HALT
BF1C	0000		HALT
BF1E	0000		HALT
BF20	0000		HALT
BF22	0000		HALT
BF24	0000		HALT
BF26	0000		HALT
BF28	0000		HALT
BF2A	0000		HALT
BF2C	0000		HALT
BF2E	0000		HALT
BF30	0000		HALT
BF32	0000		HALT
BF34	0000		HALT
BF36	0000		HALT
BF38	0000		HALT
BF3A	0000		HALT
BF3C	0000		HALT
BF3E	0000		HALT
BF40	0000		HALT
BF42	0000		HALT
BF44	0000		HALT
BF46	0000		HALT
BF48	0000		HALT
BF4A	0000		HALT
BF4C	0000		HALT
BF4E	0000		HALT
BF50	0000		HALT
BF52	0000		HALT
BF54	0000		HALT
BF56	0000		HALT
BF58	0000		HALT
BF5A	0000		HALT
BF5C	0000		HALT
BF5E	0000		HALT
BF60	0000		HALT
BF62	0000		HALT
BF64	0000		HALT
BF66	0000		HALT
BF68	0000		HALT
BF6A	0000		HALT
BF6C	0000		HALT
BF6E	0000		HALT
BF70	0000		HALT
BF72	0000		HALT
BF74	0000		HALT
BF76	0000		HALT
BF78	0000		HALT
BF7A	0000		HALT
BF7C	F05F		BRA $BF1E		; -> -$60(R0)

BF7E	3300		MOVE $00, R3
BF80	F05F		BRA $BF22		; -> -$60(R0)

BF82	1100		CTRL $1, #$00
BF84	F05E		BRA $BF27		; -> -$5F(R0)

BF86	DE00		MOVE R14, (R0)'
BF88	F05E		BRA $BF2B		; -> -$5F(R0)

BF8A	AE00		ADD R14, #$01
BF8C	F05E		BRA $BF2F		; -> -$5F(R0)

BF8E	9D00		CLR R13, #$00
BF90	F05E		BRA $BF33		; -> -$5F(R0)

BF92	6C00		MOVB R12, (R0)+
BF94	F05E		BRA $BF37		; -> -$5F(R0)

BF96	2800		MOVE R8, $00
BF98	F05D		BRA $BF3C		; -> -$5E(R0)

BF9A	A900		ADD R9, #$01
BF9C	F05D		BRA $BF40		; -> -$5E(R0)

BF9E	0B00		DEC2 R11, R0
BFA0	F05C		BRA $BF45		; -> -$5D(R0)

BFA2	F800		SUB R8, #$01
BFA4	F05C		BRA $BF49		; -> -$5D(R0)

BFA6	0B00		DEC2 R11, R0
BFA8	F05B		BRA $BF4E		; -> -$5C(R0)

BFAA	FE00		SUB R14, #$01
BFAC	F05A		BRA $BF53		; -> -$5B(R0)

BFAE	C600		SLE R6, R0
BFB0	F05A		BRA $BF57		; -> -$5B(R0)

BFB2	C200		SLE R2, R0
BFB4	F05A		BRA $BF5B		; -> -$5B(R0)

BFB6	BE00		SET R14, #$00
BFB8	F05A		BRA $BF5F		; -> -$5B(R0)

BFBA	B600		SET R6, #$00
BFBC	F05A		BRA $BF63		; -> -$5B(R0)

BFBE	AB00		ADD R11, #$01
BFC0	F05A		BRA $BF67		; -> -$5B(R0)

BFC2	6600		MOVB R6, (R0)+
BFC4	F05A		BRA $BF6B		; -> -$5B(R0)

BFC6	4000		PUTB $0, (R0)+
BFC8	F05A		BRA $BF6F		; -> -$5B(R0)

BFCA	3900		MOVE $00, R9
BFCC	F05A		BRA $BF73		; -> -$5B(R0)

BFCE	2F00		MOVE R15, $00
BFD0	F05A		BRA $BF77		; -> -$5B(R0)

BFD2	2400		MOVE R4, $00
BFD4	F059		BRA $BF7C		; -> -$5A(R0)

BFD6	EE00		
BFD8	F059		BRA $BF80		; -> -$5A(R0)

BFDA	A800		ADD R8, #$01
BFDC	F059		BRA $BF84		; -> -$5A(R0)

BFDE	A400		ADD R4, #$01
BFE0	F059		BRA $BF88		; -> -$5A(R0)

BFE2	8600		LBI R6, #$00
BFE4	F059		BRA $BF8C		; -> -$5A(R0)

BFE6	8400		LBI R4, #$00
BFE8	F059		BRA $BF90		; -> -$5A(R0)

BFEA	7400		MOVB (R0)+, R4
BFEC	F059		BRA $BF94		; -> -$5A(R0)

BFEE	5800		MOVE (R0)', R8
BFF0	F059		BRA $BF98		; -> -$5A(R0)

BFF2	3800		MOVE $00, R8
BFF4	F057		BRA $BF9E		; -> -$58(R0)

BFF6	1B00		CTRL $B, #$00
BFF8	F054		BRA $BFA5		; -> -$55(R0)

BFFA	0000		HALT
BFFC	0417		XOR R4, R1
BFFE	19A2		CTRL $9, #$A2
C000	3480		MOVE $100, R4
C002	0C64		MOVE R12, R6
C004	3C00		MOVE $00, R12
C006	0ED5		AND R14, R13
C008	3014		MOVE $28, R0
C00A	0EDD		MLH R14, R13
C00C	6027		MOVB R0, (R2)----
C00E	6036		MOVB R0, (R3)---
C010	6046		MOVB R0, (R4)---
C012	604F		MOVB R0, (R4)
C014	604F		MOVB R0, (R4)
C016	6082		MOVB R0, (R8)+++
C018	6096		MOVB R0, (R9)---
C01A	60A4		MOVB R0, (R10)-
C01C	60A4		MOVB R0, (R10)-
C01E	0505		AND R5, R0
C020	6243		MOVB R2, (R4)++++
C022	0505		AND R5, R0
C024	625F		MOVB R2, (R5)
C026	0606		OR R6, R0
C028	6251		MOVB R2, (R5)++
C02A	0606		OR R6, R0
C02C	6270		MOVB R2, (R7)+
C02E	0808		ADD R8, R0
C030	6295		MOVB R2, (R9)--
C032	0F03		INC2 R15, R0
C034	628F		MOVB R2, (R8)
C036	0200		DEC2 R2, R0
C038	0000		HALT
C03A	0403		INC2 R4, R0
C03C	6291		MOVB R2, (R9)++
C03E	0707		XOR R7, R0
C040	6281		MOVB R2, (R8)++
C042	0505		AND R5, R0
C044	6299		MOVB R2, (R9)
C046	0700		DEC2 R7, R0
C048	0000		HALT
C04A	0100		DEC2 R1, R0
C04C	0000		HALT
C04E	F183		SUB R1, #$84
C050	E4FE		
C052	0C02		INC R12, R0
C054	0EB4		MOVE R14, R11
C056	0DB2		INC R13, R11
C058	3004		MOVE $08, R0
C05A	0EB0		DEC2 R14, R11
C05C	DD4D		MOVE R13, (R4)
C05E	0060		DEC2 R0, R6
C060	023C		MHL R2, R3
C062	0D0E		GETB R0, $D
C064	AA30		ADD R10, #$31
C066	040E		GETB R0, $4
C068	A6F0		ADD R6, #$F1
C06A	6002		MOVB R0, (R0)+++
C06C	0904		MOVE R9, R0
C06E	0F17		XOR R15, R1
C070	0000		HALT
C072	3C44		MOVE $88, R12
C074	0F14		MOVE R15, R1
C076	1C01		CTRL $C, #$01
C078	0F15		AND R15, R1
C07A	01C7		XOR R1, R12
C07C	0A0F		GETA R0, $A
C07E	1473		CTRL $4, #$73
C080	0003		INC2 R0, R0
C082	301A		MOVE $34, R0
C084	0EBA		ADDH R14, R11
C086	FB10		SUB R11, #$11
C088	00F0		DEC2 R0, R15
C08A	6002		MOVB R0, (R0)+++
C08C	7310		MOVB (R1)+, R3
C08E	0134		MOVE R1, R3
C090	100E		CTRL $0, #$0E
C092	B430		SET R4, #$30
C094	180E		CTRL $8, #$0E
C096	B073		SET R0, #$73
C098	1008		CTRL $0, #$08
C09A	F060		BRA $C03B		; -> -$61(R0)

C09C	02FE		GETB R15, $2
C09E	DC00		MOVE R12, (R0)'
C0A0	0160		DEC2 R1, R6
C0A2	6D72		MOVB R13, (R7)+++
C0A4	0001		DEC R0, R0
C0A6	3520		MOVE $40, R5
C0A8	0EC4		MOVE R14, R12
C0AA	F800		SUB R8, #$01
C0AC	20C4		JMP ($0188)

C0AE	000E		GETB R0, $0
C0B0	C208		SGT R2, R0
C0B2	3BD2		MOVE $1A4, R11
C0B4	3400		MOVE $00, R4
C0B6	0EC4		MOVE R14, R12
C0B8	3420		MOVE $40, R4
C0BA	0EB4		MOVE R14, R11
C0BC	1C00		CTRL $C, #$00
C0BE	0EB6		OR R14, R11
C0C0	0130		DEC2 R1, R3
C0C2	040E		GETB R0, $4
C0C4	B072		SET R0, #$72
C0C6	0001		DEC R0, R0
C0C8	9400		CLR R4, #$00
C0CA	0002		INC R0, R0
C0CC	7310		MOVB (R1)+, R3
C0CE	02F8		ADD R2, R15
C0D0	1000		CTRL $0, #$00
C0D2	3520		MOVE $40, R5
C0D4	0B65		AND R11, R6
C0D6	F060		BRA $C077		; -> -$61(R0)

C0D8	02FE		GETB R15, $2
C0DA	7300		MOVB (R0)+, R3
C0DC	0235		AND R2, R3
C0DE	100E		CTRL $0, #$0E
C0E0	C473		SZ R4
C0E2	3001		MOVE $02, R0
C0E4	C430		SLE R4, R3
C0E6	0EC2		INC R14, R12
C0E8	083B		ADDH2 R8, R3
C0EA	D234		MOVE R2, (R3)~
C0EC	100E		CTRL $0, #$0E
C0EE	B43C		SET R4, #$3C
C0F0	010E		GETB R0, $1
C0F2	B630		SET R6, #$30
C0F4	040E		GETB R0, $4
C0F6	B034		SET R0, #$34
C0F8	300E		MOVE $1C, R0
C0FA	C47C		SNS R4
C0FC	4000		PUTB $0, (R0)+
C0FE	FB10		SUB R11, #$11
C100	00F0		DEC2 R0, R15
C102	6002		MOVB R0, (R0)+++
C104	7200		MOVB (R0)+, R2
C106	0133		INC2 R1, R3
C108	2062		JMP ($00C4)

C10A	DEF8		MOVE R14, (R15)
C10C	2000		JMP ($0000)

C10E	2501		MOVE R5, $02
C110	0EAB		ADDH2 R14, R10
C112	00FE		GETB R15, $0
C114	3C0B		MOVE $16, R12
C116	0EAA		ADDH R14, R10
C118	3004		MOVE $08, R0
C11A	0EA6		OR R14, R10
C11C	7310		MOVB (R1)+, R3
C11E	0235		AND R2, R3
C120	200B		JMP ($0016)

C122	65DC		MOVB R5, (R13)
C124	4D00		PUTB $D, (R0)+
C126	6002		MOVB R0, (R0)+++
C128	F060		BRA $C0C9		; -> -$61(R0)

C12A	D7FE		MOVE R7, (R15)
C12C	3C0C		MOVE $18, R12
C12E	0EAA		ADDH R14, R10
C130	1C01		CTRL $C, #$01
C132	0EAB		ADDH2 R14, R10
C134	0130		DEC2 R1, R3
C136	040E		GETB R0, $4
C138	A673		ADD R6, #$74
C13A	1003		CTRL $0, #$03
C13C	DC4D		MOVE R12, (R4)
C13E	0060		DEC2 R0, R6
C140	02F0		DEC2 R2, R15
C142	60DF		MOVB R0, (R13)
C144	3006		MOVE $0C, R0
C146	0EA6		OR R14, R10
C148	0D00		DEC2 R13, R0
C14A	0EAA		ADDH R14, R10
C14C	0EDD		MLH R14, R13
C14E	1860		CTRL $8, #$60
C150	D5DC		MOVE R5, (R13)
C152	5D00		MOVE (R0)', R13
C154	60C0		MOVB R0, (R12)+
C156	DC6B		MOVE R12, (R6)
C158	0060		DEC2 R0, R6
C15A	BBCC		SET R11, #$CC
C15C	010E		GETB R0, $1
C15E	DD60		MOVE R13, (R6)'
C160	BEDC		SET R14, #$DC
C162	3400		MOVE $00, R4
C164	60B8		MOVB R0, (R11)
C166	0C02		INC R12, R0
C168	0EAA		ADDH R14, R10
C16A	0EDE		GETB R13, $E
C16C	3004		MOVE $08, R0
C16E	0EA6		OR R14, R10
C170	7310		MOVB (R1)+, R3
C172	01F0		DEC2 R1, R15
C174	6002		MOVB R0, (R0)+++
C176	CD00		SLE R13, R0
C178	0EAA		ADDH R14, R10
C17A	60B3		MOVB R0, (R11)++++
C17C	3100		MOVE $00, R1
C17E	0C64		MOVE R12, R6
C180	7310		MOVB (R1)+, R3
C182	01CC		MHL R1, R12
C184	0B0E		GETB R0, $B
C186	AA60		ADD R10, #$61
C188	D7CC		MOVE R7, (R12)
C18A	0C0E		GETB R0, $C
C18C	AA60		ADD R10, #$61
C18E	DFCC		MOVE R15, (R12)
C190	0D0E		GETB R0, $D
C192	AA61		ADD R10, #$62
C194	96CD		CLR R6, #$CD
C196	000E		GETB R0, $0
C198	AA60		ADD R10, #$61
C19A	02CD		MLH R2, R12
C19C	000E		GETB R0, $0
C19E	D560		MOVE R5, (R6)'
C1A0	0237		XOR R2, R3
C1A2	100E		CTRL $0, #$0E
C1A4	DB31		MOVE R11, (R3)+
C1A6	000C		MHL R0, R0
C1A8	64FE		MOVB R4, (R15)
C1AA	3100		MOVE $00, R1
C1AC	0EAB		ADDH2 R14, R10
C1AE	3500		MOVE $00, R5
C1B0	0EAB		ADDH2 R14, R10
C1B2	FD00		SUB R13, #$01
C1B4	00FE		GETB R15, $0
C1B6	3006		MOVE $0C, R0
C1B8	0EA6		OR R14, R10
C1BA	F060		BRA $C15B		; -> -$61(R0)

C1BC	02FE		GETB R15, $2
C1BE	FB30		SUB R11, #$31
C1C0	1037		CTRL $0, #$37
C1C2	300B		MOVE $16, R0
C1C4	6533		MOVB R5, (R3)++++
C1C6	100B		CTRL $0, #$0B
C1C8	7933		MOVB (R3)++++, R9
C1CA	400B		PUTB $0, (R0)
C1CC	A0FE		BRA $C2CD		; $FF(R0)

C1CE	7310		MOVB (R1)+, R3
C1D0	0373		INC2 R3, R7
C1D2	2001		JMP ($0002)

C1D4	FA10		SUB R10, #$11
C1D6	4000		PUTB $0, (R0)+
C1D8	6192		MOVB R1, (R9)+++
C1DA	E520		
C1DC	00C0		DEC2 R0, R12
C1DE	8160		LBI R1, #$60
C1E0	E7ED		
C1E2	3C06		MOVE $0C, R12
C1E4	60ED		MOVB R0, (R14)
C1E6	8D01		LBI R13, #$01
C1E8	070E		GETB R0, $7
C1EA	AB28		ADD R11, #$29
C1EC	60ED		MOVB R0, (R14)
C1EE	8C00		LBI R12, #$00
C1F0	090B		ADDH2 R9, R0
C1F2	7CBB		MOVB (R11), R12
C1F4	F009		BRA $C1EC		; -> -$0A(R0)

C1F6	8C01		LBI R12, #$01
C1F8	0A0B		ADDH2 R10, R0
C1FA	67B4		MOVB R7, (R11)-
C1FC	300F		MOVE $1E, R0
C1FE	8C01		LBI R12, #$01
C200	110C		CTRL $1, #$0C
C202	648C		MOVB R4, (R8)
C204	020C		MHL R2, R0
C206	0ED2		INC R14, R13
C208	1C02		CTRL $C, #$02
C20A	0B7C		MHL R11, R7
C20C	000C		MHL R0, R0
C20E	000E		GETB R0, $0
C210	D20B		MOVE R2, (R0)
C212	7C3B		MOVB (R3), R12
C214	F00E		BRA $C207		; -> -$0F(R0)

C216	D22D		MOVE R2, (R2)
C218	000E		GETB R0, $0
C21A	D209		MOVE R2, (R0)
C21C	2061		JMP ($00C2)

C21E	1309		CTRL $3, #$09
C220	010E		GETB R0, $1
C222	E600		
C224	00FE		GETB R15, $0
C226	3006		MOVE $0C, R0
C228	0EA6		OR R14, R10
C22A	3C00		MOVE $00, R12
C22C	0EAA		ADDH R14, R10
C22E	3004		MOVE $08, R0
C230	0EA6		OR R14, R10
C232	3420		MOVE $40, R4
C234	0B65		AND R11, R6
C236	B340		SET R3, #$40
C238	13B3		CTRL $3, #$B3
C23A	2011		JMP ($0022)

C23C	B320		SET R3, #$20
C23E	02EA		ADDH R2, R14
C240	FE00		SUB R14, #$01
C242	611E		MOVB R1, (R1)
C244	3330		MOVE $60, R3
C246	0002		INC R0, R0
C248	F920		SUB R9, #$21
C24A	30FA		MOVE $1F4, R0
C24C	2040		JMP ($0080)

C24E	1061		CTRL $0, #$61
C250	85FB		LBI R5, #$FB
C252	5020		MOVE (R2)', R0
C254	3F01		MOVE $02, R15
C256	0ED5		AND R14, R13
C258	C082		SE R0, R8
C25A	618E		MOVB R1, (R8)
C25C	CD00		SLE R13, R0
C25E	0EB6		OR R14, R11
C260	6157		MOVB R1, (R5)----
C262	EC5B		
C264	0161		DEC R1, R6
C266	8E35		LBI R14, #$35
C268	100E		CTRL $0, #$0E
C26A	B430		SET R4, #$30
C26C	060E		GETB R0, $6
C26E	B030		SET R0, #$30
C270	020E		GETB R0, $2
C272	BAD7		SET R10, #$D7
C274	0800		DEC2 R8, R0
C276	2C01		MOVE R12, $02
C278	0F14		MOVE R15, R1
C27A	00FB		ADDH2 R0, R15
C27C	1020		CTRL $0, #$20
C27E	F183		SUB R1, #$84
C280	E4FE		
C282	BBF0		SET R11, #$F0
C284	01CD		MLH R1, R12
C286	400F		PUTB $0, (R0)
C288	1561		CTRL $5, #$61
C28A	47BC		PUTB $7, (R11)
C28C	0A01		DEC R10, R0
C28E	FB10		SUB R11, #$11
C290	2030		JMP ($0060)

C292	160D		CTRL $6, #$0D
C294	AE7A		ADD R14, #$7B
C296	2001		JMP ($0002)

C298	8C01		LBI R12, #$01
C29A	000F		GETA R0, $0
C29C	14FB		CTRL $4, #$FB
C29E	1020		CTRL $0, #$20
C2A0	F183		SUB R1, #$84
C2A2	E4FE		
C2A4	3510		MOVE $20, R5
C2A6	0DB2		INC R13, R11
C2A8	D70C		MOVE R7, (R0)
C2AA	00F0		DEC2 R0, R15
C2AC	6122		MOVB R1, (R2)+++
C2AE	ED5B		
C2B0	0161		DEC R1, R6
C2B2	8EFB		LBI R14, #$FB
C2B4	1020		CTRL $0, #$20
C2B6	F183		SUB R1, #$84
C2B8	E4FE		
C2BA	2C01		MOVE R12, $02
C2BC	0F14		MOVE R15, R1
C2BE	00BB		ADDH2 R0, R11
C2C0	F001		BRA $C2C0		; -> -$02(R0)

C2C2	FB10		SUB R11, #$11
C2C4	2030		JMP ($0060)

C2C6	160D		CTRL $6, #$0D
C2C8	AE7A		ADD R14, #$7B
C2CA	2001		JMP ($0002)

C2CC	FB10		SUB R11, #$11
C2CE	20BC		JMP ($0178)

C2D0	5B01		MOVE (R0)+, R11
C2D2	F183		SUB R1, #$84
C2D4	E4FE		
C2D6	3510		MOVE $20, R5
C2D8	0DB2		INC R13, R11
C2DA	4911		PUTB $9, (R1)++
C2DC	0000		HALT
C2DE	4035		PUTB $0, (R3)--
C2E0	200E		JMP ($001C)

C2E2	B4C4		SET R4, #$C4
C2E4	200E		JMP ($001C)

C2E6	C208		SGT R2, R0
C2E8	6177		MOVB R1, (R7)----
C2EA	3420		MOVE $40, R4
C2EC	0EC4		MOVE R14, R12
C2EE	C912		SE R9, R1
C2F0	0EB6		OR R14, R11
C2F2	617C		MOVB R1, (R7)
C2F4	3C12		MOVE $24, R12
C2F6	0EB6		OR R14, R11
C2F8	3260		MOVE $C0, R2
C2FA	0EB6		OR R14, R11
C2FC	6460		MOVB R4, (R6)+
C2FE	0000		HALT
C300	3006		MOVE $0C, R0
C302	0EB0		DEC2 R14, R11
C304	FB20		SUB R11, #$21
C306	50F0		MOVE (R15)', R0
C308	6122		MOVB R1, (R2)+++
C30A	CD00		SLE R13, R0
C30C	0ED5		AND R14, R13
C30E	618E		MOVB R1, (R8)
C310	3520		MOVE $40, R5
C312	0B65		AND R11, R6
C314	3A80		MOVE $100, R10
C316	0DBF		GETA R11, $D
C318	F03B		BRA $C2DE		; -> -$3C(R0)

C31A	D6FE		MOVE R6, (R15)
C31C	3CCC		MOVE $198, R12
C31E	0BB4		MOVE R11, R11
C320	F03B		BRA $C2E6		; -> -$3C(R0)

C322	D0FE		JMP (R15)
C324	3CCA		MOVE $194, R12
C326	0BB4		MOVE R11, R11
C328	F03B		BRA $C2EE		; -> -$3C(R0)

C32A	D0FE		JMP (R15)
C32C	3006		MOVE $0C, R0
C32E	0EA6		OR R14, R10
C330	FB30		SUB R11, #$31
C332	103F		CTRL $0, #$3F
C334	010E		GETB R0, $1
C336	D535		MOVE R5, (R3)-
C338	100E		CTRL $0, #$0E
C33A	B430		SET R4, #$30
C33C	060E		GETB R0, $6
C33E	B030		SET R0, #$30
C340	020E		GETB R0, $2
C342	BAD8		SET R10, #$D8
C344	4400		PUTB $4, (R0)+
C346	61FD		MOVB R1, (R15)
C348	D708		MOVE R7, (R0)
C34A	00D7		XOR R0, R13
C34C	1200		CTRL $2, #$00
C34E	C70C		SNS R7
C350	0F14		MOVE R15, R1
C352	C540		SLE R5, R4
C354	0F16		OR R15, R1
C356	C081		SLT R0, R8
C358	61FD		MOVB R1, (R15)
C35A	3510		MOVE $20, R5
C35C	0EB4		MOVE R14, R11
C35E	3006		MOVE $0C, R0
C360	0EB0		DEC2 R14, R11
C362	3002		MOVE $04, R0
C364	0EBA		ADDH R14, R11
C366	3F01		MOVE $02, R15
C368	0ED5		AND R14, R13
C36A	C082		SE R0, R8
C36C	61D7		MOVB R1, (R13)----
C36E	C084		SS R0
C370	6201		MOVB R2, (R0)++
C372	D844		MOVE R8, (R4)~
C374	0061		DEC R0, R6
C376	FDD7		SUB R13, #$D8
C378	0800		DEC2 R8, R0
C37A	D712		MOVE R7, (R1)+'
C37C	00C7		XOR R0, R12
C37E	0C0F		GETA R0, $C
C380	14C5		CTRL $4, #$C5
C382	500F		MOVE (R0), R0
C384	16C0		CTRL $6, #$C0
C386	8161		LBI R1, #$61
C388	FD35		SUB R13, #$36
C38A	100E		CTRL $0, #$0E
C38C	B430		SET R4, #$30
C38E	060E		GETB R0, $6
C390	B0FE		SET R0, #$FE
C392	D450		MOVE R4, (R5)'
C394	0010		DEC2 R0, R1
C396	6205		MOVB R2, (R0)--
C398	D440		MOVE R4, (R4)'
C39A	0210		DEC2 R2, R1
C39C	61FD		MOVB R1, (R15)
C39E	3750		MOVE $A0, R7
C3A0	0EDB		ADDH2 R14, R13
C3A2	7500		MOVB (R0)+, R5
C3A4	02F5		AND R2, R15
C3A6	0050		DEC2 R0, R5
C3A8	F840		SUB R8, #$41
C3AA	50F0		MOVE (R15)', R0
C3AC	61DE		MOVB R1, (R13)
C3AE	D500		MOVE R5, (R0)'
C3B0	02C0		DEC2 R2, R12
C3B2	0162		INC R1, R6
C3B4	01D4		MOVE R1, R13
C3B6	4000		PUTB $0, (R0)+
C3B8	1062		CTRL $0, #$62
C3BA	0FFE		GETB R15, $F
C3BC	3C00		MOVE $00, R12
C3BE	0EB6		OR R14, R11
C3C0	3500		MOVE $00, R5
C3C2	0EBE		GETB R11, $E
C3C4	780B		MOVB (R0), R8
C3C6	0761		DEC R7, R6
C3C8	F1FE		SUB R1, #$FF
C3CA	3300		MOVE $00, R3
C3CC	0012		INC R0, R1
C3CE	7840		MOVB (R4)+, R8
C3D0	0761		DEC R7, R6
C3D2	EFFE		
C3D4	7520		MOVB (R2)+, R5
C3D6	08B2		INC R8, R11
C3D8	0000		HALT
C3DA	3520		MOVE $40, R5
C3DC	0B65		AND R11, R6
C3DE	3400		MOVE $00, R4
C3E0	0EB5		AND R14, R11
C3E2	F500		SUB R5, #$01
C3E4	4075		PUTB $0, (R7)--
C3E6	0008		ADD R0, R0
C3E8	F900		SUB R9, #$01
C3EA	4034		PUTB $0, (R3)-
C3EC	000E		GETB R0, $0
C3EE	B430		SET R4, #$30
C3F0	040E		GETB R0, $4
C3F2	B0FB		SET R0, #$FB
C3F4	1030		CTRL $0, #$30
C3F6	F060		BRA $C397		; -> -$61(R0)

C3F8	02FE		GETB R15, $2
C3FA	3CC9		MOVE $192, R12
C3FC	0BB4		MOVE R11, R11
C3FE	F03B		BRA $C3C4		; -> -$3C(R0)

C400	D0FE		JMP (R15)
C402	3CC8		MOVE $190, R12
C404	0BB4		MOVE R11, R11
C406	F03B		BRA $C3CC		; -> -$3C(R0)

C408	D0FE		JMP (R15)
C40A	D500		MOVE R5, (R0)'
C40C	00C0		DEC2 R0, R12
C40E	0161		DEC R1, R6
C410	FD7C		SUB R13, #$7D
C412	0A03		INC2 R10, R0
C414	7C64		MOVB (R6)-, R12
C416	0533		INC2 R5, R3
C418	7061		MOVB (R6)++, R0
C41A	C9F0		SLE R9, R15
C41C	6216		MOVB R2, (R1)---
C41E	D500		MOVE R5, (R0)'
C420	00C0		DEC2 R0, R12
C422	0161		DEC R1, R6
C424	FD7C		SUB R13, #$7D
C426	0A05		AND R10, R0
C428	3370		MOVE $E0, R3
C42A	61D7		MOVB R1, (R13)----
C42C	7C0A		MOVB (R0), R12
C42E	0175		AND R1, R7
C430	0004		NOP
C432	3560		MOVE $C0, R5
C434	0EBE		GETB R11, $E
C436	3C00		MOVE $00, R12
C438	0ED9		SUB R14, R13
C43A	780B		MOVB (R0), R8
C43C	0762		INC R7, R6
C43E	24FE		MOVE R4, $1FC
C440	3360		MOVE $C0, R3
C442	0012		INC R0, R1
C444	3C40		MOVE $80, R12
C446	0ED9		SUB R14, R13
C448	F500		SUB R5, #$01
C44A	6033		MOVB R0, (R3)++++
C44C	00FF		GETA R15, $0
C44E	FFF8		SUB R15, #$F9
C450	0060		DEC2 R0, R6
C452	3660		MOVE $C0, R6
C454	0B63		INC2 R11, R6
C456	C0A0		SLE R0, R10
C458	623E		MOVB R2, (R3)
C45A	C460		SLE R4, R6
C45C	0DB0		DEC2 R13, R11
C45E	0862		INC R8, R6
C460	3E35		MOVE $6A, R14
C462	200B		JMP ($0016)

C464	638C		MOVB R3, (R8)
C466	0000		HALT
C468	0ED9		SUB R14, R13
C46A	A400		ADD R4, #$01
C46C	0100		DEC2 R1, R0
C46E	3520		MOVE $40, R5
C470	0B65		AND R11, R6
C472	7460		MOVB (R6)+, R4
C474	0834		MOVE R8, R3
C476	600B		MOVB R0, (R0)
C478	63FC		MOVB R3, (R15)
C47A	7000		MOVB (R0)+, R0
C47C	7C40		MOVB (R4)+, R12
C47E	063C		MHL R6, R3
C480	D80B		MOVE R8, (R0)
C482	B4F0		SET R4, #$F0
C484	3BD0		MOVE $1A0, R11
C486	FB00		SUB R11, #$01
C488	1030		CTRL $0, #$30
C48A	1C0E		CTRL $C, #$0E
C48C	B0D7		SET R0, #$D7
C48E	0800		DEC2 R8, R0
C490	301C		MOVE $38, R0
C492	0EB0		DEC2 R14, R11
C494	D700		MOVE R7, (R0)'
C496	0030		DEC2 R0, R3
C498	1A0E		CTRL $A, #$0E
C49A	BAFB		SET R10, #$FB
C49C	1000		CTRL $0, #$00
C49E	F060		BRA $C43F		; -> -$61(R0)

C4A0	A2FE		ADD R2, #$FF
C4A2	FB00		SUB R11, #$01
C4A4	1030		CTRL $0, #$30
C4A6	1C0E		CTRL $C, #$0E
C4A8	B0D7		SET R0, #$D7
C4AA	0800		DEC2 R8, R0
C4AC	301C		MOVE $38, R0
C4AE	0EB0		DEC2 R14, R11
C4B0	D702		MOVE R7, (R0)+'
C4B2	0030		DEC2 R0, R3
C4B4	1A0E		CTRL $A, #$0E
C4B6	BAFB		SET R10, #$FB
C4B8	1000		CTRL $0, #$00
C4BA	F060		BRA $C45B		; -> -$61(R0)

C4BC	A2FE		ADD R2, #$FF
C4BE	FB00		SUB R11, #$01
C4C0	1030		CTRL $0, #$30
C4C2	1C0E		CTRL $C, #$0E
C4C4	B07E		SET R0, #$7E
C4C6	8000		LBI R0, #$00
C4C8	D708		MOVE R7, (R0)
C4CA	007E		GETB R7, $0
C4CC	8000		LBI R0, #$00
C4CE	301C		MOVE $38, R0
C4D0	0EB0		DEC2 R14, R11
C4D2	D700		MOVE R7, (R0)'
C4D4	0030		DEC2 R0, R3
C4D6	1A0E		CTRL $A, #$0E
C4D8	BAFB		SET R10, #$FB
C4DA	1000		CTRL $0, #$00
C4DC	F060		BRA $C47D		; -> -$61(R0)

C4DE	A2FE		ADD R2, #$FF
C4E0	FB00		SUB R11, #$01
C4E2	1030		CTRL $0, #$30
C4E4	1C0E		CTRL $C, #$0E
C4E6	B0FB		SET R0, #$FB
C4E8	3010		MOVE $20, R0
C4EA	301C		MOVE $38, R0
C4EC	0EB0		DEC2 R14, R11
C4EE	D708		MOVE R7, (R0)
C4F0	00FB		ADDH2 R0, R15
C4F2	1030		CTRL $0, #$30
C4F4	D716		MOVE R7, (R1)-~
C4F6	0030		DEC2 R0, R3
C4F8	1A0E		CTRL $A, #$0E
C4FA	BAFB		SET R10, #$FB
C4FC	1000		CTRL $0, #$00
C4FE	F060		BRA $C49F		; -> -$61(R0)

C500	A2FE		ADD R2, #$FF
C502	FB00		SUB R11, #$01
C504	1030		CTRL $0, #$30
C506	1C0E		CTRL $C, #$0E
C508	B0D7		SET R0, #$D7
C50A	0800		DEC2 R8, R0
C50C	301A		MOVE $34, R0
C50E	0EBA		ADDH R14, R11
C510	DC00		MOVE R12, (R0)'
C512	0162		INC R1, R6
C514	8C7E		LBI R12, #$7E
C516	8000		LBI R0, #$00
C518	FB10		SUB R11, #$11
C51A	00F0		DEC2 R0, R15
C51C	60A2		MOVB R0, (R10)+++
C51E	3C10		MOVE $20, R12
C520	0EDD		MLH R14, R13
C522	3E01		MOVE $02, R14
C524	0ED5		AND R14, R13
C526	F060		BRA $C4C7		; -> -$61(R0)

C528	A2FE		ADD R2, #$FF
C52A	F147		SUB R1, #$48
C52C	D8FE		MOVE R8, (R15)
C52E	F060		BRA $C4CF		; -> -$61(R0)

C530	A2FE		ADD R2, #$FF
C532	FB00		SUB R11, #$01
C534	1035		CTRL $0, #$35
C536	100E		CTRL $0, #$0E
C538	B432		SET R4, #$32
C53A	300E		MOVE $1C, R0
C53C	B630		SET R6, #$30
C53E	060E		GETB R0, $6
C540	B0C4		SET R0, #$C4
C542	100E		CTRL $0, #$0E
C544	C208		SGT R2, R0
C546	62A6		MOVB R2, (R10)---
C548	3410		MOVE $20, R4
C54A	0EC4		MOVE R14, R12
C54C	3520		MOVE $40, R5
C54E	0EB4		MOVE R14, R11
C550	3240		MOVE $80, R2
C552	0EB6		OR R14, R11
C554	3006		MOVE $0C, R0
C556	0EB0		DEC2 R14, R11
C558	C420		SLE R4, R2
C55A	0EC2		INC R14, R12
C55C	0862		INC R8, R6
C55E	B234		SET R2, #$34
C560	200E		JMP ($001C)

C562	C4FE		SNBC R4, R15
C564	FB50		SUB R11, #$51
C566	40F8		PUTB $0, (R15)
C568	5030		MOVE (R3)', R0
C56A	3360		MOVE $C0, R3
C56C	0100		DEC2 R1, R0
C56E	FA60		SUB R10, #$61
C570	5008		MOVE (R0), R0
C572	62DA		MOVB R2, (R13)
C574	2440		MOVE R4, $80
C576	0F24		MOVE R15, R2
C578	0033		INC2 R0, R3
C57A	200F		JMP ($001E)

C57C	24F8		MOVE R4, $1F0
C57E	2040		JMP ($0080)

C580	9430		CLR R4, #$30
C582	0000		HALT
C584	3520		MOVE $40, R5
C586	0EC4		MOVE R14, R12
C588	FB40		SUB R11, #$41
C58A	50F8		MOVE (R15), R0
C58C	4020		PUTB $0, (R2)+
C58E	C440		SLE R4, R4
C590	0EC2		INC R14, R12
C592	0862		INC R8, R6
C594	DA34		MOVE R10, (R3)~
C596	400E		PUTB $0, (R0)
C598	C484		SS R4
C59A	5000		MOVE (R0)', R0
C59C	0F24		MOVE R15, R2
C59E	3450		MOVE $A0, R4
C5A0	0EB5		AND R14, R11
C5A2	3420		MOVE $40, R4
C5A4	0EB4		MOVE R14, R11
C5A6	3004		MOVE $08, R0
C5A8	0EB0		DEC2 R14, R11
C5AA	FB10		SUB R11, #$11
C5AC	0035		AND R0, R3
C5AE	200B		JMP ($0016)

C5B0	65F0		MOVB R5, (R15)+
C5B2	60A2		MOVB R0, (R10)+++
C5B4	3CDA		MOVE $1B4, R12
C5B6	0BB4		MOVE R11, R11
C5B8	F03B		BRA $C57E		; -> -$3C(R0)

C5BA	D000		JMP (R0)'
C5BC	0000		HALT
C5BE	8FFC		LBI R15, #$FC
C5C0	77DA		MOVB (R13), R7
C5C2	77D8		MOVB (R13), R7
C5C4	0BCE		GETB R12, $B
C5C6	5FD0		MOVE (R13)', R15
C5C8	5FCE		MOVE (R12), R15
C5CA	0BDA		ADDH R11, R13
C5CC	0BD8		ADD R11, R13
C5CE	17DC		CTRL $7, #$DC
C5D0	17DA		CTRL $7, #$DA
C5D2	6BF2		MOVB R11, (R15)+++
C5D4	6BF4		MOVB R11, (R15)-
C5D6	3BCA		MOVE $194, R11
C5D8	0BCA		ADDH R11, R12
C5DA	0BC8		ADD R11, R12
C5DC	47D0		PUTB $7, (R13)+
C5DE	3BB2		MOVE $164, R11
C5E0	77D4		MOVB (R13)-, R7
C5E2	77D6		MOVB (R13)---, R7
C5E4	5FC2		MOVE (R12)+', R15
C5E6	17E8		CTRL $7, #$E8
C5E8	17EA		CTRL $7, #$EA
C5EA	17EC		CTRL $7, #$EC
C5EC	17E6		CTRL $7, #$E6
C5EE	8FD8		LBI R15, #$D8
C5F0	8FDC		LBI R15, #$DC
C5F2	8FDA		LBI R15, #$DA
C5F4	47DE		PUTB $7, (R13)
C5F6	47E0		PUTB $7, (R14)+
C5F8	53EE		MOVE (R14), R3
C5FA	53F0		MOVE (R15)', R3
C5FC	47DA		PUTB $7, (R13)
C5FE	23EC		MOVE R3, $1D8
C600	47DC		PUTB $7, (R13)
C602	0BCC		MHL R11, R12
C604	77E4		MOVB (R14)-, R7
C606	77E2		MOVB (R14)+++, R7
C608	77E0		MOVB (R14)+, R7
C60A	77DE		MOVB (R13), R7
C60C	093F		GETA R3, $9
C60E	05C0		DEC2 R5, R12
C610	0040		DEC2 R0, R4
C612	3920		MOVE $40, R9
C614	0BA4		MOVE R11, R10
C616	64CD		MOVB R4, (R12)
C618	093F		GETA R3, $9
C61A	10CE		CTRL $0, #$CE
C61C	00FF		GETA R15, $0
C61E	3B04		MOVE $08, R11
C620	0BA3		INC2 R11, R10
C622	3C00		MOVE $00, R12
C624	0FD3		INC2 R15, R13
C626	F950		SUB R9, #$51
C628	50F9		MOVE (R15), R0
C62A	0000		HALT
C62C	7310		MOVB (R1)+, R3
C62E	05DC		MHL R5, R13
C630	4000		PUTB $0, (R0)+
C632	6503		MOVB R5, (R0)++++
C634	3340		MOVE $80, R3
C636	0003		INC2 R0, R0
C638	4040		PUTB $0, (R4)+
C63A	0002		INC R0, R0
C63C	00FE		GETB R15, $0
C63E	2064		JMP ($00C8)

C640	DB35		MOVE R11, (R3)-
C642	200B		JMP ($0016)

C644	8034		LBI R0, #$34
C646	2010		JMP ($0020)

C648	62FA		MOVB R2, (R15)
C64A	5020		MOVE (R2)', R0
C64C	2064		JMP ($00C8)

C64E	CDFE		SNBC R13, R15
C650	3320		MOVE $40, R3
C652	10CE		CTRL $0, #$CE
C654	7012		MOVB (R1)+++, R0
C656	0064		RET R6

C658	D763		MOVE R7, (R6)++
C65A	3064		MOVE $C8, R0
C65C	D764		MOVE R7, (R6)~
C65E	D700		MOVE R7, (R0)'
C660	F10B		SUB R1, #$0C
C662	E4FE		
C664	C540		SLE R5, R4
C666	10CE		CTRL $0, #$CE
C668	C081		SLT R0, R8
C66A	64D7		MOVB R4, (R13)----
C66C	3340		MOVE $80, R3
C66E	0002		INC R0, R0
C670	0040		DEC2 R0, R4
C672	10CE		CTRL $0, #$CE
C674	02B2		INC R2, R11
C676	0064		RET R6

C678	D7DD		MOVE R7, (R13)
C67A	6B00		MOVB R11, (R0)+
C67C	6353		MOVB R3, (R5)++++
C67E	7310		MOVB (R1)+, R3
C680	0170		DEC2 R1, R7
C682	1200		CTRL $2, #$00
C684	64D7		MOVB R4, (R13)----
C686	6346		MOVB R3, (R4)---
C688	64D7		MOVB R4, (R13)----
C68A	64D7		MOVB R4, (R13)----
C68C	F10B		SUB R1, #$0C
C68E	E4FE		
C690	C540		SLE R5, R4
C692	10D0		CTRL $0, #$D0
C694	C081		SLT R0, R8
C696	64D7		MOVB R4, (R13)----
C698	0C03		INC2 R12, R0
C69A	0B76		OR R11, R7
C69C	10CE		CTRL $0, #$CE
C69E	DD40		MOVE R13, (R4)'
C6A0	0064		RET R6

C6A2	D7F0		MOVE R7, (R15)'
C6A4	635A		MOVB R3, (R5)
C6A6	DD40		MOVE R13, (R4)'
C6A8	0064		RET R6

C6AA	D70C		MOVE R7, (R0)
C6AC	0110		DEC2 R1, R1
C6AE	D00B		JMP (R0)
C6B0	74F0		MOVB (R15)+, R4
C6B2	634C		MOVB R3, (R4)
C6B4	3510		MOVE $20, R5
C6B6	1062		CTRL $0, #$62
C6B8	0C01		DEC R12, R0
C6BA	10CE		CTRL $0, #$CE
C6BC	0B76		OR R11, R7
C6BE	0601		DEC R6, R0
C6C0	10CE		CTRL $0, #$CE
C6C2	0B72		INC R11, R7
C6C4	0C01		DEC R12, R0
C6C6	10D0		CTRL $0, #$D0
C6C8	10CE		CTRL $0, #$CE
C6CA	0D01		DEC R13, R0
C6CC	10CE		CTRL $0, #$CE
C6CE	10D0		CTRL $0, #$D0
C6D0	1064		CTRL $0, #$64
C6D2	D133		MOVE R1, (R3)++
C6D4	3000		MOVE $00, R0
C6D6	0240		DEC2 R2, R4
C6D8	3004		MOVE $08, R0
C6DA	02B2		INC R2, R11
C6DC	0063		INC2 R0, R6
C6DE	7BD5		MOVB (R13)--, R11
C6E0	1000		CTRL $0, #$00
C6E2	C081		SLT R0, R8
C6E4	637B		MOVB R3, (R7)
C6E6	0C01		DEC R12, R0
C6E8	10D0		CTRL $0, #$D0
C6EA	10CE		CTRL $0, #$CE
C6EC	0601		DEC R6, R0
C6EE	10CE		CTRL $0, #$CE
C6F0	0B78		ADD R11, R7
C6F2	F063		BRA $C690		; -> -$64(R0)

C6F4	65FE		MOVB R5, (R15)
C6F6	3510		MOVE $20, R5
C6F8	1062		CTRL $0, #$62
C6FA	0903		INC2 R9, R0
C6FC	10CE		CTRL $0, #$CE
C6FE	00FF		GETA R15, $0
C700	7500		MOVB (R0)+, R5
C702	02FE		GETB R15, $2
C704	3340		MOVE $80, R3
C706	0002		INC R0, R0
C708	4040		PUTB $0, (R4)+
C70A	0402		INC R4, R0
C70C	B2FE		SET R2, #$FE
C70E	0063		INC2 R0, R6
C710	934C		CLR R3, #$4C
C712	0102		INC R1, R0
C714	0B76		OR R11, R7
C716	0601		DEC R6, R0
C718	0B76		OR R11, R7
C71A	0B78		ADD R11, R7
C71C	D510		MOVE R5, (R1)'
C71E	00C0		DEC2 R0, R12
C720	8163		LBI R1, #$63
C722	93F0		CLR R3, #$F0
C724	6382		MOVB R3, (R8)+++
C726	3510		MOVE $20, R5
C728	1062		CTRL $0, #$62
C72A	3802		MOVE $04, R8
C72C	0B6D		MLH R11, R6
C72E	639D		MOVB R3, (R9)
C730	0D01		DEC R13, R0
C732	0B80		DEC2 R11, R8
C734	1062		CTRL $0, #$62
C736	2064		JMP ($00C8)

C738	95FE		CLR R5, #$FE
C73A	3410		MOVE $20, R4
C73C	1062		CTRL $0, #$62
C73E	3420		MOVE $40, R4
C740	1064		CTRL $0, #$64
C742	7520		MOVB (R2)+, R5
C744	06F7		XOR R6, R15
C746	2007		JMP ($000E)

C748	3330		MOVE $60, R3
C74A	63CB		MOVB R3, (R12)
C74C	F820		SUB R8, #$21
C74E	30E6		MOVE $1CC, R0
C750	3000		MOVE $00, R0
C752	3520		MOVE $40, R5
C754	1064		CTRL $0, #$64
C756	F950		SUB R9, #$51
C758	503C		MOVE (R3), R0
C75A	0010		DEC2 R0, R1
C75C	7CFC		MOVB (R15), R12
C75E	3000		MOVE $00, R0
C760	D510		MOVE R5, (R1)'
C762	00C0		DEC2 R0, R12
C764	0163		INC2 R1, R6
C766	9F39		CLR R15, #$39
C768	040B		ADDH2 R4, R0
C76A	A363		ADD R3, #$64
C76C	BDFE		SET R13, #$FE
C76E	3A04		MOVE $08, R10
C770	0BA3		INC2 R11, R10
C772	3510		MOVE $20, R5
C774	1062		CTRL $0, #$62
C776	F063		BRA $C714		; -> -$64(R0)

C778	9DFE		CLR R13, #$FE
C77A	3B04		MOVE $08, R11
C77C	0BA3		INC2 R11, R10
C77E	3510		MOVE $20, R5
C780	1062		CTRL $0, #$62
C782	F064		BRA $C71F		; -> -$65(R0)

C784	95FE		CLR R5, #$FE
C786	FB10		SUB R11, #$11
C788	703C		MOVB (R3), R0
C78A	380F		MOVE $1E, R8
C78C	D31C		MOVE R3, (R1)
C78E	0110		DEC2 R1, R1
C790	CE04		SS R14
C792	F063		BRA $C730		; -> -$64(R0)

C794	BD00		SET R13, #$00
C796	644D		MOVB R4, (R4)
C798	644D		MOVB R4, (R4)
C79A	644B		MOVB R4, (R4)
C79C	644B		MOVB R4, (R4)
C79E	644D		MOVB R4, (R4)
C7A0	644D		MOVB R4, (R4)
C7A2	644B		MOVB R4, (R4)
C7A4	644B		MOVB R4, (R4)
C7A6	644D		MOVB R4, (R4)
C7A8	644D		MOVB R4, (R4)
C7AA	644B		MOVB R4, (R4)
C7AC	644B		MOVB R4, (R4)
C7AE	644D		MOVB R4, (R4)
C7B0	644D		MOVB R4, (R4)
C7B2	644B		MOVB R4, (R4)
C7B4	644B		MOVB R4, (R4)
C7B6	644D		MOVB R4, (R4)
C7B8	644D		MOVB R4, (R4)
C7BA	644B		MOVB R4, (R4)
C7BC	644B		MOVB R4, (R4)
C7BE	644D		MOVB R4, (R4)
C7C0	644D		MOVB R4, (R4)
C7C2	644D		MOVB R4, (R4)
C7C4	644D		MOVB R4, (R4)
C7C6	644F		MOVB R4, (R4)
C7C8	644F		MOVB R4, (R4)
C7CA	644F		MOVB R4, (R4)
C7CC	644F		MOVB R4, (R4)
C7CE	644F		MOVB R4, (R4)
C7D0	644F		MOVB R4, (R4)
C7D2	644F		MOVB R4, (R4)
C7D4	644F		MOVB R4, (R4)
C7D6	644D		MOVB R4, (R4)
C7D8	644D		MOVB R4, (R4)
C7DA	63B0		MOVB R3, (R11)+
C7DC	63B0		MOVB R3, (R11)+
C7DE	63B0		MOVB R3, (R11)+
C7E0	6426		MOVB R4, (R2)---
C7E2	63B0		MOVB R3, (R11)+
C7E4	63B0		MOVB R3, (R11)+
C7E6	63B0		MOVB R3, (R11)+
C7E8	63B0		MOVB R3, (R11)+
C7EA	63B0		MOVB R3, (R11)+
C7EC	63B0		MOVB R3, (R11)+
C7EE	63B0		MOVB R3, (R11)+
C7F0	63B0		MOVB R3, (R11)+
C7F2	6408		MOVB R4, (R0)
C7F4	63B0		MOVB R3, (R11)+
C7F6	6426		MOVB R4, (R2)---
C7F8	6426		MOVB R4, (R2)---
C7FA	63B0		MOVB R3, (R11)+
C7FC	63B0		MOVB R3, (R11)+
C7FE	63B0		MOVB R3, (R11)+
C800	63B0		MOVB R3, (R11)+
C802	63B0		MOVB R3, (R11)+
C804	63B0		MOVB R3, (R11)+
C806	63B0		MOVB R3, (R11)+
C808	63B0		MOVB R3, (R11)+
C80A	63B0		MOVB R3, (R11)+
C80C	63B0		MOVB R3, (R11)+
C80E	63B0		MOVB R3, (R11)+
C810	0903		INC2 R9, R0
C812	10CE		CTRL $0, #$CE
C814	00FF		GETA R15, $0
C816	FB70		SUB R11, #$71
C818	1073		CTRL $0, #$73
C81A	1007		CTRL $0, #$07
C81C	3008		MOVE $10, R0
C81E	00FE		GETB R15, $0
C820	7310		MOVB (R1)+, R3
C822	0133		INC2 R1, R3
C824	4000		PUTB $0, (R0)+
C826	0240		DEC2 R2, R4
C828	4000		PUTB $0, (R0)+
C82A	02B2		INC R2, R11
C82C	0064		RET R6

C82E	231C		MOVE R3, $38
C830	0110		DEC2 R1, R1
C832	CE00		SLE R14, R0
C834	F165		SUB R1, #$66
C836	10FE		CTRL $0, #$FE
C838	F063		BRA $C7D6		; -> -$64(R0)

C83A	C3FE		SNBC R3, R15
C83C	3804		MOVE $08, R8
C83E	0BA3		INC2 R11, R10
C840	6423		MOVB R4, (R2)++++
C842	6C01		MOVB R12, (R0)++
C844	0002		INC R0, R0
C846	FB10		SUB R11, #$11
C848	70F0		MOVB (R15)+, R0
C84A	63B0		MOVB R3, (R11)+
C84C	FB70		SUB R11, #$71
C84E	1009		CTRL $0, #$09
C850	0310		DEC2 R3, R1
C852	CE00		SLE R14, R0
C854	FF73		SUB R15, #$74
C856	1007		CTRL $0, #$07
C858	DCFF		MOVE R12, (R15)
C85A	0064		RET R6

C85C	48FE		PUTB $8, (R15)
C85E	3340		MOVE $80, R3
C860	0002		INC R0, R0
C862	4040		PUTB $0, (R4)+
C864	0002		INC R0, R0
C866	B2FE		SET R2, #$FE
C868	0064		RET R6

C86A	411C		PUTB $1, (R1)
C86C	0110		DEC2 R1, R1
C86E	CE00		SLE R14, R0
C870	F165		SUB R1, #$66
C872	10FE		CTRL $0, #$FE
C874	F063		BRA $C812		; -> -$64(R0)

C876	C3FE		SNBC R3, R15
C878	3804		MOVE $08, R8
C87A	0BA3		INC2 R11, R10
C87C	6441		MOVB R4, (R4)++
C87E	6C01		MOVB R12, (R0)++
C880	0002		INC R0, R0
C882	7310		MOVB (R1)+, R3
C884	02DC		MHL R2, R13
C886	FE00		SUB R14, #$01
C888	6448		MOVB R4, (R4)
C88A	DDFF		MOVE R13, (R15)
C88C	0064		RET R6

C88E	2FFE		MOVE R15, $1FC
C890	FB10		SUB R11, #$11
C892	70F0		MOVB (R15)+, R0
C894	63B0		MOVB R3, (R11)+
C896	3E01		MOVE $02, R14
C898	107C		CTRL $0, #$7C
C89A	3350		MOVE $A0, R3
C89C	0002		INC R0, R0
C89E	0903		INC2 R9, R0
C8A0	10CE		CTRL $0, #$CE
C8A2	00FF		GETA R15, $0
C8A4	FB70		SUB R11, #$71
C8A6	1073		CTRL $0, #$73
C8A8	1007		CTRL $0, #$07
C8AA	F810		SUB R8, #$11
C8AC	501C		MOVE (R1), R0
C8AE	0010		DEC2 R0, R1
C8B0	7E00		MOVB (R0)+, R14
C8B2	7904		MOVB (R0)-, R9
C8B4	0064		RET R6

C8B6	61FE		MOVB R1, (R15)
C8B8	79C0		MOVB (R12)+, R9
C8BA	0164		MOVE R1, R6
C8BC	61FE		MOVB R1, (R15)
C8BE	F064		BRA $C85B		; -> -$65(R0)

C8C0	63FE		MOVB R3, (R15)
C8C2	7310		MOVB (R1)+, R3
C8C4	03FE		GETB R15, $3
C8C6	7310		MOVB (R1)+, R3
C8C8	023B		ADDH2 R2, R3
C8CA	0410		DEC2 R4, R1
C8CC	7ECD		MOVB (R12), R14
C8CE	0010		DEC2 R0, R1
C8D0	7E64		MOVB (R6)-, R14
C8D2	6ECC		MOVB R14, (R12)
C8D4	0010		DEC2 R0, R1
C8D6	7C64		MOVB (R6)-, R12
C8D8	90F0		CLR R0, #$F0
C8DA	6478		MOVB R4, (R7)
C8DC	3801		MOVE $02, R8
C8DE	107E		CTRL $0, #$7E
C8E0	6473		MOVB R4, (R7)++++
C8E2	3E01		MOVE $02, R14
C8E4	107C		CTRL $0, #$7C
C8E6	0200		DEC2 R2, R0
C8E8	107E		CTRL $0, #$7E
C8EA	0000		HALT
C8EC	C001		SLT R0, R0
C8EE	646E		MOVB R4, (R6)
C8F0	3340		MOVE $80, R3
C8F2	0002		INC R0, R0
C8F4	4040		PUTB $0, (R4)+
C8F6	0002		INC R0, R0
C8F8	B2FE		SET R2, #$FE
C8FA	0064		RET R6

C8FC	8A1C		LBI R10, #$1C
C8FE	0110		DEC2 R1, R1
C900	CE00		SLE R14, R0
C902	F165		SUB R1, #$66
C904	10FE		CTRL $0, #$FE
C906	F063		BRA $C8A4		; -> -$64(R0)

C908	C3FE		SNBC R3, R15
C90A	3804		MOVE $08, R8
C90C	0BA3		INC2 R11, R10
C90E	648A		MOVB R4, (R8)
C910	6C01		MOVB R12, (R0)++
C912	0002		INC R0, R0
C914	7310		MOVB (R1)+, R3
C916	023F		GETA R3, $2
C918	0110		DEC2 R1, R1
C91A	7CC0		MOVB (R12)+, R12
C91C	0164		MOVE R1, R6
C91E	78FE		MOVB (R15), R8
C920	FB10		SUB R11, #$11
C922	70F0		MOVB (R15)+, R0
C924	63B0		MOVB R3, (R11)+
C926	F064		BRA $C8C3		; -> -$65(R0)

C928	78FE		MOVB (R15), R8
C92A	3520		MOVE $40, R5
C92C	1062		CTRL $0, #$62
C92E	CD00		SLE R13, R0
C930	0FD3		INC2 R15, R13
C932	64A8		MOVB R4, (R10)
C934	3340		MOVE $80, R3
C936	0002		INC R0, R0
C938	8040		LBI R0, #$40
C93A	0402		INC R4, R0
C93C	B2FE		SET R2, #$FE
C93E	0064		RET R6

C940	A8AC		ADD R8, #$AD
C942	0104		MOVE R1, R0
C944	02E5		AND R2, R14
C946	2000		JMP ($0000)

C948	C081		SLT R0, R8
C94A	64A8		MOVB R4, (R10)
C94C	F064		BRA $C8E9		; -> -$65(R0)

C94E	9AFE		CLR R10, #$FE
C950	3520		MOVE $40, R5
C952	1062		CTRL $0, #$62
C954	B400		SET R4, #$00
C956	02E5		AND R2, R14
C958	4000		PUTB $0, (R0)+
C95A	C081		SLT R0, R8
C95C	64B7		MOVB R4, (R11)----
C95E	FB10		SUB R11, #$11
C960	20B5		JMP ($016A)

C962	2000		JMP ($0000)

C964	B410		SET R4, #$10
C966	02E5		AND R2, R14
C968	4000		PUTB $0, (R0)+
C96A	C001		SLT R0, R0
C96C	64AF		MOVB R4, (R10)
C96E	CD00		SLE R13, R0
C970	0FD3		INC2 R15, R13
C972	64C2		MOVB R4, (R12)+++
C974	3A80		MOVE $100, R10
C976	0BB5		AND R11, R11
C978	F08F		BRA $C8EA		; -> -$90(R0)

C97A	EEFE		
C97C	3C35		MOVE $6A, R12
C97E	0BB4		MOVE R11, R11
C980	F08F		BRA $C8F2		; -> -$90(R0)

C982	EEFE		
C984	3C38		MOVE $70, R12
C986	0BB4		MOVE R11, R11
C988	3A10		MOVE $20, R10
C98A	0BA1		DEC R11, R10
C98C	0B03		INC2 R11, R0
C98E	05CB		ADDH2 R5, R12
C990	10CE		CTRL $0, #$CE
C992	3C00		MOVE $00, R12
C994	0FD3		INC2 R15, R13
C996	F08F		BRA $C908		; -> -$90(R0)

C998	EEFE		
C99A	3C33		MOVE $66, R12
C99C	0BB4		MOVE R11, R11
C99E	F08F		BRA $C910		; -> -$90(R0)

C9A0	EEFE		
C9A2	3C37		MOVE $6E, R12
C9A4	0BB4		MOVE R11, R11
C9A6	3C10		MOVE $20, R12
C9A8	0B75		AND R11, R7
C9AA	F08F		BRA $C91C		; -> -$90(R0)

C9AC	EEFE		
C9AE	3C32		MOVE $64, R12
C9B0	0B5A		ADDH R11, R5
C9B2	F00B		BRA $C9A8		; -> -$0C(R0)

C9B4	E6FE		
C9B6	7310		MOVB (R1)+, R3
C9B8	0370		DEC2 R3, R7
C9BA	1200		CTRL $2, #$00
C9BC	64D7		MOVB R4, (R13)----
C9BE	64E2		MOVB R4, (R14)+++
C9C0	64D7		MOVB R4, (R13)----
C9C2	64D7		MOVB R4, (R13)----
C9C4	7520		MOVB (R2)+, R5
C9C6	00F7		XOR R0, R15
C9C8	2007		JMP ($000E)

C9CA	3340		MOVE $80, R3
C9CC	00F0		DEC2 R0, R15
C9CE	F920		SUB R9, #$21
C9D0	4034		PUTB $0, (R3)-
C9D2	2010		JMP ($0020)

C9D4	5EF6		MOVE (R15)-~, R14
C9D6	2000		JMP ($0000)

C9D8	3620		MOVE $40, R6
C9DA	105E		CTRL $0, #$5E
C9DC	3360		MOVE $C0, R3
C9DE	0B82		INC R11, R8
C9E0	F820		SUB R8, #$21
C9E2	60B8		MOVB R0, (R11)
C9E4	9000		CLR R0, #$00
C9E6	64BE		MOVB R4, (R11)
C9E8	B520		SET R5, #$20
C9EA	01B5		AND R1, R11
C9EC	2000		JMP ($0000)

C9EE	3420		MOVE $40, R4
C9F0	1062		CTRL $0, #$62
C9F2	7310		MOVB (R1)+, R3
C9F4	01DC		MHL R1, R13
C9F6	4000		PUTB $0, (R0)+
C9F8	650B		MOVB R5, (R0)
C9FA	DD6B		MOVE R13, (R6)
C9FC	0064		RET R6

C9FE	D773		MOVE R7, (R7)++
CA00	1001		CTRL $0, #$01
CA02	F063		BRA $C9A0		; -> -$64(R0)

CA04	28FE		MOVE R8, $1FC
CA06	3560		MOVE $C0, R5
CA08	0B80		DEC2 R11, R8
CA0A	3460		MOVE $C0, R4
CA0C	1062		CTRL $0, #$62
CA0E	C540		SLE R5, R4
CA10	1062		CTRL $0, #$62
CA12	C081		SLT R0, R8
CA14	64CD		MOVB R4, (R12)
CA16	0C03		INC2 R12, R0
CA18	0B76		OR R11, R7
CA1A	0B72		INC R11, R7
CA1C	F063		BRA $C9BA		; -> -$64(R0)

CA1E	5AFE		MOVE (R15), R10
CA20	3480		MOVE $100, R4
CA22	105E		CTRL $0, #$5E
CA24	3520		MOVE $40, R5
CA26	1062		CTRL $0, #$62
CA28	8D01		LBI R13, #$01
CA2A	0410		DEC2 R4, R1
CA2C	CE20		SLE R14, R2
CA2E	651F		MOVB R5, (R1)
CA30	E520		
CA32	00C0		DEC2 R0, R12
CA34	8165		LBI R1, #$65
CA36	1DF0		CTRL $D, #$F0
CA38	6514		MOVB R5, (R1)-
CA3A	3100		MOVE $00, R1
CA3C	105E		CTRL $0, #$5E
CA3E	3340		MOVE $80, R3
CA40	0002		INC R0, R0
CA42	3640		MOVE $80, R6
CA44	105E		CTRL $0, #$5E
CA46	FC40		SUB R12, #$41
CA48	00FE		GETB R15, $0
CA4A	300C		MOVE $18, R0
CA4C	0FEA		ADDH R15, R14
CA4E	F147		SUB R1, #$48
CA50	F0FE		BRA $C953		; -> -$FF(R0)

CA52	3520		MOVE $40, R5
CA54	0DB9		SUB R13, R11
CA56	B530		SET R5, #$30
CA58	16B5		CTRL $6, #$B5
CA5A	4024		PUTB $0, (R2)-
CA5C	B640		SET R6, #$40
CA5E	1CFB		CTRL $C, #$FB
CA60	0030		DEC2 R0, R3
CA62	3600		MOVE $00, R6
CA64	0FC1		DEC R15, R12
CA66	FA00		SUB R10, #$01
CA68	4000		PUTB $0, (R0)+
CA6A	8FE0		LBI R15, #$E0
CA6C	B400		SET R4, #$00
CA6E	160C		CTRL $6, #$0C
CA70	000C		MHL R0, R0
CA72	630E		MOVB R3, (R0)
CA74	B635		SET R6, #$35
CA76	100E		CTRL $0, #$0E
CA78	B430		SET R4, #$30
CA7A	060E		GETB R0, $6
CA7C	B033		SET R0, #$33
CA7E	200F		JMP ($001E)

CA80	A4CC		ADD R4, #$CD
CA82	000C		MHL R0, R0
CA84	6365		MOVB R3, (R6)--
CA86	59ED		MOVE (R14), R9
CA88	C31C		SNS R3
CA8A	8FE0		LBI R15, #$E0
CA8C	3200		MOVE $00, R2
CA8E	0C63		INC2 R12, R6
CA90	FB40		SUB R11, #$41
CA92	0037		XOR R0, R3
CA94	400E		PUTB $0, (R0)
CA96	DB7C		MOVE R11, (R7)
CA98	4000		PUTB $0, (R0)+
CA9A	5440		MOVE (R4)', R4
CA9C	0100		DEC2 R1, R0
CA9E	E400		
CAA0	1D18		CTRL $D, #$18
CAA2	6554		MOVB R5, (R5)-
CAA4	B500		SET R5, #$00
CAA6	1DFE		CTRL $D, #$FE
CAA8	FB20		SUB R11, #$21
CAAA	3064		MOVE $C8, R0
CAAC	0000		HALT
CAAE	00F0		DEC2 R0, R15
CAB0	66D2		MOVB R6, (R13)+++
CAB2	EDD3		
CAB4	1C65		CTRL $C, #$65
CAB6	62FB		MOVB R2, (R15)
CAB8	2030		JMP ($0060)

CABA	E70A		
CABC	00D7		XOR R0, R13
CABE	0C00		DEC2 R12, R0
CAC0	F066		BRA $CA5B		; -> -$67(R0)

CAC2	D2FE		MOVE R2, (R15)
CAC4	EDE2		
CAC6	1C65		CTRL $C, #$65
CAC8	7089		MOVB (R8), R0
CACA	0350		DEC2 R3, R5
CACC	0000		HALT
CACE	FB20		SUB R11, #$21
CAD0	302C		MOVE $58, R0
CAD2	030F		GETA R0, $3
CAD4	F000		BRA $CAD5		; -> -$01(R0)

CAD6	C70A		SNE R7, R0
CAD8	0FF0		DEC2 R15, R15
CADA	D70C		MOVE R7, (R0)
CADC	00F0		DEC2 R0, R15
CADE	66D2		MOVB R6, (R13)+++
CAE0	891E		LBI R9, #$1E
CAE2	4C00		PUTB $C, (R0)+
CAE4	00ED		MLH R0, R14
CAE6	D71C		MOVE R7, (R1)
CAE8	65C1		MOVB R5, (R12)++
CAEA	FB40		SUB R11, #$41
CAEC	1089		CTRL $0, #$89
CAEE	094C		MHL R9, R4
CAF0	0000		HALT
CAF2	B550		SET R5, #$50
CAF4	1DB6		CTRL $D, #$B6
CAF6	501D		MOVE (R1), R0
CAF8	B750		SET R7, #$50
CAFA	1F37		CTRL $F, #$37
CAFC	500E		MOVE (R0), R0
CAFE	DB33		MOVE R11, (R3)++
CB00	6000		MOVB R0, (R0)+
CB02	02FB		ADDH2 R2, R15
CB04	1030		CTRL $0, #$30
CB06	9C00		CLR R12, #$00
CB08	5500		MOVE (R0)', R5
CB0A	7310		MOVB (R1)+, R3
CB0C	018F		GETA R8, $1
CB0E	101D		CTRL $0, #$1D
CB10	0EDB		ADDH2 R14, R13
CB12	ED00		
CB14	4C65		PUTB $C, (R6)--
CB16	97AC		CLR R7, #$AC
CB18	084C		MHL R8, R4
CB1A	4DC0		PUTB $D, (R12)+
CB1C	8165		LBI R1, #$65
CB1E	93F9		CLR R3, #$F9
CB20	5060		MOVE (R6)', R0
CB22	F065		BRA $CABE		; -> -$66(R0)

CB24	83FE		LBI R3, #$FE
CB26	3750		MOVE $A0, R7
CB28	0EDB		ADDH2 R14, R13
CB2A	F065		BRA $CAC6		; -> -$66(R0)

CB2C	99FE		CLR R9, #$FE
CB2E	C084		SS R0
CB30	6583		MOVB R5, (R8)++++
CB32	8918		LBI R9, #$18
CB34	5600		MOVE (R0)', R6
CB36	40AB		PUTB $0, (R10)
CB38	1157		CTRL $1, #$57
CB3A	4CB9		PUTB $C, (R11)
CB3C	0255		AND R2, R5
CB3E	65A2		MOVB R5, (R10)+++
CB40	BC60		SET R12, #$60
CB42	56FE		MOVE (R15), R6
CB44	3450		MOVE $A0, R4
CB46	0F1A		ADDH R15, R1
CB48	CC00		SLE R12, R0
CB4A	0F1A		ADDH R15, R1
CB4C	65AE		MOVB R5, (R10)
CB4E	3360		MOVE $C0, R3
CB50	0000		HALT
CB52	F960		SUB R9, #$61
CB54	5034		MOVE (R3)~, R0
CB56	600F		MOVB R0, (R0)
CB58	1ABC		CTRL $A, #$BC
CB5A	6069		MOVB R0, (R6)
CB5C	BCC5		SET R12, #$C5
CB5E	68F1		MOVB R8, (R15)++
CB60	0BC6		OR R11, R12
CB62	8B02		LBI R11, #$02
CB64	6A0F		MOVB R10, (R0)
CB66	18B3		CTRL $8, #$B3
CB68	1056		CTRL $0, #$56
CB6A	B330		SET R3, #$30
CB6C	6DFB		MOVB R13, (R15)
CB6E	2040		JMP ($0080)

CB70	3B02		MOVE $04, R11
CB72	0BA4		MOVE R11, R10
CB74	F123		SUB R1, #$24
CB76	F4FE		SUB R4, #$FF
CB78	C087		SBSH R0, R8
CB7A	8FE0		LBI R15, #$E0
CB7C	E70C		
CB7E	00F0		DEC2 R0, R15
CB80	66D2		MOVB R6, (R13)+++
CB82	EDC2		
CB84	1C65		CTRL $C, #$65
CB86	FCFB		SUB R12, #$FC
CB88	4010		PUTB $0, (R1)+
CB8A	BC50		SET R12, #$50
CB8C	4CB5		PUTB $C, (R11)--
CB8E	001D		MLH R0, R1
CB90	FB10		SUB R11, #$11
CB92	3094		MOVE $128, R0
CB94	0055		AND R0, R5
CB96	00B3		INC2 R0, R11
CB98	1055		CTRL $0, #$55
CB9A	F910		SUB R9, #$11
CB9C	0064		RET R6

CB9E	0000		HALT
CBA0	5578		MOVE (R7), R5
CBA2	8000		LBI R0, #$00
CBA4	65E0		MOVB R5, (R14)+
CBA6	8907		LBI R9, #$07
CBA8	4D00		PUTB $D, (R0)+
CBAA	FF64		SUB R15, #$65
CBAC	0000		HALT
CBAE	5589		MOVE (R8), R5
CBB0	0755		AND R7, R5
CBB2	0000		HALT
CBB4	AF70		ADD R15, #$71
CBB6	554D		MOVE (R4), R5
CBB8	8C07		LBI R12, #$07
CBBA	4D0F		PUTB $D, (R0)
CBBC	F9BC		SUB R9, #$BD
CBBE	D04C		JMP (R4)
CBC0	ED00		
CBC2	4D65		PUTB $D, (R6)--
CBC4	E8AC		
CBC6	064D		MLH R6, R4
CBC8	4EBF		PUTB $E, (R11)
CBCA	024C		MHL R2, R4
CBCC	F065		BRA $CB68		; -> -$66(R0)

CBCE	EFFE		
CBD0	E80F		STAT R0, $8
CBD2	4D65		PUTB $D, (R6)--
CBD4	EF83		
CBD6	704D		MOVB (R4), R0
CBD8	0003		INC2 R0, R0
CBDA	BF01		SET R15, #$01
CBDC	4CFE		PUTB $C, (R15)
CBDE	E704		
CBE0	00E7		XOR R0, R14
CBE2	0A4C		MHL R10, R4
CBE4	CC08		SGT R12, R0
CBE6	0EBF		GETA R11, $E
CBE8	65F7		MOVB R5, (R15)----
CBEA	E714		
CBEC	00FE		GETB R15, $0
CBEE	FB10		SUB R11, #$11
CBF0	40D7		PUTB $0, (R13)----
CBF2	0C00		DEC2 R12, R0
CBF4	F066		BRA $CB8F		; -> -$67(R0)

CBF6	D2FE		MOVE R2, (R15)
CBF8	EDD5		
CBFA	1C8F		CTRL $C, #$8F
CBFC	E0BC		SHR R11
CBFE	0069		SUB R0, R6
CC00	8919		LBI R9, #$19
CC02	4C00		PUTB $C, (R0)+
CC04	40FB		PUTB $0, (R15)
CC06	4010		PUTB $0, (R1)+
CC08	FB10		SUB R11, #$11
CC0A	30FE		MOVE $1FC, R0
CC0C	7012		MOVB (R1)+++, R0
CC0E	0066		OR R0, R6
CC10	9766		CLR R7, #$66
CC12	CA66		SBC R10, R6
CC14	0F66		OR R15, R6
CC16	4B00		PUTB $B, (R0)+
CC18	BA80		SET R10, #$80
CC1A	69F0		MOVB R9, (R15)+
CC1C	6697		MOVB R6, (R9)----
CC1E	3300		MOVE $00, R3
CC20	0002		INC R0, R0
CC22	E400		
CC24	1D10		CTRL $D, #$10
CC26	6669		MOVB R6, (R6)
CC28	4000		PUTB $0, (R0)+
CC2A	0002		INC R0, R0
CC2C	A2FE		ADD R2, #$FF
CC2E	2066		JMP ($00CC)

CC30	1D40		CTRL $D, #$40
CC32	0000		HALT
CC34	02A1		DEC R2, R10
CC36	2866		MOVE R8, $CC
CC38	2CFE		MOVE R12, $1FC
CC3A	B910		SET R9, #$10
CC3C	698F		MOVB R9, (R8)
CC3E	E0FE		ROR3 R15
CC40	B880		SET R8, #$80
CC42	698F		MOVB R9, (R8)
CC44	E0FE		ROR3 R15
CC46	BC60		SET R12, #$60
CC48	4CBA		PUTB $C, (R11)
CC4A	2069		JMP ($00D2)

CC4C	7310		MOVB (R1)+, R3
CC4E	018F		GETA R8, $1
CC50	101D		CTRL $0, #$1D
CC52	0EDB		ADDH2 R14, R13
CC54	F066		BRA $CBEF		; -> -$67(R0)

CC56	97FE		CLR R7, #$FE
CC58	DDC5		MOVE R13, (R12)-
CC5A	0066		OR R0, R6
CC5C	69ED		MOVB R9, (R14)
CC5E	FF1F		SUB R15, #$20
CC60	66A2		MOVB R6, (R10)+++
CC62	BA20		SET R10, #$20
CC64	69F1		MOVB R9, (R15)++
CC66	66CA		MOVB R6, (R12)
CC68	8F10		LBI R15, #$10
CC6A	1D0E		CTRL $D, #$0E
CC6C	DB73		MOVE R11, (R7)++
CC6E	1001		CTRL $0, #$01
CC70	DC4E		MOVE R12, (R4)
CC72	0066		OR R0, R6
CC74	3DDD		MOVE $1BA, R13
CC76	6000		MOVB R0, (R0)+
CC78	6645		MOVB R6, (R4)--
CC7A	F166		SUB R1, #$67
CC7C	CAFE		SNBC R10, R15
CC7E	8F10		LBI R15, #$10
CC80	1D0E		CTRL $D, #$0E
CC82	DBC0		MOVE R11, (R12)'
CC84	8166		LBI R1, #$66
CC86	A273		ADD R2, #$74
CC88	1001		CTRL $0, #$01
CC8A	7012		MOVB (R1)+++, R0
CC8C	0066		OR R0, R6
CC8E	9766		CLR R7, #$66
CC90	3D66		MOVE $CC, R13
CC92	8B66		LBI R11, #$66
CC94	8B00		LBI R11, #$00
CC96	DD4B		MOVE R13, (R4)
CC98	0066		OR R0, R6
CC9A	58ED		MOVE (R14), R8
CC9C	FF1F		SUB R15, #$20
CC9E	6652		MOVB R6, (R5)+++
CCA0	F166		SUB R1, #$67
CCA2	CAFE		SNBC R10, R15
CCA4	B940		SET R9, #$40
CCA6	698F		MOVB R9, (R8)
CCA8	E0FE		ROR3 R15
CCAA	BA40		SET R10, #$40
CCAC	69F0		MOVB R9, (R15)+
CCAE	6697		MOVB R6, (R9)----
CCB0	DC4E		MOVE R12, (R4)
CCB2	0066		OR R0, R6
CCB4	5DDD		MOVE (R13), R13
CCB6	6000		MOVB R0, (R0)+
CCB8	6669		MOVB R6, (R6)
CCBA	B910		SET R9, #$10
CCBC	698F		MOVB R9, (R8)
CCBE	E0FE		ROR3 R15
CCC0	BA10		SET R10, #$10
CCC2	699C		MOVB R9, (R9)
CCC4	004C		MHL R0, R4
CCC6	00B8		ADD R0, R11
CCC8	8069		LBI R0, #$69
CCCA	6697		MOVB R6, (R9)----
CCCC	BA20		SET R10, #$20
CCCE	69F0		MOVB R9, (R15)+
CCD0	6697		MOVB R6, (R9)----
CCD2	8D01		LBI R13, #$01
CCD4	1D0E		CTRL $D, #$0E
CCD6	DB28		MOVE R11, (R2)
CCD8	6688		MOVB R6, (R8)
CCDA	9C00		CLR R12, #$00
CCDC	6A00		MOVB R10, (R0)+
CCDE	BAF0		SET R10, #$F0
CCE0	6AE8		MOVB R10, (R14)
CCE2	F96A		SUB R9, #$6B
CCE4	6688		MOVB R6, (R8)
CCE6	9C00		CLR R12, #$00
CCE8	6B00		MOVB R11, (R0)+
CCEA	BB0F		SET R11, #$0F
CCEC	6BEC		MOVB R11, (R14)
CCEE	C06B		SNZ R0
CCF0	6680		MOVB R6, (R8)+
CCF2	ECD0		
CCF4	6B66		MOVB R11, (R6)---
CCF6	7EED		MOVB (R14), R14
CCF8	B06B		SET R0, #$6B
CCFA	6688		MOVB R6, (R8)
CCFC	BC60		SET R12, #$60
CCFE	4CFE		PUTB $C, (R15)
CD00	B910		SET R9, #$10
CD02	698F		MOVB R9, (R8)
CD04	E0FE		ROR3 R15
CD06	B310		SET R3, #$10
CD08	6AF1		MOVB R10, (R15)++
CD0A	66CA		MOVB R6, (R12)
CD0C	F066		BRA $CCA7		; -> -$67(R0)

CD0E	A2FE		ADD R2, #$FF
CD10	DC40		MOVE R12, (R4)'
CD12	0066		OR R0, R6
CD14	97FE		CLR R7, #$FE
CD16	DC5C		MOVE R12, (R5)
CD18	0066		OR R0, R6
CD1A	97DC		CLR R7, #$DC
CD1C	6100		MOVB R1, (R0)+
CD1E	6697		MOVB R6, (R9)----
CD20	DC5B		MOVE R12, (R5)
CD22	0066		OR R0, R6
CD24	97DC		CLR R7, #$DC
CD26	6B00		MOVB R11, (R0)+
CD28	6697		MOVB R6, (R9)----
CD2A	F08F		BRA $CC9C		; -> -$90(R0)

CD2C	E0FE		ROR3 R15
CD2E	8F10		LBI R15, #$10
CD30	1D0E		CTRL $D, #$0E
CD32	DBC0		MOVE R11, (R12)'
CD34	8166		LBI R1, #$66
CD36	A273		ADD R2, #$74
CD38	1001		CTRL $0, #$01
CD3A	B820		SET R8, #$20
CD3C	6966		MOVB R9, (R6)---
CD3E	06FE		GETB R15, $6
CD40	F066		BRA $CCDB		; -> -$67(R0)

CD42	88FE		LBI R8, #$FE
CD44	ECFF		STAT R15, $C
CD46	1F66		CTRL $F, #$66
CD48	BAB3		SET R10, #$B3
CD4A	1066		CTRL $0, #$66
CD4C	7CC5		MOVB (R12)--, R12
CD4E	00F1		DEC R0, R15
CD50	66CA		MOVB R6, (R12)
CD52	7C60		MOVB (R6)+, R12
CD54	00F1		DEC R0, R15
CD56	66CA		MOVB R6, (R12)
CD58	2C01		MOVE R12, $02
CD5A	0F1A		ADDH R15, R1
CD5C	1FF1		CTRL $F, #$F1
CD5E	0BC6		OR R11, R12
CD60	4B02		PUTB $B, (R0)+++
CD62	000F		GETA R0, $0
CD64	18F1		CTRL $8, #$F1
CD66	66CA		MOVB R6, (R12)
CD68	7310		MOVB (R1)+, R3
CD6A	01F1		DEC R1, R15
CD6C	66CA		MOVB R6, (R12)
CD6E	7310		MOVB (R1)+, R3
CD70	01F1		DEC R1, R15
CD72	66CA		MOVB R6, (R12)
CD74	B310		SET R3, #$10
CD76	4CB3		PUTB $C, (R11)++++
CD78	3066		MOVE $CC, R0
CD7A	3B02		MOVE $04, R11
CD7C	0BA4		MOVE R11, R10
CD7E	FB20		SUB R11, #$21
CD80	40F1		PUTB $0, (R15)++
CD82	23F4		MOVE R3, $1E8
CD84	C087		SBSH R0, R8
CD86	8FE0		LBI R15, #$E0
CD88	FA10		SUB R10, #$11
CD8A	3028		MOVE $50, R0
CD8C	8FE0		LBI R15, #$E0
CD8E	E70C		
CD90	00F0		DEC2 R0, R15
CD92	66D2		MOVB R6, (R13)+++
CD94	ED40		
CD96	4D8F		PUTB $D, (R8)
CD98	E0AC		SHR R10
CD9A	174D		CTRL $7, #$4D
CD9C	4E9C		PUTB $E, (R9)
CD9E	0065		AND R0, R6
CDA0	00FC		MHL R0, R15
CDA2	8000		LBI R0, #$00
CDA4	0C01		DEC R12, R0
CDA6	0FEE		GETB R14, $F
CDA8	0DB7		XOR R13, R11
CDAA	300E		MOVE $1C, R0
CDAC	0FEA		ADDH R15, R14
CDAE	093F		GETA R3, $9
CDB0	05C0		DEC2 R5, R12
CDB2	0040		DEC2 R0, R4
CDB4	0995		AND R9, R9
CDB6	0F24		MOVE R15, R2
CDB8	0000		HALT
CDBA	050E		GETB R0, $5
CDBC	103A		CTRL $0, #$3A
CDBE	680B		MOVB R8, (R0)
CDC0	3A80		MOVE $100, R10
CDC2	0B6C		MHL R11, R6
CDC4	7310		MOVB (R1)+, R3
CDC6	040C		MHL R4, R0
CDC8	020F		GETA R0, $2
CDCA	7F0B		MOVB (R0), R15
CDCC	6933		MOVB R9, (R3)++++
CDCE	705F		MOVB (R5), R0
CDD0	F4F1		SUB R4, #$F2
CDD2	5FF8		MOVE (R15), R15
CDD4	0D03		INC2 R13, R0
CDD6	0F7A		ADDH R15, R7
CDD8	103A		CTRL $0, #$3A
CDDA	085F		GETA R5, $8
CDDC	F40C		SUB R4, #$0D
CDDE	030F		GETA R0, $3
CDE0	8A0F		LBI R10, #$0F
CDE2	7A0C		MOVB (R0), R10
CDE4	000F		GETA R0, $0
CDE6	920F		CLR R2, #$0F
CDE8	7EF1		MOVB (R15)++, R14
CDEA	5FF8		MOVE (R15), R15
CDEC	0D03		INC2 R13, R0
CDEE	0F7A		ADDH R15, R7
CDF0	103A		CTRL $0, #$3A
CDF2	085F		GETA R5, $8
CDF4	F40C		SUB R4, #$0D
CDF6	030F		GETA R0, $3
CDF8	8E0F		LBI R14, #$0F
CDFA	7A0C		MOVB (R0), R10
CDFC	000F		GETA R0, $0
CDFE	930F		CLR R3, #$0F
CE00	7E33		MOVB (R3)++++, R14
CE02	7067		MOVB (R6)----, R0
CE04	0EF1		DEC R14, R15
CE06	5FF8		MOVE (R15), R15
CE08	0D03		INC2 R13, R0
CE0A	0F7A		ADDH R15, R7
CE0C	103A		CTRL $0, #$3A
CE0E	085F		GETA R5, $8
CE10	F4F1		SUB R4, #$F2
CE12	5FF6		MOVE (R15)-~, R15
CE14	DD40		MOVE R13, (R4)'
CE16	005F		GETA R5, $0
CE18	F4F0		SUB R4, #$F1
CE1A	6713		MOVB R7, (R1)++++
CE1C	0D03		INC2 R13, R0
CE1E	0F7A		ADDH R15, R7
CE20	103A		CTRL $0, #$3A
CE22	085F		GETA R5, $8
CE24	F4FE		SUB R4, #$FF
CE26	3320		MOVE $40, R3
CE28	0F8A		ADDH R15, R8
CE2A	0C00		DEC2 R12, R0
CE2C	0F94		MOVE R15, R9
CE2E	0F7E		GETB R7, $F
CE30	0C00		DEC2 R12, R0
CE32	0F7E		GETB R7, $F
CE34	0F92		INC R15, R9
CE36	F15F		SUB R1, #$60
CE38	F0FE		BRA $CD3B		; -> -$FF(R0)

CE3A	0C01		DEC R12, R0
CE3C	0F95		AND R15, R9
CE3E	0F82		INC R15, R8
CE40	3320		MOVE $40, R3
CE42	0F8E		GETB R8, $F
CE44	0C00		DEC2 R12, R0
CE46	0F7E		GETB R7, $F
CE48	0F93		INC2 R15, R9
CE4A	F15F		SUB R1, #$60
CE4C	F0FE		BRA $CD4F		; -> -$FF(R0)

CE4E	0C01		DEC R12, R0
CE50	0F97		XOR R15, R9
CE52	0F82		INC R15, R8
CE54	0C01		DEC R12, R0
CE56	0F9B		ADDH2 R15, R9
CE58	0F82		INC R15, R8
CE5A	0C00		DEC2 R12, R0
CE5C	0F7E		GETB R7, $F
CE5E	0F94		MOVE R15, R9
CE60	F15F		SUB R1, #$60
CE62	F2FE		SUB R2, #$FF
CE64	0C01		DEC R12, R0
CE66	0F99		SUB R15, R9
CE68	0F82		INC R15, R8
CE6A	3A01		MOVE $02, R10
CE6C	0F6E		GETB R6, $F
CE6E	F15F		SUB R1, #$60
CE70	EEFE		
CE72	3A01		MOVE $02, R10
CE74	0F6E		GETB R6, $F
CE76	F15F		SUB R1, #$60
CE78	EAFE		
CE7A	3980		MOVE $100, R9
CE7C	00A4		RET R10

CE7E	5FDA		MOVE (R13), R15
CE80	DD0E		MOVE R13, (R0)
CE82	0067		XOR R0, R6
CE84	A938		ADD R9, #$39
CE86	400F		PUTB $0, (R0)
CE88	9D67		CLR R13, #$67
CE8A	51FE		MOVE (R15), R1
CE8C	7C06		MOVB (R0)---, R12
CE8E	0249		SUB R2, R4
CE90	010C		MHL R1, R0
CE92	0000		HALT
CE94	4D01		PUTB $D, (R0)++
CE96	080E		GETB R0, $8
CE98	DB28		MOVE R11, (R2)
CE9A	67DC		MOVB R7, (R13)
CE9C	7520		MOVB (R2)+, R5
CE9E	04F0		DEC2 R4, R15
CEA0	676E		MOVB R7, (R6)
CEA2	4D01		PUTB $D, (R0)++
CEA4	0C10		DEC2 R12, R1
CEA6	3E20		MOVE $40, R14
CEA8	6746		MOVB R7, (R4)---
CEAA	4D01		PUTB $D, (R0)++
CEAC	0C10		DEC2 R12, R1
CEAE	4428		PUTB $4, (R2)
CEB0	6761		MOVB R7, (R6)++
CEB2	4D01		PUTB $D, (R0)++
CEB4	080E		GETB R0, $8
CEB6	DB28		MOVE R11, (R2)
CEB8	5FDE		MOVE (R13), R15
CEBA	3A40		MOVE $80, R10
CEBC	0F9D		MLH R15, R9
CEBE	F067		BRA $CE58		; -> -$68(R0)

CEC0	E0FE		ROR3 R15
CEC2	D540		MOVE R5, (R4)'
CEC4	0CC0		DEC2 R12, R12
CEC6	015F		GETA R5, $1
CEC8	DE39		MOVE R14, (R3)
CECA	800F		LBI R0, #$0F
CECC	9D67		CLR R13, #$67
CECE	6CFE		MOVB R12, (R15)
CED0	7520		MOVB (R2)+, R5
CED2	04ED		MLH R4, R14
CED4	FF00		SUB R15, #$01
CED6	67E0		MOVB R7, (R14)+
CED8	7C05		MOVB (R0)--, R12
CEDA	02FE		GETB R15, $2
CEDC	3350		MOVE $A0, R3
CEDE	01FA		ADDH R1, R15
CEE0	BC00		SET R12, #$00
CEE2	05A4		MOVE R5, R10
CEE4	5006		MOVE (R0)-~, R0
CEE6	05FE		GETB R15, $5
CEE8	4C01		PUTB $C, (R0)++
CEEA	080F		GETA R0, $8
CEEC	954C		CLR R5, #$4C
CEEE	010E		GETB R0, $1
CEF0	0F97		XOR R15, R9
CEF2	D300		MOVE R3, (R0)'
CEF4	00FE		GETB R15, $0
CEF6	7910		MOVB (R1)+, R9
CEF8	1167		CTRL $1, #$67
CEFA	7BFE		MOVB (R15), R11
CEFC	4D01		PUTB $D, (R0)++
CEFE	0C10		DEC2 R12, R1
CF00	4020		PUTB $0, (R2)+
CF02	6791		MOVB R7, (R9)++
CF04	4D01		PUTB $D, (R0)++
CF06	0C10		DEC2 R12, R1
CF08	4220		PUTB $2, (R2)+
CF0A	6791		MOVB R7, (R9)++
CF0C	D540		MOVE R5, (R4)'
CF0E	0CC0		DEC2 R12, R12
CF10	015F		GETA R5, $1
CF12	DE39		MOVE R14, (R3)
CF14	8000		LBI R0, #$00
CF16	A45F		ADD R4, #$60
CF18	DAFE		MOVE R10, (R15)
CF1A	3C80		MOVE $100, R12
CF1C	0BB5		AND R11, R11
CF1E	F05F		BRA $CEC0		; -> -$60(R0)

CF20	E2FE		
CF22	DD0E		MOVE R13, (R0)
CF24	0067		XOR R0, R6
CF26	D675		MOVE R6, (R7)-
CF28	2004		JMP ($0008)

CF2A	3310		MOVE $20, R3
CF2C	05CC		MHL R5, R12
CF2E	2C01		MOVE R12, $02
CF30	0F1A		ADDH R15, R1
CF32	010F		GETA R0, $1
CF34	100F		CTRL $0, #$0F
CF36	1A0E		CTRL $A, #$0E
CF38	DBF1		MOVE R11, (R15)+
CF3A	5FE6		MOVE (R14)-~, R15
CF3C	2C01		MOVE R12, $02
CF3E	0F1A		ADDH R15, R1
CF40	03FE		GETB R15, $3
CF42	F15F		SUB R1, #$60
CF44	E4FE		
CF46	3A10		MOVE $20, R10
CF48	0BA1		DEC R11, R10
CF4A	3C43		MOVE $86, R12
CF4C	0BB4		MOVE R11, R11
CF4E	F05F		BRA $CEF0		; -> -$60(R0)

CF50	E2FE		
CF52	3300		MOVE $00, R3
CF54	F4F1		SUB R4, #$F2
CF56	D400		MOVE R4, (R0)'
CF58	0C20		DEC2 R12, R2
CF5A	67B7		MOVB R7, (R11)----
CF5C	D540		MOVE R5, (R4)'
CF5E	0CC0		DEC2 R12, R12
CF60	015F		GETA R5, $1
CF62	DE75		MOVE R14, (R7)-
CF64	200E		JMP ($001C)

CF66	8D01		LBI R13, #$01
CF68	4D0E		PUTB $D, (R0)
CF6A	DA28		MOVE R10, (R2)
CF6C	67E0		MOVB R7, (R14)+
CF6E	4901		PUTB $9, (R0)++
CF70	0C00		DEC2 R12, R0
CF72	000F		GETA R0, $0
CF74	100F		CTRL $0, #$0F
CF76	9B0E		CLR R11, #$0E
CF78	DBC0		MOVE R11, (R12)'
CF7A	8167		LBI R1, #$67
CF7C	C50E		SNBC R5, R0
CF7E	100F		CTRL $0, #$0F
CF80	820E		LBI R2, #$0E
CF82	DBF1		MOVE R11, (R15)+
CF84	5FEA		MOVE (R14), R15
CF86	F067		BRA $CF20		; -> -$68(R0)

CF88	A9FE		ADD R9, #$FF
CF8A	0C01		DEC R12, R0
CF8C	0F82		INC R15, R8
CF8E	0F99		SUB R15, R9
CF90	F15F		SUB R1, #$60
CF92	EAFE		
CF94	3300		MOVE $00, R3
CF96	F4F1		SUB R4, #$F2
CF98	D400		MOVE R4, (R0)'
CF9A	0C20		DEC2 R12, R2
CF9C	67D3		MOVB R7, (R13)++++
CF9E	D540		MOVE R5, (R4)'
CFA0	0CC0		DEC2 R12, R12
CFA2	015F		GETA R5, $1
CFA4	DEFE		MOVE R14, (R15)
CFA6	7C05		MOVB (R0)--, R12
CFA8	02F0		DEC2 R2, R15
CFAA	6774		MOVB R7, (R7)-
CFAC	1C01		CTRL $C, #$01
CFAE	0F1A		ADDH R15, R1
CFB0	0E33		INC2 R14, R3
CFB2	1005		CTRL $0, #$05
CFB4	CCF0		SLE R12, R15
CFB6	67A1		MOVB R7, (R10)++
CFB8	3C32		MOVE $64, R12
CFBA	0BB4		MOVE R11, R11
CFBC	F05F		BRA $CF5E		; -> -$60(R0)

CFBE	E2FE		
CFC0	3A80		MOVE $100, R10
CFC2	0F9D		MLH R15, R9
CFC4	3A80		MOVE $100, R10
CFC6	0BA1		DEC R11, R10
CFC8	3350		MOVE $A0, R3
CFCA	67EC		MOVB R7, (R14)
CFCC	3450		MOVE $A0, R4
CFCE	0BA8		ADD R11, R10
CFD0	3C42		MOVE $84, R12
CFD2	0BB4		MOVE R11, R11
CFD4	F05F		BRA $CF76		; -> -$60(R0)

CFD6	E2FE		
CFD8	3B80		MOVE $100, R11
CFDA	0BA1		DEC R11, R10
CFDC	3350		MOVE $A0, R3
CFDE	0003		INC2 R0, R0
CFE0	0050		DEC2 R0, R5
CFE2	0580		DEC2 R5, R8
CFE4	6811		MOVB R8, (R1)++
CFE6	2867		MOVE R8, $CE
CFE8	8D0D		LBI R13, #$0D
CFEA	3C05		MOVE $0A, R12
CFEC	8205		LBI R2, #$05
CFEE	8328		LBI R3, #$28
CFF0	678D		MOVB R7, (R8)
CFF2	093F		GETA R3, $9
CFF4	05C0		DEC2 R5, R12
CFF6	0040		DEC2 R0, R4
CFF8	0901		DEC R9, R0
CFFA	0F30		DEC2 R15, R3
CFFC	0000		HALT
CFFE	3C01		MOVE $02, R12
D000	0B02		INC R11, R0
D002	C300		SLE R3, R0
D004	0B00		DEC2 R11, R0
D006	CD0E		SNBC R13, R0
D008	0F24		MOVE R15, R2
D00A	67C5		MOVB R7, (R12)--
D00C	0C01		DEC R12, R0
D00E	0F2C		MHL R15, R2
D010	0F78		ADD R15, R7
D012	F067		BRA $CFAC		; -> -$68(R0)

D014	39FE		MOVE $1FC, R9
D016	F0F0		BRA $CF27		; -> -$F1(R0)

D018	F0F0		BRA $CF29		; -> -$F1(R0)

D01A	F0F4		BRA $CF27		; -> -$F5(R0)

D01C	F1F2		SUB R1, #$F3
D01E	F4F2		SUB R4, #$F3
D020	F0F7		BRA $CF2A		; -> -$F8(R0)

D022	C7D6		SBC R7, R13
D024	40FE		PUTB $0, (R15)
D026	3C00		MOVE $00, R12
D028	0F6B		ADDH2 R15, R6
D02A	F068		BRA $CFC3		; -> -$69(R0)

D02C	19FE		CTRL $9, #$FE
D02E	3C01		MOVE $02, R12
D030	0F6B		ADDH2 R15, R6
D032	300C		MOVE $18, R0
D034	0F64		MOVE R15, R6
D036	3320		MOVE $40, R3
D038	0F64		MOVE R15, R6
D03A	301C		MOVE $38, R0
D03C	0EB0		DEC2 R14, R11
D03E	D708		MOVE R7, (R0)
D040	00E7		XOR R0, R14
D042	0C08		ADD R12, R0
D044	AC00		ADD R12, #$01
D046	0608		ADD R6, R0
D048	BB80		SET R11, #$80
D04A	08E7		XOR R8, R14
D04C	0808		ADD R8, R0
D04E	8577		LBI R5, #$77
D050	1868		CTRL $8, #$68
D052	A8FE		ADD R8, #$FF
D054	C706		SBC R7, R0
D056	1080		CTRL $0, #$80
D058	C084		SS R0
D05A	68A4		MOVB R8, (R10)-
D05C	E706		
D05E	88C0		LBI R8, #$C0
D060	0468		ADD R4, R6
D062	4FBA		PUTB $F, (R11)
D064	0207		XOR R2, R0
D066	3A80		MOVE $100, R10
D068	1080		CTRL $0, #$80
D06A	C700		SLE R7, R0
D06C	1080		CTRL $0, #$80
D06E	3B80		MOVE $100, R11
D070	1080		CTRL $0, #$80
D072	BA80		SET R10, #$80
D074	88E7		LBI R8, #$E7
D076	0288		ADD R2, R8
D078	BB80		SET R11, #$80
D07A	8830		LBI R8, #$30
D07C	000E		GETB R0, $0
D07E	BAD7		SET R10, #$D7
D080	0C00		DEC2 R12, R0
D082	3410		MOVE $20, R4
D084	0EB4		MOVE R14, R11
D086	3018		MOVE $30, R0
D088	0EB0		DEC2 R14, R11
D08A	F13B		SUB R1, #$3C
D08C	B2FE		SET R2, #$FE
D08E	3510		MOVE $20, R5
D090	0EB4		MOVE R14, R11
D092	3006		MOVE $0C, R0
D094	0EB0		DEC2 R14, R11
D096	3002		MOVE $04, R0
D098	0EBA		ADDH R14, R11
D09A	D708		MOVE R7, (R0)
D09C	00FE		GETB R15, $0
D09E	D704		MOVE R7, (R0)~
D0A0	00E7		XOR R0, R14
D0A2	0C08		ADD R12, R0
D0A4	E702		
D0A6	08E7		XOR R8, R14
D0A8	0C10		DEC2 R12, R1
D0AA	E708		
D0AC	18E7		CTRL $8, #$E7
D0AE	0210		DEC2 R2, R1
D0B0	E700		
D0B2	20E7		JMP ($01CE)

D0B4	0210		DEC2 R2, R1
D0B6	E700		
D0B8	28E7		MOVE R8, $1CE
D0BA	0210		DEC2 R2, R1
D0BC	E700		
D0BE	30E7		MOVE $1CE, R0
D0C0	0210		DEC2 R2, R1
D0C2	E700		
D0C4	38E7		MOVE $1CE, R8
D0C6	0210		DEC2 R2, R1
D0C8	E700		
D0CA	40E7		PUTB $0, (R14)----
D0CC	0210		DEC2 R2, R1
D0CE	E700		
D0D0	48E7		PUTB $8, (R14)----
D0D2	0210		DEC2 R2, R1
D0D4	E700		
D0D6	50E7		MOVE (R14)--, R0
D0D8	0210		DEC2 R2, R1
D0DA	E700		
D0DC	58E7		MOVE (R14)--, R8
D0DE	0210		DEC2 R2, R1
D0E0	E700		
D0E2	60E7		MOVB R0, (R14)----
D0E4	0210		DEC2 R2, R1
D0E6	E700		
D0E8	68E7		MOVB R8, (R14)----
D0EA	0210		DEC2 R2, R1
D0EC	E700		
D0EE	70E7		MOVB (R14)----, R0
D0F0	0210		DEC2 R2, R1
D0F2	E702		
D0F4	08E7		XOR R8, R14
D0F6	0008		ADD R0, R0
D0F8	EC03		
D0FA	0768		ADD R7, R6
D0FC	83ED		LBI R3, #$ED
D0FE	0007		XOR R0, R0
D100	6889		MOVB R8, (R8)
D102	E700		
D104	78FE		MOVB (R15), R8
D106	E700		
D108	78E7		MOVB (R14)----, R8
D10A	0C08		ADD R12, R0
D10C	BB80		SET R11, #$80
D10E	08E7		XOR R8, R14
D110	0808		ADD R8, R0
D112	B802		SET R8, #$02
D114	0768		ADD R7, R6
D116	8FFE		LBI R15, #$FE
D118	E70C		
D11A	08E7		XOR R8, R14
D11C	0008		ADD R0, R0
D11E	B880		SET R8, #$80
D120	0668		ADD R6, R6
D122	9BFE		CLR R11, #$FE
D124	E70C		
D126	08BA		ADDH R8, R11
D128	8008		LBI R0, #$08
D12A	E708		
D12C	08B9		SUB R8, R11
D12E	0107		XOR R1, R0
D130	689B		MOVB R8, (R9)
D132	E700		
D134	80FE		LBI R0, #$FE
D136	CC08		SGT R12, R0
D138	0EBF		GETA R11, $E
D13A	68A0		MOVB R8, (R10)+
D13C	D714		MOVE R7, (R1)~
D13E	00FE		GETB R15, $0
D140	301A		MOVE $34, R0
D142	0EBA		ADDH R14, R11
D144	300E		MOVE $1C, R0
D146	0F64		MOVE R15, R6
D148	3CD2		MOVE $1A4, R12
D14A	0BB4		MOVE R11, R11
D14C	F03B		BRA $D112		; -> -$3C(R0)

D14E	D0FE		JMP (R15)
D150	3F82		MOVE $104, R15
D152	9434		CLR R4, #$34
D154	AE25		ADD R14, #$26
D156	63EF		MOVB R3, (R14)
D158	BF42		SET R15, #$42
D15A	4DB5		PUTB $D, (R11)--
D15C	FD24		SUB R13, #$25
D15E	3711		MOVE $22, R7
D160	3F4F		MOVE $9E, R15
D162	ED5A		
D164	B9F6		SET R9, #$F6
D166	25B1		MOVE R5, $162
D168	3F1A		MOVE $34, R15
D16A	BE78		SET R14, #$78
D16C	2B17		MOVE R11, $2E
D16E	D797		MOVE R7, (R9)--
D170	3F31		MOVE $62, R15
D172	D950		MOVE R9, (R5)'
D174	B379		SET R3, #$79
D176	3EDF		MOVE $1BE, R14
D178	3F38		MOVE $70, R15
D17A	DF50		MOVE R15, (R5)'
D17C	1DA5		CTRL $D, #$A5
D17E	EEFF		STAT R15, $E
D180	3F47		MOVE $8E, R15
D182	1B0C		CTRL $B, #$0C
D184	5D33		MOVE (R3)++, R13
D186	5967		MOVE (R6)--, R9
D188	3F5B		MOVE $B6, R15
D18A	A27A		ADD R2, #$7B
D18C	D755		MOVE R7, (R5)-
D18E	04B9		SUB R4, R11
D190	3F7C		MOVE $F8, R15
D192	71CB		MOVB (R12), R1
D194	34A3		MOVE $146, R4
D196	9F66		CLR R15, #$66
D198	3FB6		MOVE $16C, R15
D19A	DB6D		MOVE R11, (R6)
D19C	9FB5		CLR R15, #$B5
D19E	5B40		MOVE (R4)', R11
D1A0	4013		PUTB $0, (R1)++++
D1A2	3333		MOVE $66, R3
D1A4	3337		MOVE $6E, R3
D1A6	6F72		MOVB R15, (R7)+++
D1A8	402A		PUTB $0, (R2)
D1AA	AAAA		ADD R10, #$AB
D1AC	AAAA		ADD R10, #$AB
D1AE	A5CF		ADD R5, #$D0
D1B0	C0C9		SGE R0, R12
D1B2	0FDA		ADDH R15, R13
D1B4	A221		ADD R2, #$22
D1B6	68C2		MOVB R8, (R12)+++
D1B8	4132		PUTB $1, (R3)+++
D1BA	43F6		PUTB $3, (R15)---
D1BC	A888		ADD R8, #$89
D1BE	5A31		MOVE (R3)+, R10
D1C0	4080		PUTB $0, (R8)+
D1C2	0000		HALT
D1C4	0000		HALT
D1C6	0000		HALT
D1C8	093F		GETA R3, $9
D1CA	05C0		DEC2 R5, R12
D1CC	0040		DEC2 R0, R4
D1CE	0963		INC2 R9, R6
D1D0	0F24		MOVE R15, R2
D1D2	0000		HALT
D1D4	0910		DEC2 R9, R1
D1D6	0F5C		MHL R15, R5
D1D8	0040		DEC2 R0, R4
D1DA	0903		INC2 R9, R0
D1DC	0F7A		ADDH R15, R7
D1DE	00F0		DEC2 R0, R15
D1E0	7310		MOVB (R1)+, R3
D1E2	040C		MHL R4, R0
D1E4	020F		GETA R0, $2
D1E6	7F0B		MOVB (R0), R15
D1E8	69DC		MOVB R9, (R13)
D1EA	7D00		MOVB (R0)+, R13
D1EC	68FE		MOVB R8, (R15)
D1EE	3370		MOVE $E0, R3
D1F0	691B		MOVB R9, (R1)
D1F2	F15F		SUB R1, #$60
D1F4	F8FE		SUB R8, #$FF
D1F6	DD7D		MOVE R13, (R7)
D1F8	0069		SUB R0, R6
D1FA	16FE		CTRL $6, #$FE
D1FC	7310		MOVB (R1)+, R3
D1FE	013C		MHL R1, R3
D200	110F		CTRL $1, #$0F
D202	6D33		MOVB R13, (R3)++++
D204	200F		JMP ($001E)

D206	5CFE		MOVE (R15), R12
D208	DC7D		MOVE R12, (R7)
D20A	0069		SUB R0, R6
D20C	0E3F		GETA R3, $E
D20E	010F		GETA R0, $1
D210	6DC0		MOVB R13, (R12)+
D212	825F		LBI R2, #$5F
D214	F4F1		SUB R4, #$F2
D216	0BF2		INC R11, R15
D218	F069		BRA $D1B0		; -> -$6A(R0)

D21A	04FE		GETB R15, $4
D21C	7310		MOVB (R1)+, R3
D21E	01DC		MHL R1, R13
D220	4000		PUTB $0, (R0)+
D222	691B		MOVB R9, (R1)
D224	DD6B		MOVE R13, (R6)
D226	005F		GETA R5, $0
D228	F473		SUB R4, #$74
D22A	1001		CTRL $0, #$01
D22C	F15F		SUB R1, #$60
D22E	F6FE		SUB R6, #$FF
D230	DD40		MOVE R13, (R4)'
D232	005F		GETA R5, $0
D234	F4FE		SUB R4, #$FF
D236	3B08		MOVE $10, R11
D238	00A2		INC R0, R10
D23A	0901		DEC R9, R0
D23C	0B3C		MHL R11, R3
D23E	0000		HALT
D240	3C01		MOVE $02, R12
D242	0B02		INC R11, R0
D244	C300		SLE R3, R0
D246	0B00		DEC2 R11, R0
D248	3310		MOVE $20, R3
D24A	0F24		MOVE R15, R2
D24C	3350		MOVE $A0, R3
D24E	0200		DEC2 R2, R0
D250	7450		MOVB (R5)+, R4
D252	0033		INC2 R0, R3
D254	5006		MOVE (R0)-~, R0
D256	0074		RET R7

D258	5002		MOVE (R0)+', R0
D25A	F15F		SUB R1, #$60
D25C	E8FE		
D25E	4C01		PUTB $C, (R0)++
D260	040F		GETA R0, $4
D262	7FCD		MOVB (R12), R15
D264	F00F		BRA $D256		; -> -$10(R0)

D266	7A69		MOVB (R6), R10
D268	390D		MOVE $1A, R9
D26A	020F		GETA R0, $2
D26C	7A0F		MOVB (R0), R10
D26E	7B20		MOVB (R2)+, R11
D270	693E		MOVB R9, (R3)
D272	F15F		SUB R1, #$60
D274	F2FE		SUB R2, #$FF
D276	4C01		PUTB $C, (R0)++
D278	060F		GETA R0, $6
D27A	82FE		LBI R2, #$FE
D27C	CD40		SLE R13, R4
D27E	0F5C		MHL R15, R5
D280	6946		MOVB R9, (R4)---
D282	0D0F		GETA R0, $D
D284	0F5C		MHL R15, R5
D286	0F5D		MLH R15, R5
D288	2069		JMP ($00D2)

D28A	4AFE		PUTB $A, (R15)
D28C	3350		MOVE $A0, R3
D28E	0F5C		MHL R15, R5
D290	7450		MOVB (R5)+, R4
D292	08FE		GETB R15, $8
D294	7C90		MOVB (R9)+, R12
D296	10F1		CTRL $0, #$F1
D298	53FC		MOVE (R15), R3
D29A	DC00		MOVE R12, (R0)'
D29C	0C69		SUB R12, R6
D29E	541C		MOVE (R1), R4
D2A0	000B		ADDH2 R0, R0
D2A2	B40C		SET R4, #$0C
D2A4	F05F		BRA $D246		; -> -$60(R0)

D2A6	E2FE		
D2A8	7520		MOVB (R2)+, R5
D2AA	0034		RET R3

D2AC	200F		JMP ($001E)

D2AE	72E5		MOVB (R14)--, R2
D2B0	000C		MHL R0, R0
D2B2	C001		SLT R0, R0
D2B4	5FDC		MOVE (R13), R15
D2B6	DC15		MOVE R12, (R1)-
D2B8	0F69		SUB R15, R6
D2BA	613C		MOVB R1, (R3)
D2BC	3C0B		MOVE $16, R12
D2BE	B4F0		SET R4, #$F0
D2C0	5FE2		MOVE (R14)+', R15
D2C2	3310		MOVE $20, R3
D2C4	0B00		DEC2 R11, R0
D2C6	FB30		SUB R11, #$31
D2C8	2035		JMP ($006A)

D2CA	700B		MOVB (R0), R0
D2CC	61B5		MOVB R1, (R11)--
D2CE	5006		MOVE (R0)-~, R0
D2D0	BB20		SET R11, #$20
D2D2	03BC		MHL R3, R11
D2D4	0102		INC R1, R0
D2D6	E300		
D2D8	00FE		GETB R15, $0
D2DA	B910		SET R9, #$10
D2DC	1169		CTRL $1, #$69
D2DE	6DFE		MOVB R13, (R15)
D2E0	EE80		
D2E2	0C69		SUB R12, R6
D2E4	7E33		MOVB (R3)++++, R14
D2E6	80F0		LBI R0, #$F0
D2E8	F9E4		SUB R9, #$E5
D2EA	800C		LBI R0, #$0C
D2EC	2069		JMP ($00D2)

D2EE	9233		CLR R2, #$33
D2F0	80F1		LBI R0, #$F1
D2F2	F0E4		BRA $D20F		; -> -$E5(R0)

D2F4	800C		LBI R0, #$0C
D2F6	2069		JMP ($00D2)

D2F8	92F0		CLR R2, #$F0
D2FA	0100		DEC2 R1, R0
D2FC	FB00		SUB R11, #$01
D2FE	1033		CTRL $0, #$33
D300	8000		LBI R0, #$00
D302	01F9		SUB R1, R15
D304	0080		DEC2 R0, R8
D306	F800		SUB R8, #$01
D308	50C0		MOVE (R12)', R0
D30A	A001		BRA $D30E		; $02(R0)

D30C	00FA		ADDH R0, R15
D30E	0070		DEC2 R0, R7
D310	0001		DEC R0, R0
D312	00B5		AND R0, R11
D314	2004		JMP ($0008)

D316	6450		MOVB R4, (R5)+
D318	0000		HALT
D31A	FB20		SUB R11, #$21
D31C	30F8		MOVE $1F0, R0
D31E	1050		CTRL $0, #$50
D320	F069		BRA $D2B8		; -> -$6A(R0)

D322	6BFE		MOVB R11, (R15)
D324	FF0B		SUB R15, #$0C
D326	01F0		DEC2 R1, R15
D328	0100		DEC2 R1, R0
D32A	2C01		MOVE R12, $02
D32C	0DB5		AND R13, R11
D32E	0434		MOVE R4, R3
D330	200D		JMP ($001A)

D332	B73A		SET R7, #$3A
D334	010B		ADDH2 R1, R0
D336	A333		ADD R3, #$34
D338	0047		XOR R0, R4
D33A	D4E5		MOVE R4, (R14)-
D33C	2000		JMP ($0000)

D33E	C081		SLT R0, R8
D340	69A6		MOVB R9, (R10)---
D342	2C01		MOVE R12, $02
D344	0B67		XOR R11, R6
D346	0433		INC2 R4, R3
D348	003B		ADDH2 R0, R3
D34A	DCFE		MOVE R12, (R15)
D34C	3400		MOVE $00, R4
D34E	0B6E		GETB R6, $B
D350	F03B		BRA $D316		; -> -$3C(R0)

D352	CCFE		SNBC R12, R15
D354	0903		INC2 R9, R0
D356	0EE2		INC R14, R14
D358	0000		HALT
D35A	F03B		BRA $D320		; -> -$3C(R0)

D35C	D8FE		MOVE R8, (R15)
D35E	0901		DEC R9, R0
D360	0EE6		OR R14, R14
D362	0000		HALT
D364	ECFF		STAT R15, $C
D366	073B		ADDH2 R7, R3
D368	D82C		MOVE R8, (R2)
D36A	010D		MLH R1, R0
D36C	AB07		ADD R11, #$08
D36E	F13B		SUB R1, #$3C
D370	B4FE		SET R4, #$FE
D372	3520		MOVE $40, R5
D374	0B65		AND R11, R6
D376	2C01		MOVE R12, $02
D378	0EE6		OR R14, R14
D37A	07F0		DEC2 R7, R15
D37C	3BD8		MOVE $1B0, R11
D37E	3908		MOVE $10, R9
D380	0DBF		GETA R11, $D
D382	69D4		MOVB R9, (R13)-
D384	F16B		SUB R1, #$6C
D386	E6FE		
D388	3A08		MOVE $10, R10
D38A	0DBF		GETA R11, $D
D38C	0C01		DEC R12, R0
D38E	0DAB		ADDH2 R13, R10
D390	0EE6		OR R14, R14
D392	F13B		SUB R1, #$3C
D394	B4FE		SET R4, #$FE
D396	3B08		MOVE $10, R11
D398	0DBF		GETA R11, $D
D39A	0901		DEC R9, R0
D39C	0BB6		OR R11, R11
D39E	0000		HALT
D3A0	3C00		MOVE $00, R12
D3A2	0BB4		MOVE R11, R11
D3A4	F03B		BRA $D36A		; -> -$3C(R0)

D3A6	D6FE		MOVE R6, (R15)
D3A8	3B08		MOVE $10, R11
D3AA	0DBF		GETA R11, $D
D3AC	0901		DEC R9, R0
D3AE	0EE6		OR R14, R14
D3B0	0000		HALT
D3B2	F03B		BRA $D378		; -> -$3C(R0)

D3B4	CEFE		SNBC R14, R15
D3B6	300C		MOVE $18, R0
D3B8	0FA4		MOVE R15, R10
D3BA	3A08		MOVE $10, R10
D3BC	0DBF		GETA R11, $D
D3BE	3310		MOVE $20, R3
D3C0	0FAA		ADDH R15, R10
D3C2	4504		PUTB $5, (R0)-
D3C4	006A		ADDH R0, R6
D3C6	13FE		CTRL $3, #$FE
D3C8	F183		SUB R1, #$84
D3CA	E4FE		
D3CC	3520		MOVE $40, R5
D3CE	0DB2		INC R13, R11
D3D0	F183		SUB R1, #$84
D3D2	E4FE		
D3D4	3B08		MOVE $10, R11
D3D6	0DBF		GETA R11, $D
D3D8	4907		PUTB $9, (R0)----
D3DA	0000		HALT
D3DC	004C		MHL R0, R4
D3DE	0106		OR R1, R0
D3E0	0B67		XOR R11, R6
D3E2	D726		MOVE R7, (R2)-~
D3E4	00E7		XOR R0, R14
D3E6	0C00		DEC2 R12, R0
D3E8	4907		PUTB $9, (R0)----
D3EA	0000		HALT
D3EC	00CC		MHL R0, R12
D3EE	000B		ADDH2 R0, R0
D3F0	B46A		SET R4, #$6A
D3F2	06FE		GETB R15, $6
D3F4	3200		MOVE $00, R2
D3F6	0BB4		MOVE R11, R11
D3F8	3320		MOVE $40, R3
D3FA	01F4		MOVE R1, R15
D3FC	F820		SUB R8, #$21
D3FE	0074		RET R7

D400	2001		JMP ($0002)

D402	7C44		MOVB (R4)-, R12
D404	00D7		XOR R0, R13
D406	0A00		DEC2 R10, R0
D408	F06A		BRA $D39F		; -> -$6B(R0)

D40A	0DFE		GETB R15, $D
D40C	CE20		SLE R14, R2
D40E	0BB6		OR R11, R11
D410	69FA		MOVB R9, (R15)
D412	6A01		MOVB R10, (R0)++
D414	070C		MHL R7, R0
D416	D726		MOVE R7, (R2)-~
D418	00FE		GETB R15, $0
D41A	3520		MOVE $40, R5
D41C	0DB2		INC R13, R11
D41E	E70C		
D420	0030		DEC2 R0, R3
D422	0E0F		GETA R0, $E
D424	A4FE		ADD R4, #$FF
D426	50F1		MOVE (R15)+, R0
D428	50F0		MOVE (R15)', R0
D42A	40FE		PUTB $0, (R15)
D42C	0941		DEC R9, R4
D42E	108C		CTRL $0, #$8C
D430	0040		DEC2 R0, R4
D432	3320		MOVE $40, R3
D434	108C		CTRL $0, #$8C
D436	F12F		SUB R1, #$30
D438	F8FE		SUB R8, #$FF
D43A	3320		MOVE $40, R3
D43C	10D1		CTRL $0, #$D1
D43E	3340		MOVE $80, R3
D440	013F		GETA R3, $1
D442	3CFF		MOVE $1FE, R12
D444	10CE		CTRL $0, #$CE
D446	0440		DEC2 R4, R4
D448	10CF		CTRL $0, #$CF
D44A	10CE		CTRL $0, #$CE
D44C	0F10		DEC2 R15, R1
D44E	10CE		CTRL $0, #$CE
D450	10CE		CTRL $0, #$CE
D452	3310		MOVE $20, R3
D454	108C		CTRL $0, #$8C
D456	0D01		DEC R13, R0
D458	0BAC		MHL R11, R10
D45A	0BAA		ADDH R11, R10
D45C	106A		CTRL $0, #$6A
D45E	333C		MOVE $78, R3
D460	1B0B		CTRL $B, #$0B
D462	B4F0		SET R4, #$F0
D464	8FEE		LBI R15, #$EE
D466	3300		MOVE $00, R3
D468	0005		AND R0, R0
D46A	4000		PUTB $0, (R0)+
D46C	0002		INC R0, R0
D46E	82FE		LBI R2, #$FE
D470	206A		JMP ($00D4)

D472	7940		MOVB (R4)+, R9
D474	0000		HALT
D476	026A		ADDH R2, R6
D478	206A		JMP ($00D4)

D47A	7D33		MOVB (R3)++++, R13
D47C	0000		HALT
D47E	0340		DEC2 R3, R4
D480	0000		HALT
D482	0286		OR R2, R8
D484	206A		JMP ($00D4)

D486	6540		MOVB R5, (R4)+
D488	0000		HALT
D48A	0231		DEC R2, R3
D48C	206A		JMP ($00D4)

D48E	7533		MOVB (R3)++++, R5
D490	6010		MOVB R0, (R1)+
D492	CBFE		SNBC R11, R15
D494	DC7E		MOVE R12, (R7)
D496	006A		ADDH R0, R6
D498	53FA		MOVE (R15), R3
D49A	1060		CTRL $0, #$60
D49C	206A		JMP ($00D4)

D49E	5973		MOVE (R7)++, R9
D4A0	1001		CTRL $0, #$01
D4A2	F06A		BRA $D439		; -> -$6B(R0)

D4A4	4AFE		PUTB $A, (R15)
D4A6	3310		MOVE $20, R3
D4A8	108C		CTRL $0, #$8C
D4AA	3C33		MOVE $66, R12
D4AC	10D0		CTRL $0, #$D0
D4AE	F083		BRA $D42C		; -> -$84(R0)

D4B0	E6FE		
D4B2	3310		MOVE $20, R3
D4B4	108C		CTRL $0, #$8C
D4B6	3300		MOVE $00, R3
D4B8	0002		INC R0, R0
D4BA	4000		PUTB $0, (R0)+
D4BC	0002		INC R0, R0
D4BE	D8FE		MOVE R8, (R15)
D4C0	206A		JMP ($00D4)

D4C2	813C		LBI R1, #$3C
D4C4	0010		DEC2 R0, R1
D4C6	D0F0		JMP (R15)'
D4C8	3BF6		MOVE $1EC, R11
D4CA	3310		MOVE $20, R3
D4CC	108F		CTRL $0, #$8F
D4CE	3300		MOVE $00, R3
D4D0	0005		AND R0, R0
D4D2	4000		PUTB $0, (R0)+
D4D4	0002		INC R0, R0
D4D6	82FE		LBI R2, #$FE
D4D8	206A		JMP ($00D4)

D4DA	713C		MOVB (R3), R1
D4DC	2F10		MOVE R15, $20
D4DE	D0F0		JMP (R15)'
D4E0	77E8		MOVB (R14), R7
D4E2	3C01		MOVE $02, R12
D4E4	10D0		CTRL $0, #$D0
D4E6	F03B		BRA $D4AC		; -> -$3C(R0)

D4E8	F8FE		SUB R8, #$FF
D4EA	3C2D		MOVE $5A, R12
D4EC	10D0		CTRL $0, #$D0
D4EE	F083		BRA $D46C		; -> -$84(R0)

D4F0	ECFE		
D4F2	3C00		MOVE $00, R12
D4F4	10D0		CTRL $0, #$D0
D4F6	F03B		BRA $D4BC		; -> -$3C(R0)

D4F8	F8FE		SUB R8, #$FF
D4FA	3C18		MOVE $30, R12
D4FC	10D0		CTRL $0, #$D0
D4FE	F03B		BRA $D4C4		; -> -$3C(R0)

D500	E8FE		
D502	3C00		MOVE $00, R12
D504	0B5A		ADDH R11, R5
D506	F00B		BRA $D4FC		; -> -$0C(R0)

D508	E6FE		
D50A	300C		MOVE $18, R0
D50C	0FCC		MHL R15, R12
D50E	3510		MOVE $20, R5
D510	0DB9		SUB R13, R11
D512	3520		MOVE $40, R5
D514	0B63		INC2 R11, R6
D516	B320		SET R3, #$20
D518	01F7		XOR R1, R15
D51A	2000		JMP ($0000)

D51C	F620		SUB R6, #$21
D51E	0033		INC2 R0, R3
D520	8000		LBI R0, #$00
D522	44F8		PUTB $4, (R15)
D524	8020		LBI R0, #$20
D526	C0A0		SLE R0, R10
D528	6AD6		MOVB R10, (R13)---
D52A	C480		SLE R4, R8
D52C	0DB0		DEC2 R13, R11
D52E	086A		ADDH R8, R6
D530	D689		MOVE R6, (R8)
D532	4300		PUTB $3, (R0)+
D534	0000		HALT
D536	B380		SET R3, #$80
D538	44B4		PUTB $4, (R11)-
D53A	8004		LBI R0, #$04
D53C	9C01		CLR R12, #$01
D53E	0000		HALT
D540	BC00		SET R12, #$00
D542	02E3		INC2 R2, R14
D544	0000		HALT
D546	B940		SET R9, #$40
D548	0323		INC2 R3, R2
D54A	E4FE		
D54C	FB80		SUB R11, #$81
D54E	20B5		JMP ($016A)

D550	2004		JMP ($0008)

D552	6D07		MOVB R13, (R0)----
D554	3A04		MOVE $08, R10
D556	286A		MOVE R8, $D4
D558	D4FB		MOVE R4, (R15)
D55A	2080		JMP ($0100)

D55C	B380		SET R3, #$80
D55E	44B4		PUTB $4, (R11)-
D560	800A		LBI R0, #$0A
D562	B680		SET R6, #$80
D564	08C0		DEC2 R8, R12
D566	A06A		BRA $D5D3		; $6B(R0)

D568	D6B4		MOVE R6, (R11)~
D56A	8004		LBI R0, #$04
D56C	B680		SET R6, #$80
D56E	06C0		DEC2 R6, R12
D570	A06A		BRA $D5DD		; $6B(R0)

D572	D6C4		MOVE R6, (R12)~
D574	800D		LBI R0, #$0D
D576	B008		SET R0, #$08
D578	6AD6		MOVB R10, (R13)---
D57A	9C01		CLR R12, #$01
D57C	081A		ADDH R8, R1
D57E	BC04		SET R12, #$04
D580	02E3		INC2 R2, R14
D582	0000		HALT
D584	B910		SET R9, #$10
D586	116A		CTRL $1, #$6A
D588	C2FE		SNBC R2, R15
D58A	ED00		
D58C	0C6A		ADDH R12, R6
D58E	D4B5		MOVE R4, (R11)-
D590	200E		JMP ($001C)

D592	9D10		CLR R13, #$10
D594	0529		SUB R5, R2
D596	286A		MOVE R8, $D4
D598	D47B		MOVE R4, (R7)
D59A	4015		PUTB $0, (R1)--
D59C	0E50		DEC2 R14, R5
D59E	0FD0		DEC2 R15, R13
D5A0	0EDB		ADDH2 R14, R13
D5A2	0E50		DEC2 R14, R5
D5A4	0FD0		DEC2 R15, R13
D5A6	0EDB		ADDH2 R14, R13
D5A8	300E		MOVE $1C, R0
D5AA	0FCC		MHL R15, R12
D5AC	3C79		MOVE $F2, R12
D5AE	0BB4		MOVE R11, R11
D5B0	F03B		BRA $D576		; -> -$3C(R0)

D5B2	CEFE		SNBC R14, R15
D5B4	300C		MOVE $18, R0
D5B6	0C5C		MHL R12, R5
D5B8	3510		MOVE $20, R5
D5BA	0DB9		SUB R13, R11
D5BC	3200		MOVE $00, R2
D5BE	0EB6		OR R14, R11
D5C0	CD00		SLE R13, R0
D5C2	0EB6		OR R14, R11
D5C4	6AE5		MOVB R10, (R14)--
D5C6	3500		MOVE $00, R5
D5C8	0EBE		GETB R11, $E
D5CA	7520		MOVB (R2)+, R5
D5CC	16FB		CTRL $6, #$FB
D5CE	3020		MOVE $40, R0
D5D0	F830		SUB R8, #$31
D5D2	0075		AND R0, R7
D5D4	4024		PUTB $0, (R2)-
D5D6	7640		MOVB (R4)+, R6
D5D8	1CFA		CTRL $C, #$FA
D5DA	3040		MOVE $80, R0
D5DC	008F		GETA R8, $0
D5DE	E074		
D5E0	3016		MOVE $2C, R0
D5E2	3510		MOVE $20, R5
D5E4	0EB4		MOVE R14, R11
D5E6	9400		CLR R4, #$00
D5E8	0000		HALT
D5EA	CC00		SLE R12, R0
D5EC	0EB6		OR R14, R11
D5EE	6AFF		MOVB R10, (R15)
D5F0	C410		SLE R4, R1
D5F2	0EC2		INC R14, R12
D5F4	106B		CTRL $0, #$6B
D5F6	0134		MOVE R1, R3
D5F8	100E		CTRL $0, #$0E
D5FA	C4F0		SLE R4, R15
D5FC	6B01		MOVB R11, (R0)++
D5FE	3002		MOVE $04, R0
D600	0EBA		ADDH R14, R11
D602	3006		MOVE $0C, R0
D604	0EB0		DEC2 R14, R11
D606	3520		MOVE $40, R5
D608	0DB9		SUB R13, R11
D60A	3904		MOVE $08, R9
D60C	0ED6		OR R14, R13
D60E	53EC		MOVE (R14), R3
D610	300E		MOVE $1C, R0
D612	0C5C		MHL R12, R5
D614	3480		MOVE $100, R4
D616	1066		CTRL $0, #$66
D618	BC3D		SET R12, #$3D
D61A	00BC		MHL R0, R11
D61C	0401		DEC R4, R0
D61E	BC4D		SET R12, #$4D
D620	02B3		INC2 R2, R11
D622	2003		JMP ($0006)

D624	7310		MOVB (R1)+, R3
D626	04F1		DEC R4, R15
D628	8FF6		LBI R15, #$F6
D62A	DD6B		MOVE R13, (R6)
D62C	006B		ADDH2 R0, R6
D62E	27F1		MOVE R7, $1E2
D630	0BF2		INC R11, R15
D632	F18F		SUB R1, #$90
D634	F8FE		SUB R8, #$FF
D636	DD6B		MOVE R13, (R6)
D638	006B		ADDH2 R0, R6
D63A	21F1		MOVE R1, $1E2
D63C	0BF2		INC R11, R15
D63E	F18F		SUB R1, #$90
D640	F8FE		SUB R8, #$FF
D642	DD5D		MOVE R13, (R5)
D644	006B		ADDH2 R0, R6
D646	27F1		MOVE R7, $1E2
D648	0BF2		INC R11, R15
D64A	3100		MOVE $00, R1
D64C	1066		CTRL $0, #$66
D64E	3C00		MOVE $00, R12
D650	0B5A		ADDH R11, R5
D652	F00B		BRA $D648		; -> -$0C(R0)

D654	E6FE		
D656	3310		MOVE $20, R3
D658	0B22		INC R11, R2
D65A	3410		MOVE $20, R4
D65C	0DB9		SUB R13, R11
D65E	5E10		MOVE (R1)', R14
D660	1606		CTRL $6, #$06
D662	3330		MOVE $60, R3
D664	77F0		MOVB (R15)+, R7
D666	3430		MOVE $60, R4
D668	0DB5		AND R13, R11
D66A	B310		SET R3, #$10
D66C	07F1		DEC R7, R15
D66E	8FEC		LBI R15, #$EC
D670	EC1D		
D672	063B		ADDH2 R6, R3
D674	B8F0		SET R8, #$F0
D676	2FF2		MOVE R15, $1E4
D678	0000		HALT
D67A	0000		HALT
D67C	0000		HALT
D67E	0000		HALT
D680	0000		HALT
D682	0000		HALT
D684	0000		HALT
D686	0000		HALT
D688	0000		HALT
D68A	0000		HALT
D68C	0000		HALT
D68E	0000		HALT
D690	0000		HALT
D692	0000		HALT
D694	0000		HALT
D696	0000		HALT
D698	0000		HALT
D69A	0000		HALT
D69C	0000		HALT
D69E	0000		HALT
D6A0	0000		HALT
D6A2	0000		HALT
D6A4	0000		HALT
D6A6	0000		HALT
D6A8	0000		HALT
D6AA	0000		HALT
D6AC	0000		HALT
D6AE	0000		HALT
D6B0	0000		HALT
D6B2	0000		HALT
D6B4	0000		HALT
D6B6	0000		HALT
D6B8	0000		HALT
D6BA	0000		HALT
D6BC	0000		HALT
D6BE	0000		HALT
D6C0	0000		HALT
D6C2	0000		HALT
D6C4	0000		HALT
D6C6	0000		HALT
D6C8	0000		HALT
D6CA	0000		HALT
D6CC	0000		HALT
D6CE	0000		HALT
D6D0	0000		HALT
D6D2	0000		HALT
D6D4	0000		HALT
D6D6	0000		HALT
D6D8	0000		HALT
D6DA	0000		HALT
D6DC	0000		HALT
D6DE	0000		HALT
D6E0	0000		HALT
D6E2	0000		HALT
D6E4	0000		HALT
D6E6	0000		HALT
D6E8	0000		HALT
D6EA	0000		HALT
D6EC	0000		HALT
D6EE	0000		HALT
D6F0	0000		HALT
D6F2	0000		HALT
D6F4	0000		HALT
D6F6	0000		HALT
D6F8	0000		HALT
D6FA	0000		HALT
D6FC	0000		HALT
D6FE	0000		HALT
D700	0000		HALT
D702	0000		HALT
D704	0000		HALT
D706	0000		HALT
D708	0000		HALT
D70A	0000		HALT
D70C	0000		HALT
D70E	0000		HALT
D710	0000		HALT
D712	0000		HALT
D714	0000		HALT
D716	0000		HALT
D718	0000		HALT
D71A	0000		HALT
D71C	0000		HALT
D71E	0000		HALT
D720	0000		HALT
D722	0000		HALT
D724	0000		HALT
D726	0000		HALT
D728	0000		HALT
D72A	0000		HALT
D72C	0000		HALT
D72E	0000		HALT
D730	0000		HALT
D732	0000		HALT
D734	0000		HALT
D736	0000		HALT
D738	0000		HALT
D73A	0000		HALT
D73C	0000		HALT
D73E	0000		HALT
D740	0000		HALT
D742	0000		HALT
D744	0000		HALT
D746	0000		HALT
D748	0000		HALT
D74A	0000		HALT
D74C	0000		HALT
D74E	0000		HALT
D750	0000		HALT
D752	0000		HALT
D754	0000		HALT
D756	0000		HALT
D758	0000		HALT
D75A	0000		HALT
D75C	0000		HALT
D75E	0000		HALT
D760	0000		HALT
D762	0000		HALT
D764	0000		HALT
D766	0000		HALT
D768	0000		HALT
D76A	0000		HALT
D76C	0000		HALT
D76E	0000		HALT
D770	0000		HALT
D772	0000		HALT
D774	0000		HALT
D776	0000		HALT
D778	0000		HALT
D77A	0000		HALT
D77C	0000		HALT
D77E	0000		HALT
D780	0000		HALT
D782	0000		HALT
D784	0000		HALT
D786	0000		HALT
D788	0000		HALT
D78A	0000		HALT
D78C	0000		HALT
D78E	0000		HALT
D790	0000		HALT
D792	0000		HALT
D794	0000		HALT
D796	0000		HALT
D798	0000		HALT
D79A	0000		HALT
D79C	0000		HALT
D79E	0000		HALT
D7A0	0000		HALT
D7A2	0000		HALT
D7A4	0000		HALT
D7A6	0000		HALT
D7A8	0000		HALT
D7AA	0000		HALT
D7AC	0000		HALT
D7AE	0000		HALT
D7B0	0000		HALT
D7B2	0000		HALT
D7B4	0000		HALT
D7B6	0000		HALT
D7B8	F06B		BRA $D74E		; -> -$6C(R0)

D7BA	2B00		MOVE R11, $00
D7BC	F06B		BRA $D752		; -> -$6C(R0)

D7BE	0A00		DEC2 R10, R0
D7C0	F06A		BRA $D757		; -> -$6B(R0)

D7C2	DA00		MOVE R10, (R0)'
D7C4	F06A		BRA $D75B		; -> -$6B(R0)

D7C6	8500		LBI R5, #$00
D7C8	F06A		BRA $D75F		; -> -$6B(R0)

D7CA	1600		CTRL $6, #$00
D7CC	F069		BRA $D764		; -> -$6A(R0)

D7CE	DB00		MOVE R11, (R0)'
D7D0	F069		BRA $D768		; -> -$6A(R0)

D7D2	BF00		SET R15, #$00
D7D4	F069		BRA $D76C		; -> -$6A(R0)

D7D6	AF00		ADD R15, #$01
D7D8	F069		BRA $D770		; -> -$6A(R0)

D7DA	AA00		ADD R10, #$01
D7DC	F069		BRA $D774		; -> -$6A(R0)

D7DE	9500		CLR R5, #$00
D7E0	F068		BRA $D779		; -> -$69(R0)

D7E2	E400		
D7E4	F068		BRA $D77D		; -> -$69(R0)

D7E6	1700		CTRL $7, #$00
D7E8	F068		BRA $D781		; -> -$69(R0)

D7EA	1300		CTRL $3, #$00
D7EC	F066		BRA $D787		; -> -$67(R0)

D7EE	D700		MOVE R7, (R0)'
D7F0	F065		BRA $D78C		; -> -$66(R0)

D7F2	2500		MOVE R5, $00
D7F4	F063		BRA $D792		; -> -$64(R0)

D7F6	0600		DEC2 R6, R0
D7F8	F060		BRA $D799		; -> -$61(R0)

D7FA	0000		HALT
D7FC	0418		ADD R4, R1
D7FE	5C76		MOVE (R7)-~, R12
D800	0951		DEC R9, R5
D802	0FA4		MOVE R15, R10
D804	0000		HALT
D806	B310		SET R3, #$10
D808	07F1		DEC R7, R15
D80A	83DA		LBI R3, #$DA
D80C	3420		MOVE $40, R4
D80E	0EB4		MOVE R14, R11
D810	3004		MOVE $08, R0
D812	0EB0		DEC2 R14, R11
D814	DD4D		MOVE R13, (R4)
D816	006C		MHL R0, R6
D818	4C73		PUTB $C, (R7)++++
D81A	1001		CTRL $0, #$01
D81C	F16B		SUB R1, #$6C
D81E	FCFE		SUB R12, #$FF
D820	DD5D		MOVE R13, (R5)
D822	006C		MHL R0, R6
D824	1709		CTRL $7, #$09
D826	010F		GETA R0, $1
D828	F200		SUB R2, #$01
D82A	00F0		DEC2 R0, R15
D82C	6C26		MOVB R12, (R2)---
D82E	7310		MOVB (R1)+, R3
D830	01F1		DEC R1, R15
D832	6BFC		MOVB R11, (R15)
D834	F12F		SUB R1, #$30
D836	E2FE		
D838	39C0		MOVE $180, R9
D83A	0DBB		ADDH2 R13, R11
D83C	6EC6		MOVB R14, (R12)---
D83E	C550		SLE R5, R5
D840	0DBB		ADDH2 R13, R11
D842	C081		SLT R0, R8
D844	6EC6		MOVB R14, (R12)---
D846	0C01		DEC R12, R0
D848	0FF2		INC R15, R15
D84A	0DBB		ADDH2 R13, R11
D84C	F12F		SUB R1, #$30
D84E	E2FE		
D850	39C0		MOVE $180, R9
D852	0DBB		ADDH2 R13, R11
D854	6EC6		MOVB R14, (R12)---
D856	C550		SLE R5, R5
D858	0DBB		ADDH2 R13, R11
D85A	C081		SLT R0, R8
D85C	6EC6		MOVB R14, (R12)---
D85E	FB30		SUB R11, #$31
D860	1033		CTRL $0, #$33
D862	100F		CTRL $0, #$0F
D864	A44C		ADD R4, #$4D
D866	014C		MHL R1, R4
D868	0DBB		ADDH2 R13, R11
D86A	1C03		CTRL $C, #$03
D86C	0F1A		ADDH R15, R1
D86E	4CD5		PUTB $C, (R13)--
D870	504E		MOVE (R4), R0
D872	C001		SLT R0, R0
D874	6C3E		MOVB R12, (R3)
D876	0C01		DEC R12, R0
D878	0F1C		MHL R15, R1
D87A	0EDB		ADDH2 R14, R13
D87C	F15F		SUB R1, #$60
D87E	BEFE		SET R14, #$FE
D880	C0A0		SLE R0, R10
D882	6EC6		MOVB R14, (R12)---
D884	3520		MOVE $40, R5
D886	0EB4		MOVE R14, R11
D888	8D01		LBI R13, #$01
D88A	040F		GETA R0, $4
D88C	1610		CTRL $6, #$10
D88E	6ECA		MOVB R14, (R12)
D890	9C03		CLR R12, #$03
D892	004C		MHL R0, R4
D894	FB10		SUB R11, #$11
D896	30FE		MOVE $1FC, R0
D898	3008		MOVE $10, R0
D89A	007E		GETB R7, $0
D89C	7310		MOVB (R1)+, R3
D89E	01DD		MLH R1, R13
D8A0	4D00		PUTB $D, (R0)+
D8A2	6CC3		MOVB R12, (R12)++++
D8A4	3520		MOVE $40, R5
D8A6	0B65		AND R11, R6
D8A8	7310		MOVB (R1)+, R3
D8AA	01F1		DEC R1, R15
D8AC	6BFC		MOVB R11, (R15)
D8AE	7310		MOVB (R1)+, R3
D8B0	010C		MHL R1, R0
D8B2	000C		MHL R0, R0
D8B4	630E		MOVB R3, (R0)
D8B6	B60C		SET R6, #$0C
D8B8	010F		GETA R0, $1
D8BA	F40E		SUB R4, #$0F
D8BC	B430		SET R4, #$30
D8BE	060E		GETB R0, $6
D8C0	B035		SET R0, #$35
D8C2	200E		JMP ($001C)

D8C4	B430		SET R4, #$30
D8C6	060E		GETB R0, $6
D8C8	B0F1		SET R0, #$F1
D8CA	6E7F		MOVB R14, (R7)
D8CC	0C0F		GETA R0, $C
D8CE	0FA7		XOR R15, R10
D8D0	0FDD		MLH R15, R13
D8D2	DC5C		MOVE R12, (R5)
D8D4	006C		MHL R0, R6
D8D6	9E35		CLR R14, #$35
D8D8	100F		CTRL $0, #$0F
D8DA	F4CD		SUB R4, #$CE
D8DC	000C		MHL R0, R0
D8DE	636C		MOVB R3, (R6)
D8E0	7830		MOVB (R3)+, R8
D8E2	020E		GETB R0, $2
D8E4	BA3C		SET R10, #$3C
D8E6	000E		GETB R0, $0
D8E8	D935		MOVE R9, (R3)-
D8EA	300E		MOVE $1C, R0
D8EC	BEF0		SET R14, #$F0
D8EE	6C8B		MOVB R12, (R8)
D8F0	C410		SLE R4, R1
D8F2	0EC2		INC R14, R12
D8F4	086C		MHL R8, R6
D8F6	7E34		MOVB (R3)-, R14
D8F8	100E		CTRL $0, #$0E
D8FA	C4FE		SNBC R4, R15
D8FC	3230		MOVE $60, R2
D8FE	0C63		INC2 R12, R6
D900	0C00		DEC2 R12, R0
D902	0ED9		SUB R14, R13
D904	0FAE		GETB R10, $F
D906	3F01		MOVE $02, R15
D908	0ED9		SUB R14, R13
D90A	C430		SLE R4, R3
D90C	0FAD		MLH R15, R10
D90E	006C		MHL R0, R6
D910	8B35		LBI R11, #$35
D912	300F		MOVE $1E, R0
D914	ADFE		ADD R13, #$FF
D916	FB20		SUB R11, #$21
D918	10FE		CTRL $0, #$FE
D91A	3310		MOVE $20, R3
D91C	0FA7		XOR R15, R10
D91E	F16E		SUB R1, #$6F
D920	A7FE		ADD R7, #$FF
D922	7510		MOVB (R1)+, R5
D924	047C		MHL R4, R7
D926	4000		PUTB $0, (R0)+
D928	C500		SLE R5, R0
D92A	0ED8		ADD R14, R13
D92C	C081		SLT R0, R8
D92E	6C9A		MOVB R12, (R9)
D930	5400		MOVE (R0)', R4
D932	0100		DEC2 R1, R0
D934	6430		MOVB R4, (R3)+
D936	0000		HALT
D938	F06C		BRA $D8CD		; -> -$6D(R0)

D93A	8DFE		LBI R13, #$FE
D93C	7310		MOVB (R1)+, R3
D93E	01F1		DEC R1, R15
D940	83DA		LBI R3, #$DA
D942	3310		MOVE $20, R3
D944	0FA4		MOVE R15, R10
D946	F16E		SUB R1, #$6F
D948	7FFE		MOVB (R15), R15
D94A	5C0F		MOVE (R0), R12
D94C	1639		CTRL $6, #$39
D94E	5D03		MOVE (R0)++, R13
D950	1603		CTRL $6, #$03
D952	286E		MOVE R8, $DC
D954	CE75		SBS R14, R7
D956	1050		CTRL $0, #$50
D958	1C07		CTRL $C, #$07
D95A	0FF6		OR R15, R15
D95C	0030		DEC2 R0, R3
D95E	020E		GETB R0, $2
D960	BAFE		SET R10, #$FE
D962	3310		MOVE $20, R3
D964	0FBA		ADDH R15, R11
D966	F16E		SUB R1, #$6F
D968	A7FE		ADD R7, #$FF
D96A	7520		MOVB (R2)+, R5
D96C	04E7		XOR R4, R14
D96E	0800		DEC2 R8, R0
D970	C702		SE R7, R0
D972	0FF6		OR R15, R15
D974	3310		MOVE $20, R3
D976	0FA7		XOR R15, R10
D978	F16E		SUB R1, #$6F
D97A	A7FE		ADD R7, #$FF
D97C	7520		MOVB (R2)+, R5
D97E	04E7		XOR R4, R14
D980	0C00		DEC2 R12, R0
D982	F06C		BRA $D917		; -> -$6D(R0)

D984	B1FE		SET R1, #$FE
D986	095B		ADDH2 R9, R5
D988	0FA4		MOVE R15, R10
D98A	0000		HALT
D98C	0C01		DEC R12, R0
D98E	0FFE		GETB R15, $F
D990	0EBE		GETB R11, $E
D992	3520		MOVE $40, R5
D994	0EB4		MOVE R14, R11
D996	FB30		SUB R11, #$31
D998	2030		JMP ($0060)

D99A	060E		GETB R0, $6
D99C	B0F1		SET R0, #$F1
D99E	6E7F		MOVB R14, (R7)
D9A0	3320		MOVE $40, R3
D9A2	0FA4		MOVE R15, R10
D9A4	AC0F		ADD R12, #$10
D9A6	0339		SUB R3, R3
D9A8	3300		MOVE $00, R3
D9AA	0003		INC2 R0, R0
D9AC	4000		PUTB $0, (R0)+
D9AE	0002		INC R0, R0
D9B0	F5FE		SUB R5, #$FF
D9B2	206D		JMP ($00DA)

D9B4	BA40		SET R10, #$40
D9B6	0000		HALT
D9B8	02F9		SUB R2, R15
D9BA	206E		JMP ($00DC)

D9BC	4640		PUTB $6, (R4)+
D9BE	0000		HALT
D9C0	02F7		XOR R2, R15
D9C2	206D		JMP ($00DA)

D9C4	EA40		
D9C6	0000		HALT
D9C8	029B		ADDH2 R2, R9
D9CA	206E		JMP ($00DC)

D9CC	5C40		MOVE (R4)', R12
D9CE	0000		HALT
D9D0	029E		GETB R9, $2
D9D2	206E		JMP ($00DC)

D9D4	60F1		MOVB R0, (R15)++
D9D6	83DA		LBI R3, #$DA
D9D8	F16E		SUB R1, #$6F
D9DA	7FFE		MOVB (R15), R15
D9DC	0C0F		GETA R0, $C
D9DE	0FBA		ADDH R15, R11
D9E0	0FDD		MLH R15, R13
D9E2	DAFE		MOVE R10, (R15)
D9E4	006D		MLH R0, R6
D9E6	240D		MOVE R4, $1A
D9E8	030F		GETA R0, $3
D9EA	BA0F		SET R10, #$0F
D9EC	A728		ADD R7, #$29
D9EE	6ECE		MOVB R14, (R12)
D9F0	3530		MOVE $60, R5
D9F2	0EBE		GETB R11, $E
D9F4	3C00		MOVE $00, R12
D9F6	0ED9		SUB R14, R13
D9F8	B88B		SET R8, #$8B
D9FA	076D		MLH R7, R6
D9FC	0EFE		GETB R15, $E
D9FE	0C00		DEC2 R12, R0
DA00	0ED9		SUB R14, R13
DA02	0FAE		GETB R10, $F
DA04	3300		MOVE $00, R3
DA06	FFFF		SUB R15, #$100
DA08	3600		MOVE $00, R6
DA0A	0ED8		ADD R14, R13
DA0C	3530		MOVE $60, R5
DA0E	0FC0		DEC2 R15, R12
DA10	C430		SLE R4, R3
DA12	0FAD		MLH R15, R10
DA14	186D		CTRL $8, #$6D
DA16	0E35		AND R14, R3
DA18	300F		MOVE $1E, R0
DA1A	ADFE		ADD R13, #$FF
DA1C	3310		MOVE $20, R3
DA1E	0FA7		XOR R15, R10
DA20	F16E		SUB R1, #$6F
DA22	A7FE		ADD R7, #$FF
DA24	7520		MOVB (R2)+, R5
DA26	0473		INC2 R4, R7
DA28	1013		CTRL $0, #$13
DA2A	F16E		SUB R1, #$6F
DA2C	A7FE		ADD R7, #$FF
DA2E	7510		MOVB (R1)+, R5
DA30	04C4		MOVE R4, R12
DA32	300E		MOVE $1C, R0
DA34	D808		MOVE R8, (R0)
DA36	6D20		MOVB R13, (R2)+
DA38	BC40		SET R12, #$40
DA3A	00A4		RET R10

DA3C	0001		DEC R0, R0
DA3E	00FE		GETB R15, $0
DA40	9430		CLR R4, #$30
DA42	0000		HALT
DA44	F06D		BRA $D9D8		; -> -$6E(R0)

DA46	0EFE		GETB R15, $E
DA48	1C00		CTRL $C, #$00
DA4A	1000		CTRL $0, #$00
DA4C	0073		INC2 R0, R7
DA4E	1001		CTRL $0, #$01
DA50	F183		SUB R1, #$84
DA52	DAFE		MOVE R10, (R15)
DA54	F16E		SUB R1, #$6F
DA56	7FFE		MOVB (R15), R15
DA58	3320		MOVE $40, R3
DA5A	0FA4		MOVE R15, R10
DA5C	AC0F		ADD R12, #$10
DA5E	2939		MOVE R9, $72
DA60	EC5C		
DA62	5C6D		MOVE (R6), R12
DA64	5CAD		MOVE (R10), R12
DA66	0303		INC2 R3, R0
DA68	1628		CTRL $6, #$28
DA6A	6ECE		MOVB R14, (R12)
DA6C	AD03		ADD R13, #$04
DA6E	0329		SUB R3, R2
DA70	286E		MOVE R8, $DC
DA72	CE3C		SNS R14
DA74	000F		GETA R0, $0
DA76	F6CD		SUB R6, #$CE
DA78	6010		MOVB R0, (R1)+
DA7A	006D		MLH R0, R6
DA7C	413C		PUTB $1, (R3)
DA7E	800F		LBI R0, #$0F
DA80	F6FE		SUB R6, #$FF
DA82	3310		MOVE $20, R3
DA84	0FBA		ADDH R15, R11
DA86	F16E		SUB R1, #$6F
DA88	A7FE		ADD R7, #$FF
DA8A	7520		MOVB (R2)+, R5
DA8C	04E7		XOR R4, R14
DA8E	0800		DEC2 R8, R0
DA90	7310		MOVB (R1)+, R3
DA92	13F1		CTRL $3, #$F1
DA94	6EA7		MOVB R14, (R10)----
DA96	7520		MOVB (R2)+, R5
DA98	048E		GETB R8, $4
DA9A	0000		HALT
DA9C	0FF6		OR R15, R15
DA9E	E700		
DAA0	008E		GETB R8, $0
DAA2	0000		HALT
DAA4	0FF6		OR R15, R15
DAA6	3310		MOVE $20, R3
DAA8	0FA7		XOR R15, R10
DAAA	F16E		SUB R1, #$6F
DAAC	A7FE		ADD R7, #$FF
DAAE	7520		MOVB (R2)+, R5
DAB0	04E7		XOR R4, R14
DAB2	0C00		DEC2 R12, R0
DAB4	F06D		BRA $DA48		; -> -$6E(R0)

DAB6	41FE		PUTB $1, (R15)
DAB8	AD01		ADD R13, #$02
DABA	0316		OR R3, R1
DABC	286E		MOVE R8, $DC
DABE	CEAD		SNBS R14, R10
DAC0	0105		AND R1, R0
DAC2	2B28		MOVE R11, $50
DAC4	6ECE		MOVB R14, (R12)
DAC6	AD01		ADD R13, #$02
DAC8	1829		CTRL $8, #$29
DACA	286E		MOVE R8, $DC
DACC	CEAC		SNS R14
DACE	0116		OR R1, R1
DAD0	2BB5		MOVE R11, $16A
DAD2	0018		ADD R0, R1
DAD4	3570		MOVE $E0, R5
DAD6	0EBE		GETB R11, $E
DAD8	F500		SUB R5, #$01
DADA	70B4		MOVB (R11)-, R0
DADC	701E		MOVB (R1), R0
DADE	AF10		ADD R15, #$11
DAE0	201E		JMP ($003C)

DAE2	AC03		ADD R12, #$04
DAE4	2216		MOVE R2, $2C
DAE6	AC01		ADD R12, #$02
DAE8	2B29		MOVE R11, $52
DAEA	AC01		ADD R12, #$02
DAEC	2916		MOVE R9, $2C
DAEE	AC03		ADD R12, #$04
DAF0	3529		MOVE $52, R5
DAF2	B500		SET R5, #$00
DAF4	2935		MOVE R9, $6A
DAF6	700E		MOVB (R0), R0
DAF8	BEF5		SET R14, #$F5
DAFA	0070		DEC2 R0, R7
DAFC	B470		SET R4, #$70
DAFE	2FAE		MOVE R15, $15C
DB00	102D		CTRL $0, #$2D
DB02	2FAF		MOVE R15, $15E
DB04	102D		CTRL $0, #$2D
DB06	5AAC		MOVE (R10), R10
DB08	0133		INC2 R1, R3
DB0A	2F2C		MOVE R15, $58
DB0C	010F		GETA R0, $1
DB0E	1A29		CTRL $A, #$29
DB10	2C01		MOVE R12, $02
DB12	0F1C		MHL R15, R1
DB14	2BF1		MOVE R11, $1E2
DB16	5FBE		MOVE (R11), R15
DB18	0C01		DEC R12, R0
DB1A	0F1A		ADDH R15, R1
DB1C	0F16		OR R15, R1
DB1E	0F10		DEC2 R15, R1
DB20	0F1A		ADDH R15, R1
DB22	0EDB		ADDH2 R14, R13
DB24	0C01		DEC R12, R0
DB26	0F1C		MHL R15, R1
DB28	0EBE		GETB R11, $E
DB2A	F15F		SUB R1, #$60
DB2C	BEFE		SET R14, #$FE
DB2E	8C01		LBI R12, #$01
DB30	310F		MOVE $1E, R1
DB32	16FE		CTRL $6, #$FE
DB34	3310		MOVE $20, R3
DB36	0FA7		XOR R15, R10
DB38	F16E		SUB R1, #$6F
DB3A	A7FE		ADD R7, #$FF
DB3C	7520		MOVB (R2)+, R5
DB3E	04E7		XOR R4, R14
DB40	0E00		DEC2 R14, R0
DB42	E70C		
DB44	00FE		GETB R15, $0
DB46	3310		MOVE $20, R3
DB48	0FBA		ADDH R15, R11
DB4A	F16E		SUB R1, #$6F
DB4C	A7FE		ADD R7, #$FF
DB4E	7510		MOVB (R1)+, R5
DB50	04D7		XOR R4, R13
DB52	0800		DEC2 R8, R0
DB54	3310		MOVE $20, R3
DB56	0FCD		MLH R15, R12
DB58	F16E		SUB R1, #$6F
DB5A	A7FE		ADD R7, #$FF
DB5C	7510		MOVB (R1)+, R5
DB5E	04D7		XOR R4, R13
DB60	0200		DEC2 R2, R0
DB62	E700		
DB64	00E7		XOR R0, R14
DB66	0C00		DEC2 R12, R0
DB68	C500		SLE R5, R0
DB6A	0FBC		MHL R15, R11
DB6C	C001		SLT R0, R0
DB6E	6DA3		MOVB R13, (R10)++++
DB70	F06D		BRA $DB04		; -> -$6E(R0)

DB72	9AFE		CLR R10, #$FE
DB74	3320		MOVE $40, R3
DB76	0FA4		MOVE R15, R10
DB78	AD01		ADD R13, #$02
DB7A	0305		AND R3, R0
DB7C	286E		MOVE R8, $DC
DB7E	D235		MOVE R2, (R3)-
DB80	400F		PUTB $0, (R0)
DB82	A7FB		ADD R7, #$FC
DB84	5040		MOVE (R4)', R0
DB86	F540		SUB R5, #$41
DB88	5035		MOVE (R3)-, R0
DB8A	400E		PUTB $0, (R0)
DB8C	BEF5		SET R14, #$F5
DB8E	4050		PUTB $0, (R5)+
DB90	B510		SET R5, #$10
DB92	07F9		SUB R7, R15
DB94	1050		CTRL $0, #$50
DB96	7C00		MOVB (R0)+, R12
DB98	0033		INC2 R0, R3
DB9A	30FF		MOVE $1FE, R0
DB9C	FFF8		SUB R15, #$F9
DB9E	3050		MOVE $A0, R0
DBA0	5430		MOVE (R3)', R4
DBA2	0100		DEC2 R1, R0
DBA4	8901		LBI R9, #$01
DBA6	0300		DEC2 R3, R0
DBA8	00B5		AND R0, R11
DBAA	4005		PUTB $0, (R0)--
DBAC	3550		MOVE $A0, R5
DBAE	0EBE		GETB R11, $E
DBB0	F540		SUB R5, #$41
DBB2	50B4		MOVE (R11)~, R0
DBB4	5009		MOVE (R0), R0
DBB6	AE10		ADD R14, #$11
DBB8	0709		SUB R7, R0
DBBA	AE10		ADD R14, #$11
DBBC	095A		ADDH R9, R5
DBBE	C708		SGT R7, R0
DBC0	1080		CTRL $0, #$80
DBC2	B310		SET R3, #$10
DBC4	03FE		GETB R15, $3
DBC6	F16E		SUB R1, #$6F
DBC8	A7FE		ADD R7, #$FF
DBCA	7520		MOVB (R2)+, R5
DBCC	04E7		XOR R4, R14
DBCE	0C00		DEC2 R12, R0
DBD0	F06D		BRA $DB64		; -> -$6E(R0)

DBD2	E3FE		
DBD4	7310		MOVB (R1)+, R3
DBD6	04F1		DEC R4, R15
DBD8	83DA		LBI R3, #$DA
DBDA	F16E		SUB R1, #$6F
DBDC	7FFE		MOVB (R15), R15
DBDE	3320		MOVE $40, R3
DBE0	0FA4		MOVE R15, R10
DBE2	AC0F		ADD R12, #$10
DBE4	1639		CTRL $6, #$39
DBE6	AD01		ADD R13, #$02
DBE8	0318		ADD R3, R1
DBEA	286E		MOVE R8, $DC
DBEC	CEAD		SNBS R14, R10
DBEE	0105		AND R1, R0
DBF0	1628		CTRL $6, #$28
DBF2	6ECE		MOVB R14, (R12)
DBF4	B530		SET R5, #$30
DBF6	1CE4		CTRL $C, #$E4
DBF8	3009		MOVE $12, R0
DBFA	186E		CTRL $8, #$6E
DBFC	00B5		AND R0, R11
DBFE	3009		MOVE $12, R0
DC00	2C00		MOVE R12, $00
DC02	0ED9		SUB R14, R13
DC04	0A3F		GETA R3, $A
DC06	010E		GETB R0, $1
DC08	D935		MOVE R9, (R3)-
DC0A	400F		PUTB $0, (R0)
DC0C	C02C		SNS R0
DC0E	010F		GETA R0, $1
DC10	1A18		CTRL $A, #$18
DC12	3440		MOVE $80, R4
DC14	0F1C		MHL R15, R1
DC16	F15F		SUB R1, #$60
DC18	BEFE		SET R14, #$FE
DC1A	8C01		LBI R12, #$01
DC1C	1C0F		CTRL $C, #$0F
DC1E	16AE		CTRL $6, #$AE
DC20	101A		CTRL $0, #$1A
DC22	1CB4		CTRL $C, #$B4
DC24	405A		PUTB $0, (R5)
DC26	AF10		ADD R15, #$11
DC28	1A5A		CTRL $A, #$5A
DC2A	AC01		ADD R12, #$02
DC2C	2218		MOVE R2, $30
DC2E	AC01		ADD R12, #$02
DC30	2416		MOVE R4, $2C
DC32	AC03		ADD R12, #$04
DC34	1622		CTRL $6, #$22
DC36	2C03		MOVE R12, $06
DC38	0F1A		ADDH R15, R1
DC3A	16F1		CTRL $6, #$F1
DC3C	5FBE		MOVE (R11), R15
DC3E	0C01		DEC R12, R0
DC40	0F1A		ADDH R15, R1
DC42	0F16		OR R15, R1
DC44	0F10		DEC2 R15, R1
DC46	0F1A		ADDH R15, R1
DC48	0EDB		ADDH2 R14, R13
DC4A	3440		MOVE $80, R4
DC4C	0F1C		MHL R15, R1
DC4E	F15F		SUB R1, #$60
DC50	BEFE		SET R14, #$FE
DC52	8C01		LBI R12, #$01
DC54	1E0F		CTRL $E, #$0F
DC56	1633		CTRL $6, #$33
DC58	00FF		GETA R15, $0
DC5A	FF36		SUB R15, #$37
DC5C	000E		GETB R0, $0
DC5E	D8FE		MOVE R8, (R15)
DC60	3310		MOVE $20, R3
DC62	0FA7		XOR R15, R10
DC64	F16E		SUB R1, #$6F
DC66	A7FE		ADD R7, #$FF
DC68	7520		MOVB (R2)+, R5
DC6A	0473		INC2 R4, R7
DC6C	1013		CTRL $0, #$13
DC6E	F16E		SUB R1, #$6F
DC70	A7FE		ADD R7, #$FF
DC72	7510		MOVB (R1)+, R5
DC74	04C4		MOVE R4, R12
DC76	300E		MOVE $1C, R0
DC78	D808		MOVE R8, (R0)
DC7A	6E42		MOVB R14, (R4)+++
DC7C	BC40		SET R12, #$40
DC7E	00A4		RET R10

DC80	0001		DEC R0, R0
DC82	00FE		GETB R15, $0
DC84	9430		CLR R4, #$30
DC86	0000		HALT
DC88	F06E		BRA $DC1B		; -> -$6F(R0)

DC8A	30FE		MOVE $1FC, R0
DC8C	7310		MOVB (R1)+, R3
DC8E	04F1		DEC R4, R15
DC90	83DA		LBI R3, #$DA
DC92	FB10		SUB R11, #$11
DC94	306D		MOVE $DA, R0
DC96	0300		DEC2 R3, R0
DC98	0028		ADD R0, R2
DC9A	6ECE		MOVB R14, (R12)
DC9C	3410		MOVE $20, R4
DC9E	0EB4		MOVE R14, R11
DCA0	3004		MOVE $08, R0
DCA2	0EB0		DEC2 R14, R11
DCA4	3420		MOVE $40, R4
DCA6	0EB4		MOVE R14, R11
DCA8	3004		MOVE $08, R0
DCAA	0EB0		DEC2 R14, R11
DCAC	F18F		SUB R1, #$90
DCAE	FAFE		SUB R10, #$FF
DCB0	3520		MOVE $40, R5
DCB2	0B65		AND R11, R6
DCB4	F03B		BRA $DC7A		; -> -$3C(R0)

DCB6	D8FE		MOVE R8, (R15)
DCB8	3C00		MOVE $00, R12
DCBA	1000		CTRL $0, #$00
DCBC	F06E		BRA $DC4F		; -> -$6F(R0)

DCBE	62FE		MOVB R2, (R15)
DCC0	3C01		MOVE $02, R12
DCC2	1000		CTRL $0, #$00
DCC4	7310		MOVB (R1)+, R3
DCC6	05F1		DEC R5, R15
DCC8	83DA		LBI R3, #$DA
DCCA	FB10		SUB R11, #$11
DCCC	3078		MOVE $F0, R0
DCCE	0B07		XOR R11, R0
DCD0	6E6B		MOVB R14, (R6)
DCD2	F06E		BRA $DC65		; -> -$6F(R0)

DCD4	CEFE		SNBC R14, R15
DCD6	6D03		MOVB R13, (R0)++++
DCD8	0000		HALT
DCDA	286E		MOVE R8, $DC
DCDC	CED5		SBS R14, R13
DCDE	0002		INC R0, R0
DCE0	C001		SLT R0, R0
DCE2	6ECE		MOVB R14, (R12)
DCE4	3410		MOVE $20, R4
DCE6	0EB4		MOVE R14, R11
DCE8	3004		MOVE $08, R0
DCEA	0EB0		DEC2 R14, R11
DCEC	3420		MOVE $40, R4
DCEE	0EB4		MOVE R14, R11
DCF0	3004		MOVE $08, R0
DCF2	0EB0		DEC2 R14, R11
DCF4	CC00		SLE R12, R0
DCF6	1000		CTRL $0, #$00
DCF8	17F0		CTRL $7, #$F0
DCFA	F017		BRA $DCE4		; -> -$18(R0)

DCFC	EEFE		
DCFE	300C		MOVE $18, R0
DD00	1002		CTRL $0, #$02
DD02	3310		MOVE $20, R3
DD04	0FA4		MOVE R15, R10
DD06	4905		PUTB $9, (R0)--
DD08	3F00		MOVE $00, R15
DD0A	006C		MHL R0, R6
DD0C	0339		SUB R3, R3
DD0E	006C		MHL R0, R6
DD10	013D		MLH R1, R3
DD12	084C		MHL R8, R4
DD14	013F		GETA R3, $1
DD16	0EBE		GETB R11, $E
DD18	B88B		SET R8, #$8B
DD1A	076E		GETB R6, $7
DD1C	99FE		CLR R9, #$FE
DD1E	7C12		MOVB (R1)+++, R12
DD20	40B8		PUTB $0, (R11)
DD22	4007		PUTB $0, (R0)----
DD24	6E99		MOVB R14, (R9)
DD26	B510		SET R5, #$10
DD28	081C		MHL R8, R1
DD2A	000F		GETA R0, $0
DD2C	E400		
DD2E	3310		MOVE $20, R3
DD30	0FA4		MOVE R15, R10
DD32	5C03		MOVE (R0)++, R12
DD34	4539		PUTB $5, (R3)
DD36	D550		MOVE R5, (R5)'
DD38	47C0		PUTB $7, (R12)+
DD3A	016E		GETB R6, $1
DD3C	A55C		ADD R5, #$5D
DD3E	0147		XOR R1, R4
DD40	4549		PUTB $5, (R4)
DD42	0145		AND R1, R4
DD44	0000		HALT
DD46	5C03		MOVE (R0)++, R12
DD48	3945		MOVE $8A, R9
DD4A	300E		MOVE $1C, R0
DD4C	1002		CTRL $0, #$02
DD4E	300C		MOVE $18, R0
DD50	1002		CTRL $0, #$02
DD52	5F10		MOVE (R1)', R15
DD54	0406		OR R4, R0
DD56	4F10		PUTB $F, (R1)+
DD58	020E		GETB R0, $2
DD5A	DBC0		MOVE R11, (R12)'
DD5C	026E		GETB R6, $2
DD5E	C05E		SNBC R0, R5
DD60	1002		CTRL $0, #$02
DD62	0E5E		GETB R5, $E
DD64	1004		CTRL $0, #$04
DD66	084F		GETA R4, $8
DD68	1000		CTRL $0, #$00
DD6A	0EDB		ADDH2 R14, R13
DD6C	C084		SS R0
DD6E	6EC0		MOVB R14, (R12)+
DD70	5C01		MOVE (R0)+, R12
DD72	000C		MHL R0, R0
DD74	D520		MOVE R5, (R2)'
DD76	0AC0		DEC2 R10, R12
DD78	816E		LBI R1, #$6E
DD7A	C25E		SNBC R2, R5
DD7C	1004		CTRL $0, #$04
DD7E	0AFE		GETB R15, $A
DD80	300E		MOVE $1C, R0
DD82	1002		CTRL $0, #$02
DD84	3520		MOVE $40, R5
DD86	0B65		AND R11, R6
DD88	F03B		BRA $DD4E		; -> -$3C(R0)

DD8A	D8FE		MOVE R8, (R15)
DD8C	3CA2		MOVE $144, R12
DD8E	0BB4		MOVE R11, R11
DD90	F03B		BRA $DD56		; -> -$3C(R0)

DD92	CEFE		SNBC R14, R15
DD94	3CA3		MOVE $146, R12
DD96	0BB4		MOVE R11, R11
DD98	F03B		BRA $DD5E		; -> -$3C(R0)

DD9A	CEFE		SNBC R14, R15
DD9C	3CA7		MOVE $14E, R12
DD9E	0BB4		MOVE R11, R11
DDA0	F03B		BRA $DD66		; -> -$3C(R0)

DDA2	CEFE		SNBC R14, R15
DDA4	3CA6		MOVE $14C, R12
DDA6	0BB4		MOVE R11, R11
DDA8	F03B		BRA $DD6E		; -> -$3C(R0)

DDAA	CEFE		SNBC R14, R15
DDAC	8E20		LBI R14, #$20
DDAE	1E0E		CTRL $E, #$0E
DDB0	DAAD		MOVE R10, (R10)
DDB2	021E		GETB R1, $2
DDB4	2600		MOVE R6, $00
DDB6	8FE8		LBI R15, #$E8
DDB8	FB70		SUB R11, #$71
DDBA	80FB		LBI R0, #$FB
DDBC	6010		MOVB R0, (R1)+
DDBE	3310		MOVE $20, R3
DDC0	0F24		MOVE R15, R2
DDC2	EC04		
DDC4	006F		GETA R6, $0
DDC6	AAAD		ADD R10, #$AE
DDC8	021E		GETB R1, $2
DDCA	2600		MOVE R6, $00
DDCC	8FE6		LBI R15, #$E6
DDCE	6C02		MOVB R12, (R0)+++
DDD0	071E		GETB R1, $7
DDD2	4F20		PUTB $F, (R2)+
DDD4	070E		GETB R0, $7
DDD6	DAC0		MOVE R10, (R12)'
DDD8	828F		LBI R2, #$8F
DDDA	E6B9		
DDDC	0414		MOVE R4, R1
DDDE	6F1B		MOVB R15, (R1)
DDE0	4906		PUTB $9, (R0)---
DDE2	0000		HALT
DDE4	006C		MHL R0, R6
DDE6	010A		ADDH R1, R0
DDE8	1CFE		CTRL $C, #$FE
DDEA	7801		MOVB (R0)++, R8
DDEC	0B6E		GETB R6, $B
DDEE	FAFE		SUB R10, #$FF
DDF0	5E40		MOVE (R4)', R14
DDF2	0005		AND R0, R0
DDF4	4340		PUTB $3, (R4)+
DDF6	0500		DEC2 R5, R0
DDF8	0042		INC R0, R4
DDFA	100A		CTRL $0, #$0A
DDFC	0000		HALT
DDFE	C001		SLT R0, R0
DE00	6EF5		MOVB R14, (R15)--
DE02	4907		PUTB $9, (R0)----
DE04	0C00		DEC2 R12, R0
DE06	006C		MHL R0, R6
DE08	0110		DEC2 R1, R1
DE0A	067C		MHL R6, R7
DE0C	800E		LBI R0, #$0E
DE0E	5D04		MOVE (R0)~, R13
DE10	0F00		DEC2 R15, R0
DE12	088F		GETA R8, $8
DE14	E6FE		
DE16	4230		PUTB $2, (R3)+
DE18	1000		CTRL $0, #$00
DE1A	005D		MLH R0, R5
DE1C	0310		DEC2 R3, R1
DE1E	0100		DEC2 R1, R0
DE20	6F15		MOVB R15, (R1)--
DE22	5E10		MOVE (R1)', R14
DE24	0C0E		GETB R0, $C
DE26	5F30		MOVE (R3)', R15
DE28	0110		DEC2 R1, R1
DE2A	4210		PUTB $2, (R1)+
DE2C	0E00		DEC2 R14, R0
DE2E	00C0		DEC2 R0, R12
DE30	016F		GETA R6, $1
DE32	0BF0		DEC2 R11, R15
DE34	6F27		MOVB R15, (R2)----
DE36	5C01		MOVE (R0)+, R12
DE38	0C08		ADD R12, R0
DE3A	DD00		MOVE R13, (R0)'
DE3C	078F		GETA R8, $7
DE3E	E649		
DE40	0103		INC2 R1, R0
DE42	0000		HALT
DE44	4903		PUTB $9, (R0)++++
DE46	1800		CTRL $8, #$00
DE48	00B8		ADD R0, R11
DE4A	0803		INC2 R8, R0
DE4C	6F64		MOVB R15, (R6)-
DE4E	5F30		MOVE (R3)', R15
DE50	1818		CTRL $8, #$18
DE52	5C01		MOVE (R0)+, R12
DE54	120C		CTRL $2, #$0C
DE56	6F10		MOVB R15, (R1)+
DE58	1221		CTRL $2, #$21
DE5A	C082		SE R0, R8
DE5C	6F64		MOVB R15, (R6)-
DE5E	C081		SLT R0, R8
DE60	6F8E		MOVB R15, (R8)
DE62	6C00		MOVB R12, (R0)+
DE64	1523		CTRL $5, #$23
DE66	7C00		MOVB (R0)+, R12
DE68	145F		CTRL $4, #$5F
DE6A	1014		CTRL $0, #$14
DE6C	12C0		CTRL $2, #$C0
DE6E	046F		GETA R6, $4
DE70	64B5		MOVB R4, (R11)--
DE72	5004		MOVE (R0)~, R0
DE74	B650		SET R6, #$50
DE76	064F		GETA R4, $6
DE78	1012		CTRL $0, #$12
DE7A	0EDB		ADDH2 R14, R13
DE7C	C001		SLT R0, R0
DE7E	6F3A		MOVB R15, (R3)
DE80	5C01		MOVE (R0)+, R12
DE82	1A14		CTRL $A, #$14
DE84	4901		PUTB $9, (R0)++
DE86	1600		CTRL $6, #$00
DE88	00FE		GETB R15, $0
DE8A	6E10		MOVB R14, (R1)+
DE8C	1606		CTRL $6, #$06
DE8E	4F10		PUTB $F, (R1)+
DE90	140E		CTRL $4, #$0E
DE92	DBC0		MOVE R11, (R12)'
DE94	016F		GETA R6, $1
DE96	455C		PUTB $5, (R5)
DE98	0118		ADD R1, R1
DE9A	165F		CTRL $6, #$5F
DE9C	1016		CTRL $0, #$16
DE9E	036F		GETA R6, $3
DEA0	1016		CTRL $0, #$16
DEA2	1CC0		CTRL $C, #$C0
DEA4	826F		LBI R2, #$6F
DEA6	5876		MOVE (R7)-~, R8
DEA8	5003		MOVE (R0)++, R0
DEAA	B450		SET R4, #$50
DEAC	24F0		MOVE R4, $1E0
DEAE	6F92		MOVB R15, (R9)+++
DEB0	FB30		SUB R11, #$31
DEB2	20B5		JMP ($016A)

DEB4	2004		JMP ($0008)

DEB6	FB10		SUB R11, #$11
DEB8	5035		MOVE (R3)-, R0
DEBA	500F		MOVE (R0), R0
DEBC	3C94		MOVE $128, R12
DEBE	5000		MOVE (R0)', R0
DEC0	00FB		ADDH2 R0, R15
DEC2	2030		JMP ($0060)

DEC4	3310		MOVE $20, R3
DEC6	0F24		MOVE R15, R2
DEC8	9C01		CLR R12, #$01
DECA	210C		MOVE R1, $18
DECC	6C00		MOVB R12, (R0)+
DECE	1423		CTRL $4, #$23
DED0	6C01		MOVB R12, (R0)++
DED2	1604		CTRL $6, #$04
DED4	5F00		MOVE (R0)', R15
DED6	141B		CTRL $4, #$1B
DED8	9E10		CLR R14, #$10
DEDA	0418		ADD R4, R1
DEDC	BC01		SET R12, #$01
DEDE	02BB		ADDH2 R2, R11
DEE0	1003		CTRL $0, #$03
DEE2	BA20		SET R10, #$20
DEE4	03B8		ADD R3, R11
DEE6	0803		INC2 R8, R0
DEE8	6F79		MOVB R15, (R7)
DEEA	AC01		ADD R12, #$02
DEEC	0821		DEC R8, R2
DEEE	9E10		CLR R14, #$10
DEF0	081A		ADDH R8, R1
DEF2	E300		
DEF4	00FE		GETB R15, $0
DEF6	B910		SET R9, #$10
DEF8	116F		CTRL $1, #$6F
DEFA	7BFE		MOVB (R15), R11
DEFC	3300		MOVE $00, R3
DEFE	F3F0		SUB R3, #$F1
DF00	E400		
DF02	0C20		DEC2 R12, R2
DF04	7022		MOVB (R2)+++, R0
DF06	E500		
DF08	0CC0		DEC2 R12, R12
DF0A	016F		GETA R6, $1
DF0C	95AE		CLR R5, #$AE
DF0E	1004		CTRL $0, #$04
DF10	067F		GETA R7, $6
DF12	0114		MOVE R1, R1
DF14	C001		SLT R0, R0
DF16	6F79		MOVB R15, (R7)
DF18	9C01		CLR R12, #$01
DF1A	0416		OR R4, R1
DF1C	AC01		ADD R12, #$02
DF1E	2404		MOVE R4, $08
DF20	9E10		CLR R14, #$10
DF22	2403		MOVE R4, $06
DF24	FB10		SUB R11, #$11
DF26	60FC		MOVB R0, (R15)
DF28	7000		MOVB (R0)+, R0
DF2A	ED01		
DF2C	026F		GETA R6, $2
DF2E	9F75		CLR R15, #$75
DF30	5016		MOVE (R1)-~, R0
DF32	7650		MOVB (R5)+, R6
DF34	03B6		OR R3, R11
DF36	501C		MOVE (R1), R0
DF38	E450		
DF3A	0418		ADD R4, R1
DF3C	6FA6		MOVB R15, (R10)---
DF3E	8C01		LBI R12, #$01
DF40	040F		GETA R0, $4
DF42	3A8F		MOVE $11E, R10
DF44	201E		JMP ($003C)

DF46	0EDA		ADDH R14, R13
DF48	F070		BRA $DED9		; -> -$71(R0)

DF4A	EDFE		
DF4C	8901		LBI R9, #$01
DF4E	0C00		DEC2 R12, R0
DF50	00F0		DEC2 R0, R15
DF52	6F8C		MOVB R15, (R8)
DF54	EC01		
DF56	010B		ADDH2 R1, R0
DF58	DEBC		MOVE R14, (R11)
DF5A	0102		INC R1, R0
DF5C	AC01		ADD R12, #$02
DF5E	0E16		OR R14, R1
DF60	AF10		ADD R15, #$11
DF62	0E04		MOVE R14, R0
DF64	AD01		ADD R13, #$02
DF66	0E06		OR R14, R0
DF68	106F		CTRL $0, #$6F
DF6A	B889		SET R8, #$89
DF6C	010E		GETB R0, $1
DF6E	0000		HALT
DF70	E300		
DF72	00FE		GETB R15, $0
DF74	B910		SET R9, #$10
DF76	116F		CTRL $1, #$6F
DF78	BAFE		SET R10, #$FE
DF7A	E500		
DF7C	0CC0		DEC2 R12, R12
DF7E	0170		DEC2 R1, R7
DF80	EDEC		
DF82	2008		JMP ($0010)

DF84	7015		MOVB (R1)--, R0
DF86	3C40		MOVE $80, R12
DF88	0ED9		SUB R14, R13
DF8A	EC40		
DF8C	086F		GETA R6, $8
DF8E	D2ED		MOVE R2, (R14)
DF90	8008		LBI R0, #$08
DF92	6FDC		MOVB R15, (R13)
DF94	8F10		LBI R15, #$10
DF96	0E0E		GETB R0, $E
DF98	D8C0		MOVE R8, (R12)'
DF9A	026F		GETA R6, $2
DF9C	B8AE		SET R8, #$AE
DF9E	100E		CTRL $0, #$0E
DFA0	06F0		DEC2 R6, R15
DFA2	6FB8		MOVB R15, (R11)
DFA4	8E10		LBI R14, #$10
DFA6	0E0E		GETB R0, $E
DFA8	D8AD		MOVE R8, (R10)
DFAA	010E		GETB R0, $1
DFAC	0610		DEC2 R6, R1
DFAE	6FB8		MOVB R15, (R11)
DFB0	AF10		ADD R15, #$11
DFB2	0E06		OR R14, R0
DFB4	F06F		BRA $DF46		; -> -$70(R0)

DFB6	B8FE		SET R8, #$FE
DFB8	E809		
DFBA	086F		GETA R6, $8
DFBC	B8B2		SET R8, #$B2
DFBE	0008		ADD R0, R0
DFC0	3310		MOVE $20, R3
DFC2	0B82		INC R11, R8
DFC4	F810		SUB R8, #$11
DFC6	00F8		ADD R0, R15
DFC8	1000		CTRL $0, #$00
DFCA	F810		SUB R8, #$11
DFCC	0078		ADD R0, R7
DFCE	A000		BRA $DFD1		; $01(R0)

DFD0	700F		MOVB (R0), R0
DFD2	7950		MOVB (R5)+, R9
DFD4	0070		DEC2 R0, R7
DFD6	0FFE		GETB R15, $F
DFD8	7510		MOVB (R1)+, R5
DFDA	0172		INC R1, R7
DFDC	0008		ADD R0, R0
DFDE	1400		CTRL $4, #$00
DFE0	108C		CTRL $0, #$8C
DFE2	09B5		AND R9, R11
DFE4	1004		CTRL $0, #$04
DFE6	B610		SET R6, #$10
DFE8	0EB5		AND R14, R11
DFEA	3004		MOVE $08, R0
DFEC	B630		SET R6, #$30
DFEE	06FE		GETB R15, $6
DFF0	FA10		SUB R10, #$11
DFF2	3010		MOVE $20, R0
DFF4	6FFD		MOVB R15, (R15)
DFF6	B710		SET R7, #$10
DFF8	06FE		GETB R15, $6
DFFA	3700		MOVE $00, R7
DFFC	0EDB		ADDH2 R14, R13
DFFE	C082		SE R0, R8
E000	700A		MOVB (R0), R0
E002	4C00		PUTB $C, (R0)+
E004	0010		DEC2 R0, R1
E006	8C04		LBI R12, #$04
E008	0010		DEC2 R0, R1
E00A	8C10		LBI R12, #$10
E00C	8D73		LBI R13, #$73
E00E	1001		CTRL $0, #$01
E010	F06F		BRA $DFA2		; -> -$70(R0)

E012	F8FE		SUB R8, #$FF
E014	B710		SET R7, #$10
E016	04B4		MOVE R4, R11
E018	100E		CTRL $0, #$0E
E01A	F06F		BRA $DFAC		; -> -$70(R0)

E01C	B8FE		SET R8, #$FE
E01E	ED09		
E020	086F		GETA R6, $8
E022	B8BB		SET R8, #$BB
E024	3F0F		MOVE $1E, R15
E026	F06F		BRA $DFB8		; -> -$70(R0)

E028	D2FE		MOVE R2, (R15)
E02A	CD75		SBS R13, R7
E02C	0200		DEC2 R2, R0
E02E	6F92		MOVB R15, (R9)+++
E030	3A80		MOVE $100, R10
E032	00A4		RET R10

E034	3006		MOVE $0C, R0
E036	0EB0		DEC2 R14, R11
E038	3520		MOVE $40, R5
E03A	0B65		AND R11, R6
E03C	3B20		MOVE $40, R11
E03E	0DBF		GETA R11, $D
E040	F03B		BRA $E006		; -> -$3C(R0)

E042	D8FE		MOVE R8, (R15)
E044	F170		SUB R1, #$71
E046	CCFE		SNBC R12, R15
E048	F06F		BRA $DFDA		; -> -$70(R0)

E04A	79FE		MOVB (R15), R9
E04C	FB70		SUB R11, #$71
E04E	80FB		LBI R0, #$FB
E050	6010		MOVB R0, (R1)+
E052	EC04		
E054	0070		DEC2 R0, R7
E056	BCB5		SET R12, #$B5
E058	1024		CTRL $0, #$24
E05A	B610		SET R6, #$10
E05C	1CAC		CTRL $C, #$AC
E05E	0108		ADD R1, R0
E060	21B9		MOVE R1, $172
E062	8414		LBI R4, #$14
E064	7071		MOVB (R7)++, R0
E066	B530		SET R5, #$30
E068	0434		MOVE R4, R3
E06A	300F		MOVE $1E, R0
E06C	3AB6		MOVE $16C, R10
E06E	3006		MOVE $0C, R0
E070	FA10		SUB R10, #$11
E072	3010		MOVE $20, R0
E074	706E		MOVB (R6), R0
E076	BC02		SET R12, #$02
E078	02BB		ADDH2 R2, R11
E07A	2003		JMP ($0006)

E07C	BA10		SET R10, #$10
E07E	03FE		GETB R15, $3
E080	E300		
E082	00FE		GETB R15, $0
E084	B910		SET R9, #$10
E086	1170		CTRL $1, #$70
E088	42FE		PUTB $2, (R15)
E08A	3300		MOVE $00, R3
E08C	F3F0		SUB R3, #$F1
E08E	E400		
E090	0C20		DEC2 R12, R2
E092	706A		MOVB (R6), R0
E094	E500		
E096	0CC0		DEC2 R12, R12
E098	016F		GETA R6, $1
E09A	95B9		CLR R5, #$B9
E09C	0210		DEC2 R2, R1
E09E	70DB		MOVB (R13), R0
E0A0	B430		SET R4, #$30
E0A2	04B6		OR R4, R11
E0A4	3006		MOVE $0C, R0
E0A6	FA30		SUB R10, #$31
E0A8	1008		CTRL $0, #$08
E0AA	7040		MOVB (R4)+, R0
E0AC	AC01		ADD R12, #$02
E0AE	2108		MOVE R1, $10
E0B0	B710		SET R7, #$10
E0B2	04FB		ADDH2 R4, R15
E0B4	0010		DEC2 R0, R1
E0B6	3510		MOVE $20, R5
E0B8	0F3A		ADDH R15, R3
E0BA	FB50		SUB R11, #$51
E0BC	20B5		JMP ($016A)

E0BE	2004		JMP ($0008)

E0C0	6400		MOVB R4, (R0)+
E0C2	0000		HALT
E0C4	FB20		SUB R11, #$21
E0C6	50B4		MOVE (R11)~, R0
E0C8	1004		CTRL $0, #$04
E0CA	F810		SUB R8, #$11
E0CC	00B4		RET R11

E0CE	1024		CTRL $0, #$24
E0D0	F06F		BRA $E062		; -> -$70(R0)

E0D2	92FE		CLR R2, #$FE
E0D4	F170		SUB R1, #$71
E0D6	CCFE		SNBC R12, R15
E0D8	F070		BRA $E069		; -> -$71(R0)

E0DA	40FE		PUTB $0, (R15)
E0DC	B410		SET R4, #$10
E0DE	24F0		MOVE R4, $1E0
E0E0	6F92		MOVB R15, (R9)+++
E0E2	2C01		MOVE R12, $02
E0E4	0F3A		ADDH R15, R3
E0E6	04BB		ADDH2 R4, R11
E0E8	2003		JMP ($0006)

E0EA	BA10		SET R10, #$10
E0EC	032C		MHL R3, R2
E0EE	000E		GETB R0, $0
E0F0	D902		MOVE R9, (R0)+'
E0F2	BC02		SET R12, #$02
E0F4	02B9		SUB R2, R11
E0F6	8011		LBI R0, #$11
E0F8	7085		MOVB (R8)--, R0
E0FA	8C01		LBI R12, #$01
E0FC	080E		GETB R0, $8
E0FE	DBB8		MOVE R11, (R11)
E100	0815		AND R8, R1
E102	7085		MOVB (R8)--, R0
E104	8C00		LBI R12, #$00
E106	090F		GETA R0, $9
E108	13FE		CTRL $3, #$FE
E10A	B500		SET R5, #$00
E10C	04B6		OR R4, R11
E10E	0006		OR R0, R0
E110	FA00		SUB R10, #$01
E112	1010		CTRL $0, #$10
E114	7090		MOVB (R9)+, R0
E116	CD03		SZ R13
E118	0ED9		SUB R14, R13
E11A	7090		MOVB (R9)+, R0
E11C	BC03		SET R12, #$03
E11E	02FE		GETB R15, $2
E120	E300		
E122	00FE		GETB R15, $0
E124	3380		MOVE $100, R3
E126	F3F0		SUB R3, #$F1
E128	E480		
E12A	0C20		DEC2 R12, R2
E12C	70C5		MOVB (R12)--, R0
E12E	ED00		
E130	0C6F		GETA R6, $C
E132	95B9		CLR R5, #$B9
E134	0210		DEC2 R2, R1
E136	70DB		MOVB (R13), R0
E138	FA00		SUB R10, #$01
E13A	1018		CTRL $0, #$18
E13C	70A8		MOVB (R10), R0
E13E	B910		SET R9, #$10
E140	1170		CTRL $1, #$70
E142	9FFE		CLR R15, #$FE
E144	ED00		
E146	0C6F		GETA R6, $C
E148	95B4		CLR R5, #$B4
E14A	0004		NOP
E14C	F070		BRA $E0DD		; -> -$71(R0)

E14E	85FE		LBI R5, #$FE
E150	8D01		LBI R13, #$01
E152	040F		GETA R0, $4
E154	3A20		MOVE $40, R10
E156	70B5		MOVB (R11)--, R0
E158	B910		SET R9, #$10
E15A	1170		CTRL $1, #$70
E15C	ACFE		ADD R12, #$FF
E15E	E500		
E160	0CC0		DEC2 R12, R12
E162	016F		GETA R6, $1
E164	958C		CLR R5, #$8C
E166	0104		MOVE R1, R0
E168	0F3A		ADDH R15, R3
E16A	B980		SET R9, #$80
E16C	146F		CTRL $4, #$6F
E16E	92FE		CLR R2, #$FE
E170	AC01		ADD R12, #$02
E172	2108		MOVE R1, $10
E174	F06F		BRA $E106		; -> -$70(R0)

E176	92FE		CLR R2, #$FE
E178	EC01		
E17A	010B		ADDH2 R1, R0
E17C	DC3C		MOVE R12, (R3)
E17E	000B		ADDH2 R0, R0
E180	02C3		INC2 R2, R12
E182	000B		ADDH2 R0, R0
E184	00FE		GETB R15, $0
E186	F06F		BRA $E118		; -> -$70(R0)

E188	92FE		CLR R2, #$FE
E18A	F170		SUB R1, #$71
E18C	CCFE		SNBC R12, R15
E18E	B500		SET R5, #$00
E190	04B6		OR R4, R11
E192	0006		OR R0, R0
E194	F070		BRA $E125		; -> -$71(R0)

E196	90FE		CLR R0, #$FE
E198	FB40		SUB R11, #$41
E19A	80FB		LBI R0, #$FB
E19C	3010		MOVE $20, R0
E19E	FB10		SUB R11, #$11
E1A0	20F1		JMP ($01E2)

E1A2	23E4		MOVE R3, $1C8
E1A4	3410		MOVE $20, R4
E1A6	0DB9		SUB R13, R11
E1A8	F16B		SUB R1, #$6C
E1AA	E2FE		
E1AC	C087		SBSH R0, R8
E1AE	6F95		MOVB R15, (R9)--
E1B0	FB10		SUB R11, #$11
E1B2	30FC		MOVE $1F8, R0
E1B4	4000		PUTB $0, (R0)+
E1B6	BB10		SET R11, #$10
E1B8	03BA		ADDH R3, R11
E1BA	2003		JMP ($0006)

E1BC	BCFD		SET R12, #$FD
E1BE	02E3		INC2 R2, R14
E1C0	0000		HALT
E1C2	BC02		SET R12, #$02
E1C4	02BB		ADDH2 R2, R11
E1C6	2003		JMP ($0006)

E1C8	BA10		SET R10, #$10
E1CA	03FC		MHL R3, R15
E1CC	8000		LBI R0, #$00
E1CE	AD02		ADD R13, #$03
E1D0	1E26		CTRL $E, #$26
E1D2	1070		CTRL $0, #$70
E1D4	ED8F		STAT R8, $D
E1D6	2026		JMP ($004C)

E1D8	0EDA		ADDH R14, R13
E1DA	BC00		SET R12, #$00
E1DC	0289		SUB R2, R8
E1DE	0121		DEC R1, R2
E1E0	00FE		GETB R15, $0
E1E2	3840		MOVE $80, R8
E1E4	0BA1		DEC R11, R10
E1E6	8FEA		LBI R15, #$EA
E1E8	FB10		SUB R11, #$11
E1EA	60FC		MOVB R0, (R15)
E1EC	7000		MOVB (R0)+, R0
E1EE	3480		MOVE $100, R4
E1F0	109C		CTRL $0, #$9C
E1F2	3A40		MOVE $80, R10
E1F4	0BA4		MOVE R11, R10
E1F6	F071		BRA $E186		; -> -$72(R0)

E1F8	11FE		CTRL $1, #$FE
E1FA	DC7E		MOVE R12, (R7)
E1FC	0471		DEC R4, R7
E1FE	0870		DEC2 R8, R7
E200	1204		CTRL $2, #$04
E202	710F		MOVB (R0), R1
E204	7105		MOVB (R0)--, R1
E206	710F		MOVB (R0), R1
E208	710C		MOVB (R0), R1
E20A	DD7E		MOVE R13, (R7)
E20C	0571		DEC R5, R7
E20E	0FFE		GETB R15, $F
E210	3C29		MOVE $52, R12
E212	10D0		CTRL $0, #$D0
E214	F02F		BRA $E1E6		; -> -$30(R0)

E216	E6FE		
E218	DC4D		MOVE R12, (R4)
E21A	0471		DEC R4, R7
E21C	08FE		GETB R15, $8
E21E	3B40		MOVE $80, R11
E220	0BA4		MOVE R11, R10
E222	7310		MOVB (R1)+, R3
E224	043B		ADDH2 R4, R3
E226	800B		LBI R0, #$0B
E228	59FE		MOVE (R15), R9
E22A	3B80		MOVE $100, R11
E22C	0FDF		GETA R13, $F
E22E	7012		MOVB (R1)+++, R0
E230	0072		INC R0, R7
E232	B571		SET R5, #$71
E234	8471		LBI R4, #$71
E236	1D71		CTRL $D, #$71
E238	7000		MOVB (R0)+, R0
E23A	DDE7		MOVE R13, (R14)--
E23C	0071		DEC R0, R7
E23E	5AF1		MOVE (R15)+, R10
E240	0BF2		INC R11, R15
E242	DC5C		MOVE R12, (R5)
E244	0071		DEC R0, R7
E246	9FDD		CLR R15, #$DD
E248	5C01		MOVE (R0)+, R12
E24A	712E		MOVB (R2), R1
E24C	7012		MOVB (R1)+++, R0
E24E	0072		INC R0, R7
E250	B50B		SET R5, #$0B
E252	EE72		
E254	B572		SET R5, #$72
E256	B500		SET R5, #$00
E258	F071		BRA $E1E8		; -> -$72(R0)

E25A	B1FE		SET R1, #$FE
E25C	7012		MOVB (R1)+++, R0
E25E	0072		INC R0, R7
E260	B971		SET R9, #$71
E262	3471		MOVE $E2, R4
E264	4C71		PUTB $C, (R7)++
E266	7E00		MOVB (R0)+, R14
E268	3330		MOVE $60, R3
E26A	0005		AND R0, R0
E26C	DDF0		MOVE R13, (R15)'
E26E	0071		DEC R0, R7
E270	4073		PUTB $0, (R7)++++
E272	1001		CTRL $0, #$01
E274	7012		MOVB (R1)+++, R0
E276	0072		INC R0, R7
E278	B571		SET R5, #$71
E27A	3472		MOVE $E4, R4
E27C	B572		SET R5, #$72
E27E	B500		SET R5, #$00
E280	F10B		SUB R1, #$0C
E282	F2FE		SUB R2, #$FF
E284	3730		MOVE $60, R7
E286	0EDB		ADDH2 R14, R13
E288	C081		SLT R0, R8
E28A	72B5		MOVB (R11)--, R2
E28C	7012		MOVB (R1)+++, R0
E28E	0072		INC R0, R7
E290	B971		SET R9, #$71
E292	4072		PUTB $0, (R7)+++
E294	B571		SET R5, #$71
E296	7E00		MOVB (R0)+, R14
E298	F10B		SUB R1, #$0C
E29A	F2FE		SUB R2, #$FF
E29C	7012		MOVB (R1)+++, R0
E29E	0072		INC R0, R7
E2A0	B90B		SET R9, #$0B
E2A2	F272		SUB R2, #$73
E2A4	B571		SET R5, #$71
E2A6	7E00		MOVB (R0)+, R14
E2A8	7012		MOVB (R1)+++, R0
E2AA	0072		INC R0, R7
E2AC	B972		SET R9, #$72
E2AE	B572		SET R5, #$72
E2B0	B571		SET R5, #$71
E2B2	7E00		MOVB (R0)+, R14
E2B4	3300		MOVE $00, R3
E2B6	0003		INC2 R0, R0
E2B8	4000		PUTB $0, (R0)+
E2BA	0002		INC R0, R0
E2BC	A3FE		ADD R3, #$FF
E2BE	2871		MOVE R8, $E2
E2C0	64F1		MOVB R4, (R15)++
E2C2	0BEA		ADDH R11, R14
E2C4	F071		BRA $E254		; -> -$72(R0)

E2C6	2EFE		MOVE R14, $1FC
E2C8	3300		MOVE $00, R3
E2CA	0004		NOP
E2CC	4000		PUTB $0, (R0)+
E2CE	0001		DEC R0, R0
E2D0	DDFE		MOVE R13, (R15)
E2D2	2871		MOVE R8, $E2
E2D4	A3F1		ADD R3, #$F2
E2D6	0BEE		GETB R14, $B
E2D8	F10B		SUB R1, #$0C
E2DA	EEFE		
E2DC	F071		BRA $E26C		; -> -$72(R0)

E2DE	2EFE		MOVE R14, $1FC
E2E0	DD7D		MOVE R13, (R7)
E2E2	0072		INC R0, R7
E2E4	B533		SET R5, #$33
E2E6	0071		DEC R0, R7
E2E8	7834		MOVB (R3)-, R8
E2EA	000B		ADDH2 R0, R0
E2EC	A8F0		ADD R8, #$F1
E2EE	77DC		MOVB (R13), R7
E2F0	7012		MOVB (R1)+++, R0
E2F2	0072		INC R0, R7
E2F4	B972		SET R9, #$72
E2F6	B572		SET R5, #$72
E2F8	B571		SET R5, #$71
E2FA	7E00		MOVB (R0)+, R14
E2FC	DD6B		MOVE R13, (R6)
E2FE	0072		INC R0, R7
E300	B5F1		SET R5, #$F1
E302	0BF2		INC R11, R15
E304	F071		BRA $E294		; -> -$72(R0)

E306	15FE		CTRL $5, #$FE
E308	3300		MOVE $00, R3
E30A	0005		AND R0, R0
E30C	DDF0		MOVE R13, (R15)'
E30E	0071		DEC R0, R7
E310	9073		CLR R0, #$73
E312	1001		CTRL $0, #$01
E314	7012		MOVB (R1)+++, R0
E316	0072		INC R0, R7
E318	B571		SET R5, #$71
E31A	8472		LBI R4, #$72
E31C	B572		SET R5, #$72
E31E	B500		SET R5, #$00
E320	F10B		SUB R1, #$0C
E322	F2FE		SUB R2, #$FF
E324	3700		MOVE $00, R7
E326	0EDB		ADDH2 R14, R13
E328	C081		SLT R0, R8
E32A	72B5		MOVB (R11)--, R2
E32C	7012		MOVB (R1)+++, R0
E32E	0072		INC R0, R7
E330	B571		SET R5, #$71
E332	9072		CLR R0, #$72
E334	B571		SET R5, #$71
E336	9C00		CLR R12, #$00
E338	DD5C		MOVE R13, (R5)
E33A	0072		INC R0, R7
E33C	B5FE		SET R5, #$FE
E33E	F10B		SUB R1, #$0C
E340	F2FE		SUB R2, #$FF
E342	F071		BRA $E2D2		; -> -$72(R0)

E344	B1FE		SET R1, #$FE
E346	DD5C		MOVE R13, (R5)
E348	0171		DEC R1, R7
E34A	A9F1		ADD R9, #$F2
E34C	0BEE		GETB R14, $B
E34E	F071		BRA $E2DE		; -> -$72(R0)

E350	B1FE		SET R1, #$FE
E352	DD5C		MOVE R13, (R5)
E354	0271		DEC R2, R7
E356	B170		SET R1, #$70
E358	1200		CTRL $2, #$00
E35A	72B5		MOVB (R11)--, R2
E35C	0BEA		ADDH R11, R14
E35E	72B5		MOVB (R11)--, R2
E360	72B5		MOVB (R11)--, R2
E362	7012		MOVB (R1)+++, R0
E364	0072		INC R0, R7
E366	B572		SET R5, #$72
E368	B571		SET R5, #$71
E36A	B772		SET R7, #$72
E36C	B500		SET R5, #$00
E36E	DDC3		MOVE R13, (R12)++
E370	0071		DEC R0, R7
E372	C33A		SNE R3, R3
E374	800B		LBI R0, #$0B
E376	59F1		MOVE (R15)+, R9
E378	0BF2		INC R11, R15
E37A	7012		MOVB (R1)+++, R0
E37C	0072		INC R0, R7
E37E	B971		SET R9, #$71
E380	3472		MOVE $E4, R4
E382	B571		SET R5, #$71
E384	7E00		MOVB (R0)+, R14
E386	DDC2		MOVE R13, (R12)+'
E388	0071		DEC R0, R7
E38A	E33A		
E38C	800B		LBI R0, #$0B
E38E	59F1		MOVE (R15)+, R9
E390	0BF2		INC R11, R15
E392	7012		MOVB (R1)+++, R0
E394	0072		INC R0, R7
E396	B971		SET R9, #$71
E398	CF72		SE R15, R7
E39A	B572		SET R5, #$72
E39C	B500		SET R5, #$00
E39E	DDF0		MOVE R13, (R15)'
E3A0	0071		DEC R0, R7
E3A2	D573		MOVE R5, (R7)++
E3A4	1001		CTRL $0, #$01
E3A6	F071		BRA $E336		; -> -$72(R0)

E3A8	CFFE		SNBC R15, R15
E3AA	DCF2		MOVE R12, (R15)+'
E3AC	0071		DEC R0, R7
E3AE	DDDC		MOVE R13, (R13)
E3B0	F400		SUB R4, #$01
E3B2	71DD		MOVB (R13), R1
E3B4	DDF8		MOVE R13, (R15)
E3B6	0072		INC R0, R7
E3B8	B5FE		SET R5, #$FE
E3BA	F10B		SUB R1, #$0C
E3BC	F2FE		SUB R2, #$FF
E3BE	3A80		MOVE $100, R10
E3C0	0B59		SUB R11, R5
E3C2	F071		BRA $E352		; -> -$72(R0)

E3C4	78FE		MOVB (R15), R8
E3C6	DCE2		MOVE R12, (R14)+'
E3C8	0071		DEC R0, R7
E3CA	DDDC		MOVE R13, (R13)
E3CC	D300		MOVE R3, (R0)'
E3CE	71DD		MOVB (R13), R1
E3D0	3300		MOVE $00, R3
E3D2	0004		NOP
E3D4	4000		PUTB $0, (R0)+
E3D6	0002		INC R0, R0
E3D8	A5FE		ADD R5, #$FF
E3DA	2072		JMP ($00E4)

E3DC	61DD		MOVB R1, (R13)
E3DE	D700		MOVE R7, (R0)'
E3E0	725A		MOVB (R5), R2
E3E2	DDC4		MOVE R13, (R12)~
E3E4	0172		INC R1, R7
E3E6	B53A		SET R5, #$3A
E3E8	800F		LBI R0, #$0F
E3EA	DFFE		MOVE R15, (R15)
E3EC	F10B		SUB R1, #$0C
E3EE	EEFE		
E3F0	3A80		MOVE $100, R10
E3F2	0B59		SUB R11, R5
E3F4	7012		MOVB (R1)+++, R0
E3F6	0072		INC R0, R7
E3F8	B572		SET R5, #$72
E3FA	0072		INC R0, R7
E3FC	B572		SET R5, #$72
E3FE	B500		SET R5, #$00
E400	DDF0		MOVE R13, (R15)'
E402	0072		INC R0, R7
E404	0673		INC2 R6, R7
E406	1001		CTRL $0, #$01
E408	F071		BRA $E398		; -> -$72(R0)

E40A	FAFE		SUB R10, #$FF
E40C	F183		SUB R1, #$84
E40E	EAFE		
E410	B540		SET R5, #$40
E412	0038		ADD R0, R3
E414	800F		LBI R0, #$0F
E416	DF72		MOVE R15, (R7)+'
E418	11FE		CTRL $1, #$FE
E41A	F840		SUB R8, #$41
E41C	4037		PUTB $0, (R3)----
E41E	400E		PUTB $0, (R0)
E420	DBFE		MOVE R11, (R15)
E422	8901		LBI R9, #$01
E424	0000		HALT
E426	FF33		SUB R15, #$34
E428	3027		MOVE $4E, R0
E42A	0F35		AND R15, R3
E42C	1010		CTRL $0, #$10
E42E	62FA		MOVB R2, (R15)
E430	4030		PUTB $0, (R3)+
E432	0072		INC R0, R7
E434	B535		SET R5, #$35
E436	300B		MOVE $16, R0
E438	5AF7		MOVE (R15)--, R10
E43A	3007		MOVE $0E, R0
E43C	9430		CLR R4, #$30
E43E	0000		HALT
E440	F810		SUB R8, #$11
E442	30F8		MOVE $1F0, R0
E444	2030		JMP ($0060)

E446	7012		MOVB (R1)+++, R0
E448	0072		INC R0, R7
E44A	B972		SET R9, #$72
E44C	B572		SET R5, #$72
E44E	B572		SET R5, #$72
E450	2900		MOVE R9, $00
E452	DD4B		MOVE R13, (R4)
E454	0071		DEC R0, R7
E456	7EF1		MOVB (R15)++, R14
E458	0BF2		INC R11, R15
E45A	7012		MOVB (R1)+++, R0
E45C	0072		INC R0, R7
E45E	B572		SET R5, #$72
E460	3372		MOVE $E4, R3
E462	B572		SET R5, #$72
E464	B500		SET R5, #$00
E466	DDF0		MOVE R13, (R15)'
E468	0072		INC R0, R7
E46A	4273		PUTB $2, (R7)++++
E46C	1001		CTRL $0, #$01
E46E	7012		MOVB (R1)+++, R0
E470	0072		INC R0, R7
E472	3D72		MOVE $E4, R13
E474	3372		MOVE $E4, R3
E476	3D72		MOVE $E4, R13
E478	3D00		MOVE $00, R13
E47A	BCF0		SET R12, #$F0
E47C	00B3		INC2 R0, R11
E47E	2001		JMP ($0002)

E480	F072		BRA $E40F		; -> -$73(R0)

E482	54FE		MOVE (R15), R4
E484	F183		SUB R1, #$84
E486	EAFE		
E488	3510		MOVE $20, R5
E48A	1062		CTRL $0, #$62
E48C	E440		
E48E	0000		HALT
E490	72B5		MOVB (R11)--, R2
E492	8901		LBI R9, #$01
E494	0000		HALT
E496	FF35		SUB R15, #$36
E498	300B		MOVE $16, R0
E49A	5AF7		MOVE (R15)--, R10
E49C	3007		MOVE $0E, R0
E49E	9430		CLR R4, #$30
E4A0	0000		HALT
E4A2	F810		SUB R8, #$11
E4A4	30F8		MOVE $1F0, R0
E4A6	2030		JMP ($0060)

E4A8	7012		MOVB (R1)+++, R0
E4AA	0072		INC R0, R7
E4AC	B972		SET R9, #$72
E4AE	B572		SET R5, #$72
E4B0	B571		SET R5, #$71
E4B2	7E00		MOVB (R0)+, R14
E4B4	DDD5		MOVE R13, (R13)-
E4B6	0072		INC R0, R7
E4B8	B5DD		SET R5, #$DD
E4BA	C301		SLT R3, R0
E4BC	72B5		MOVB (R11)--, R2
E4BE	F071		BRA $E44E		; -> -$72(R0)

E4C0	F6FE		SUB R6, #$FF
E4C2	F10B		SUB R1, #$0C
E4C4	EEFE		
E4C6	F10B		SUB R1, #$0C
E4C8	EEFE		
E4CA	DC5D		MOVE R12, (R5)
E4CC	0072		INC R0, R7
E4CE	8709		LBI R7, #$09
E4D0	050F		GETA R0, $5
E4D2	DF00		MOVE R15, (R0)'
E4D4	0034		RET R3

E4D6	1010		CTRL $0, #$10
E4D8	6234		MOVB R2, (R3)-
E4DA	2010		JMP ($0020)

E4DC	64B3		MOVB R4, (R11)++++
E4DE	2005		JMP ($000A)

E4E0	DC40		MOVE R12, (R4)'
E4E2	0072		INC R0, R7
E4E4	B53E		SET R5, #$3E
E4E6	010F		GETA R0, $1
E4E8	E2F1		
E4EA	2FF4		MOVE R15, $1E8
E4EC	F10B		SUB R1, #$0C
E4EE	F2FE		SUB R2, #$FF
E4F0	DD5D		MOVE R13, (R5)
E4F2	0072		INC R0, R7
E4F4	70F1		MOVB (R15)++, R0
E4F6	0BF2		INC R11, R15
E4F8	3920		MOVE $40, R9
E4FA	0FDF		GETA R13, $F
E4FC	7282		MOVB (R8)+++, R2
E4FE	3804		MOVE $08, R8
E500	0FDF		GETA R13, $F
E502	72A2		MOVB (R10)+++, R2
E504	C920		SLE R9, R2
E506	0FE2		INC R15, R14
E508	728B		MOVB (R8), R2
E50A	3510		MOVE $20, R5
E50C	1062		CTRL $0, #$62
E50E	3C18		MOVE $30, R12
E510	0B5A		ADDH R11, R5
E512	F072		BRA $E4A1		; -> -$73(R0)

E514	A8FE		ADD R8, #$FF
E516	3A80		MOVE $100, R10
E518	0B59		SUB R11, R5
E51A	CC5C		SNS R12
E51C	0FE1		DEC R15, R14
E51E	7292		MOVB (R9)+++, R2
E520	3C40		MOVE $80, R12
E522	0FE1		DEC R15, R14
E524	FB70		SUB R11, #$71
E526	2035		JMP ($006A)

E528	2010		JMP ($0020)

E52A	648C		MOVB R4, (R8)
E52C	0000		HALT
E52E	0FDF		GETA R13, $F
E530	BBF0		SET R11, #$F0
E532	008C		MHL R0, R8
E534	0301		DEC R3, R0
E536	0FE1		DEC R15, R14
E538	FB20		SUB R11, #$21
E53A	70DC		MOVB (R13), R0
E53C	4000		PUTB $0, (R0)+
E53E	72B9		MOVB (R11), R2
E540	F071		BRA $E4D0		; -> -$72(R0)

E542	7EFE		MOVB (R15), R14
E544	3510		MOVE $20, R5
E546	1062		CTRL $0, #$62
E548	3C19		MOVE $32, R12
E54A	0B5A		ADDH R11, R5
E54C	F072		BRA $E4DB		; -> -$73(R0)

E54E	A8FE		ADD R8, #$FF
E550	3840		MOVE $80, R8
E552	0BA4		MOVE R11, R10
E554	0BE6		OR R11, R14
E556	0C00		DEC2 R12, R0
E558	0BB4		MOVE R11, R11
E55A	0B5A		ADDH R11, R5
E55C	F03B		BRA $E522		; -> -$3C(R0)

E55E	CEFE		SNBC R14, R15
E560	3840		MOVE $80, R8
E562	0BA4		MOVE R11, R10
E564	8FEE		LBI R15, #$EE
E566	F03B		BRA $E52C		; -> -$3C(R0)

E568	CEFE		SNBC R14, R15
E56A	3C00		MOVE $00, R12
E56C	0B5A		ADDH R11, R5
E56E	F072		BRA $E4FD		; -> -$73(R0)

E570	A8FE		ADD R8, #$FF
E572	3980		MOVE $100, R9
E574	0B59		SUB R11, R5
E576	72C0		MOVB (R12)+, R2
E578	3C0A		MOVE $14, R12
E57A	0BB4		MOVE R11, R11
E57C	F072		BRA $E50B		; -> -$73(R0)

E57E	B0FE		SET R0, #$FE
E580	3840		MOVE $80, R8
E582	0BA4		MOVE R11, R10
E584	3BE2		MOVE $1C4, R11
E586	BCFF		SET R12, #$FF
E588	0031		DEC R0, R3
E58A	0010		DEC2 R0, R1
E58C	9CFE		CLR R12, #$FE
E58E	300C		MOVE $18, R0
E590	0F48		ADD R15, R4
E592	3CFF		MOVE $1FE, R12
E594	0F4E		GETB R4, $F
E596	3C00		MOVE $00, R12
E598	0F4F		GETA R4, $F
E59A	3520		MOVE $40, R5
E59C	0DB9		SUB R13, R11
E59E	B530		SET R5, #$30
E5A0	04B6		OR R4, R11
E5A2	3006		MOVE $0C, R0
E5A4	B510		SET R5, #$10
E5A6	162C		CTRL $6, #$2C
E5A8	000F		GETA R0, $0
E5AA	5015		MOVE (R1)-, R0
E5AC	FA10		SUB R10, #$11
E5AE	3010		MOVE $20, R0
E5B0	7311		MOVB (R1)++, R3
E5B2	AC01		ADD R12, #$02
E5B4	1604		CTRL $6, #$04
E5B6	ED04		
E5B8	0072		INC R0, R7
E5BA	F934		SUB R9, #$35
E5BC	300B		MOVE $16, R0
E5BE	1633		CTRL $6, #$33
E5C0	8072		LBI R0, #$72
E5C2	E734		
E5C4	800B		LBI R0, #$0B
E5C6	A83A		ADD R8, #$3B
E5C8	800B		LBI R0, #$0B
E5CA	A1F0		ADD R1, #$F1
E5CC	0BFC		MHL R11, R15
E5CE	3B80		MOVE $100, R11
E5D0	0BA1		DEC R11, R10
E5D2	090E		GETB R0, $9
E5D4	05C0		DEC2 R5, R12
E5D6	0040		DEC2 R0, R4
E5D8	CD75		SBS R13, R7
E5DA	0580		DEC2 R5, R8
E5DC	72CD		MOVB (R12), R2
E5DE	3006		MOVE $0C, R0
E5E0	0EB0		DEC2 R14, R11
E5E2	3A80		MOVE $100, R10
E5E4	00A4		RET R10

E5E6	3520		MOVE $40, R5
E5E8	0B65		AND R11, R6
E5EA	3B20		MOVE $40, R11
E5EC	0DBF		GETA R11, $D
E5EE	F03B		BRA $E5B4		; -> -$3C(R0)

E5F0	D8FE		MOVE R8, (R15)
E5F2	BC01		SET R12, #$01
E5F4	02E3		INC2 R2, R14
E5F6	0000		HALT
E5F8	B910		SET R9, #$10
E5FA	1172		CTRL $1, #$72
E5FC	FCFE		SUB R12, #$FF
E5FE	3300		MOVE $00, R3
E600	F3F0		SUB R3, #$F1
E602	E400		
E604	0C28		ADD R12, R2
E606	730D		MOVB (R0), R3
E608	FB10		SUB R11, #$11
E60A	20F1		JMP ($01E2)

E60C	23E4		MOVE R3, $1C8
E60E	F16B		SUB R1, #$6C
E610	E2FE		
E612	C087		SBSH R0, R8
E614	73E8		MOVB (R14), R3
E616	F072		BRA $E5A5		; -> -$73(R0)

E618	F9FE		SUB R9, #$FF
E61A	ED00		
E61C	0C73		INC2 R12, R7
E61E	E8B5		
E620	1004		CTRL $0, #$04
E622	CC00		SLE R12, R0
E624	0EB6		OR R14, R11
E626	7317		MOVB (R1)----, R3
E628	3904		MOVE $08, R9
E62A	0F50		DEC2 R15, R5
E62C	731C		MOVB (R1), R3
E62E	DC40		MOVE R12, (R4)'
E630	0073		INC2 R0, R7
E632	21DC		MOVE R1, $1B8
E634	6B00		MOVB R11, (R0)+
E636	7321		MOVB (R2)++, R3
E638	DC1E		MOVE R12, (R1)
E63A	0072		INC R0, R7
E63C	D9DD		MOVE R9, (R13)
E63E	1500		CTRL $5, #$00
E640	732D		MOVB (R2), R3
E642	7310		MOVB (R1)+, R3
E644	01FA		ADDH R1, R15
E646	3010		MOVE $20, R0
E648	0073		INC2 R0, R7
E64A	11F0		CTRL $1, #$F0
E64C	72D9		MOVB (R13), R2
E64E	300C		MOVE $18, R0
E650	0F48		ADD R15, R4
E652	3CFF		MOVE $1FE, R12
E654	0F4F		GETA R4, $F
E656	3C00		MOVE $00, R12
E658	0F50		DEC2 R15, R5
E65A	CC00		SLE R12, R0
E65C	0EB6		OR R14, R11
E65E	73A3		MOVB (R10)++++, R3
E660	3520		MOVE $40, R5
E662	0EB4		MOVE R14, R11
E664	3250		MOVE $A0, R2
E666	0EB6		OR R14, R11
E668	3006		MOVE $0C, R0
E66A	0EB0		DEC2 R14, R11
E66C	3C00		MOVE $00, R12
E66E	0F4E		GETB R4, $F
E670	BC40		SET R12, #$40
E672	0037		XOR R0, R3
E674	500E		MOVE (R0), R0
E676	DBA4		MOVE R11, (R10)~
E678	5001		MOVE (R0)+, R0
E67A	00DD		MLH R0, R13
E67C	7D00		MOVB (R0)+, R13
E67E	7386		MOVB (R8)---, R3
E680	3904		MOVE $08, R9
E682	0F50		DEC2 R15, R5
E684	7386		MOVB (R8)---, R3
E686	3340		MOVE $80, R3
E688	737B		MOVB (R7), R3
E68A	7310		MOVB (R1)+, R3
E68C	013B		ADDH2 R1, R3
E68E	400E		PUTB $0, (R0)
E690	D6F0		MOVE R6, (R15)'
E692	7353		MOVB (R5)++++, R3
E694	9C00		CLR R12, #$00
E696	0000		HALT
E698	7310		MOVB (R1)+, R3
E69A	01B3		INC2 R1, R11
E69C	2001		JMP ($0002)

E69E	3750		MOVE $A0, R7
E6A0	0EDB		ADDH2 R14, R13
E6A2	C082		SE R0, R8
E6A4	7367		MOVB (R6)----, R3
E6A6	FA10		SUB R10, #$11
E6A8	3048		MOVE $90, R0
E6AA	73F7		MOVB (R15)----, R3
E6AC	3940		MOVE $80, R9
E6AE	0ED6		OR R14, R13
E6B0	7361		MOVB (R6)++, R3
E6B2	DD7D		MOVE R13, (R7)
E6B4	0073		INC2 R0, R7
E6B6	4A3A		PUTB $A, (R3)
E6B8	400E		PUTB $0, (R0)
E6BA	D673		MOVE R6, (R7)++
E6BC	1001		CTRL $0, #$01
E6BE	F073		BRA $E64C		; -> -$74(R0)

E6C0	53FE		MOVE (R15), R3
E6C2	3B40		MOVE $80, R11
E6C4	0ED6		OR R14, R13
E6C6	DC7D		MOVE R12, (R7)
E6C8	0073		INC2 R0, R7
E6CA	4AF0		PUTB $A, (R15)+
E6CC	737E		MOVB (R7), R3
E6CE	FA10		SUB R10, #$11
E6D0	3048		MOVE $90, R0
E6D2	73F7		MOVB (R15)----, R3
E6D4	3940		MOVE $80, R9
E6D6	0ED6		OR R14, R13
E6D8	7375		MOVB (R7)--, R3
E6DA	DD7D		MOVE R13, (R7)
E6DC	0073		INC2 R0, R7
E6DE	723A		MOVB (R3), R2
E6E0	400E		PUTB $0, (R0)
E6E2	D6FE		MOVE R6, (R15)
E6E4	7310		MOVB (R1)+, R3
E6E6	01F0		DEC2 R1, R15
E6E8	7367		MOVB (R6)----, R3
E6EA	3B40		MOVE $80, R11
E6EC	0ED6		OR R14, R13
E6EE	DC7D		MOVE R12, (R7)
E6F0	0073		INC2 R0, R7
E6F2	72F0		MOVB (R15)+, R2
E6F4	737E		MOVB (R7), R3
E6F6	3840		MOVE $80, R8
E6F8	0ED6		OR R14, R13
E6FA	73DE		MOVB (R13), R3
E6FC	CCFF		SNBSH R12, R15
E6FE	0F4F		GETA R4, $F
E700	73D8		MOVB (R13), R3
E702	3520		MOVE $40, R5
E704	0DB9		SUB R13, R11
E706	B410		SET R4, #$10
E708	16F0		CTRL $6, #$F0
E70A	73D0		MOVB (R13)+, R3
E70C	3340		MOVE $80, R3
E70E	737E		MOVB (R7), R3
E710	9C00		CLR R12, #$00
E712	0000		HALT
E714	B320		SET R3, #$20
E716	01FE		GETB R15, $1
E718	7310		MOVB (R1)+, R3
E71A	01FA		ADDH R1, R15
E71C	1030		CTRL $0, #$30
E71E	4873		PUTB $8, (R7)++++
E720	F7FE		SUB R7, #$FF
E722	3904		MOVE $08, R9
E724	0F50		DEC2 R15, R5
E726	7397		MOVB (R9)----, R3
E728	DC6B		MOVE R12, (R6)
E72A	0073		INC2 R0, R7
E72C	7EFE		MOVB (R15), R14
E72E	DC15		MOVE R12, (R1)-
E730	0073		INC2 R0, R7
E732	7EDC		MOVB (R13), R14
E734	1E00		CTRL $E, #$00
E736	737E		MOVB (R7), R3
E738	3750		MOVE $A0, R7
E73A	0EDB		ADDH2 R14, R13
E73C	C002		SE R0, R0
E73E	7388		MOVB (R8), R3
E740	F950		SUB R9, #$51
E742	50F0		MOVE (R15)', R0
E744	738C		MOVB (R8), R3
E746	3B02		MOVE $04, R11
E748	0BA4		MOVE R11, R10
E74A	CCFF		SNBSH R12, R15
E74C	0F4F		GETA R4, $F
E74E	73B1		MOVB (R11)++, R3
E750	3520		MOVE $40, R5
E752	0DB9		SUB R13, R11
E754	EC04		
E756	0073		INC2 R0, R7
E758	B133		SET R1, #$33
E75A	7073		MOVB (R7)++++, R0
E75C	F73A		SUB R7, #$3B
E75E	020B		ADDH2 R2, R0
E760	A4FE		ADD R4, #$FF
E762	F123		SUB R1, #$24
E764	F4FE		SUB R4, #$FF
E766	F073		BRA $E6F4		; -> -$74(R0)

E768	DCFE		MOVE R12, (R15)
E76A	FA10		SUB R10, #$11
E76C	3020		MOVE $40, R0
E76E	73C3		MOVB (R12)++++, R3
E770	DC6B		MOVE R12, (R6)
E772	0073		INC2 R0, R7
E774	C3CC		SNS R3
E776	FF0F		SUB R15, #$10
E778	4F73		PUTB $F, (R7)++++
E77A	DCDC		MOVE R12, (R13)
E77C	1500		CTRL $5, #$00
E77E	73C3		MOVB (R12)++++, R3
E780	DD1E		MOVE R13, (R1)
E782	0073		INC2 R0, R7
E784	DCFE		MOVE R12, (R15)
E786	CCFF		SNBSH R12, R15
E788	0F4F		GETA R4, $F
E78A	73CA		MOVB (R12), R3
E78C	3520		MOVE $40, R5
E78E	0DB9		SUB R13, R11
E790	B410		SET R4, #$10
E792	16FE		CTRL $6, #$FE
E794	3520		MOVE $40, R5
E796	0EB4		MOVE R14, R11
E798	3006		MOVE $0C, R0
E79A	0EB0		DEC2 R14, R11
E79C	E70C		
E79E	00FE		GETB R15, $0
E7A0	CCFF		SNBSH R12, R15
E7A2	0F4F		GETA R4, $F
E7A4	73D8		MOVB (R13), R3
E7A6	0C01		DEC R12, R0
E7A8	0F4C		MHL R15, R4
E7AA	0DB7		XOR R13, R11
E7AC	300E		MOVE $1C, R0
E7AE	0F48		ADD R15, R4
E7B0	3410		MOVE $20, R4
E7B2	0F48		ADD R15, R4
E7B4	300E		MOVE $1C, R0
E7B6	0F48		ADD R15, R4
E7B8	3006		MOVE $0C, R0
E7BA	0EB0		DEC2 R14, R11
E7BC	CDFF		SNBSH R13, R15
E7BE	0F4F		GETA R4, $F
E7C0	73E6		MOVB (R14)---, R3
E7C2	0903		INC2 R9, R0
E7C4	0EE2		INC R14, R14
E7C6	0000		HALT
E7C8	3B40		MOVE $80, R11
E7CA	0DBF		GETA R11, $D
E7CC	F08F		BRA $E73E		; -> -$90(R0)

E7CE	E0FE		ROR3 R15
E7D0	CC00		SLE R12, R0
E7D2	0F4E		GETB R4, $F
E7D4	73ED		MOVB (R14), R3
E7D6	3006		MOVE $0C, R0
E7D8	0EB0		DEC2 R14, R11
E7DA	3520		MOVE $40, R5
E7DC	0DB9		SUB R13, R11
E7DE	AC01		ADD R12, #$02
E7E0	1604		CTRL $6, #$04
E7E2	AE10		ADD R14, #$11
E7E4	1606		CTRL $6, #$06
E7E6	8E10		LBI R14, #$10
E7E8	080E		GETB R0, $8
E7EA	DBF0		MOVE R11, (R15)'
E7EC	8FEA		LBI R15, #$EA
E7EE	FB00		SUB R11, #$01
E7F0	20FB		JMP ($01F6)

E7F2	7080		MOVB (R8)+, R0
E7F4	CCFF		SNBSH R12, R15
E7F6	0F4F		GETA R4, $F
E7F8	741D		MOVB (R1), R4
E7FA	3520		MOVE $40, R5
E7FC	0DB9		SUB R13, R11
E7FE	EC04		
E800	0074		RET R7

E802	1DBC		CTRL $D, #$BC
E804	0102		INC R1, R0
E806	E300		
E808	00FE		GETB R15, $0
E80A	B910		SET R9, #$10
E80C	1174		CTRL $1, #$74
E80E	05FE		GETB R15, $5
E810	3380		MOVE $100, R3
E812	F3F0		SUB R3, #$F1
E814	E480		
E816	0C28		ADD R12, R2
E818	7416		MOVB (R1)---, R4
E81A	FB10		SUB R11, #$11
E81C	20F1		JMP ($01E2)

E81E	23E4		MOVE R3, $1C8
E820	F16B		SUB R1, #$6C
E822	E2FE		
E824	C087		SBSH R0, R8
E826	73E8		MOVB (R14), R3
E828	F074		BRA $E7B5		; -> -$75(R0)

E82A	03FE		GETB R15, $3
E82C	ED00		
E82E	0C73		INC2 R12, R7
E830	E8B5		
E832	1004		CTRL $0, #$04
E834	FB20		SUB R11, #$21
E836	00FC		MHL R0, R15
E838	7000		MOVB (R0)+, R0
E83A	FB70		SUB R11, #$71
E83C	40F0		PUTB $0, (R15)+
E83E	741A		MOVB (R1), R4
E840	093F		GETA R3, $9
E842	05C0		DEC2 R5, R12
E844	0040		DEC2 R0, R4
E846	0963		INC2 R9, R6
E848	0F24		MOVE R15, R2
E84A	0000		HALT
E84C	0901		DEC R9, R0
E84E	0FD5		AND R15, R13
E850	0000		HALT
E852	0910		DEC2 R9, R1
E854	0F5C		MHL R15, R5
E856	0040		DEC2 R0, R4
E858	0903		INC2 R9, R0
E85A	0F7A		ADDH R15, R7
E85C	00F0		DEC2 R0, R15
E85E	0C02		INC R12, R0
E860	0F7F		GETA R7, $F
E862	0B69		SUB R11, R6
E864	7310		MOVB (R1)+, R3
E866	04C5		AND R4, R12
E868	300B		MOVE $16, R0
E86A	3CC0		MOVE $180, R12
E86C	8174		LBI R1, #$74
E86E	4434		PUTB $4, (R3)-
E870	1010		CTRL $0, #$10
E872	6233		MOVB R2, (R3)++++
E874	100B		CTRL $0, #$0B
E876	3CF1		MOVE $1E2, R12
E878	17F4		CTRL $7, #$F4
E87A	0C03		INC2 R12, R0
E87C	0B6E		GETB R6, $B
E87E	0178		ADD R1, R7
E880	3B01		MOVE $02, R11
E882	0BA5		AND R11, R10
E884	3510		MOVE $20, R5
E886	1062		CTRL $0, #$62
E888	DC7D		MOVE R12, (R7)
E88A	0074		RET R7

E88C	4D33		PUTB $D, (R3)++++
E88E	7074		MOVB (R7)-, R0
E890	83F1		LBI R3, #$F1
E892	5FF8		MOVE (R15), R15
E894	DD7D		MOVE R13, (R7)
E896	0074		RET R7

E898	65FE		MOVB R5, (R15)
E89A	7310		MOVB (R1)+, R3
E89C	013C		MHL R1, R3
E89E	110F		CTRL $1, #$0F
E8A0	6D33		MOVB R13, (R3)++++
E8A2	200F		JMP ($001E)

E8A4	5CFE		MOVE (R15), R12
E8A6	DC7D		MOVE R12, (R7)
E8A8	0074		RET R7

E8AA	5D3F		MOVE (R3), R13
E8AC	010F		GETA R0, $1
E8AE	6DC0		MOVB R13, (R12)+
E8B0	825F		LBI R2, #$5F
E8B2	F4F1		SUB R4, #$F2
E8B4	0BF2		INC R11, R15
E8B6	F074		BRA $E843		; -> -$75(R0)

E8B8	53FE		MOVE (R15), R3
E8BA	7310		MOVB (R1)+, R3
E8BC	01DC		MHL R1, R13
E8BE	4000		PUTB $0, (R0)+
E8C0	7483		MOVB (R8)++++, R4
E8C2	DD6B		MOVE R13, (R6)
E8C4	005F		GETA R5, $0
E8C6	F473		SUB R4, #$74
E8C8	1001		CTRL $0, #$01
E8CA	3300		MOVE $00, R3
E8CC	0004		NOP
E8CE	4000		PUTB $0, (R0)+
E8D0	0002		INC R0, R0
E8D2	C3FE		SNBC R3, R15
E8D4	2874		MOVE R8, $E8
E8D6	7E73		MOVB (R7)++++, R14
E8D8	1004		CTRL $0, #$04
E8DA	7012		MOVB (R1)+++, R0
E8DC	0075		AND R0, R7
E8DE	2474		MOVE R4, $E8
E8E0	7375		MOVB (R7)--, R3
E8E2	2475		MOVE R4, $EA
E8E4	2400		MOVE R4, $00
E8E6	3320		MOVE $40, R3
E8E8	0FD5		AND R15, R13
E8EA	F183		SUB R1, #$84
E8EC	EAFE		
E8EE	DC40		MOVE R12, (R4)'
E8F0	0074		RET R7

E8F2	83DD		LBI R3, #$DD
E8F4	6B00		MOVB R11, (R0)+
E8F6	5FF4		MOVE (R15)~, R15
E8F8	7310		MOVB (R1)+, R3
E8FA	01FE		GETB R15, $1
E8FC	F15F		SUB R1, #$60
E8FE	F6FE		SUB R6, #$FF
E900	DD40		MOVE R13, (R4)'
E902	005F		GETA R5, $0
E904	F4FE		SUB R4, #$FF
E906	3C02		MOVE $04, R12
E908	0B02		INC R11, R0
E90A	C300		SLE R3, R0
E90C	0B00		DEC2 R11, R0
E90E	3310		MOVE $20, R3
E910	0F24		MOVE R15, R2
E912	4C01		PUTB $C, (R0)++
E914	000B		ADDH2 R0, R0
E916	634C		MOVB R3, (R4)
E918	0102		INC R1, R0
E91A	0DB0		DEC2 R13, R11
E91C	F15F		SUB R1, #$60
E91E	E8FE		
E920	4C01		PUTB $C, (R0)++
E922	040F		GETA R0, $4
E924	7FCD		MOVB (R12), R15
E926	F00F		BRA $E918		; -> -$10(R0)

E928	7A74		MOVB (R7)-, R10
E92A	9A0D		CLR R10, #$0D
E92C	020F		GETA R0, $2
E92E	7A0F		MOVB (R0), R10
E930	7B20		MOVB (R2)+, R11
E932	749F		MOVB (R9), R4
E934	F15F		SUB R1, #$60
E936	F2FE		SUB R2, #$FF
E938	4C01		PUTB $C, (R0)++
E93A	060F		GETA R0, $6
E93C	82FE		LBI R2, #$FE
E93E	CD40		SLE R13, R4
E940	0F5C		MHL R15, R5
E942	74A7		MOVB (R10)----, R4
E944	0D0F		GETA R0, $D
E946	0F5C		MHL R15, R5
E948	0F5D		MLH R15, R5
E94A	2074		JMP ($00E8)

E94C	ABFE		ADD R11, #$FF
E94E	3350		MOVE $A0, R3
E950	0F5C		MHL R15, R5
E952	7450		MOVB (R5)+, R4
E954	08FE		GETB R15, $8
E956	7A80		MOVB (R8)+, R10
E958	10F1		CTRL $0, #$F1
E95A	53FC		MOVE (R15), R3
E95C	DC00		MOVE R12, (R0)'
E95E	0C74		MOVE R12, R7
E960	B51C		SET R5, #$1C
E962	000B		ADDH2 R0, R0
E964	B40C		SET R4, #$0C
E966	F08F		BRA $E8D8		; -> -$90(R0)

E968	EEFE		
E96A	7520		MOVB (R2)+, R5
E96C	00E5		AND R0, R14
E96E	000C		MHL R0, R0
E970	C081		SLT R0, R8
E972	74BD		MOVB (R11), R4
E974	FB10		SUB R11, #$11
E976	20F0		JMP ($01E0)

E978	7508		MOVB (R0), R5
E97A	DD09		MOVE R13, (R0)
E97C	0F75		AND R15, R7
E97E	0C1C		MHL R12, R1
E980	010B		ADDH2 R1, R0
E982	6302		MOVB R3, (R0)+++
E984	3420		MOVE $40, R4
E986	0B3C		MHL R11, R3
E988	3340		MOVE $80, R3
E98A	0040		DEC2 R0, R4
E98C	E440		
E98E	1C00		CTRL $C, #$00
E990	7512		MOVB (R1)+++, R5
E992	BCFF		SET R12, #$FF
E994	21BA		MOVE R1, $174
E996	0814		MOVE R8, R1
E998	C530		SLE R5, R3
E99A	0FD5		AND R15, R13
E99C	C081		SLT R0, R8
E99E	74E0		MOVB (R14)+, R4
E9A0	3C02		MOVE $04, R12
E9A2	0B02		INC R11, R0
E9A4	C300		SLE R3, R0
E9A6	0B00		DEC2 R11, R0
E9A8	F177		SUB R1, #$78
E9AA	EAFE		
E9AC	3530		MOVE $60, R5
E9AE	0FD5		AND R15, R13
E9B0	3730		MOVE $60, R7
E9B2	0EDB		ADDH2 R14, R13
E9B4	C081		SLT R0, R8
E9B6	74E2		MOVB (R14)+++, R4
E9B8	3430		MOVE $60, R4
E9BA	0FD5		AND R15, R13
E9BC	F074		BRA $E949		; -> -$75(R0)

E9BE	D0FE		JMP (R15)
E9C0	F177		SUB R1, #$78
E9C2	EAFE		
E9C4	F00B		BRA $E9BA		; -> -$0C(R0)

E9C6	F4FE		SUB R4, #$FF
E9C8	3480		MOVE $100, R4
E9CA	105E		CTRL $0, #$5E
E9CC	3980		MOVE $100, R9
E9CE	00A4		RET R10

E9D0	7520		MOVB (R2)+, R5
E9D2	3520		MOVE $40, R5
E9D4	0B3C		MHL R11, R3
E9D6	AD02		ADD R13, #$03
E9D8	1E26		CTRL $E, #$26
E9DA	2074		JMP ($00E8)

E9DC	FF3A		SUB R15, #$3B
E9DE	400B		PUTB $0, (R0)
E9E0	A1F1		ADD R1, #$F2
E9E2	77FA		MOVB (R15), R7
E9E4	3B40		MOVE $80, R11
E9E6	0BA1		DEC R11, R10
E9E8	E500		
E9EA	0CC0		DEC2 R12, R12
E9EC	0175		AND R1, R7
E9EE	18B5		CTRL $8, #$B5
E9F0	1024		CTRL $0, #$24
E9F2	B500		SET R5, #$00
E9F4	1C14		CTRL $C, #$14
E9F6	0005		AND R0, R0
E9F8	8000		LBI R0, #$00
E9FA	3100		MOVE $00, R1
E9FC	105E		CTRL $0, #$5E
E9FE	F175		SUB R1, #$76
EA00	03FE		GETB R15, $3
EA02	F00B		BRA $E9F8		; -> -$0C(R0)

EA04	F6FE		SUB R6, #$FF
EA06	F900		SUB R9, #$01
EA08	0034		RET R3

EA0A	000B		ADDH2 R0, R0
EA0C	3CFC		MOVE $1F8, R12
EA0E	8000		LBI R0, #$00
EA10	3410		MOVE $20, R4
EA12	0BB6		OR R11, R11
EA14	F08F		BRA $E986		; -> -$90(R0)

EA16	EEFE		
EA18	F175		SUB R1, #$76
EA1A	03FE		GETB R15, $3
EA1C	3C3E		MOVE $7C, R12
EA1E	0BB4		MOVE R11, R11
EA20	F08F		BRA $E992		; -> -$90(R0)

EA22	EEFE		
EA24	F175		SUB R1, #$76
EA26	03FE		GETB R15, $3
EA28	3C3F		MOVE $7E, R12
EA2A	0BB4		MOVE R11, R11
EA2C	F08F		BRA $E99E		; -> -$90(R0)

EA2E	EEFE		
EA30	3420		MOVE $40, R4
EA32	0BB6		OR R11, R11
EA34	F08F		BRA $E9A6		; -> -$90(R0)

EA36	EEFE		
EA38	3C1C		MOVE $38, R12
EA3A	0BB4		MOVE R11, R11
EA3C	F08F		BRA $E9AE		; -> -$90(R0)

EA3E	EEFE		
EA40	3A40		MOVE $80, R10
EA42	0BA2		INC R11, R10
EA44	F08F		BRA $E9B6		; -> -$90(R0)

EA46	EEFE		
EA48	3C32		MOVE $64, R12
EA4A	0B5A		ADDH R11, R5
EA4C	F00B		BRA $EA42		; -> -$0C(R0)

EA4E	E6FE		
EA50	3B80		MOVE $100, R11
EA52	0BA4		MOVE R11, R10
EA54	7012		MOVB (R1)+++, R0
EA56	0075		AND R0, R7
EA58	B075		SET R0, #$75
EA5A	B075		SET R0, #$75
EA5C	3075		MOVE $EA, R0
EA5E	B000		SET R0, #$00
EA60	F10B		SUB R1, #$0C
EA62	F2FE		SUB R2, #$FF
EA64	DD5B		MOVE R13, (R5)
EA66	0075		AND R0, R7
EA68	36F1		MOVE $1E2, R6
EA6A	0BF2		INC R11, R15
EA6C	7D4D		MOVB (R4), R13
EA6E	0050		DEC2 R0, R5
EA70	83D8		LBI R3, #$D8
EA72	DD7E		MOVE R13, (R7)
EA74	0075		AND R0, R7
EA76	B0F1		SET R0, #$F1
EA78	0BF2		INC R11, R15
EA7A	DD4D		MOVE R13, (R4)
EA7C	0075		AND R0, R7
EA7E	50CC		MOVE (R12), R0
EA80	5B10		MOVE (R1)', R11
EA82	D275		MOVE R2, (R7)-
EA84	4AF1		PUTB $A, (R15)++
EA86	0BF2		INC R11, R15
EA88	F18F		SUB R1, #$90
EA8A	F8FE		SUB R8, #$FF
EA8C	3C00		MOVE $00, R12
EA8E	0B57		XOR R11, R5
EA90	F075		BRA $EA1C		; -> -$76(R0)

EA92	81FE		LBI R1, #$FE
EA94	F10B		SUB R1, #$0C
EA96	F2FE		SUB R2, #$FF
EA98	F18F		SUB R1, #$90
EA9A	F6FE		SUB R6, #$FF
EA9C	F075		BRA $EA28		; -> -$76(R0)

EA9E	81FE		LBI R1, #$FE
EAA0	7012		MOVB (R1)+++, R0
EAA2	0075		AND R0, R7
EAA4	B075		SET R0, #$75
EAA6	B075		SET R0, #$75
EAA8	5675		MOVE (R7)-, R6
EAAA	B000		SET R0, #$00
EAAC	3300		MOVE $00, R3
EAAE	0005		AND R0, R0
EAB0	4000		PUTB $0, (R0)+
EAB2	0002		INC R0, R0
EAB4	9BFE		CLR R11, #$FE
EAB6	2075		JMP ($00EA)

EAB8	B440		SET R4, #$40
EABA	0000		HALT
EABC	029E		GETB R9, $2
EABE	2075		JMP ($00EA)

EAC0	B433		SET R4, #$33
EAC2	0000		HALT
EAC4	0440		DEC2 R4, R4
EAC6	0000		HALT
EAC8	02F7		XOR R2, R15
EACA	2075		JMP ($00EA)

EACC	BB40		SET R11, #$40
EACE	0000		HALT
EAD0	02F9		SUB R2, R15
EAD2	2075		JMP ($00EA)

EAD4	B833		SET R8, #$33
EAD6	0000		HALT
EAD8	0340		DEC2 R3, R4
EADA	0000		HALT
EADC	02F5		AND R2, R15
EADE	2875		MOVE R8, $EA
EAE0	87CC		LBI R7, #$CC
EAE2	5B10		MOVE (R1)', R11
EAE4	D275		MOVE R2, (R7)-
EAE6	B0F1		SET R0, #$F1
EAE8	0BEA		ADDH R11, R14
EAEA	DD40		MOVE R13, (R4)'
EAEC	0075		AND R0, R7
EAEE	B0FE		SET R0, #$FE
EAF0	3808		MOVE $10, R8
EAF2	0BA3		INC2 R11, R10
EAF4	3BE2		MOVE $1C4, R11
EAF6	3320		MOVE $40, R3
EAF8	10CA		CTRL $0, #$CA
EAFA	8903		LBI R9, #$03
EAFC	0000		HALT
EAFE	00F0		DEC2 R0, R15
EB00	3BDA		MOVE $1B4, R11
EB02	DD5D		MOVE R13, (R5)
EB04	0075		AND R0, R7
EB06	B0CC		SET R0, #$CC
EB08	5B10		MOVE (R1)', R11
EB0A	D275		MOVE R2, (R7)-
EB0C	D6FE		MOVE R6, (R15)
EB0E	F10B		SUB R1, #$0C
EB10	F2FE		SUB R2, #$FF
EB12	CD5B		SNZ R13
EB14	10D2		CTRL $0, #$D2
EB16	7592		MOVB (R9)+++, R5
EB18	DD5B		MOVE R13, (R5)
EB1A	0075		AND R0, R7
EB1C	B0BC		SET R0, #$BC
EB1E	5B00		MOVE (R0)', R11
EB20	F10B		SUB R1, #$0C
EB22	F0FE		BRA $EA25		; -> -$FF(R0)

EB24	DC40		MOVE R12, (R4)'
EB26	0075		AND R0, R7
EB28	78CC		MOVB (R12), R8
EB2A	5B10		MOVE (R1)', R11
EB2C	D275		MOVE R2, (R7)-
EB2E	B0CC		SET R0, #$CC
EB30	4D10		PUTB $D, (R1)+
EB32	D375		MOVE R3, (R7)-
EB34	A0DC		BRA $EC13		; $DD(R0)

EB36	4E00		PUTB $E, (R0)+
EB38	75A3		MOVB (R10)++++, R5
EB3A	DC60		MOVE R12, (R6)'
EB3C	0075		AND R0, R7
EB3E	A3FE		ADD R3, #$FF
EB40	DD5C		MOVE R13, (R5)
EB42	0075		AND R0, R7
EB44	B0FE		SET R0, #$FE
EB46	F10B		SUB R1, #$0C
EB48	F2FE		SUB R2, #$FF
EB4A	7012		MOVB (R1)+++, R0
EB4C	0075		AND R0, R7
EB4E	B075		SET R0, #$75
EB50	B075		SET R0, #$75
EB52	AB75		ADD R11, #$76
EB54	B000		SET R0, #$00
EB56	F10B		SUB R1, #$0C
EB58	F2FE		SUB R2, #$FF
EB5A	DC40		MOVE R12, (R4)'
EB5C	0075		AND R0, R7
EB5E	78FE		MOVB (R15), R8
EB60	3C00		MOVE $00, R12
EB62	0B5A		ADDH R11, R5
EB64	F00B		BRA $EB5A		; -> -$0C(R0)

EB66	E6FE		
EB68	F10B		SUB R1, #$0C
EB6A	F2FE		SUB R2, #$FF
EB6C	3A80		MOVE $100, R10
EB6E	0BA4		MOVE R11, R10
EB70	CC5B		SNZ R12
EB72	10D2		CTRL $0, #$D2
EB74	75B0		MOVB (R11)+, R5
EB76	F10B		SUB R1, #$0C
EB78	EAFE		
EB7A	F10B		SUB R1, #$0C
EB7C	F2FE		SUB R2, #$FF
EB7E	7012		MOVB (R1)+++, R0
EB80	0075		AND R0, R7
EB82	B075		SET R0, #$75
EB84	B075		SET R0, #$75
EB86	C575		SBS R5, R7
EB88	B000		SET R0, #$00
EB8A	F10B		SUB R1, #$0C
EB8C	F2FE		SUB R2, #$FF
EB8E	3980		MOVE $100, R9
EB90	0BA4		MOVE R11, R10
EB92	75D9		MOVB (R13), R5
EB94	CD5B		SNZ R13
EB96	10D2		CTRL $0, #$D2
EB98	75D2		MOVB (R13)+++, R5
EB9A	DD5B		MOVE R13, (R5)
EB9C	0075		AND R0, R7
EB9E	B0FE		SET R0, #$FE
EBA0	F10B		SUB R1, #$0C
EBA2	F2FE		SUB R2, #$FF
EBA4	DC5D		MOVE R12, (R5)
EBA6	0075		AND R0, R7
EBA8	ABF0		ADD R11, #$F1
EBAA	75B0		MOVB (R11)+, R5
EBAC	BC5D		SET R12, #$5D
EBAE	00F0		DEC2 R0, R15
EBB0	7590		MOVB (R9)+, R5
EBB2	DC5B		MOVE R12, (R5)
EBB4	0075		AND R0, R7
EBB6	D0F0		JMP (R15)'
EBB8	75D2		MOVB (R13)+++, R5
EBBA	7B17		MOVB (R1)----, R11
EBBC	2EBA		MOVE R14, $174
EBBE	D6DD		MOVE R6, (R13)
EBC0	C73C		SNS R7
EBC2	729F		MOVB (R9), R2
EBC4	4F27		PUTB $F, (R2)----
EBC6	2617		MOVE R6, $2E
EBC8	9A23		CLR R10, #$23
EBCA	6A44		MOVB R10, (R4)-
EBCC	6C3B		MOVB R12, (R3)
EBCE	15F9		CTRL $5, #$F9
EBD0	9267		CLR R2, #$67
EBD2	621D		MOVB R2, (R1)
EBD4	6329		MOVB R3, (R2)
EBD6	F1C3		SUB R1, #$C4
EBD8	5CA4		MOVE (R10)~, R12
EBDA	59C9		MOVE (R12), R9
EBDC	F2C9		SUB R2, #$CA
EBDE	CD04		SS R13
EBE0	674E		MOVB R7, (R4)
EBE2	5156		MOVE (R5)-~, R1
EBE4	BC75		SET R12, #$75
EBE6	E2D6		
EBE8	3100		MOVE $00, R1
EBEA	4925		PUTB $9, (R2)--
EBEC	40BE		PUTB $0, (R11)
EBEE	4000		PUTB $0, (R0)+
EBF0	0000		HALT
EBF2	483B		PUTB $8, (R3)
EBF4	9ACA		CLR R10, #$CA
EBF6	0000		HALT
EBF8	0000		HALT
EBFA	475F		PUTB $7, (R5)
EBFC	5E10		MOVE (R1)', R14
EBFE	0000		HALT
EC00	0000		HALT
EC02	4698		PUTB $6, (R9)
EC04	9680		CLR R6, #$80
EC06	0000		HALT
EC08	0000		HALT
EC0A	45F4		PUTB $5, (R15)-
EC0C	2400		MOVE R4, $00
EC0E	0000		HALT
EC10	0000		HALT
EC12	4518		PUTB $5, (R1)
EC14	6A00		MOVB R10, (R0)+
EC16	0000		HALT
EC18	0000		HALT
EC1A	4427		PUTB $4, (R2)----
EC1C	1000		CTRL $0, #$00
EC1E	0000		HALT
EC20	0000		HALT
EC22	433E		PUTB $3, (R3)
EC24	8000		LBI R0, #$00
EC26	0000		HALT
EC28	0000		HALT
EC2A	4264		PUTB $2, (R6)-
EC2C	0000		HALT
EC2E	0000		HALT
EC30	0000		HALT
EC32	41A0		PUTB $1, (R10)+
EC34	0000		HALT
EC36	0000		HALT
EC38	0000		HALT
EC3A	06B0		DEC2 R6, R11
EC3C	AF48		ADD R15, #$49
EC3E	EC79		
EC40	ACE8		ADD R12, #$E9
EC42	0F19		SUB R15, R1
EC44	B604		SET R6, #$04
EC46	AAAC		ADD R10, #$AD
EC48	A626		ADD R6, #$27
EC4A	173B		CTRL $7, #$3B
EC4C	DCF4		MOVE R12, (R15)~
EC4E	95A9		CLR R5, #$A9
EC50	703D		MOVB (R3), R0
EC52	1F8B		CTRL $F, #$8B
EC54	6131		MOVB R1, (R3)++
EC56	3BBA		MOVE $174, R11
EC58	BCE2		SET R12, #$E2
EC5A	2814		MOVE R8, $28
EC5C	484B		PUTB $8, (R4)
EC5E	FEEB		SUB R14, #$EC
EC60	C29F		SNBSH R2, R9
EC62	302F		MOVE $5E, R0
EC64	3942		MOVE $84, R9
EC66	1924		CTRL $9, #$24
EC68	8446		LBI R4, #$46
EC6A	386D		MOVE $DA, R8
EC6C	F37F		SUB R3, #$80
EC6E	675E		MOVB R7, (R5)
EC70	F6EA		SUB R6, #$EB
EC72	3944		MOVE $88, R9
EC74	B82F		SET R8, #$2F
EC76	A09B		BRA $ED14		; $9C(R0)

EC78	5A52		MOVE (R5)+', R10
EC7A	3A2A		MOVE $54, R10
EC7C	F31D		SUB R3, #$1E
EC7E	C461		SLT R4, R6
EC80	1873		CTRL $8, #$73
EC82	3B1A		MOVE $34, R11
EC84	D7F2		MOVE R7, (R15)+'
EC86	9ABC		CLR R10, #$BC
EC88	AF48		ADD R15, #$49
EC8A	3C10		MOVE $20, R12
EC8C	C6F7		SBSH R6, R15
EC8E	A0B5		BRA $ED46		; $B6(R0)

EC90	ED8D		
EC92	3CA7		MOVE $14E, R12
EC94	C5AC		SNS R5
EC96	471B		PUTB $7, (R1)
EC98	4784		PUTB $7, (R8)-
EC9A	3D68		MOVE $D0, R13
EC9C	DB8B		MOVE R11, (R8)
EC9E	AC71		ADD R12, #$72
ECA0	0CB2		INC R12, R11
ECA2	3E41		MOVE $82, R14
ECA4	8937		LBI R9, #$37
ECA6	4BC6		PUTB $B, (R12)---
ECA8	A7EF		ADD R7, #$F0
ECAA	3F28		MOVE $50, R15
ECAC	F5C2		SUB R5, #$C3
ECAE	8F5C		LBI R15, #$5C
ECB0	28F5		MOVE R8, $1EA
ECB2	4019		PUTB $0, (R1)
ECB4	9999		CLR R9, #$99
ECB6	9999		CLR R9, #$99
ECB8	9999		CLR R9, #$99
ECBA	F140		SUB R1, #$41
ECBC	4040		PUTB $0, (R4)+
ECBE	4040		PUTB $0, (R4)+
ECC0	4040		PUTB $0, (R4)+
ECC2	300C		MOVE $18, R0
ECC4	0FC8		ADD R15, R12
ECC6	0907		XOR R9, R0
ECC8	0FCE		GETB R12, $F
ECCA	0000		HALT
ECCC	CE10		SLE R14, R1
ECCE	0DB9		SUB R13, R11
ECD0	766C		MOVB (R6), R6
ECD2	1C02		CTRL $C, #$02
ECD4	0FCF		GETA R12, $F
ECD6	1EFE		CTRL $E, #$FE
ECD8	3C46		MOVE $8C, R12
ECDA	0FCE		GETB R12, $F
ECDC	C70A		SNE R7, R0
ECDE	0FCE		GETB R12, $F
ECE0	301A		MOVE $34, R0
ECE2	0EBA		ADDH R14, R11
ECE4	300E		MOVE $1C, R0
ECE6	0FC8		ADD R15, R12
ECE8	3C00		MOVE $00, R12
ECEA	0FD8		ADD R15, R13
ECEC	F076		BRA $EC77		; -> -$77(R0)

ECEE	7EFE		MOVB (R15), R14
ECF0	3C01		MOVE $02, R12
ECF2	0FD8		ADD R15, R13
ECF4	F076		BRA $EC7F		; -> -$77(R0)

ECF6	7EFE		MOVB (R15), R14
ECF8	3C02		MOVE $04, R12
ECFA	0FD8		ADD R15, R13
ECFC	300C		MOVE $18, R0
ECFE	0FC8		ADD R15, R12
ED00	0907		XOR R9, R0
ED02	0FCE		GETB R12, $F
ED04	0000		HALT
ED06	0C01		DEC R12, R0
ED08	0FD6		OR R15, R13
ED0A	0EB4		MOVE R14, R11
ED0C	F147		SUB R1, #$48
ED0E	DAFE		MOVE R10, (R15)
ED10	301C		MOVE $38, R0
ED12	0EB0		DEC2 R14, R11
ED14	D708		MOVE R7, (R0)
ED16	00D7		XOR R0, R13
ED18	1200		CTRL $2, #$00
ED1A	D70C		MOVE R7, (R0)
ED1C	00DD		MLH R0, R13
ED1E	0303		INC2 R3, R0
ED20	76CF		MOVB (R12), R6
ED22	3510		MOVE $20, R5
ED24	0FD6		OR R15, R13
ED26	3300		MOVE $00, R3
ED28	0002		INC R0, R0
ED2A	4000		PUTB $0, (R0)+
ED2C	0002		INC R0, R0
ED2E	D8FE		MOVE R8, (R15)
ED30	2876		MOVE R8, $EC
ED32	CF70		SLE R15, R7
ED34	1202		CTRL $2, #$02
ED36	76CF		MOVB (R12), R6
ED38	769F		MOVB (R9), R6
ED3A	76AA		MOVB (R10), R6
ED3C	76CF		MOVB (R12), R6
ED3E	7FF0		MOVB (R15)+, R15
ED40	0272		INC R2, R7
ED42	3002		MOVE $04, R0
ED44	7EF0		MOVB (R15)+, R14
ED46	02F8		ADD R2, R15
ED48	3030		MOVE $60, R0
ED4A	3310		MOVE $20, R3
ED4C	0B42		INC R11, R4
ED4E	F810		SUB R8, #$11
ED50	30F0		MOVE $1E0, R0
ED52	76B5		MOVB (R11)--, R6
ED54	DDE2		MOVE R13, (R14)+'
ED56	0276		OR R2, R7
ED58	B033		SET R0, #$33
ED5A	100B		CTRL $0, #$0B
ED5C	3EF0		MOVE $1E0, R14
ED5E	76B5		MOVB (R11)--, R6
ED60	DDD7		MOVE R13, (R13)--
ED62	0276		OR R2, R7
ED64	CF33		SZ R15
ED66	100B		CTRL $0, #$0B
ED68	40FE		PUTB $0, (R15)
ED6A	DE10		MOVE R14, (R1)'
ED6C	0076		OR R0, R7
ED6E	6CCC		MOVB R12, (R12)
ED70	020F		GETA R0, $2
ED72	D876		MOVE R8, (R7)-~
ED74	CB78		SGT R11, R7
ED76	2015		JMP ($002A)

ED78	766C		MOVB (R6), R6
ED7A	7510		MOVB (R1)+, R5
ED7C	4276		PUTB $2, (R7)---
ED7E	1042		CTRL $0, #$42
ED80	CC01		SLT R12, R0
ED82	0FD8		ADD R15, R13
ED84	76C7		MOVB (R12)----, R6
ED86	1C00		CTRL $C, #$00
ED88	0FD1		DEC R15, R13
ED8A	05F0		DEC2 R5, R15
ED8C	766C		MOVB (R6), R6
ED8E	1C01		CTRL $C, #$01
ED90	0FD0		DEC2 R15, R13
ED92	03F0		DEC2 R3, R15
ED94	766C		MOVB (R6), R6
ED96	1C01		CTRL $C, #$01
ED98	0FD0		DEC2 R15, R13
ED9A	1CF0		CTRL $C, #$F0
ED9C	766C		MOVB (R6), R6
ED9E	3CD6		MOVE $1AC, R12
EDA0	0BB4		MOVE R11, R11
EDA2	F03B		BRA $ED68		; -> -$3C(R0)

EDA4	D0FE		JMP (R15)
EDA6	3330		MOVE $60, R3
EDA8	10CB		CTRL $0, #$CB
EDAA	3840		MOVE $80, R8
EDAC	0BA4		MOVE R11, R10
EDAE	76DA		MOVB (R13), R6
EDB0	3330		MOVE $60, R3
EDB2	11CE		CTRL $1, #$CE
EDB4	BC3F		SET R12, #$3F
EDB6	00F1		DEC R0, R15
EDB8	0BF0		DEC2 R11, R15
EDBA	3420		MOVE $40, R4
EDBC	1064		CTRL $0, #$64
EDBE	B320		SET R3, #$20
EDC0	01FE		GETB R15, $1
EDC2	9C00		CLR R12, #$00
EDC4	0000		HALT
EDC6	DCFF		MOVE R12, (R15)
EDC8	0077		XOR R0, R7
EDCA	18FE		CTRL $8, #$FE
EDCC	FA10		SUB R10, #$11
EDCE	3020		MOVE $40, R0
EDD0	76F6		MOVB (R15)---, R6
EDD2	DC7D		MOVE R12, (R7)
EDD4	0076		OR R0, R7
EDD6	EFF1		
EDD8	0BF0		DEC2 R11, R15
EDDA	F076		BRA $ED65		; -> -$77(R0)

EDDC	E1FE		
EDDE	DD7D		MOVE R13, (R7)
EDE0	0177		XOR R1, R7
EDE2	03F1		DEC R3, R15
EDE4	0BF0		DEC2 R11, R15
EDE6	7310		MOVB (R1)+, R3
EDE8	01F0		DEC2 R1, R15
EDEA	76E1		MOVB (R14)++, R6
EDEC	DC7D		MOVE R12, (R7)
EDEE	0077		XOR R0, R7
EDF0	03FE		GETB R15, $3
EDF2	3C00		MOVE $00, R12
EDF4	0B5A		ADDH R11, R5
EDF6	3840		MOVE $80, R8
EDF8	0BA4		MOVE R11, R10
EDFA	0BE6		OR R11, R14
EDFC	0C00		DEC2 R12, R0
EDFE	0BB4		MOVE R11, R11
EE00	0B5A		ADDH R11, R5
EE02	F03B		BRA $EDC8		; -> -$3C(R0)

EE04	CEFE		SNBC R14, R15
EE06	BCFF		SET R12, #$FF
EE08	00FE		GETB R15, $0
EE0A	3420		MOVE $40, R4
EE0C	1062		CTRL $0, #$62
EE0E	0F10		DEC2 R15, R1
EE10	1062		CTRL $0, #$62
EE12	1064		CTRL $0, #$64
EE14	0F10		DEC2 R15, R1
EE16	1062		CTRL $0, #$62
EE18	0EDB		ADDH2 R14, R13
EE1A	FB30		SUB R11, #$31
EE1C	2035		JMP ($006A)

EE1E	2010		JMP ($0020)

EE20	648C		MOVB R4, (R8)
EE22	0000		HALT
EE24	1063		CTRL $0, #$63
EE26	FB20		SUB R11, #$21
EE28	3073		MOVE $E6, R0
EE2A	1001		CTRL $0, #$01
EE2C	3100		MOVE $00, R1
EE2E	0BA8		ADD R11, R10
EE30	CC22		SE R12, R2
EE32	10D0		CTRL $0, #$D0
EE34	76F9		MOVB (R15), R6
EE36	F076		BRA $EDC1		; -> -$77(R0)

EE38	E6FE		
EE3A	3A80		MOVE $100, R10
EE3C	0FAA		ADDH R15, R10
EE3E	F077		BRA $EDC8		; -> -$78(R0)

EE40	23FE		MOVE R3, $1FC
EE42	3B80		MOVE $100, R11
EE44	0FAA		ADDH R15, R10
EE46	300C		MOVE $18, R0
EE48	0FA4		MOVE R15, R10
EE4A	3510		MOVE $20, R5
EE4C	0EB4		MOVE R14, R11
EE4E	3006		MOVE $0C, R0
EE50	0EB0		DEC2 R14, R11
EE52	3002		MOVE $04, R0
EE54	0EBA		ADDH R14, R11
EE56	DE30		MOVE R14, (R3)'
EE58	0077		XOR R0, R7
EE5A	4ED5		PUTB $E, (R13)--
EE5C	4002		PUTB $0, (R0)+++
EE5E	C001		SLT R0, R0
EE60	7733		MOVB (R3)++++, R7
EE62	3340		MOVE $80, R3
EE64	0001		DEC R0, R0
EE66	F540		SUB R5, #$41
EE68	3035		MOVE $6A, R0
EE6A	500E		MOVE (R0), R0
EE6C	BE75		SET R14, #$75
EE6E	2008		JMP ($0010)

EE70	F920		SUB R9, #$21
EE72	50E7		MOVE (R14)--, R0
EE74	0800		DEC2 R8, R0
EE76	3730		MOVE $60, R7
EE78	0EDB		ADDH2 R14, R13
EE7A	C081		SLT R0, R8
EE7C	774A		MOVB (R4), R7
EE7E	F920		SUB R9, #$21
EE80	5038		MOVE (R3), R0
EE82	800F		LBI R0, #$0F
EE84	AA77		ADD R10, #$78
EE86	47FE		PUTB $7, (R15)
EE88	E700		
EE8A	00F0		DEC2 R0, R15
EE8C	773B		MOVB (R3), R7
EE8E	E702		
EE90	00F0		DEC2 R0, R15
EE92	773B		MOVB (R3), R7
EE94	301A		MOVE $34, R0
EE96	0EBA		ADDH R14, R11
EE98	300E		MOVE $1C, R0
EE9A	0FA4		MOVE R15, R10
EE9C	7C40		MOVB (R4)+, R12
EE9E	063C		MHL R6, R3
EEA0	CE0B		SNZ R14
EEA2	B4F0		SET R4, #$F0
EEA4	3BD0		MOVE $1A0, R11
EEA6	FB00		SUB R11, #$01
EEA8	1030		CTRL $0, #$30
EEAA	1C0E		CTRL $C, #$0E
EEAC	B01C		SET R0, #$1C
EEAE	000E		GETB R0, $0
EEB0	D900		MOVE R9, (R0)'
EEB2	D70E		MOVE R7, (R0)
EEB4	0030		DEC2 R0, R3
EEB6	1A0E		CTRL $A, #$0E
EEB8	BACC		SET R10, #$CC
EEBA	000E		GETB R0, $0
EEBC	D977		MOVE R9, (R7)--
EEBE	68C7		MOVB R8, (R12)----
EEC0	0810		DEC2 R8, R1
EEC2	80D7		LBI R0, #$D7
EEC4	0C00		DEC2 R12, R0
EEC6	3B7F		MOVE $FE, R11
EEC8	0ED9		SUB R14, R13
EECA	4E00		PUTB $E, (R0)+
EECC	000E		GETB R0, $0
EECE	D9FE		MOVE R9, (R15)
EED0	FB10		SUB R11, #$11
EED2	00FC		MHL R0, R15
EED4	8000		LBI R0, #$00
EED6	300C		MOVE $18, R0
EED8	0F14		MOVE R15, R1
EEDA	301C		MOVE $38, R0
EEDC	0EB0		DEC2 R14, R11
EEDE	D708		MOVE R7, (R0)
EEE0	00D7		XOR R0, R13
EEE2	0400		DEC2 R4, R0
EEE4	3880		MOVE $100, R8
EEE6	0168		ADD R1, R6
EEE8	7777		MOVB (R7)----, R7
EEEA	3A80		MOVE $100, R10
EEEC	0168		ADD R1, R6
EEEE	C700		SLE R7, R0
EEF0	0168		ADD R1, R6
EEF2	3B80		MOVE $100, R11
EEF4	0168		ADD R1, R6
EEF6	0906		OR R9, R0
EEF8	0F1B		ADDH2 R15, R1
EEFA	0000		HALT
EEFC	3C4F		MOVE $9E, R12
EEFE	0F1A		ADDH R15, R1
EF00	C700		SLE R7, R0
EF02	0F1A		ADDH R15, R1
EF04	301A		MOVE $34, R0
EF06	0EBA		ADDH R14, R11
EF08	CC08		SGT R12, R0
EF0A	0EBF		GETA R11, $E
EF0C	7789		MOVB (R8), R7
EF0E	D714		MOVE R7, (R1)~
EF10	00FE		GETB R15, $0
EF12	300E		MOVE $1C, R0
EF14	0F14		MOVE R15, R1
EF16	0000		HALT
EF18	0000		HALT
EF1A	0000		HALT
EF1C	0000		HALT
EF1E	0000		HALT
EF20	0000		HALT
EF22	0000		HALT
EF24	0000		HALT
EF26	0000		HALT
EF28	0000		HALT
EF2A	0000		HALT
EF2C	0000		HALT
EF2E	0000		HALT
EF30	0000		HALT
EF32	0000		HALT
EF34	0000		HALT
EF36	0000		HALT
EF38	0000		HALT
EF3A	0000		HALT
EF3C	0000		HALT
EF3E	0000		HALT
EF40	0000		HALT
EF42	0000		HALT
EF44	0000		HALT
EF46	0000		HALT
EF48	0000		HALT
EF4A	0000		HALT
EF4C	0000		HALT
EF4E	0000		HALT
EF50	0000		HALT
EF52	0000		HALT
EF54	0000		HALT
EF56	0000		HALT
EF58	0000		HALT
EF5A	0000		HALT
EF5C	0000		HALT
EF5E	0000		HALT
EF60	0000		HALT
EF62	0000		HALT
EF64	0000		HALT
EF66	0000		HALT
EF68	0000		HALT
EF6A	0000		HALT
EF6C	0000		HALT
EF6E	0000		HALT
EF70	0000		HALT
EF72	0000		HALT
EF74	0000		HALT
EF76	0000		HALT
EF78	0000		HALT
EF7A	0000		HALT
EF7C	0000		HALT
EF7E	0000		HALT
EF80	0000		HALT
EF82	0000		HALT
EF84	0000		HALT
EF86	0000		HALT
EF88	0000		HALT
EF8A	0000		HALT
EF8C	0000		HALT
EF8E	0000		HALT
EF90	0000		HALT
EF92	0000		HALT
EF94	0000		HALT
EF96	0000		HALT
EF98	0000		HALT
EF9A	0000		HALT
EF9C	0000		HALT
EF9E	0000		HALT
EFA0	0000		HALT
EFA2	0000		HALT
EFA4	0000		HALT
EFA6	0000		HALT
EFA8	F077		BRA $EF32		; -> -$78(R0)

EFAA	6B00		MOVB R11, (R0)+
EFAC	F077		BRA $EF36		; -> -$78(R0)

EFAE	5300		MOVE (R0)', R3
EFB0	F077		BRA $EF3A		; -> -$78(R0)

EFB2	2100		MOVE R1, $00
EFB4	F077		BRA $EF3E		; -> -$78(R0)

EFB6	1D00		CTRL $D, #$00
EFB8	F076		BRA $EF43		; -> -$77(R0)

EFBA	D300		MOVE R3, (R0)'
EFBC	F076		BRA $EF47		; -> -$77(R0)

EFBE	7C00		MOVB (R0)+, R12
EFC0	F076		BRA $EF4B		; -> -$77(R0)

EFC2	7800		MOVB (R0)+, R8
EFC4	F076		BRA $EF4F		; -> -$77(R0)

EFC6	7400		MOVB (R0)+, R4
EFC8	F076		BRA $EF53		; -> -$77(R0)

EFCA	6100		MOVB R1, (R0)+
EFCC	75DD		MOVB (R13), R5
EFCE	75DD		MOVB (R13), R5
EFD0	F075		BRA $EF5C		; -> -$76(R0)

EFD2	2800		MOVE R8, $00
EFD4	F074		BRA $EF61		; -> -$75(R0)

EFD6	E400		
EFD8	F074		BRA $EF65		; -> -$75(R0)

EFDA	2000		JMP ($0000)

EFDC	F073		BRA $EF6A		; -> -$74(R0)

EFDE	2700		MOVE R7, $00
EFE0	F072		BRA $EF6F		; -> -$73(R0)

EFE2	C700		SLE R7, R0
EFE4	F070		BRA $EF75		; -> -$71(R0)

EFE6	FD00		SUB R13, #$01
EFE8	F070		BRA $EF79		; -> -$71(R0)

EFEA	F700		SUB R7, #$01
EFEC	F070		BRA $EF7D		; -> -$71(R0)

EFEE	2600		MOVE R6, $00
EFF0	F06E		BRA $EF83		; -> -$6F(R0)

EFF2	DC00		MOVE R12, (R0)'
EFF4	F06E		BRA $EF87		; -> -$6F(R0)

EFF6	D600		MOVE R6, (R0)'
EFF8	F06C		BRA $EF8D		; -> -$6D(R0)

EFFA	0000		HALT
EFFC	0419		SUB R4, R1
EFFE	7268		MOVB (R6), R2
F000	300C		MOVE $18, R0
F002	100A		CTRL $0, #$0A
F004	3920		MOVE $40, R9
F006	0ED7		XOR R14, R13
F008	7809		MOVB (R0), R8
F00A	F147		SUB R1, #$48
F00C	F0FE		BRA $EF0F		; -> -$FF(R0)

F00E	F078		BRA $EF97		; -> -$79(R0)

F010	0BFE		GETB R15, $B
F012	F147		SUB R1, #$48
F014	E6FE		
F016	CD00		SLE R13, R0
F018	0EB6		OR R14, R11
F01A	7813		MOVB (R1)++++, R8
F01C	CDC3		SZ R13
F01E	0FC0		DEC2 R15, R12
F020	7815		MOVB (R1)--, R8
F022	F08F		BRA $EF94		; -> -$90(R0)

F024	E0FE		ROR3 R15
F026	F17A		SUB R1, #$7B
F028	93FE		CLR R3, #$FE
F02A	3520		MOVE $40, R5
F02C	0DB9		SUB R13, R11
F02E	B901		SET R9, #$01
F030	147A		CTRL $4, #$7A
F032	93FE		CLR R3, #$FE
F034	B530		SET R5, #$30
F036	162C		CTRL $6, #$2C
F038	0010		DEC2 R0, R1
F03A	2914		MOVE R9, $28
F03C	B801		SET R8, #$01
F03E	1478		CTRL $4, #$78
F040	26FE		MOVE R6, $1FC
F042	B540		SET R5, #$40
F044	04B6		OR R4, R11
F046	4006		PUTB $0, (R0)---
F048	F078		BRA $EFD1		; -> -$79(R0)

F04A	29FE		MOVE R9, $1FC
F04C	B540		SET R5, #$40
F04E	24B6		MOVE R4, $16C
F050	401C		PUTB $0, (R1)
F052	3510		MOVE $20, R5
F054	0EB4		MOVE R14, R11
F056	0C00		DEC2 R12, R0
F058	0C63		INC2 R12, R6
F05A	0EB6		OR R14, R11
F05C	3006		MOVE $0C, R0
F05E	0EB0		DEC2 R14, R11
F060	CDC3		SZ R13
F062	0FC0		DEC2 R15, R12
F064	786B		MOVB (R6), R8
F066	C410		SLE R4, R1
F068	0EC2		INC R14, R12
F06A	0878		ADD R8, R7
F06C	3934		MOVE $68, R9
F06E	100E		CTRL $0, #$0E
F070	C4FE		SNBC R4, R15
F072	FB20		SUB R11, #$21
F074	10FB		CTRL $0, #$FB
F076	1030		CTRL $0, #$30
F078	3250		MOVE $A0, R2
F07A	0C63		INC2 R12, R6
F07C	3530		MOVE $60, R5
F07E	0FC1		DEC R15, R12
F080	FA30		SUB R10, #$31
F082	5018		MOVE (R1), R0
F084	7845		MOVB (R4)--, R8
F086	FB50		SUB R11, #$51
F088	30FE		MOVE $1FC, R0
F08A	F930		SUB R9, #$31
F08C	50FE		MOVE (R15), R0
F08E	3750		MOVE $A0, R7
F090	0EDB		ADDH2 R14, R13
F092	C082		SE R0, R8
F094	785A		MOVB (R5), R8
F096	FA10		SUB R10, #$11
F098	4010		PUTB $0, (R1)+
F09A	7853		MOVB (R5)++++, R8
F09C	3801		MOVE $02, R8
F09E	1029		CTRL $0, #$29
F0A0	8FE0		LBI R15, #$E0
F0A2	F13B		SUB R1, #$3C
F0A4	C4FE		SNBC R4, R15
F0A6	6C00		MOVB R12, (R0)+
F0A8	0000		HALT
F0AA	B320		SET R3, #$20
F0AC	0173		INC2 R1, R7
F0AE	1001		CTRL $0, #$01
F0B0	F078		BRA $F039		; -> -$79(R0)

F0B2	47FE		PUTB $7, (R15)
F0B4	3730		MOVE $60, R7
F0B6	0EDB		ADDH2 R14, R13
F0B8	C082		SE R0, R8
F0BA	7A42		MOVB (R4)+++, R10
F0BC	FA10		SUB R10, #$11
F0BE	4010		PUTB $0, (R1)+
F0C0	7866		MOVB (R6)---, R8
F0C2	3801		MOVE $02, R8
F0C4	1029		CTRL $0, #$29
F0C6	8FE0		LBI R15, #$E0
F0C8	F13B		SUB R1, #$3C
F0CA	C4FE		SNBC R4, R15
F0CC	7C40		MOVB (R4)+, R12
F0CE	0073		INC2 R0, R7
F0D0	1001		CTRL $0, #$01
F0D2	F078		BRA $F05B		; -> -$79(R0)

F0D4	5AFE		MOVE (R15), R10
F0D6	3320		MOVE $40, R3
F0D8	0FA4		MOVE R15, R10
F0DA	8918		LBI R9, #$18
F0DC	6C00		MOVB R12, (R0)+
F0DE	00CD		MLH R0, R12
F0E0	000C		MHL R0, R0
F0E2	6378		MOVB R3, (R7)
F0E4	8030		LBI R0, #$30
F0E6	020E		GETB R0, $2
F0E8	BA09		SET R10, #$09
F0EA	0310		DEC2 R3, R1
F0EC	2100		MOVE R1, $00
F0EE	00D7		XOR R0, R13
F0F0	0800		DEC2 R8, R0
F0F2	E70C		
F0F4	7AAC		MOVB (R10), R10
F0F6	0084		RET R8

F0F8	7ABB		MOVB (R11), R10
F0FA	807A		LBI R0, #$7A
F0FC	F078		BRA $F085		; -> -$79(R0)

F0FE	86FE		LBI R6, #$FE
F100	C410		SLE R4, R1
F102	0EC2		INC R14, R12
F104	0878		ADD R8, R7
F106	8634		LBI R6, #$34
F108	100E		CTRL $0, #$0E
F10A	C4FE		SNBC R4, R15
F10C	ECE7		
F10E	1C79		CTRL $C, #$79
F110	63B5		MOVB R3, (R11)--
F112	001D		MLH R0, R1
F114	F800		SUB R8, #$01
F116	30FA		MOVE $1F4, R0
F118	0040		DEC2 R0, R4
F11A	008F		GETA R8, $0
F11C	E0CC		SHR R12
F11E	D30F		MOVE R3, (R0)
F120	C078		SGT R0, R7
F122	95CD		CLR R5, #$CD
F124	E20F		STAT R0, $2
F126	C078		SGT R0, R7
F128	9FFE		CLR R15, #$FE
F12A	B500		SET R5, #$00
F12C	1DFB		CTRL $D, #$FB
F12E	1030		CTRL $0, #$30
F130	6400		MOVB R4, (R0)+
F132	007A		ADDH R0, R7
F134	6C00		MOVB R12, (R0)+
F136	0084		RET R8

F138	F810		SUB R8, #$11
F13A	00F0		DEC2 R0, R15
F13C	7A42		MOVB (R4)+++, R10
F13E	EDC2		
F140	1C78		CTRL $C, #$78
F142	E9E7		
F144	087A		ADDH R8, R7
F146	8507		LBI R5, #$07
F148	887A		LBI R8, #$7A
F14A	ECFE		
F14C	E700		
F14E	88E7		LBI R8, #$E7
F150	0C7A		ADDH R12, R7
F152	8911		LBI R9, #$11
F154	8800		LBI R8, #$00
F156	00AC		MHL R0, R10
F158	0692		INC R6, R9
F15A	7BAC		MOVB (R10), R11
F15C	0089		SUB R0, R8
F15E	7AB8		MOVB (R11), R10
F160	0189		SUB R1, R8
F162	78B6		MOVB (R11)---, R8
F164	8270		LBI R2, #$70
F166	9200		CLR R2, #$00
F168	03BE		GETB R11, $3
F16A	0189		SUB R1, R8
F16C	EB52		
F16E	898F		LBI R9, #$8F
F170	E0B3		
F172	108A		CTRL $0, #$8A
F174	BF40		SET R15, #$40
F176	89C0		LBI R9, #$C0
F178	0478		ADD R4, R7
F17A	C282		SE R2, R8
F17C	0089		SUB R0, R8
F17E	0000		HALT
F180	B610		SET R6, #$10
F182	88FE		LBI R8, #$FE
F184	9C07		CLR R12, #$07
F186	8900		LBI R9, #$00
F188	8907		LBI R9, #$07
F18A	9100		CLR R1, #$00
F18C	00AF		GETA R10, $0
F18E	7091		MOVB (R9)++, R0
F190	89B5		LBI R9, #$B5
F192	001D		MLH R0, R1
F194	EC08		
F196	1E78		CTRL $E, #$78
F198	DAAD		MOVE R10, (R10)
F19A	0388		ADD R3, R8
F19C	8928		LBI R9, #$28
F19E	8FE0		LBI R15, #$E0
F1A0	B320		SET R3, #$20
F1A2	04CC		MHL R4, R12
F1A4	040F		GETA R0, $4
F1A6	C278		SGT R2, R7
F1A8	DAAD		MOVE R10, (R10)
F1AA	0188		ADD R1, R8
F1AC	8928		LBI R9, #$28
F1AE	8FE0		LBI R15, #$E0
F1B0	B320		SET R3, #$20
F1B2	02FE		GETB R15, $2
F1B4	B980		SET R9, #$80
F1B6	898F		LBI R9, #$8F
F1B8	E0FE		ROR3 R15
F1BA	3880		MOVE $100, R8
F1BC	1028		CTRL $0, #$28
F1BE	78E2		MOVB (R14)+++, R8
F1C0	A400		ADD R4, #$01
F1C2	8991		LBI R9, #$91
F1C4	FB10		SUB R11, #$11
F1C6	3064		MOVE $C8, R0
F1C8	0000		HALT
F1CA	89F8		LBI R9, #$F8
F1CC	1000		CTRL $0, #$00
F1CE	F07A		BRA $F155		; -> -$7B(R0)

F1D0	42FE		PUTB $2, (R15)
F1D2	EDD7		
F1D4	1C79		CTRL $C, #$79
F1D6	2CAC		MOVE R12, $158
F1D8	016C		MHL R1, R6
F1DA	1DAE		CTRL $D, #$AE
F1DC	106C		CTRL $0, #$6C
F1DE	6CAF		MOVB R12, (R10)
F1E0	106C		CTRL $0, #$6C
F1E2	1F8F		CTRL $F, #$8F
F1E4	106C		CTRL $0, #$6C
F1E6	0EDB		ADDH2 R14, R13
F1E8	F17A		SUB R1, #$7B
F1EA	9BFE		CLR R11, #$FE
F1EC	FB10		SUB R11, #$11
F1EE	30BC		MOVE $178, R0
F1F0	0271		DEC R2, R7
F1F2	8D01		LBI R13, #$01
F1F4	1D0E		CTRL $D, #$0E
F1F6	DB08		MOVE R11, (R0)
F1F8	790A		MOVB (R0), R9
F1FA	AD01		ADD R13, #$02
F1FC	6C70		MOVB R12, (R7)+
F1FE	1079		CTRL $0, #$79
F200	0A7C		MHL R10, R7
F202	0000		HALT
F204	7310		MOVB (R1)+, R3
F206	01AF		GETA R10, $1
F208	106C		CTRL $0, #$6C
F20A	708F		MOVB (R8), R0
F20C	101D		CTRL $0, #$1D
F20E	0EDB		ADDH2 R14, R13
F210	F078		BRA $F199		; -> -$79(R0)

F212	F9FE		SUB R9, #$FF
F214	2D01		MOVE R13, $02
F216	0EDB		ADDH2 R14, R13
F218	6C00		MOVB R12, (R0)+
F21A	7913		MOVB (R1)++++, R9
F21C	A801		ADD R8, #$02
F21E	8281		LBI R2, #$81
F220	8270		LBI R2, #$70
F222	7A00		MOVB (R0)+, R10
F224	03FE		GETB R15, $3
F226	8D01		LBI R13, #$01
F228	1D0E		CTRL $D, #$0E
F22A	DB08		MOVE R11, (R0)
F22C	7921		MOVB (R2)++, R9
F22E	6C00		MOVB R12, (R0)+
F230	007A		ADDH R0, R7
F232	7310		MOVB (R1)+, R3
F234	01AC		MHL R1, R10
F236	087A		ADDH R8, R7
F238	7B8F		MOVB (R8), R11
F23A	101D		CTRL $0, #$1D
F23C	0EDB		ADDH2 R14, R13
F23E	F079		BRA $F1C6		; -> -$7A(R0)

F240	13FE		CTRL $3, #$FE
F242	6C00		MOVB R12, (R0)+
F244	007A		ADDH R0, R7
F246	7A0F		MOVB (R0), R10
F248	00B8		ADD R0, R11
F24A	8084		LBI R0, #$84
F24C	7929		MOVB (R2), R9
F24E	7B02		MOVB (R0)+++, R11
F250	00FE		GETB R15, $0
F252	7310		MOVB (R1)+, R3
F254	01F0		DEC2 R1, R15
F256	7A42		MOVB (R4)+++, R10
F258	EDD5		
F25A	1C79		CTRL $C, #$79
F25C	63FB		MOVB R3, (R15)
F25E	1030		CTRL $0, #$30
F260	AC01		ADD R12, #$02
F262	6C1D		MOVB R12, (R1)
F264	EDFF		STAT R15, $D
F266	1F79		CTRL $F, #$79
F268	3789		MOVE $112, R7
F26A	011F		GETA R1, $1
F26C	0000		HALT
F26E	AF10		ADD R15, #$11
F270	6C1F		MOVB R12, (R1)
F272	F17A		SUB R1, #$7B
F274	9BFE		CLR R11, #$FE
F276	AB0F		ADD R11, #$10
F278	887A		LBI R8, #$7A
F27A	BCF0		SET R12, #$F0
F27C	98FE		CLR R8, #$FE
F27E	8D01		LBI R13, #$01
F280	1D0E		CTRL $D, #$0E
F282	DB10		MOVE R11, (R1)'
F284	7A42		MOVB (R4)+++, R10
F286	8D01		LBI R13, #$01
F288	6C0E		MOVB R12, (R0)
F28A	DB10		MOVE R11, (R1)'
F28C	7953		MOVB (R5)++++, R9
F28E	7CF0		MOVB (R15)+, R12
F290	0073		INC2 R0, R7
F292	1001		CTRL $0, #$01
F294	8F10		LBI R15, #$10
F296	1D0E		CTRL $D, #$0E
F298	DB8F		MOVE R11, (R8)
F29A	106C		CTRL $0, #$6C
F29C	0EDB		ADDH2 R14, R13
F29E	F079		BRA $F226		; -> -$7A(R0)

F2A0	3FFE		MOVE $1FC, R15
F2A2	7310		MOVB (R1)+, R3
F2A4	01FE		GETB R15, $1
F2A6	6C00		MOVB R12, (R0)+
F2A8	0088		ADD R0, R8
F2AA	AC0F		ADD R12, #$10
F2AC	8889		LBI R8, #$89
F2AE	8F10		LBI R15, #$10
F2B0	1D0E		CTRL $D, #$0E
F2B2	DBC0		MOVE R11, (R12)'
F2B4	0179		SUB R1, R7
F2B6	51B8		MOVE (R11), R1
F2B8	8084		LBI R0, #$84
F2BA	7960		MOVB (R6)+, R9
F2BC	7B20		MOVB (R2)+, R11
F2BE	00FE		GETB R15, $0
F2C0	7310		MOVB (R1)+, R3
F2C2	01F0		DEC2 R1, R15
F2C4	7A42		MOVB (R4)+++, R10
F2C6	CD00		SLE R13, R0
F2C8	0C63		INC2 R12, R6
F2CA	7833		MOVB (R3)++++, R8
F2CC	BC40		SET R12, #$40
F2CE	86B8		LBI R6, #$B8
F2D0	0823		INC2 R8, R2
F2D2	797A		MOVB (R7), R9
F2D4	AC00		ADD R12, #$01
F2D6	8625		LBI R6, #$25
F2D8	BC5B		SET R12, #$5B
F2DA	87EC		LBI R7, #$EC
F2DC	5B25		MOVE (R2)-, R11
F2DE	797A		MOVB (R7), R9
F2E0	BC60		SET R12, #$60
F2E2	8779		LBI R7, #$79
F2E4	8000		LBI R0, #$00
F2E6	797A		MOVB (R7), R9
F2E8	BC40		SET R12, #$40
F2EA	87ED		LBI R7, #$ED
F2EC	4E25		PUTB $E, (R2)--
F2EE	797A		MOVB (R7), R9
F2F0	BC4E		SET R12, #$4E
F2F2	87FE		LBI R7, #$FE
F2F4	AC01		ADD R12, #$02
F2F6	6C21		MOVB R12, (R2)++
F2F8	AF10		ADD R15, #$11
F2FA	6C1F		MOVB R12, (R1)
F2FC	B902		SET R9, #$02
F2FE	2379		MOVE R3, $F2
F300	8AFE		LBI R10, #$FE
F302	F17A		SUB R1, #$7B
F304	9BFE		CLR R11, #$FE
F306	AD01		ADD R13, #$02
F308	6C21		MOVB R12, (R2)++
F30A	1079		CTRL $0, #$79
F30C	94BA		CLR R4, #$BA
F30E	8023		LBI R0, #$23
F310	F079		BRA $F298		; -> -$7A(R0)

F312	94FE		CLR R4, #$FE
F314	F17A		SUB R1, #$7B
F316	B8FE		SET R8, #$FE
F318	B560		SET R5, #$60
F31A	21F1		MOVE R1, $1E2
F31C	7AC9		MOVB (R12), R10
F31E	AF10		ADD R15, #$11
F320	6E6C		MOVB R14, (R6)
F322	8901		LBI R9, #$01
F324	6C00		MOVB R12, (R0)+
F326	00FE		GETB R15, $0
F328	AB0F		ADD R11, #$10
F32A	997A		CLR R9, #$7A
F32C	8901		LBI R9, #$01
F32E	A900		ADD R9, #$01
F330	F0ED		BRA $F244		; -> -$EE(R0)

F332	F099		BRA $F29A		; -> -$9A(R0)

F334	799E		MOVB (R9), R9
F336	BA80		SET R10, #$80
F338	23F0		MOVE R3, $1E0
F33A	799E		MOVB (R9), R9
F33C	B310		SET R3, #$10
F33E	25B8		MOVE R5, $170
F340	0823		INC2 R8, R2
F342	79AB		MOVB (R10), R9
F344	6C00		MOVB R12, (R0)+
F346	0087		XOR R0, R8
F348	B804		SET R8, #$04
F34A	2379		MOVE R3, $F2
F34C	A9FE		ADD R9, #$FF
F34E	6C00		MOVB R12, (R0)+
F350	0024		RET R2

F352	7310		MOVB (R1)+, R3
F354	01FE		GETB R15, $1
F356	9D00		CLR R13, #$00
F358	8600		LBI R6, #$00
F35A	2079		JMP ($00F2)

F35C	B8DC		SET R8, #$DC
F35E	E900		
F360	79B8		MOVB (R11), R9
F362	DC5C		MOVE R12, (R5)
F364	0079		SUB R0, R7
F366	B8DD		SET R8, #$DD
F368	7B00		MOVB (R0)+, R11
F36A	79CF		MOVB (R12), R9
F36C	F17A		SUB R1, #$7B
F36E	32FE		MOVE $1FC, R2
F370	8D01		LBI R13, #$01
F372	6C0E		MOVB R12, (R0)
F374	DB10		MOVE R11, (R1)'
F376	79C6		MOVB (R12)---, R9
F378	7CF0		MOVB (R15)+, R12
F37A	00B9		SUB R0, R11
F37C	4023		PUTB $0, (R2)++++
F37E	79C2		MOVB (R12)+++, R9
F380	6C00		MOVB R12, (R0)+
F382	0024		RET R2

F384	8F10		LBI R15, #$10
F386	6C0E		MOVB R12, (R0)
F388	DBF0		MOVE R11, (R15)'
F38A	79CC		MOVB (R12), R9
F38C	F17A		SUB R1, #$7B
F38E	32FE		MOVE $1FC, R2
F390	6C00		MOVB R12, (R0)+
F392	0099		SUB R0, R9
F394	AC10		ADD R12, #$11
F396	999A		CLR R9, #$9A
F398	7310		MOVB (R1)+, R3
F39A	01F0		DEC2 R1, R15
F39C	79AB		MOVB (R10), R9
F39E	DD4B		MOVE R13, (R4)
F3A0	0079		SUB R0, R7
F3A2	D6B8		MOVE R6, (R11)
F3A4	8123		LBI R1, #$23
F3A6	7A32		MOVB (R3)+++, R10
F3A8	F079		BRA $F330		; -> -$7A(R0)

F3AA	E1FE		
F3AC	DDC2		MOVE R13, (R12)+'
F3AE	0079		SUB R0, R7
F3B0	DC7C		MOVE R12, (R7)
F3B2	4000		PUTB $0, (R0)+
F3B4	F079		BRA $F33C		; -> -$7A(R0)

F3B6	E1FE		
F3B8	DC61		MOVE R12, (R6)+
F3BA	0079		SUB R0, R7
F3BC	E1DD		
F3BE	6B00		MOVB R11, (R0)+
F3C0	79E8		MOVB (R14), R9
F3C2	B940		SET R9, #$40
F3C4	2379		MOVE R3, $F2
F3C6	CCFE		SNBC R12, R15
F3C8	6C00		MOVB R12, (R0)+
F3CA	0024		RET R2

F3CC	F079		BRA $F354		; -> -$7A(R0)

F3CE	CCFE		SNBC R12, R15
F3D0	DD4F		MOVE R13, (R4)
F3D2	007A		ADDH R0, R7
F3D4	047C		MHL R4, R7
F3D6	C500		SLE R5, R0
F3D8	7C4E		MOVB (R4), R12
F3DA	01EC		MHL R1, R14
F3DC	006E		GETB R6, $0
F3DE	79F6		MOVB (R15)---, R9
F3E0	F900		SUB R9, #$01
F3E2	00B7		XOR R0, R11
F3E4	006E		GETB R6, $0
F3E6	B400		SET R4, #$00
F3E8	6E7C		MOVB R14, (R7)
F3EA	6001		MOVB R0, (R0)++
F3EC	4901		PUTB $9, (R0)++
F3EE	0200		DEC2 R2, R0
F3F0	F0B9		BRA $F338		; -> -$BA(R0)

F3F2	8023		LBI R0, #$23
F3F4	7A02		MOVB (R0)+++, R10
F3F6	2C01		MOVE R12, $02
F3F8	0F1A		ADDH R15, R1
F3FA	6EF1		MOVB R14, (R15)++
F3FC	0BC6		OR R11, R12
F3FE	4B01		PUTB $B, (R0)++
F400	020F		GETA R0, $2
F402	19FE		CTRL $9, #$FE
F404	7310		MOVB (R1)+, R3
F406	04FE		GETB R15, $4
F408	DDC2		MOVE R13, (R12)+'
F40A	007A		ADDH R0, R7
F40C	0B7C		MHL R11, R7
F40E	4000		PUTB $0, (R0)+
F410	7310		MOVB (R1)+, R3
F412	01F0		DEC2 R1, R15
F414	7A04		MOVB (R0)-, R10
F416	DC5B		MOVE R12, (R5)
F418	007A		ADDH R0, R7
F41A	1CDD		CTRL $C, #$DD
F41C	4E00		PUTB $E, (R0)+
F41E	7A16		MOVB (R1)---, R10
F420	B880		SET R8, #$80
F422	847A		LBI R4, #$7A
F424	1CFE		CTRL $C, #$FE
F426	7C60		MOVB (R6)+, R12
F428	00F0		DEC2 R0, R15
F42A	7A1C		MOVB (R1), R10
F42C	B980		SET R9, #$80
F42E	847A		LBI R4, #$7A
F430	1CFE		CTRL $C, #$FE
F432	4901		PUTB $9, (R0)++
F434	0000		HALT
F436	40FE		PUTB $0, (R15)
F438	FB10		SUB R11, #$11
F43A	30FE		MOVE $1FC, R0
F43C	0F10		DEC2 R15, R1
F43E	0FC1		DEC R15, R12
F440	0EDB		ADDH2 R14, R13
F442	C082		SE R0, R8
F444	7A42		MOVB (R4)+++, R10
F446	FA10		SUB R10, #$11
F448	4010		PUTB $0, (R1)+
F44A	7A2B		MOVB (R2), R10
F44C	3801		MOVE $02, R8
F44E	1029		CTRL $0, #$29
F450	8FE0		LBI R15, #$E0
F452	F13B		SUB R1, #$3C
F454	C4FE		SNBC R4, R15
F456	6C00		MOVB R12, (R0)+
F458	0025		AND R0, R2
F45A	7310		MOVB (R1)+, R3
F45C	01B3		INC2 R1, R11
F45E	2001		JMP ($0002)

F460	F07A		BRA $F3E7		; -> -$7B(R0)

F462	1EFE		CTRL $E, #$FE
F464	FB00		SUB R11, #$01
F466	80B9		LBI R0, #$B9
F468	4023		PUTB $0, (R2)++++
F46A	7A40		MOVB (R4)+, R10
F46C	BA40		SET R10, #$40
F46E	23B8		MOVE R3, $170
F470	0423		INC2 R4, R2
F472	7A40		MOVB (R4)+, R10
F474	3710		MOVE $20, R7
F476	0EDB		ADDH2 R14, R13
F478	6C00		MOVB R12, (R0)+
F47A	0087		XOR R0, R8
F47C	7310		MOVB (R1)+, R3
F47E	01FE		GETB R15, $1
F480	FC00		SUB R12, #$01
F482	00FE		GETB R15, $0
F484	3520		MOVE $40, R5
F486	0DB9		SUB R13, R11
F488	B410		SET R4, #$10
F48A	1639		CTRL $6, #$39
F48C	040E		GETB R0, $4
F48E	D67A		MOVE R6, (R7)
F490	79FE		MOVB (R15), R9
F492	3820		MOVE $40, R8
F494	0ED7		XOR R14, R13
F496	7A91		MOVB (R9)++, R10
F498	3520		MOVE $40, R5
F49A	0B65		AND R11, R6
F49C	B901		SET R9, #$01
F49E	067A		ADDH R6, R7
F4A0	66FE		MOVB R6, (R15)
F4A2	3980		MOVE $100, R9
F4A4	0ED7		XOR R14, R13
F4A6	7A66		MOVB (R6)---, R10
F4A8	CD5E		SNBC R13, R5
F4AA	0DC0		DEC2 R13, R12
F4AC	7A91		MOVB (R9)++, R10
F4AE	F147		SUB R1, #$48
F4B0	E4FE		
F4B2	0D01		DEC R13, R0
F4B4	0EA2		INC R14, R10
F4B6	0EA4		MOVE R14, R10
F4B8	287A		MOVE R8, $F4
F4BA	910C		CLR R1, #$0C
F4BC	010E		GETB R0, $1
F4BE	A20E		ADD R2, #$0F
F4C0	A0F0		BRA $F5B3		; $F1(R0)

F4C2	7A91		MOVB (R9)++, R10
F4C4	3800		MOVE $00, R8
F4C6	0022		INC R0, R2
F4C8	0000		HALT
F4CA	00FE		GETB R15, $0
F4CC	3801		MOVE $02, R8
F4CE	0ED6		OR R14, R13
F4D0	7A91		MOVB (R9)++, R10
F4D2	F147		SUB R1, #$48
F4D4	E4FE		
F4D6	0C01		DEC R12, R0
F4D8	0EA2		INC R14, R10
F4DA	0EA0		DEC2 R14, R10
F4DC	AD01		ADD R13, #$02
F4DE	1604		CTRL $6, #$04
F4E0	583B		MOVE (R3), R8
F4E2	C4FE		SNBC R4, R15
F4E4	3902		MOVE $04, R9
F4E6	0ED6		OR R14, R13
F4E8	7A91		MOVB (R9)++, R10
F4EA	F13B		SUB R1, #$3C
F4EC	C4FE		SNBC R4, R15
F4EE	F07A		BRA $F475		; -> -$7B(R0)

F4F0	91FE		CLR R1, #$FE
F4F2	3820		MOVE $40, R8
F4F4	0ED7		XOR R14, R13
F4F6	7A85		MOVB (R8)--, R10
F4F8	F147		SUB R1, #$48
F4FA	E4FE		
F4FC	CC5E		SNBC R12, R5
F4FE	0DC0		DEC2 R13, R12
F500	7A91		MOVB (R9)++, R10
F502	F13B		SUB R1, #$3C
F504	C2FE		SNBC R2, R15
F506	F07A		BRA $F48D		; -> -$7B(R0)

F508	91FE		CLR R1, #$FE
F50A	F147		SUB R1, #$48
F50C	EEFE		
F50E	B901		SET R9, #$01
F510	147A		CTRL $4, #$7A
F512	91FE		CLR R1, #$FE
F514	0C05		AND R12, R0
F516	0C5C		MHL R12, R5
F518	100A		CTRL $0, #$0A
F51A	F153		SUB R1, #$54
F51C	ECFE		
F51E	300E		MOVE $1C, R0
F520	0C5C		MHL R12, R5
F522	300E		MOVE $1C, R0
F524	100A		CTRL $0, #$0A
F526	CCC3		SZ R12
F528	0FC0		DEC2 R15, R12
F52A	7A99		MOVB (R9), R10
F52C	CDE7		SBSH R13, R14
F52E	0FC0		DEC2 R15, R12
F530	8FE0		LBI R15, #$E0
F532	FC80		SUB R12, #$81
F534	00FE		GETB R15, $0
F536	3480		MOVE $100, R4
F538	1016		CTRL $0, #$16
F53A	F17A		SUB R1, #$7B
F53C	B8FE		SET R8, #$FE
F53E	B560		SET R5, #$60
F540	6EB6		MOVB R14, (R11)---
F542	601F		MOVB R0, (R1)
F544	F17A		SUB R1, #$7B
F546	C9FE		SNBC R9, R15
F548	E880		
F54A	6F7A		MOVB R15, (R7)
F54C	AAAD		ADD R10, #$AE
F54E	016E		GETB R6, $1
F550	6C00		MOVB R12, (R0)+
F552	7AAE		MOVB (R10), R10
F554	AF10		ADD R15, #$11
F556	6C6E		MOVB R12, (R6)
F558	3100		MOVE $00, R1
F55A	1016		CTRL $0, #$16
F55C	EDE7		
F55E	1C8F		CTRL $C, #$8F
F560	E038		
F562	200E		JMP ($001C)

F564	D78F		MOVE R7, (R8)
F566	E0FE		ROR3 R15
F568	891F		LBI R9, #$1F
F56A	2500		MOVE R5, $00
F56C	5CF0		MOVE (R15)', R12
F56E	7A1C		MOVB (R1), R10
F570	B480		SET R4, #$80
F572	74B4		MOVB (R11)-, R4
F574	3076		MOVE $EC, R0
F576	B440		SET R4, #$40
F578	78E7		MOVB (R14)----, R8
F57A	087A		ADDH R8, R7
F57C	F123		SUB R1, #$24
F57E	F6FE		SUB R6, #$FF
F580	8C07		LBI R12, #$07
F582	7A0F		MOVB (R0), R10
F584	24B4		MOVE R4, $168
F586	306E		MOVE $DC, R0
F588	B530		SET R5, #$30
F58A	76B5		MOVB (R11)--, R6
F58C	4078		PUTB $0, (R7)
F58E	B100		SET R1, #$00
F590	74FE		MOVB (R15), R4
F592	FB00		SUB R11, #$01
F594	1033		CTRL $0, #$33
F596	7000		MOVB (R0)+, R0
F598	10FA		CTRL $0, #$FA
F59A	7060		MOVB (R6)+, R0
F59C	087A		ADDH R8, R7
F59E	E989		
F5A0	1388		CTRL $3, #$88
F5A2	00F0		DEC2 R0, R15
F5A4	B310		SET R3, #$10
F5A6	8AF8		LBI R10, #$F8
F5A8	1060		CTRL $0, #$60
F5AA	7CF5		MOVB (R15)--, R12
F5AC	00AA		ADDH R0, R10
F5AE	1388		CTRL $3, #$88
F5B0	88AC		LBI R8, #$AC
F5B2	0792		INC R7, R9
F5B4	7AA6		MOVB (R10)---, R10
F5B6	0891		DEC R8, R9
F5B8	88EC		LBI R8, #$EC
F5BA	0091		DEC R0, R9
F5BC	7AE7		MOVB (R14)----, R10
F5BE	8210		LBI R2, #$10
F5C0	9900		CLR R9, #$00
F5C2	0382		INC R3, R8
F5C4	7091		MOVB (R9)++, R0
F5C6	0003		INC2 R0, R0
F5C8	8E10		LBI R14, #$10
F5CA	6E0E		MOVB R14, (R0)
F5CC	DBFE		MOVE R11, (R15)
F5CE	AC07		ADD R12, #$08
F5D0	7A92		MOVB (R9)+++, R10
F5D2	FB10		SUB R11, #$11
F5D4	00FC		MHL R0, R15
F5D6	8000		LBI R0, #$00
F5D8	4080		PUTB $0, (R8)+
F5DA	0000		HALT
F5DC	0000		HALT
F5DE	0000		HALT
F5E0	7310		MOVB (R1)+, R3
F5E2	0409		SUB R4, R0
F5E4	0110		DEC2 R1, R1
F5E6	6C00		MOVB R12, (R0)+
F5E8	0009		SUB R0, R0
F5EA	010B		ADDH2 R1, R0
F5EC	6500		MOVB R5, (R0)+
F5EE	0009		SUB R0, R0
F5F0	3F05		MOVE $0A, R15
F5F2	C000		SLE R0, R0
F5F4	400F		PUTB $0, (R0)
F5F6	100F		CTRL $0, #$0F
F5F8	880F		LBI R8, #$0F
F5FA	883B		LBI R8, #$3B
F5FC	040B		ADDH2 R4, R0
F5FE	A13B		ADD R1, #$3C
F600	100B		CTRL $0, #$0B
F602	6D3A		MOVB R13, (R3)
F604	100B		CTRL $0, #$0B
F606	6CDD		MOVB R12, (R13)
F608	4000		PUTB $0, (R0)+
F60A	7B70		MOVB (R7)+, R11
F60C	CE10		SLE R14, R1
F60E	0B80		DEC2 R11, R8
F610	7D21		MOVB (R2)++, R13
F612	3820		MOVE $40, R8
F614	0BA4		MOVE R11, R10
F616	7B12		MOVB (R1)+++, R11
F618	3B10		MOVE $20, R11
F61A	0B6C		MHL R11, R6
F61C	3C33		MOVE $66, R12
F61E	0BB4		MOVE R11, R11
F620	F08F		BRA $F592		; -> -$90(R0)

F622	EEFE		
F624	3904		MOVE $08, R9
F626	0BA1		DEC R11, R10
F628	47FA		PUTB $7, (R15)
F62A	3320		MOVE $40, R3
F62C	7B19		MOVB (R1), R11
F62E	F023		BRA $F60C		; -> -$24(R0)

F630	FCFE		SUB R12, #$FF
F632	3C04		MOVE $08, R12
F634	0B02		INC R11, R0
F636	C300		SLE R3, R0
F638	0B00		DEC2 R11, R0
F63A	0C3F		GETA R3, $C
F63C	0540		DEC2 R5, R4
F63E	10CE		CTRL $0, #$CE
F640	3330		MOVE $60, R3
F642	0040		DEC2 R0, R4
F644	3350		MOVE $A0, R3
F646	0001		DEC R0, R0
F648	3360		MOVE $C0, R3
F64A	000E		GETB R0, $0
F64C	FA00		SUB R10, #$01
F64E	3000		MOVE $00, R0
F650	7B57		MOVB (R5)----, R11
F652	0A03		INC2 R10, R0
F654	10CE		CTRL $0, #$CE
F656	0540		DEC2 R5, R4
F658	3C6E		MOVE $DC, R12
F65A	10D0		CTRL $0, #$D0
F65C	C570		SLE R5, R7
F65E	0F88		ADD R15, R8
F660	C101		SLT R1, R0
F662	7D15		MOVB (R1)--, R13
F664	F17C		SUB R1, #$7D
F666	E1FE		
F668	F07B		BRA $F5EE		; -> -$7C(R0)

F66A	68FE		MOVB R8, (R15)
F66C	3320		MOVE $40, R3
F66E	7B3E		MOVB (R3), R11
F670	3450		MOVE $A0, R4
F672	1068		CTRL $0, #$68
F674	3460		MOVE $C0, R4
F676	106A		CTRL $0, #$6A
F678	F023		BRA $F656		; -> -$24(R0)

F67A	FCFE		SUB R12, #$FF
F67C	3C02		MOVE $04, R12
F67E	0B02		INC R11, R0
F680	C300		SLE R3, R0
F682	0B00		DEC2 R11, R0
F684	0C3F		GETA R3, $C
F686	0540		DEC2 R5, R4
F688	10CE		CTRL $0, #$CE
F68A	3550		MOVE $A0, R5
F68C	1068		CTRL $0, #$68
F68E	3560		MOVE $C0, R5
F690	106A		CTRL $0, #$6A
F692	3330		MOVE $60, R3
F694	0040		DEC2 R0, R4
F696	3370		MOVE $E0, R3
F698	0001		DEC R0, R0
F69A	F850		SUB R8, #$51
F69C	70FA		MOVB (R15), R0
F69E	0030		DEC2 R0, R3
F6A0	007B		ADDH2 R0, R7
F6A2	57FE		MOVE (R15), R7
F6A4	FA50		SUB R10, #$51
F6A6	6018		MOVB R0, (R1)
F6A8	7B68		MOVB (R6), R11
F6AA	F07B		BRA $F630		; -> -$7C(R0)

F6AC	29FE		MOVE R9, $1FC
F6AE	3C5C		MOVE $B8, R12
F6B0	10D2		CTRL $0, #$D2
F6B2	0C3A		ADDH R12, R3
F6B4	10D3		CTRL $0, #$D3
F6B6	110E		CTRL $1, #$0E
F6B8	3C02		MOVE $04, R12
F6BA	0B02		INC R11, R0
F6BC	C300		SLE R3, R0
F6BE	0B00		DEC2 R11, R0
F6C0	0C3F		GETA R3, $C
F6C2	0540		DEC2 R5, R4
F6C4	10CE		CTRL $0, #$CE
F6C6	3370		MOVE $E0, R3
F6C8	0001		DEC R0, R0
F6CA	F850		SUB R8, #$51
F6CC	70F0		MOVB (R15)+, R0
F6CE	7B52		MOVB (R5)+++, R11
F6D0	093F		GETA R3, $9
F6D2	05C0		DEC2 R5, R12
F6D4	0040		DEC2 R0, R4
F6D6	0503		INC2 R5, R0
F6D8	05C1		DEC R5, R12
F6DA	01D8		ADD R1, R13
F6DC	F00B		BRA $F6D2		; -> -$0C(R0)

F6DE	FAFE		SUB R10, #$FF
F6E0	3370		MOVE $E0, R3
F6E2	0005		AND R0, R0
F6E4	4070		PUTB $0, (R7)+
F6E6	0002		INC R0, R0
F6E8	82FE		LBI R2, #$FE
F6EA	287B		MOVE R8, $F6
F6EC	813A		LBI R1, #$3A
F6EE	040B		ADDH2 R4, R0
F6F0	A173		ADD R1, #$74
F6F2	1005		CTRL $0, #$05
F6F4	DC40		MOVE R12, (R4)'
F6F6	007B		ADDH2 R0, R7
F6F8	06DD		MLH R6, R13
F6FA	6B00		MOVB R11, (R0)+
F6FC	7D2D		MOVB (R2), R13
F6FE	7310		MOVB (R1)+, R3
F700	01FE		GETB R15, $1
F702	3370		MOVE $E0, R3
F704	0003		INC2 R0, R0
F706	4070		PUTB $0, (R7)+
F708	0002		INC R0, R0
F70A	00FE		GETB R15, $0
F70C	287B		MOVE R8, $F6
F70E	B073		SET R0, #$73
F710	1003		CTRL $0, #$03
F712	DD40		MOVE R13, (R4)'
F714	017D		MLH R1, R7
F716	2DDA		MOVE R13, $1B4
F718	F000		BRA $F719		; -> -$01(R0)

F71A	7D2D		MOVB (R2), R13
F71C	D8F9		MOVE R8, (R15)
F71E	007D		MLH R0, R7
F720	2D75		MOVE R13, $EA
F722	7000		MOVB (R0)+, R0
F724	F770		SUB R7, #$71
F726	0733		INC2 R7, R3
F728	0000		HALT
F72A	F0F9		BRA $F632		; -> -$FA(R0)

F72C	7000		MOVB (R0)+, R0
F72E	3470		MOVE $E0, R4
F730	0F88		ADD R15, R8
F732	F670		SUB R6, #$71
F734	0036		OR R0, R3
F736	700F		MOVB (R0), R0
F738	8833		LBI R8, #$33
F73A	100B		CTRL $0, #$0B
F73C	82F8		LBI R2, #$F8
F73E	1070		CTRL $0, #$70
F740	7880		MOVB (R8)+, R8
F742	007D		MLH R0, R7
F744	25FE		MOVE R5, $1FC
F746	7510		MOVB (R1)+, R5
F748	0134		MOVE R1, R3
F74A	100F		CTRL $0, #$0F
F74C	883A		LBI R8, #$3A
F74E	100B		CTRL $0, #$0B
F750	6D39		MOVB R13, (R3)
F752	040B		ADDH2 R4, R0
F754	A147		ADD R1, #$48
F756	F6FE		SUB R6, #$FF
F758	3320		MOVE $40, R3
F75A	7B19		MOVB (R1), R11
F75C	F023		BRA $F73A		; -> -$24(R0)

F75E	FCFE		SUB R12, #$FF
F760	3320		MOVE $40, R3
F762	10CE		CTRL $0, #$CE
F764	7012		MOVB (R1)+++, R0
F766	007D		MLH R0, R7
F768	2D7B		MOVE R13, $F6
F76A	B87D		SET R8, #$7D
F76C	2D7D		MOVE R13, $FA
F76E	2D00		MOVE R13, $00
F770	F10B		SUB R1, #$0C
F772	E4FE		
F774	3920		MOVE $40, R9
F776	0BA4		MOVE R11, R10
F778	7B0C		MOVB (R0), R11
F77A	DD40		MOVE R13, (R4)'
F77C	007D		MLH R0, R7
F77E	2D3C		MOVE R13, $78
F780	7E10		MOVB (R1)+, R14
F782	D033		JMP (R3)++
F784	5000		MOVE (R0)', R0
F786	0133		INC2 R1, R3
F788	6000		MOVB R0, (R0)+
F78A	0E3C		MHL R14, R3
F78C	FF10		SUB R15, #$11
F78E	D1F1		MOVE R1, (R15)+
F790	7CE1		MOVB (R14)++, R12
F792	F07C		BRA $F717		; -> -$7D(R0)

F794	33FE		MOVE $1FC, R3
F796	3904		MOVE $08, R9
F798	0BA1		DEC R11, R10
F79A	47F8		PUTB $7, (R15)
F79C	0902		INC R9, R0
F79E	10CE		CTRL $0, #$CE
F7A0	00FF		GETA R15, $0
F7A2	3450		MOVE $A0, R4
F7A4	1068		CTRL $0, #$68
F7A6	3460		MOVE $C0, R4
F7A8	106A		CTRL $0, #$6A
F7AA	3320		MOVE $40, R3
F7AC	7BD9		MOVB (R13), R11
F7AE	F023		BRA $F78C		; -> -$24(R0)

F7B0	FCFE		SUB R12, #$FF
F7B2	3C04		MOVE $08, R12
F7B4	0B02		INC R11, R0
F7B6	C300		SLE R3, R0
F7B8	0B00		DEC2 R11, R0
F7BA	3310		MOVE $20, R3
F7BC	0540		DEC2 R5, R4
F7BE	3550		MOVE $A0, R5
F7C0	1068		CTRL $0, #$68
F7C2	3560		MOVE $C0, R5
F7C4	106A		CTRL $0, #$6A
F7C6	3330		MOVE $60, R3
F7C8	0040		DEC2 R0, R4
F7CA	FA00		SUB R10, #$01
F7CC	3008		MOVE $10, R0
F7CE	7BEA		MOVB (R14), R11
F7D0	F17C		SUB R1, #$7D
F7D2	1EFE		CTRL $E, #$FE
F7D4	4C3F		PUTB $C, (R3)
F7D6	0010		DEC2 R0, R1
F7D8	CE33		SZ R14
F7DA	7000		MOVB (R0)+, R0
F7DC	40F9		PUTB $0, (R15)
F7DE	1070		CTRL $0, #$70
F7E0	3410		MOVE $20, R4
F7E2	1062		CTRL $0, #$62
F7E4	0A03		INC2 R10, R0
F7E6	10CE		CTRL $0, #$CE
F7E8	10CE		CTRL $0, #$CE
F7EA	3C4C		MOVE $98, R12
F7EC	10D0		CTRL $0, #$D0
F7EE	F17C		SUB R1, #$7D
F7F0	E1FE		
F7F2	F07B		BRA $F778		; -> -$7C(R0)

F7F4	68FE		MOVB R8, (R15)
F7F6	3320		MOVE $40, R3
F7F8	7C03		MOVB (R0)++++, R12
F7FA	3450		MOVE $A0, R4
F7FC	1068		CTRL $0, #$68
F7FE	3460		MOVE $C0, R4
F800	106A		CTRL $0, #$6A
F802	F023		BRA $F7E0		; -> -$24(R0)

F804	FCFE		SUB R12, #$FF
F806	3510		MOVE $20, R5
F808	1062		CTRL $0, #$62
F80A	3550		MOVE $A0, R5
F80C	1068		CTRL $0, #$68
F80E	3560		MOVE $C0, R5
F810	106A		CTRL $0, #$6A
F812	3330		MOVE $60, R3
F814	0040		DEC2 R0, R4
F816	FA00		SUB R10, #$01
F818	3008		MOVE $10, R0
F81A	7C10		MOVB (R1)+, R12
F81C	F17C		SUB R1, #$7D
F81E	1EFE		CTRL $E, #$FE
F820	4C3F		PUTB $C, (R3)
F822	0010		DEC2 R0, R1
F824	CE33		SZ R14
F826	7000		MOVB (R0)+, R0
F828	40F9		PUTB $0, (R15)
F82A	1070		CTRL $0, #$70
F82C	3370		MOVE $E0, R3
F82E	0001		DEC R0, R0
F830	F850		SUB R8, #$51
F832	70FA		MOVB (R15), R0
F834	5060		MOVE (R6)', R0
F836	107B		CTRL $0, #$7B
F838	F0F0		BRA $F749		; -> -$F1(R0)

F83A	7B68		MOVB (R6), R11
F83C	3480		MOVE $100, R4
F83E	105E		CTRL $0, #$5E
F840	4C03		PUTB $C, (R0)++++
F842	0010		DEC2 R0, R1
F844	CE7C		SNS R14
F846	5C04		MOVE (R0)~, R12
F848	4C3A		PUTB $C, (R3)
F84A	0511		DEC R5, R1
F84C	0E33		INC2 R14, R3
F84E	7000		MOVB (R0)+, R0
F850	01F8		ADD R1, R15
F852	5070		MOVE (R7)', R0
F854	3370		MOVE $E0, R3
F856	0040		DEC2 R0, R4
F858	F910		SUB R9, #$11
F85A	70FA		MOVB (R15), R0
F85C	5060		MOVE (R6)', R0
F85E	187B		CTRL $8, #$7B
F860	6831		MOVB R8, (R3)++
F862	0010		DEC2 R0, R1
F864	5EFE		MOVE (R15), R14
F866	CE10		SLE R14, R1
F868	0B80		DEC2 R11, R8
F86A	7D29		MOVB (R2), R13
F86C	FB40		SUB R11, #$41
F86E	10D5		CTRL $0, #$D5
F870	1000		CTRL $0, #$00
F872	C001		SLT R0, R0
F874	7C36		MOVB (R3)---, R12
F876	FB10		SUB R11, #$11
F878	40FE		PUTB $0, (R15)
F87A	4D01		PUTB $D, (R0)++
F87C	0410		DEC2 R4, R1
F87E	CE10		SLE R14, R1
F880	7C46		MOVB (R4)---, R12
F882	D510		MOVE R5, (R1)'
F884	02C0		DEC2 R2, R12
F886	017C		MHL R1, R7
F888	3DF0		MOVE $1E0, R13
F88A	7D29		MOVB (R2), R13
F88C	1C01		CTRL $C, #$01
F88E	10CE		CTRL $0, #$CE
F890	04F0		DEC2 R4, R15
F892	7BCB		MOVB (R12), R11
F894	CC40		SLE R12, R4
F896	0540		DEC2 R5, R4
F898	7CD7		MOVB (R13)----, R12
F89A	0A03		INC2 R10, R0
F89C	10CE		CTRL $0, #$CE
F89E	0540		DEC2 R5, R4
F8A0	CC5C		SNS R12
F8A2	0544		MOVE R5, R4
F8A4	7C6D		MOVB (R6), R12
F8A6	3C7E		MOVE $FC, R12
F8A8	10D0		CTRL $0, #$D0
F8AA	C570		SLE R5, R7
F8AC	0F88		ADD R15, R8
F8AE	C101		SLT R1, R0
F8B0	7D15		MOVB (R1)--, R13
F8B2	F17C		SUB R1, #$7D
F8B4	E1FE		
F8B6	F07C		BRA $F83B		; -> -$7D(R0)

F8B8	D7FE		MOVE R7, (R15)
F8BA	3320		MOVE $40, R3
F8BC	7C65		MOVB (R6)--, R12
F8BE	3450		MOVE $A0, R4
F8C0	1068		CTRL $0, #$68
F8C2	3460		MOVE $C0, R4
F8C4	106A		CTRL $0, #$6A
F8C6	F023		BRA $F8A4		; -> -$24(R0)

F8C8	FCFE		SUB R12, #$FF
F8CA	3330		MOVE $60, R3
F8CC	0040		DEC2 R0, R4
F8CE	FA00		SUB R10, #$01
F8D0	3000		MOVE $00, R0
F8D2	7CC3		MOVB (R12)++++, R12
F8D4	0A03		INC2 R10, R0
F8D6	10CE		CTRL $0, #$CE
F8D8	0540		DEC2 R5, R4
F8DA	3C6E		MOVE $DC, R12
F8DC	10D0		CTRL $0, #$D0
F8DE	C570		SLE R5, R7
F8E0	0F88		ADD R15, R8
F8E2	C101		SLT R1, R0
F8E4	7D15		MOVB (R1)--, R13
F8E6	F17C		SUB R1, #$7D
F8E8	E1FE		
F8EA	F07C		BRA $F86F		; -> -$7D(R0)

F8EC	D7FE		MOVE R7, (R15)
F8EE	3320		MOVE $40, R3
F8F0	7C7F		MOVB (R7), R12
F8F2	3450		MOVE $A0, R4
F8F4	1068		CTRL $0, #$68
F8F6	3460		MOVE $C0, R4
F8F8	106A		CTRL $0, #$6A
F8FA	F023		BRA $F8D8		; -> -$24(R0)

F8FC	FCFE		SUB R12, #$FF
F8FE	3C02		MOVE $04, R12
F900	0B02		INC R11, R0
F902	C300		SLE R3, R0
F904	0B00		DEC2 R11, R0
F906	0C3F		GETA R3, $C
F908	0540		DEC2 R5, R4
F90A	10CE		CTRL $0, #$CE
F90C	3550		MOVE $A0, R5
F90E	1068		CTRL $0, #$68
F910	3560		MOVE $C0, R5
F912	106A		CTRL $0, #$6A
F914	3330		MOVE $60, R3
F916	0040		DEC2 R0, R4
F918	FA00		SUB R10, #$01
F91A	3000		MOVE $00, R0
F91C	7CC3		MOVB (R12)++++, R12
F91E	F07B		BRA $F8A4		; -> -$7C(R0)

F920	68FE		MOVB R8, (R15)
F922	CC40		SLE R12, R4
F924	0200		DEC2 R2, R0
F926	7CD1		MOVB (R13)++, R12
F928	0A03		INC2 R10, R0
F92A	10CE		CTRL $0, #$CE
F92C	0200		DEC2 R2, R0
F92E	CC5C		SNS R12
F930	0204		MOVE R2, R0
F932	7CDD		MOVB (R13), R12
F934	3C4C		MOVE $98, R12
F936	10D0		CTRL $0, #$D0
F938	C570		SLE R5, R7
F93A	0F88		ADD R15, R8
F93C	C101		SLT R1, R0
F93E	7D15		MOVB (R1)--, R13
F940	F17C		SUB R1, #$7D
F942	E1FE		
F944	F07C		BRA $F8C9		; -> -$7D(R0)

F946	D1FE		MOVE R1, (R15)
F948	3320		MOVE $40, R3
F94A	7CA8		MOVB (R10), R12
F94C	F023		BRA $F92A		; -> -$24(R0)

F94E	FCFE		SUB R12, #$FF
F950	3C03		MOVE $06, R12
F952	0B02		INC R11, R0
F954	C300		SLE R3, R0
F956	0B00		DEC2 R11, R0
F958	CC5C		SNS R12
F95A	0244		MOVE R2, R4
F95C	7CBE		MOVB (R11), R12
F95E	3330		MOVE $60, R3
F960	0040		DEC2 R0, R4
F962	FA00		SUB R10, #$01
F964	3010		MOVE $20, R0
F966	7CBE		MOVB (R11), R12
F968	0C03		INC2 R12, R0
F96A	0200		DEC2 R2, R0
F96C	10CE		CTRL $0, #$CE
F96E	3C5C		MOVE $B8, R12
F970	0204		MOVE R2, R0
F972	0C3A		ADDH R12, R3
F974	0205		AND R2, R0
F976	110E		CTRL $1, #$0E
F978	F07B		BRA $F8FE		; -> -$7C(R0)

F97A	68FE		MOVB R8, (R15)
F97C	0C3F		GETA R3, $C
F97E	0200		DEC2 R2, R0
F980	10CE		CTRL $0, #$CE
F982	F07B		BRA $F908		; -> -$7C(R0)

F984	68FE		MOVB R8, (R15)
F986	3C5C		MOVE $B8, R12
F988	10D2		CTRL $0, #$D2
F98A	0C3A		ADDH R12, R3
F98C	10D3		CTRL $0, #$D3
F98E	110E		CTRL $1, #$0E
F990	3C02		MOVE $04, R12
F992	0B02		INC R11, R0
F994	C300		SLE R3, R0
F996	0B00		DEC2 R11, R0
F998	0C3F		GETA R3, $C
F99A	0540		DEC2 R5, R4
F99C	10CE		CTRL $0, #$CE
F99E	F07B		BRA $F924		; -> -$7C(R0)

F9A0	68FE		MOVB R8, (R15)
F9A2	3C03		MOVE $06, R12
F9A4	0B02		INC R11, R0
F9A6	C300		SLE R3, R0
F9A8	0B00		DEC2 R11, R0
F9AA	F07B		BRA $F930		; -> -$7C(R0)

F9AC	68FE		MOVB R8, (R15)
F9AE	3C02		MOVE $04, R12
F9B0	0B02		INC R11, R0
F9B2	C300		SLE R3, R0
F9B4	0B00		DEC2 R11, R0
F9B6	F07B		BRA $F93C		; -> -$7C(R0)

F9B8	68FE		MOVB R8, (R15)
F9BA	3C7E		MOVE $FC, R12
F9BC	10D0		CTRL $0, #$D0
F9BE	F07C		BRA $F943		; -> -$7D(R0)

F9C0	9CFE		CLR R12, #$FE
F9C2	3480		MOVE $100, R4
F9C4	105E		CTRL $0, #$5E
F9C6	C510		SLE R5, R1
F9C8	106C		CTRL $0, #$6C
F9CA	C001		SLT R0, R0
F9CC	7CF5		MOVB (R15)--, R12
F9CE	CE10		SLE R14, R1
F9D0	0B65		AND R11, R6
F9D2	7CF2		MOVB (R15)+++, R12
F9D4	4D01		PUTB $D, (R0)++
F9D6	0410		DEC2 R4, R1
F9D8	CE08		SGT R14, R0
F9DA	7CF5		MOVB (R15)--, R12
F9DC	DE10		MOVE R14, (R1)'
F9DE	027C		MHL R2, R7
F9E0	FDF0		SUB R13, #$F1
F9E2	7CEA		MOVB (R14), R12
F9E4	CE10		SLE R14, R1
F9E6	0B80		DEC2 R11, R8
F9E8	7CFD		MOVB (R15), R12
F9EA	4D01		PUTB $D, (R0)++
F9EC	0410		DEC2 R4, R1
F9EE	CE20		SLE R14, R2
F9F0	7CFF		MOVB (R15), R12
F9F2	D510		MOVE R5, (R1)'
F9F4	00C0		DEC2 R0, R12
F9F6	017C		MHL R1, R7
F9F8	F5FE		SUB R5, #$FF
F9FA	3100		MOVE $00, R1
F9FC	105E		CTRL $0, #$5E
F9FE	CD7E		SNBC R13, R7
FA00	10D0		CTRL $0, #$D0
FA02	7D0A		MOVB (R0), R13
FA04	3410		MOVE $20, R4
FA06	0B65		AND R11, R6
FA08	3320		MOVE $40, R3
FA0A	0002		INC R0, R0
FA0C	3620		MOVE $40, R6
FA0E	105E		CTRL $0, #$5E
FA10	FC20		SUB R12, #$21
FA12	00FE		GETB R15, $0
FA14	CD6E		SNBC R13, R6
FA16	10D0		CTRL $0, #$D0
FA18	7D11		MOVB (R1)++, R13
FA1A	DE10		MOVE R14, (R1)'
FA1C	007C		MHL R0, R7
FA1E	FDF0		SUB R13, #$F1
FA20	7D02		MOVB (R0)+++, R13
FA22	DE10		MOVE R14, (R1)'
FA24	027C		MHL R2, R7
FA26	FDF0		SUB R13, #$F1
FA28	7D02		MOVB (R0)+++, R13
FA2A	3480		MOVE $100, R4
FA2C	105E		CTRL $0, #$5E
FA2E	3370		MOVE $E0, R3
FA30	0002		INC R0, R0
FA32	3670		MOVE $E0, R6
FA34	105E		CTRL $0, #$5E
FA36	3470		MOVE $E0, R4
FA38	105E		CTRL $0, #$5E
FA3A	3510		MOVE $20, R5
FA3C	0F88		ADD R15, R8
FA3E	F07C		BRA $F9C3		; -> -$7D(R0)

FA40	F5FE		SUB R5, #$FF
FA42	3C33		MOVE $66, R12
FA44	0BB4		MOVE R11, R11
FA46	F07D		BRA $F9CA		; -> -$7E(R0)

FA48	35FE		MOVE $1FC, R5
FA4A	3C35		MOVE $6A, R12
FA4C	0BB4		MOVE R11, R11
FA4E	F07D		BRA $F9D2		; -> -$7E(R0)

FA50	35FE		MOVE $1FC, R5
FA52	3C34		MOVE $68, R12
FA54	0BB4		MOVE R11, R11
FA56	F07D		BRA $F9DA		; -> -$7E(R0)

FA58	35FE		MOVE $1FC, R5
FA5A	3300		MOVE $00, R3
FA5C	108B		CTRL $0, #$8B
FA5E	F910		SUB R9, #$11
FA60	0034		RET R3

FA62	100B		CTRL $0, #$0B
FA64	B43C		SET R4, #$3C
FA66	320B		MOVE $16, R2
FA68	B4FE		SET R4, #$FE
FA6A	3B10		MOVE $20, R11
FA6C	0B6C		MHL R11, R6
FA6E	F08F		BRA $F9E0		; -> -$90(R0)

FA70	EEFE		
FA72	300C		MOVE $18, R0
FA74	10B4		CTRL $0, #$B4
FA76	0C01		DEC R12, R0
FA78	0DB0		DEC2 R13, R11
FA7A	0DAE		GETB R10, $D
FA7C	F117		SUB R1, #$18
FA7E	F2FE		SUB R2, #$FF
FA80	0901		DEC R9, R0
FA82	0EE8		ADD R14, R14
FA84	0000		HALT
FA86	0901		DEC R9, R0
FA88	0ED3		INC2 R14, R13
FA8A	0000		HALT
FA8C	F07D		BRA $FA10		; -> -$7E(R0)

FA8E	4AFE		PUTB $A, (R15)
FA90	300C		MOVE $18, R0
FA92	10B4		CTRL $0, #$B4
FA94	0C01		DEC R12, R0
FA96	0B63		INC2 R11, R6
FA98	0B5F		GETA R5, $B
FA9A	0901		DEC R9, R0
FA9C	0B65		AND R11, R6
FA9E	0000		HALT
FAA0	0901		DEC R9, R0
FAA2	0B7D		MLH R11, R7
FAA4	0000		HALT
FAA6	0D01		DEC R13, R0
FAA8	0DAE		GETB R10, $D
FAAA	0DB0		DEC2 R13, R11
FAAC	207D		JMP ($00FA)

FAAE	6F35		MOVB R15, (R3)--
FAB0	100D		CTRL $0, #$0D
FAB2	AE33		ADD R14, #$34
FAB4	3000		MOVE $00, R0
FAB6	0433		INC2 R4, R3
FAB8	4000		PUTB $0, (R0)+
FABA	06FE		GETB R15, $6
FABC	3410		MOVE $20, R4
FABE	1097		CTRL $0, #$97
FAC0	F910		SUB R9, #$11
FAC2	30C4		MOVE $188, R0
FAC4	100D		CTRL $0, #$0D
FAC6	B000		SET R0, #$00
FAC8	7D6F		MOVB (R6), R13
FACA	4D01		PUTB $D, (R0)++
FACC	020D		MLH R2, R0
FACE	B010		SET R0, #$10
FAD0	7D6F		MOVB (R6), R13
FAD2	7880		MOVB (R8)+, R8
FAD4	017D		MLH R1, R7
FAD6	5EFE		MOVE (R15), R14
FAD8	F910		SUB R9, #$11
FADA	40F0		PUTB $0, (R15)+
FADC	7D5E		MOVB (R5), R13
FADE	0517		XOR R5, R1
FAE0	109B		CTRL $0, #$9B
FAE2	7EEA		MOVB (R14), R14
FAE4	0C01		DEC R12, R0
FAE6	108E		CTRL $0, #$8E
FAE8	0B5F		GETA R5, $B
FAEA	3C01		MOVE $02, R12
FAEC	1094		CTRL $0, #$94
FAEE	F07D		BRA $FA72		; -> -$7E(R0)

FAF0	92FE		CLR R2, #$FE
FAF2	0D01		DEC R13, R0
FAF4	10B1		CTRL $0, #$B1
FAF6	108C		CTRL $0, #$8C
FAF8	207D		JMP ($00FA)

FAFA	8031		LBI R0, #$31
FAFC	0010		DEC2 R0, R1
FAFE	95FE		CLR R5, #$FE
FB00	3520		MOVE $40, R5
FB02	0DB0		DEC2 R13, R11
FB04	3510		MOVE $20, R5
FB06	0B63		INC2 R11, R6
FB08	3908		MOVE $10, R9
FB0A	0B6C		MHL R11, R6
FB0C	7D90		MOVB (R9)+, R13
FB0E	3520		MOVE $40, R5
FB10	0B61		DEC R11, R6
FB12	F920		SUB R9, #$21
FB14	10C0		CTRL $0, #$C0
FB16	047D		MLH R4, R7
FB18	907C		CLR R0, #$7C
FB1A	0000		HALT
FB1C	5420		MOVE (R2)', R4
FB1E	0100		DEC2 R1, R0
FB20	300E		MOVE $1C, R0
FB22	10B4		CTRL $0, #$B4
FB24	0C01		DEC R12, R0
FB26	108C		CTRL $0, #$8C
FB28	10B1		CTRL $0, #$B1
FB2A	CC00		SLE R12, R0
FB2C	1094		CTRL $0, #$94
FB2E	7DC8		MOVB (R12), R13
FB30	3C00		MOVE $00, R12
FB32	1094		CTRL $0, #$94
FB34	3300		MOVE $00, R3
FB36	7E48		MOVB (R4), R14
FB38	3400		MOVE $00, R4
FB3A	1095		CTRL $0, #$95
FB3C	3310		MOVE $20, R3
FB3E	1099		CTRL $0, #$99
FB40	3410		MOVE $20, R4
FB42	1099		CTRL $0, #$99
FB44	3510		MOVE $20, R5
FB46	1099		CTRL $0, #$99
FB48	7310		MOVB (R1)+, R3
FB4A	0234		MOVE R2, R3
FB4C	1010		CTRL $0, #$10
FB4E	99DC		CLR R9, #$DC
FB50	FF00		SUB R15, #$01
FB52	7DC8		MOVB (R12), R13
FB54	7510		MOVB (R1)+, R5
FB56	0034		RET R3

FB58	1010		CTRL $0, #$10
FB5A	92DE		CLR R2, #$DE
FB5C	1000		CTRL $0, #$00
FB5E	7DA2		MOVB (R10)+++, R13
FB60	C410		SLE R4, R1
FB62	108E		CTRL $0, #$8E
FB64	007D		MLH R0, R7
FB66	C3C4		SS R3
FB68	1010		CTRL $0, #$10
FB6A	8C08		LBI R12, #$08
FB6C	7DC3		MOVB (R12)++++, R13
FB6E	3C01		MOVE $02, R12
FB70	1094		CTRL $0, #$94
FB72	3410		MOVE $20, R4
FB74	108C		CTRL $0, #$8C
FB76	0C01		DEC R12, R0
FB78	1090		CTRL $0, #$90
FB7A	1092		CTRL $0, #$92
FB7C	0D01		DEC R13, R0
FB7E	108C		CTRL $0, #$8C
FB80	108E		CTRL $0, #$8E
FB82	207E		JMP ($00FC)

FB84	48FE		PUTB $8, (R15)
FB86	D510		MOVE R5, (R1)'
FB88	00C0		DEC2 R0, R12
FB8A	017D		MLH R1, R7
FB8C	B0F0		SET R0, #$F0
FB8E	7DA2		MOVB (R10)+++, R13
FB90	3310		MOVE $20, R3
FB92	0B3C		MHL R11, R3
FB94	3330		MOVE $60, R3
FB96	0B56		OR R11, R5
FB98	3340		MOVE $80, R3
FB9A	7E70		MOVB (R7)+, R14
FB9C	DE00		MOVE R14, (R0)'
FB9E	007D		MLH R0, R7
FBA0	F74D		SUB R7, #$4E
FBA2	0100		DEC2 R1, R0
FBA4	108C		CTRL $0, #$8C
FBA6	187D		CTRL $8, #$7D
FBA8	DF4D		MOVE R15, (R4)
FBAA	0100		DEC2 R1, R0
FBAC	108E		CTRL $0, #$8E
FBAE	107D		CTRL $0, #$7D
FBB0	DF1C		MOVE R15, (R1)
FBB2	0110		DEC2 R1, R1
FBB4	8C00		LBI R12, #$00
FBB6	3410		MOVE $20, R4
FBB8	1090		CTRL $0, #$90
FBBA	3440		MOVE $80, R4
FBBC	1095		CTRL $0, #$95
FBBE	FB50		SUB R11, #$51
FBC0	1075		CTRL $0, #$75
FBC2	1000		CTRL $0, #$00
FBC4	7820		MOVB (R2)+, R8
FBC6	157D		CTRL $5, #$7D
FBC8	F5FE		SUB R5, #$FF
FBCA	4D01		PUTB $D, (R0)++
FBCC	4210		PUTB $2, (R1)+
FBCE	8C18		LBI R12, #$18
FBD0	7DF5		MOVB (R15)--, R13
FBD2	4D01		PUTB $D, (R0)++
FBD4	4210		PUTB $2, (R1)+
FBD6	8E10		LBI R14, #$10
FBD8	7DF5		MOVB (R15)--, R13
FBDA	1C01		CTRL $C, #$01
FBDC	108C		CTRL $0, #$8C
FBDE	4234		PUTB $2, (R3)-
FBE0	4010		PUTB $0, (R1)+
FBE2	9573		CLR R5, #$73
FBE4	1042		CTRL $0, #$42
FBE6	3410		MOVE $20, R4
FBE8	1090		CTRL $0, #$90
FBEA	FB10		SUB R11, #$11
FBEC	50FE		MOVE (R15), R0
FBEE	7310		MOVB (R1)+, R3
FBF0	02FA		ADDH R2, R15
FBF2	1030		CTRL $0, #$30
FBF4	107D		CTRL $0, #$7D
FBF6	CECE		SNBC R14, R12
FBF8	100E		CTRL $0, #$0E
FBFA	E87E		
FBFC	0CC4		MOVE R12, R12
FBFE	1010		CTRL $0, #$10
FC00	8C08		LBI R12, #$08
FC02	7E0C		MOVB (R0), R14
FC04	C410		SLE R4, R1
FC06	108E		CTRL $0, #$8E
FC08	007E		GETB R7, $0
FC0A	0C34		MOVE R12, R3
FC0C	1010		CTRL $0, #$10
FC0E	8C33		LBI R12, #$33
FC10	007E		GETB R7, $0
FC12	A334		ADD R3, #$35
FC14	0010		DEC2 R0, R1
FC16	95FE		CLR R5, #$FE
FC18	0D01		DEC R13, R0
FC1A	0DAE		GETB R10, $D
FC1C	0DB0		DEC2 R13, R11
FC1E	207D		JMP ($00FA)

FC20	7935		MOVB (R3)--, R9
FC22	1010		CTRL $0, #$10
FC24	9733		CLR R7, #$33
FC26	3000		MOVE $00, R0
FC28	04F9		SUB R4, R15
FC2A	1030		CTRL $0, #$30
FC2C	C410		SLE R4, R1
FC2E	0DB0		DEC2 R13, R11
FC30	007D		MLH R0, R7
FC32	7979		MOVB (R7), R9
FC34	8001		LBI R0, #$01
FC36	7E28		MOVB (R2), R14
FC38	4D01		PUTB $D, (R0)++
FC3A	0210		DEC2 R2, R1
FC3C	8C00		LBI R12, #$00
FC3E	7D79		MOVB (R7), R13
FC40	4D01		PUTB $D, (R0)++
FC42	0210		DEC2 R2, R1
FC44	8E10		LBI R14, #$10
FC46	7D79		MOVB (R7), R13
FC48	3410		MOVE $20, R4
FC4A	1097		CTRL $0, #$97
FC4C	F07E		BRA $FBCF		; -> -$7F(R0)

FC4E	B6FE		SET R6, #$FE
FC50	3330		MOVE $60, R3
FC52	0006		OR R0, R0
FC54	F910		SUB R9, #$11
FC56	3075		MOVE $EA, R0
FC58	2008		JMP ($0010)

FC5A	7540		MOVB (R4)+, R5
FC5C	0435		AND R4, R3
FC5E	500E		MOVE (R0), R0
FC60	BE78		SET R14, #$78
FC62	0B07		XOR R11, R0
FC64	7E3A		MOVB (R3), R14
FC66	3350		MOVE $A0, R3
FC68	0012		INC R0, R1
FC6A	7840		MOVB (R4)+, R8
FC6C	077E		GETB R7, $7
FC6E	3AFE		MOVE $1FC, R10
FC70	B250		SET R2, #$50
FC72	00FE		GETB R15, $0
FC74	F540		SUB R5, #$41
FC76	50F9		MOVE (R15), R0
FC78	2050		JMP ($00A0)

FC7A	C420		SLE R4, R2
FC7C	108C		CTRL $0, #$8C
FC7E	107D		CTRL $0, #$7D
FC80	79C4		MOVB (R12)-, R9
FC82	2010		JMP ($0020)

FC84	8E00		LBI R14, #$00
FC86	7D79		MOVB (R7), R13
FC88	3410		MOVE $20, R4
FC8A	1097		CTRL $0, #$97
FC8C	F07E		BRA $FC0F		; -> -$7F(R0)

FC8E	D4FE		MOVE R4, (R15)
FC90	3510		MOVE $20, R5
FC92	108C		CTRL $0, #$8C
FC94	F153		SUB R1, #$54
FC96	E4FE		
FC98	7300		MOVB (R0)+, R3
FC9A	0134		MOVE R1, R3
FC9C	0010		DEC2 R0, R1
FC9E	8E35		LBI R14, #$35
FCA0	1010		CTRL $0, #$10
FCA2	8CF9		LBI R12, #$F9
FCA4	0010		DEC2 R0, R1
FCA6	3520		MOVE $40, R5
FCA8	0B63		INC2 R11, R6
FCAA	9400		CLR R4, #$00
FCAC	0000		HALT
FCAE	F800		SUB R8, #$01
FCB0	2034		JMP ($0068)

FCB2	000B		ADDH2 R0, R0
FCB4	63EE		MOVB R3, (R14)
FCB6	1002		CTRL $0, #$02
FCB8	7E60		MOVB (R6)+, R14
FCBA	7420		MOVB (R2)+, R4
FCBC	00F0		DEC2 R0, R15
FCBE	7E64		MOVB (R6)-, R14
FCC0	3510		MOVE $20, R5
FCC2	1090		CTRL $0, #$90
FCC4	7420		MOVB (R2)+, R4
FCC6	00FE		GETB R15, $0
FCC8	EE10		
FCCA	007E		GETB R7, $0
FCCC	6874		MOVB R8, (R7)-
FCCE	2002		JMP ($0004)

FCD0	8D01		LBI R13, #$01
FCD2	0010		DEC2 R0, R1
FCD4	8E28		LBI R14, #$28
FCD6	7D77		MOVB (R7)----, R13
FCD8	2C01		MOVE R12, $02
FCDA	108C		CTRL $0, #$8C
FCDC	00F0		DEC2 R0, R15
FCDE	7E48		MOVB (R4), R14
FCE0	3510		MOVE $20, R5
FCE2	1090		CTRL $0, #$90
FCE4	7520		MOVB (R2)+, R5
FCE6	00FE		GETB R15, $0
FCE8	B910		SET R9, #$10
FCEA	117E		CTRL $1, #$7E
FCEC	74FE		MOVB (R15), R4
FCEE	EC02		
FCF0	047E		GETB R7, $4
FCF2	829F		LBI R2, #$9F
FCF4	1004		CTRL $0, #$04
FCF6	009F		GETA R9, $0
FCF8	100A		CTRL $0, #$0A
FCFA	009F		GETA R9, $0
FCFC	1016		CTRL $0, #$16
FCFE	009F		GETA R9, $0
FD00	1024		CTRL $0, #$24
FD02	00FE		GETB R15, $0
FD04	4C01		PUTB $C, (R0)++
FD06	000B		ADDH2 R0, R0
FD08	634E		MOVB R3, (R4)
FD0A	1000		CTRL $0, #$00
FD0C	0EDB		ADDH2 R14, R13
FD0E	7B01		MOVB (R0)++, R11
FD10	0175		AND R1, R7
FD12	1000		CTRL $0, #$00
FD14	B500		SET R5, #$00
FD16	1864		CTRL $8, #$64
FD18	0000		HALT
FD1A	00F8		ADD R0, R15
FD1C	2000		JMP ($0000)

FD1E	3420		MOVE $40, R4
FD20	108E		CTRL $0, #$8E
FD22	F800		SUB R8, #$01
FD24	1034		CTRL $0, #$34
FD26	000B		ADDH2 R0, R0
FD28	6335		MOVB R3, (R3)--
FD2A	2010		JMP ($0020)

FD2C	90DC		CLR R0, #$DC
FD2E	0204		MOVE R2, R0
FD30	7EA1		MOVB (R10)++, R14
FD32	6E10		MOVB R14, (R1)+
FD34	0400		DEC2 R4, R0
FD36	6E10		MOVB R14, (R1)+
FD38	0A00		DEC2 R10, R0
FD3A	6E10		MOVB R14, (R1)+
FD3C	1600		CTRL $6, #$00
FD3E	6E10		MOVB R14, (R1)+
FD40	2400		MOVE R4, $00
FD42	F07D		BRA $FCC6		; -> -$7E(R0)

FD44	77FE		MOVB (R15), R7
FD46	3510		MOVE $20, R5
FD48	0B63		INC2 R11, R6
FD4A	3300		MOVE $00, R3
FD4C	01A4		MOVE R1, R10
FD4E	3520		MOVE $40, R5
FD50	0EE8		ADD R14, R14
FD52	6400		MOVB R4, (R0)+
FD54	0000		HALT
FD56	3410		MOVE $20, R4
FD58	0EE8		ADD R14, R14
FD5A	F810		SUB R8, #$11
FD5C	0034		RET R3

FD5E	100B		CTRL $0, #$0B
FD60	63F8		MOVB R3, (R15)
FD62	2000		JMP ($0000)

FD64	3420		MOVE $40, R4
FD66	108E		CTRL $0, #$8E
FD68	F07D		BRA $FCEC		; -> -$7E(R0)

FD6A	77FE		MOVB (R15), R7
FD6C	7520		MOVB (R2)+, R5
FD6E	0235		AND R2, R3
FD70	000E		GETB R0, $0
FD72	BE78		SET R14, #$78
FD74	0B01		DEC R11, R0
FD76	7EC5		MOVB (R12)--, R14
FD78	3300		MOVE $00, R3
FD7A	0012		INC R0, R1
FD7C	7840		MOVB (R4)+, R8
FD7E	017E		GETB R7, $1
FD80	C5FE		SNBC R5, R15
FD82	B200		SET R2, #$00
FD84	0036		OR R0, R3
FD86	000E		GETB R0, $0
FD88	DBFE		MOVE R11, (R15)
FD8A	4C01		PUTB $C, (R0)++
FD8C	020B		ADDH2 R2, R0
FD8E	6375		MOVB R3, (R7)--
FD90	1002		CTRL $0, #$02
FD92	6400		MOVB R4, (R0)+
FD94	0000		HALT
FD96	F810		SUB R8, #$11
FD98	0034		RET R3

FD9A	100B		CTRL $0, #$0B
FD9C	63F8		MOVB R3, (R15)
FD9E	2000		JMP ($0000)

FDA0	3420		MOVE $40, R4
FDA2	108E		CTRL $0, #$8E
FDA4	F07D		BRA $FD28		; -> -$7E(R0)

FDA6	77FE		MOVB (R15), R7
FDA8	FB40		SUB R11, #$41
FDAA	5078		MOVE (R7), R0
FDAC	4007		PUTB $0, (R0)----
FDAE	7EDA		MOVB (R13), R14
FDB0	3650		MOVE $A0, R6
FDB2	0EDB		ADDH2 R14, R13
FDB4	3640		MOVE $80, R6
FDB6	0B63		INC2 R11, R6
FDB8	7440		MOVB (R4)+, R4
FDBA	0835		AND R8, R3
FDBC	100B		CTRL $0, #$0B
FDBE	6364		MOVB R3, (R6)-
FDC0	5000		MOVE (R0)', R0
FDC2	00F8		ADD R0, R15
FDC4	2050		JMP ($00A0)

FDC6	3420		MOVE $40, R4
FDC8	108E		CTRL $0, #$8E
FDCA	F810		SUB R8, #$11
FDCC	5034		MOVE (R3)~, R0
FDCE	100B		CTRL $0, #$0B
FDD0	63F0		MOVB R3, (R15)+
FDD2	7D77		MOVB (R7)----, R13
FDD4	0B80		DEC2 R11, R8
FDD6	0B83		INC2 R11, R8
FDD8	0B86		OR R11, R8
FDDA	0B89		SUB R11, R8
FDDC	0B8C		MHL R11, R8
FDDE	0B8F		GETA R8, $B
FDE0	0B92		INC R11, R9
FDE2	0B95		AND R11, R9
FDE4	0B98		ADD R11, R9
FDE6	0B9B		ADDH2 R11, R9
FDE8	0B9E		GETB R9, $B
FDEA	FFFF		SUB R15, #$100
FDEC	3310		MOVE $20, R3
FDEE	1090		CTRL $0, #$90
FDF0	3300		MOVE $00, R3
FDF2	0004		NOP
FDF4	4000		PUTB $0, (R0)+
FDF6	0002		INC R0, R0
FDF8	B3FE		SET R3, #$FE
FDFA	207F		JMP ($00FE)

FDFC	DC33		MOVE R12, (R3)++
FDFE	0000		HALT
FE00	0340		DEC2 R3, R4
FE02	0000		HALT
FE04	025E		GETB R5, $2
FE06	207F		JMP ($00FE)

FE08	2640		MOVE R6, $80
FE0A	0000		HALT
FE0C	0200		DEC2 R2, R0
FE0E	207F		JMP ($00FE)

FE10	E240		
FE12	0000		HALT
FE14	0294		MOVE R2, R9
FE16	287F		MOVE R8, $FE
FE18	13DD		CTRL $3, #$DD
FE1A	7D03		MOVB (R0)++++, R13
FE1C	8024		LBI R0, #$24
FE1E	3C37		MOVE $6E, R12
FE20	0FD4		MOVE R15, R13
FE22	F07F		BRA $FDA4		; -> -$80(R0)

FE24	28FE		MOVE R8, $1FC
FE26	4000		PUTB $0, (R0)+
FE28	0002		INC R0, R0
FE2A	91FE		CLR R1, #$FE
FE2C	287F		MOVE R8, $FE
FE2E	1B3C		CTRL $B, #$3C
FE30	360F		MOVE $1E, R6
FE32	D4F0		MOVE R4, (R15)'
FE34	7F28		MOVB (R2), R15
FE36	3902		MOVE $04, R9
FE38	0B6D		MLH R11, R6
FE3A	8024		LBI R0, #$24
FE3C	3A08		MOVE $10, R10
FE3E	0BA3		INC2 R11, R10
FE40	3310		MOVE $20, R3
FE42	0580		DEC2 R5, R8
FE44	3320		MOVE $40, R3
FE46	10CE		CTRL $0, #$CE
FE48	F06B		BRA $FDDE		; -> -$6C(R0)

FE4A	E4FE		
FE4C	3C38		MOVE $70, R12
FE4E	0FD4		MOVE R15, R13
FE50	3420		MOVE $40, R4
FE52	1064		CTRL $0, #$64
FE54	F17F		SUB R1, #$80
FE56	9DFE		CLR R13, #$FE
FE58	3420		MOVE $40, R4
FE5A	0B5B		ADDH2 R11, R5
FE5C	8C01		LBI R12, #$01
FE5E	010B		ADDH2 R1, R0
FE60	6335		MOVB R3, (R3)--
FE62	200B		JMP ($0016)

FE64	6333		MOVB R3, (R3)++++
FE66	0000		HALT
FE68	08F8		ADD R8, R15
FE6A	0020		DEC2 R0, R2
FE6C	C0A0		SLE R0, R10
FE6E	801A		LBI R0, #$1A
FE70	3570		MOVE $E0, R5
FE72	0DB0		DEC2 R13, R11
FE74	3770		MOVE $E0, R7
FE76	0EDB		ADDH2 R14, R13
FE78	FA70		SUB R10, #$71
FE7A	0010		DEC2 R0, R1
FE7C	801A		LBI R0, #$1A
FE7E	8903		LBI R9, #$03
FE80	0000		HALT
FE82	008C		MHL R0, R8
FE84	0104		MOVE R1, R0
FE86	10CE		CTRL $0, #$CE
FE88	8C00		LBI R12, #$00
FE8A	060F		GETA R0, $6
FE8C	D4B3		MOVE R4, (R11)++
FE8E	2007		JMP ($000E)

FE90	CC38		SGT R12, R3
FE92	0FD4		MOVE R15, R13
FE94	7F68		MOVB (R6), R15
FE96	7310		MOVB (R1)+, R3
FE98	03F1		DEC R3, R15
FE9A	7FB1		MOVB (R11)++, R15
FE9C	3420		MOVE $40, R4
FE9E	0B63		INC2 R11, R6
FEA0	3520		MOVE $40, R5
FEA2	0B5B		ADDH2 R11, R5
FEA4	BB40		SET R11, #$40
FEA6	00BA		ADDH R0, R11
FEA8	8000		LBI R0, #$00
FEAA	3B01		MOVE $02, R11
FEAC	0B6D		MLH R11, R6
FEAE	3A80		MOVE $100, R10
FEB0	0BB5		AND R11, R11
FEB2	C520		SLE R5, R2
FEB4	0B5B		ADDH2 R11, R5
FEB6	C081		SLT R0, R8
FEB8	7F63		MOVB (R6)++++, R15
FEBA	B510		SET R5, #$10
FEBC	01DD		MLH R1, R13
FEBE	3606		MOVE $0C, R6
FEC0	7F65		MOVB (R6)--, R15
FEC2	BA30		SET R10, #$30
FEC4	00FE		GETB R15, $0
FEC6	F08F		BRA $FE38		; -> -$90(R0)

FEC8	EEFE		
FECA	BA20		SET R10, #$20
FECC	00F0		DEC2 R0, R15
FECE	7F63		MOVB (R6)++++, R15
FED0	3570		MOVE $E0, R5
FED2	0DB0		DEC2 R13, R11
FED4	3770		MOVE $E0, R7
FED6	0EDB		ADDH2 R14, R13
FED8	3350		MOVE $A0, R3
FEDA	003A		ADDH R0, R3
FEDC	F850		SUB R8, #$51
FEDE	20C0		JMP ($0180)

FEE0	A080		BRA $FF63		; $81(R0)

FEE2	1AFA		CTRL $A, #$FA
FEE4	5070		MOVE (R7)', R0
FEE6	1880		CTRL $8, #$80
FEE8	1A34		CTRL $A, #$34
FEEA	2010		JMP ($0020)

FEEC	6435		MOVB R4, (R3)--
FEEE	200B		JMP ($0016)

FEF0	5BBB		MOVE (R11), R11
FEF2	4000		PUTB $0, (R0)+
FEF4	BA10		SET R10, #$10
FEF6	0035		AND R0, R3
FEF8	2010		JMP ($0020)

FEFA	6433		MOVB R4, (R3)++++
FEFC	7005		MOVB (R0)--, R0
FEFE	C033		SZ R0
FF00	1005		CTRL $0, #$05
FF02	8030		LBI R0, #$30
FF04	0800		DEC2 R8, R0
FF06	D4FE		MOVE R4, (R15)
FF08	7310		MOVB (R1)+, R3
FF0A	01FA		ADDH R1, R15
FF0C	1070		CTRL $0, #$70
FF0E	187F		CTRL $8, #$7F
FF10	8E9C		LBI R14, #$9C
FF12	0000		HALT
FF14	00B3		INC2 R0, R11
FF16	2001		JMP ($0002)

FF18	F07F		BRA $FE9A		; -> -$80(R0)

FF1A	84FE		LBI R4, #$FE
FF1C	3300		MOVE $00, R3
FF1E	0001		DEC R0, R0
FF20	F920		SUB R9, #$21
FF22	00EC		MHL R0, R14
FF24	4000		PUTB $0, (R0)+
FF26	7F8E		MOVB (R8), R15
FF28	BCFF		SET R12, #$FF
FF2A	01B3		INC2 R1, R11
FF2C	2002		JMP ($0004)

FF2E	3420		MOVE $40, R4
FF30	0B63		INC2 R11, R6
FF32	3A80		MOVE $100, R10
FF34	0BB5		AND R11, R11
FF36	F08F		BRA $FEA8		; -> -$90(R0)

FF38	EEFE		
FF3A	3480		MOVE $100, R4
FF3C	105E		CTRL $0, #$5E
FF3E	3320		MOVE $40, R3
FF40	0B82		INC R11, R8
FF42	3560		MOVE $C0, R5
FF44	10CE		CTRL $0, #$CE
FF46	3300		MOVE $00, R3
FF48	9990		CLR R9, #$90
FF4A	F960		SUB R9, #$61
FF4C	00FB		ADDH2 R0, R15
FF4E	4060		PUTB $0, (R6)+
FF50	F660		SUB R6, #$61
FF52	00F8		ADD R0, R15
FF54	6040		MOVB R0, (R4)+
FF56	F820		SUB R8, #$21
FF58	60B8		MOVB R0, (R11)
FF5A	4000		PUTB $0, (R0)+
FF5C	8016		LBI R0, #$16
FF5E	3100		MOVE $00, R1
FF60	105E		CTRL $0, #$5E
FF62	3480		MOVE $100, R4
FF64	105E		CTRL $0, #$5E
FF66	3330		MOVE $60, R3
FF68	10CB		CTRL $0, #$CB
FF6A	DC7D		MOVE R12, (R7)
FF6C	007F		GETA R7, $0
FF6E	C9DC		SNS R9
FF70	4000		PUTB $0, (R0)+
FF72	7FD4		MOVB (R13)-, R15
FF74	F10B		SUB R1, #$0C
FF76	F2FE		SUB R2, #$FF
FF78	BCFF		SET R12, #$FF
FF7A	00FA		ADDH R0, R15
FF7C	1030		CTRL $0, #$30
FF7E	007F		GETA R7, $0
FF80	D435		MOVE R4, (R3)-
FF82	600D		MOVB R0, (R0)
FF84	B037		SET R0, #$37
FF86	600E		MOVB R0, (R0)
FF88	DBFA		MOVE R11, (R15)
FF8A	2060		JMP ($00C0)

FF8C	1880		CTRL $8, #$80
FF8E	1AF0		CTRL $A, #$F0
FF90	7FB5		MOVB (R11)--, R15
FF92	3360		MOVE $C0, R3
FF94	7FCF		MOVB (R12), R15
FF96	3460		MOVE $C0, R4
FF98	0BA8		ADD R11, R10
FF9A	F177		SUB R1, #$78
FF9C	DCFE		MOVE R12, (R15)
FF9E	CC37		SBSH R12, R3
FFA0	0FD4		MOVE R15, R13
FFA2	7FD4		MOVB (R13)-, R15
FFA4	F07F		BRA $FF26		; -> -$80(R0)

FFA6	B5FE		SET R5, #$FE
FFA8	BCFF		SET R12, #$FF
FFAA	00DD		MLH R0, R13
FFAC	4000		PUTB $0, (R0)+
FFAE	8024		LBI R0, #$24
FFB0	B320		SET R3, #$20
FFB2	0131		DEC R1, R3
FFB4	0010		DEC2 R0, R1
FFB6	5EFE		MOVE (R15), R14
FFB8	F17F		SUB R1, #$80
FFBA	9DFE		CLR R13, #$FE
FFBC	8902		LBI R9, #$02
FFBE	0000		HALT
FFC0	00F0		DEC2 R0, R15
FFC2	7F55		MOVB (R5)--, R15
FFC4	3420		MOVE $40, R4
FFC6	1064		CTRL $0, #$64
FFC8	F17F		SUB R1, #$80
FFCA	9DFE		CLR R13, #$FE
FFCC	3420		MOVE $40, R4
FFCE	0B5B		ADDH2 R11, R5
FFD0	3520		MOVE $40, R5
FFD2	1064		CTRL $0, #$64
FFD4	7310		MOVB (R1)+, R3
FFD6	0370		DEC2 R3, R7
FFD8	1200		CTRL $2, #$00
FFDA	8024		LBI R0, #$24
FFDC	7FF1		MOVB (R15)++, R15
FFDE	8024		LBI R0, #$24
FFE0	8024		LBI R0, #$24
FFE2	F10B		SUB R1, #$0C
FFE4	E4FE		
FFE6	DD40		MOVE R13, (R4)'
FFE8	0080		DEC2 R0, R8
FFEA	2433		MOVE R4, $66
FFEC	5000		MOVE (R0)', R0
FFEE	09C4		MOVE R9, R12
FFF0	5010		MOVE (R1)', R0
FFF2	D000		JMP (R0)'
FFF4	8024		LBI R0, #$24
FFF6	3510		MOVE $20, R5
FFF8	1064		CTRL $0, #$64
FFFA	7530		MOVB (R3)+, R5
FFFC	00FB		ADDH2 R0, R15
FFFE	4030		PUTB $0, (R3)+
0000	F630		SUB R6, #$31
0002	00F8		ADD R0, R15
0004	3040		MOVE $80, R0
0006	3310		MOVE $20, R3
0008	0B82		INC R11, R8
000A	F810		SUB R8, #$11
000C	3035		MOVE $6A, R0
000E	200B		JMP ($0016)

0010	5B9C		MOVE (R9), R11
0012	0200		DEC2 R2, R0
0014	00E5		AND R0, R14
0016	2001		JMP ($0002)

0018	C081		SLT R0, R8
001A	802A		LBI R0, #$2A
001C	8C01		LBI R12, #$01
001E	0410		DEC2 R4, R1
0020	CE5F		SNBSH R14, R5
0022	2000		JMP ($0000)

0024	003A		ADDH R0, R3
0026	800B		LBI R0, #$0B
0028	B5F0		SET R5, #$F0
002A	8020		LBI R0, #$20
002C	3C06		MOVE $0C, R12
002E	0BB4		MOVE R11, R11
0030	F080		BRA $FFFFFFB1		; -> -$81(R0)

0032	20FE		JMP ($01FC)

0034	3C1C		MOVE $38, R12
0036	0BB4		MOVE R11, R11
0038	3520		MOVE $40, R5
003A	0B5B		ADDH2 R11, R5
003C	AF20		ADD R15, #$21
003E	0000		HALT
0040	3B01		MOVE $02, R11
0042	0B6D		MLH R11, R6
0044	F08F		BRA $FFFFFFB6		; -> -$90(R0)

0046	EEFE		
0048	3C00		MOVE $00, R12
004A	0B5A		ADDH R11, R5
004C	3B01		MOVE $02, R11
004E	0B6D		MLH R11, R6
0050	F00B		BRA $0046		; -> -$0C(R0)

0052	E6FE		
0054	3C35		MOVE $6A, R12
0056	0BB4		MOVE R11, R11
0058	F080		BRA $FFFFFFD9		; -> -$81(R0)

005A	1CFE		CTRL $C, #$FE
005C	7310		MOVB (R1)+, R3
005E	03FE		GETB R15, $3
0060	7012		MOVB (R1)+++, R0
0062	0080		DEC2 R0, R8
0064	FE80		SUB R14, #$81
0066	FE80		SUB R14, #$81
0068	3680		MOVE $100, R6
006A	FE00		SUB R14, #$01
006C	F10B		SUB R1, #$0C
006E	F2FE		SUB R2, #$FF
0070	DC4D		MOVE R12, (R4)
0072	0080		DEC2 R0, R8
0074	ADDC		ADD R13, #$DD
0076	5B00		MOVE (R0)', R11
0078	804A		LBI R0, #$4A
007A	7012		MOVB (R1)+++, R0
007C	0080		DEC2 R0, R8
007E	4580		PUTB $5, (R8)+
0080	4380		PUTB $3, (R8)+
0082	FE80		SUB R14, #$81
0084	4500		PUTB $5, (R0)+
0086	F10B		SUB R1, #$0C
0088	F2FE		SUB R2, #$FF
008A	CC2D		SNBS R12, R2
008C	10D0		CTRL $0, #$D0
008E	80FE		LBI R0, #$FE
0090	F080		BRA $0011		; -> -$81(R0)

0092	E8FE		
0094	F10B		SUB R1, #$0C
0096	F2FE		SUB R2, #$FF
0098	BC3A		SET R12, #$3A
009A	00B3		INC2 R0, R11
009C	2001		JMP ($0002)

009E	DC4D		MOVE R12, (R4)
00A0	0080		DEC2 R0, R8
00A2	6970		MOVB R9, (R7)+
00A4	1200		CTRL $2, #$00
00A6	806F		LBI R0, #$6F
00A8	8057		LBI R0, #$57
00AA	80FE		LBI R0, #$FE
00AC	806F		LBI R0, #$6F
00AE	F180		SUB R1, #$81
00B0	78FE		MOVB (R15), R8
00B2	3350		MOVE $A0, R3
00B4	00FF		GETA R15, $0
00B6	E500		
00B8	00C0		DEC2 R0, R12
00BA	8180		LBI R1, #$80
00BC	FAFB		SUB R10, #$FC
00BE	3000		MOVE $00, R0
00C0	FA00		SUB R10, #$01
00C2	5000		MOVE (R0)', R0
00C4	80FA		LBI R0, #$FA
00C6	B320		SET R3, #$20
00C8	02DC		MHL R2, R13
00CA	4D00		PUTB $D, (R0)+
00CC	80AD		LBI R0, #$AD
00CE	F080		BRA $004F		; -> -$81(R0)

00D0	E8FE		
00D2	BC00		SET R12, #$00
00D4	00BC		MHL R0, R11
00D6	1201		CTRL $2, #$01
00D8	B320		SET R3, #$20
00DA	02F0		DEC2 R2, R15
00DC	80AD		LBI R0, #$AD
00DE	BC00		SET R12, #$00
00E0	00BC		MHL R0, R11
00E2	1201		CTRL $2, #$01
00E4	B320		SET R3, #$20
00E6	02CC		MHL R2, R12
00E8	2D10		MOVE R13, $20
00EA	D080		JMP (R8)'
00EC	FEF0		SUB R14, #$F1
00EE	80E8		LBI R0, #$E8
00F0	3480		MOVE $100, R4
00F2	105E		CTRL $0, #$5E
00F4	3C00		MOVE $00, R12
00F6	0FD2		INC R15, R13
00F8	3410		MOVE $20, R4
00FA	1062		CTRL $0, #$62
00FC	3E01		MOVE $02, R14
00FE	0FD2		INC R15, R13
0100	7310		MOVB (R1)+, R3
0102	0170		DEC2 R1, R7
0104	1200		CTRL $2, #$00
0106	8087		LBI R0, #$87
0108	807E		LBI R0, #$7E
010A	8087		LBI R0, #$87
010C	8087		LBI R0, #$87
010E	3510		MOVE $20, R5
0110	1062		CTRL $0, #$62
0112	0C00		DEC2 R12, R0
0114	0B5A		ADDH R11, R5
0116	0FD2		INC R15, R13
0118	0905		AND R9, R0
011A	0F82		INC R15, R8
011C	0000		HALT
011E	1C00		CTRL $C, #$00
0120	0F87		XOR R15, R8
0122	003F		GETA R3, $0
0124	F00F		BRA $0116		; -> -$10(R0)

0126	870C		LBI R7, #$0C
0128	010F		GETA R0, $1
012A	840F		LBI R4, #$0F
012C	8203		LBI R2, #$03
012E	100F		CTRL $0, #$0F
0130	8200		LBI R2, #$00
0132	010E		GETB R0, $1
0134	100F		CTRL $0, #$0F
0136	820F		LBI R2, #$0F
0138	840E		LBI R4, #$0E
013A	100F		CTRL $0, #$0F
013C	820F		LBI R2, #$0F
013E	820E		LBI R2, #$0E
0140	100F		CTRL $0, #$0F
0142	820F		LBI R2, #$0F
0144	8673		LBI R6, #$73
0146	1001		CTRL $0, #$01
0148	3F01		MOVE $02, R15
014A	0FD2		INC R15, R13
014C	C001		SLT R0, R0
014E	808F		LBI R0, #$8F
0150	8C01		LBI R12, #$01
0152	000F		GETA R0, $0
0154	8231		LBI R2, #$31
0156	0010		DEC2 R0, R1
0158	5EFE		MOVE (R15), R14
015A	3360		MOVE $C0, R3
015C	0001		DEC R0, R0
015E	3340		MOVE $80, R3
0160	0001		DEC R0, R0
0162	F930		SUB R9, #$31
0164	3034		MOVE $68, R0
0166	300F		MOVE $1E, R0
0168	D5F1		MOVE R5, (R15)+
016A	0BF2		INC R11, R15
016C	BC3A		SET R12, #$3A
016E	00B3		INC2 R0, R11
0170	2001		JMP ($0002)

0172	7012		MOVB (R1)+++, R0
0174	0080		DEC2 R0, R8
0176	FE80		SUB R14, #$81
0178	BF80		SET R15, #$80
017A	FE80		SUB R14, #$81
017C	FE00		SUB R14, #$01
017E	F180		SUB R1, #$81
0180	78FE		MOVB (R15), R8
0182	E570		
0184	00C0		DEC2 R0, R12
0186	8180		LBI R1, #$80
0188	FA33		SUB R10, #$34
018A	5027		MOVE (R2)--, R0
018C	0FFA		ADDH R15, R15
018E	7050		MOVB (R5)+, R0
0190	0080		DEC2 R0, R8
0192	FAB3		SUB R10, #$B4
0194	2002		JMP ($0004)

0196	DD6B		MOVE R13, (R6)
0198	0080		DEC2 R0, R8
019A	E4F1		
019C	0BF2		INC R11, R15
019E	BC3A		SET R12, #$3A
01A0	00B3		INC2 R0, R11
01A2	2001		JMP ($0002)

01A4	7012		MOVB (R1)+++, R0
01A6	0080		DEC2 R0, R8
01A8	FE80		SUB R14, #$81
01AA	D880		MOVE R8, (R8)'
01AC	FE80		SUB R14, #$81
01AE	FE00		SUB R14, #$01
01B0	F180		SUB R1, #$81
01B2	78FE		MOVB (R15), R8
01B4	E540		
01B6	00C0		DEC2 R0, R12
01B8	8180		LBI R1, #$80
01BA	FA33		SUB R10, #$34
01BC	5027		MOVE (R2)--, R0
01BE	0FFA		ADDH R15, R15
01C0	4050		PUTB $0, (R5)+
01C2	0080		DEC2 R0, R8
01C4	FAB3		SUB R10, #$B4
01C6	2002		JMP ($0004)

01C8	DD5D		MOVE R13, (R5)
01CA	0080		DEC2 R0, R8
01CC	FEF1		SUB R14, #$F2
01CE	0BF2		INC R11, R15
01D0	DD6B		MOVE R13, (R6)
01D2	0080		DEC2 R0, R8
01D4	EEF1		
01D6	0BF2		INC R11, R15
01D8	F080		BRA $0159		; -> -$81(R0)

01DA	30FE		MOVE $1FC, R0
01DC	DD40		MOVE R13, (R4)'
01DE	0080		DEC2 R0, R8
01E0	FE38		SUB R14, #$39
01E2	080B		ADDH2 R8, R0
01E4	A33B		ADD R3, #$3C
01E6	E2FE		
01E8	3320		MOVE $40, R3
01EA	10CA		CTRL $0, #$CA
01EC	8903		LBI R9, #$03
01EE	0000		HALT
01F0	00F0		DEC2 R0, R15
01F2	3BDA		MOVE $1B4, R11
01F4	3C08		MOVE $10, R12
01F6	0B5A		ADDH R11, R5
01F8	F00B		BRA $01EE		; -> -$0C(R0)

01FA	E6FE		
01FC	3C00		MOVE $00, R12
01FE	0B5A		ADDH R11, R5
0200	F00B		BRA $01F6		; -> -$0C(R0)

0202	E6FE		
0204	7310		MOVB (R1)+, R3
0206	03FE		GETB R15, $3
0208	7012		MOVB (R1)+++, R0
020A	0081		DEC R0, R8
020C	AA81		ADD R10, #$82
020E	AA81		ADD R10, #$82
0210	0A81		DEC R10, R8
0212	AA00		ADD R10, #$01
0214	7012		MOVB (R1)+++, R0
0216	0181		DEC R1, R8
0218	AA81		ADD R10, #$82
021A	1081		CTRL $0, #$81
021C	3B81		MOVE $102, R11
021E	1000		CTRL $0, #$00
0220	F10B		SUB R1, #$0C
0222	F2FE		SUB R2, #$FF
0224	7012		MOVB (R1)+++, R0
0226	0081		DEC R0, R8
0228	AA81		ADD R10, #$82
022A	1881		CTRL $8, #$81
022C	AA81		ADD R10, #$82
022E	1C00		CTRL $C, #$00
0230	F10B		SUB R1, #$0C
0232	F2FE		SUB R2, #$FF
0234	F081		BRA $01B4		; -> -$82(R0)

0236	1FFE		CTRL $F, #$FE
0238	7D4D		MOVB (R4), R13
023A	0050		DEC2 R0, R5
023C	83D8		LBI R3, #$D8
023E	DD6B		MOVE R13, (R6)
0240	0081		DEC R0, R8
0242	29F1		MOVE R9, $1E2
0244	0BF2		INC R11, R15
0246	7012		MOVB (R1)+++, R0
0248	0081		DEC R0, R8
024A	AA81		ADD R10, #$82
024C	AA81		ADD R10, #$82
024E	1081		CTRL $0, #$81
0250	AA00		ADD R10, #$01
0252	DD7E		MOVE R13, (R7)
0254	0081		DEC R0, R8
0256	AAF1		ADD R10, #$F2
0258	0BF2		INC R11, R15
025A	F18F		SUB R1, #$90
025C	F8FE		SUB R8, #$FF
025E	DD40		MOVE R13, (R4)'
0260	0081		DEC R0, R8
0262	AA38		ADD R10, #$39
0264	080B		ADDH2 R8, R0
0266	A33B		ADD R3, #$3C
0268	E2FE		
026A	3320		MOVE $40, R3
026C	10CA		CTRL $0, #$CA
026E	8903		LBI R9, #$03
0270	0000		HALT
0272	00F0		DEC2 R0, R15
0274	3BDA		MOVE $1B4, R11
0276	3300		MOVE $00, R3
0278	0003		INC2 R0, R0
027A	4000		PUTB $0, (R0)+
027C	0003		INC2 R0, R0
027E	22FE		MOVE R2, $1FC
0280	2881		MOVE R8, $102
0282	45F1		PUTB $5, (R15)++
0284	6BDE		MOVB R11, (R13)
0286	F081		BRA $0206		; -> -$82(R0)

0288	4CFE		PUTB $C, (R15)
028A	DD5B		MOVE R13, (R5)
028C	0181		DEC R1, R8
028E	AAF1		ADD R10, #$F2
0290	0BEE		GETB R14, $B
0292	7D4D		MOVB (R4), R13
0294	0050		DEC2 R0, R5
0296	83D8		LBI R3, #$D8
0298	DD6B		MOVE R13, (R6)
029A	0081		DEC R0, R8
029C	56F1		MOVE (R15)+, R6
029E	0BF2		INC R11, R15
02A0	7012		MOVB (R1)+++, R0
02A2	0081		DEC R0, R8
02A4	AA81		ADD R10, #$82
02A6	AA81		ADD R10, #$82
02A8	3B81		MOVE $102, R11
02AA	AA00		ADD R10, #$01
02AC	DD7E		MOVE R13, (R7)
02AE	0081		DEC R0, R8
02B0	AAF1		ADD R10, #$F2
02B2	0BF2		INC R11, R15
02B4	3300		MOVE $00, R3
02B6	0002		INC R0, R0
02B8	4000		PUTB $0, (R0)+
02BA	0002		INC R0, R0
02BC	DEFE		MOVE R14, (R15)
02BE	2881		MOVE R8, $102
02C0	A6BC		ADD R6, #$BD
02C2	3C00		MOVE $00, R12
02C4	7310		MOVB (R1)+, R3
02C6	02B3		INC2 R2, R11
02C8	2001		JMP ($0002)

02CA	3420		MOVE $40, R4
02CC	1064		CTRL $0, #$64
02CE	B320		SET R3, #$20
02D0	01DC		MHL R1, R13
02D2	7D00		MOVB (R0)+, R13
02D4	81AA		LBI R1, #$AA
02D6	0C01		DEC R12, R0
02D8	1060		CTRL $0, #$60
02DA	0EDB		ADDH2 R14, R13
02DC	1C00		CTRL $C, #$00
02DE	0B5A		ADDH R11, R5
02E0	0070		DEC2 R0, R7
02E2	1200		CTRL $2, #$00
02E4	81AA		LBI R1, #$AA
02E6	8176		LBI R1, #$76
02E8	818C		LBI R1, #$8C
02EA	8192		LBI R1, #$92
02EC	3FF0		MOVE $1E0, R15
02EE	0B5A		ADDH R11, R5
02F0	3901		MOVE $02, R9
02F2	1061		CTRL $0, #$61
02F4	8185		LBI R1, #$85
02F6	8E00		LBI R14, #$00
02F8	000B		ADDH2 R0, R0
02FA	5AB3		MOVE (R11)++, R10
02FC	2001		JMP ($0002)

02FE	0E10		DEC2 R14, R1
0300	1060		CTRL $0, #$60
0302	0EDB		ADDH2 R14, R13
0304	7310		MOVB (R1)+, R3
0306	01F0		DEC2 R1, R15
0308	816E		LBI R1, #$6E
030A	8C00		LBI R12, #$00
030C	000B		ADDH2 R0, R0
030E	5A83		MOVE (R8)++, R10
0310	0000		HALT
0312	0003		INC2 R0, R0
0314	F081		BRA $0294		; -> -$82(R0)

0316	7FFE		MOVB (R15), R15
0318	D8C6		MOVE R8, (R12)-~
031A	0081		DEC R0, R8
031C	AA3F		ADD R10, #$40
031E	B70B		SET R7, #$0B
0320	5AF0		MOVE (R15)', R10
0322	8178		LBI R1, #$78
0324	DD7D		MOVE R13, (R7)
0326	0081		DEC R0, R8
0328	AA73		ADD R10, #$74
032A	1001		CTRL $0, #$01
032C	3801		MOVE $02, R8
032E	1061		CTRL $0, #$61
0330	81AA		LBI R1, #$AA
0332	3420		MOVE $40, R4
0334	1062		CTRL $0, #$62
0336	3520		MOVE $40, R5
0338	1064		CTRL $0, #$64
033A	0210		DEC2 R2, R1
033C	1060		CTRL $0, #$60
033E	0000		HALT
0340	8C00		LBI R12, #$00
0342	0010		DEC2 R0, R1
0344	6135		MOVB R1, (R3)--
0346	2010		JMP ($0020)

0348	62F0		MOVB R2, (R15)+
034A	812F		LBI R1, #$2F
034C	F18F		SUB R1, #$90
034E	F6FE		SUB R6, #$FF
0350	F081		BRA $02D0		; -> -$82(R0)

0352	2FFE		MOVE R15, $1FC
0354	3C00		MOVE $00, R12
0356	0B5A		ADDH R11, R5
0358	F00B		BRA $034E		; -> -$0C(R0)

035A	E6FE		
035C	3010		MOVE $20, R0
035E	0DAE		GETB R10, $D
0360	FC80		SUB R12, #$81
0362	00FE		GETB R15, $0
0364	300C		MOVE $18, R0
0366	0F24		MOVE R15, R2
0368	3520		MOVE $40, R5
036A	0DB0		DEC2 R13, R11
036C	3310		MOVE $20, R3
036E	0004		NOP
0370	F920		SUB R9, #$21
0372	1038		CTRL $0, #$38
0374	800D		LBI R0, #$0D
0376	B381		SET R3, #$81
0378	D4FE		MOVE R4, (R15)
037A	3310		MOVE $20, R3
037C	0006		OR R0, R0
037E	F920		SUB R9, #$21
0380	10C4		CTRL $0, #$C4
0382	200B		JMP ($0016)

0384	6318		MOVB R3, (R1)
0386	820E		LBI R2, #$0E
0388	8905		LBI R9, #$05
038A	0000		HALT
038C	008C		MHL R0, R8
038E	0106		OR R1, R0
0390	0DB2		INC R13, R11
0392	3420		MOVE $40, R4
0394	0DB2		INC R13, R11
0396	3C00		MOVE $00, R12
0398	0DB4		MOVE R13, R11
039A	B80B		SET R8, #$0B
039C	0782		INC R7, R8
039E	0AFE		GETB R15, $A
03A0	3C12		MOVE $24, R12
03A2	0DB4		MOVE R13, R11
03A4	F082		BRA $0323		; -> -$83(R0)

03A6	0AFE		GETB R15, $A
03A8	3510		MOVE $20, R5
03AA	0B63		INC2 R11, R6
03AC	3300		MOVE $00, R3
03AE	FFFF		SUB R15, #$100
03B0	3600		MOVE $00, R6
03B2	0EBE		GETB R11, $E
03B4	3C00		MOVE $00, R12
03B6	0F2A		ADDH R15, R2
03B8	3C00		MOVE $00, R12
03BA	0DB4		MOVE R13, R11
03BC	CD0B		SNZ R13
03BE	0DB3		INC2 R13, R11
03C0	81E7		LBI R1, #$E7
03C2	3300		MOVE $00, R3
03C4	0011		DEC R0, R1
03C6	3C40		MOVE $80, R12
03C8	0F2A		ADDH R15, R2
03CA	3C12		MOVE $24, R12
03CC	0DB4		MOVE R13, R11
03CE	7330		MOVB (R3)+, R3
03D0	01F8		ADD R1, R15
03D2	3000		MOVE $00, R0
03D4	FA30		SUB R10, #$31
03D6	2000		JMP ($0000)

03D8	820E		LBI R2, #$0E
03DA	B410		SET R4, #$10
03DC	028C		MHL R2, R8
03DE	0100		DEC2 R1, R0
03E0	0DB2		INC R13, R11
03E2	3410		MOVE $20, R4
03E4	0DB2		INC R13, R11
03E6	4C00		PUTB $C, (R0)+
03E8	000F		GETA R0, $0
03EA	2A54		MOVE R10, $A8
03EC	0001		DEC R0, R0
03EE	0034		RET R3

03F0	300B		MOVE $16, R0
03F2	63ED		MOVB R3, (R14)
03F4	5000		MOVE (R0)', R0
03F6	820A		LBI R2, #$0A
03F8	B200		SET R2, #$00
03FA	01F6		OR R1, R15
03FC	0001		DEC R0, R0
03FE	3310		MOVE $20, R3
0400	8212		LBI R2, #$12
0402	F810		SUB R8, #$11
0404	0015		AND R0, R1
0406	070F		GETA R0, $7
0408	2A00		MOVE R10, $00
040A	C708		SGT R7, R0
040C	0F2A		ADDH R15, R2
040E	B510		SET R5, #$10
0410	02D7		XOR R2, R13
0412	0C00		DEC2 R12, R0
0414	3420		MOVE $40, R4
0416	0DB0		DEC2 R13, R11
0418	300E		MOVE $1C, R0
041A	0F24		MOVE R15, R2
041C	3CD8		MOVE $1B0, R12
041E	0BB4		MOVE R11, R11
0420	F03B		BRA $03E6		; -> -$3C(R0)

0422	D000		JMP (R0)'
0424	0000		HALT
0426	0000		HALT
0428	0000		HALT
042A	0000		HALT
042C	0000		HALT
042E	0000		HALT
0430	0000		HALT
0432	0000		HALT
0434	412B		PUTB $1, (R2)
0436	7E15		MOVB (R1)--, R14
0438	1628		CTRL $6, #$28
043A	AED2		ADD R14, #$D3
043C	4132		PUTB $1, (R3)+++
043E	43F6		PUTB $3, (R15)---
0440	A888		ADD R8, #$89
0442	5A30		MOVE (R3)', R10
0444	4116		PUTB $1, (R1)---
0446	A09E		BRA $04E7		; $9F(R0)

0448	667F		MOVB R6, (R7)
044A	3BCC		MOVE $198, R11
044C	413C		PUTB $1, (R3)
044E	910B		CLR R1, #$0B
0450	F262		SUB R2, #$63
0452	C4AC		SNS R4
0454	4128		PUTB $1, (R2)
0456	A3D7		ADD R3, #$D8
0458	0A3D		MLH R10, R3
045A	70A3		MOVB (R10)++++, R0
045C	4074		PUTB $0, (R7)-
045E	1EA1		CTRL $E, #$A1
0460	2ADD		MOVE R10, $1BA
0462	7942		MOVB (R4)+++, R9
0464	F18F		SUB R1, #$90
0466	F2FE		SUB R2, #$FF
0468	FB50		SUB R11, #$51
046A	1035		CTRL $0, #$35
046C	100D		CTRL $0, #$0D
046E	B978		SET R9, #$78
0470	4014		PUTB $0, (R1)-
0472	8265		LBI R2, #$65
0474	7902		MOVB (R0)+++, R9
0476	1482		CTRL $4, #$82
0478	65FE		MOVB R5, (R15)
047A	7910		MOVB (R1)+, R9
047C	1482		CTRL $4, #$82
047E	65FE		MOVB R5, (R15)
0480	7A49		MOVB (R4), R10
0482	1438		CTRL $4, #$38
0484	200D		JMP ($001A)

0486	BF82		SET R15, #$82
0488	49FE		PUTB $9, (R15)
048A	3C93		MOVE $126, R12
048C	0BB4		MOVE R11, R11
048E	F03B		BRA $0454		; -> -$3C(R0)

0490	CEFE		SNBC R14, R15
0492	3A20		MOVE $40, R10
0494	0DBF		GETA R11, $D
0496	3A80		MOVE $100, R10
0498	0ED6		OR R14, R13
049A	7C02		MOVB (R0)+++, R12
049C	02F1		DEC R2, R15
049E	3BC0		MOVE $180, R11
04A0	FB10		SUB R11, #$11
04A2	50ED		MOVE (R14), R0
04A4	0106		OR R1, R0
04A6	825A		LBI R2, #$5A
04A8	3300		MOVE $00, R3
04AA	83E0		LBI R3, #$E0
04AC	3400		MOVE $00, R4
04AE	0DB5		AND R13, R11
04B0	F02F		BRA $0482		; -> -$30(R0)

04B2	ECFE		
04B4	EC00		
04B6	0647		XOR R6, R4
04B8	EC33		
04BA	0083		INC2 R0, R8
04BC	FC34		SUB R12, #$35
04BE	000D		MLH R0, R0
04C0	B5EC		SET R5, #$EC
04C2	0206		OR R2, R0
04C4	8FD4		LBI R15, #$D4
04C6	F02F		BRA $0498		; -> -$30(R0)

04C8	ECFE		
04CA	3C92		MOVE $124, R12
04CC	0BB4		MOVE R11, R11
04CE	F03B		BRA $0494		; -> -$3C(R0)

04D0	CEFE		SNBC R14, R15
04D2	300C		MOVE $18, R0
04D4	0FB2		INC R15, R11
04D6	3510		MOVE $20, R5
04D8	0EB4		MOVE R14, R11
04DA	0C00		DEC2 R12, R0
04DC	0C63		INC2 R12, R6
04DE	0EB6		OR R14, R11
04E0	3006		MOVE $0C, R0
04E2	0EB0		DEC2 R14, R11
04E4	3380		MOVE $100, R3
04E6	8278		LBI R2, #$78
04E8	300C		MOVE $18, R0
04EA	0C5C		MHL R12, R5
04EC	F00B		BRA $04E2		; -> -$0C(R0)

04EE	D4FE		MOVE R4, (R15)
04F0	3380		MOVE $100, R3
04F2	8282		LBI R2, #$82
04F4	300C		MOVE $18, R0
04F6	0C5C		MHL R12, R5
04F8	3A02		MOVE $04, R10
04FA	0DBF		GETA R11, $D
04FC	3510		MOVE $20, R5
04FE	0FB2		INC R15, R11
0500	F047		BRA $04BA		; -> -$48(R0)

0502	E8FE		
0504	3B02		MOVE $04, R11
0506	0DBF		GETA R11, $D
0508	3801		MOVE $02, R8
050A	0ED6		OR R14, R13
050C	8295		LBI R2, #$95
050E	3510		MOVE $20, R5
0510	0DB9		SUB R13, R11
0512	5D01		MOVE (R0)+, R13
0514	1604		CTRL $6, #$04
0516	583B		MOVE (R3), R8
0518	C4FE		SNBC R4, R15
051A	3902		MOVE $04, R9
051C	0ED6		OR R14, R13
051E	8292		LBI R2, #$92
0520	F13B		SUB R1, #$3C
0522	C2FE		SNBC R2, R15
0524	3980		MOVE $100, R9
0526	00A4		RET R10

0528	8297		LBI R2, #$97
052A	300E		MOVE $1C, R0
052C	0FB2		INC R15, R11
052E	3B20		MOVE $40, R11
0530	0DBF		GETA R11, $D
0532	F03B		BRA $04F8		; -> -$3C(R0)

0534	D8FE		MOVE R8, (R15)
0536	B310		SET R3, #$10
0538	07F1		DEC R7, R15
053A	8FEC		LBI R15, #$EC
053C	7200		MOVB (R0)+, R2
053E	0173		INC2 R1, R7
0540	3003		MOVE $06, R0
0542	3310		MOVE $20, R3
0544	0B42		INC R11, R4
0546	F810		SUB R8, #$11
0548	00DE		GETB R13, $0
054A	1000		CTRL $0, #$00
054C	82DA		LBI R2, #$DA
054E	7808		MOVB (R0), R8
0550	1482		CTRL $4, #$82
0552	DAFE		MOVE R10, (R15)
0554	7810		MOVB (R1)+, R8
0556	1482		CTRL $4, #$82
0558	DEFE		MOVE R14, (R15)
055A	7820		MOVB (R2)+, R8
055C	1582		CTRL $5, #$82
055E	DEFE		MOVE R14, (R15)
0560	78C0		MOVB (R12)+, R8
0562	1482		CTRL $4, #$82
0564	DEFE		MOVE R14, (R15)
0566	3410		MOVE $20, R4
0568	0DB9		SUB R13, R11
056A	FB10		SUB R11, #$11
056C	30F1		MOVE $1E2, R0
056E	83E4		LBI R3, #$E4
0570	0C01		DEC R12, R0
0572	0F18		ADD R15, R1
0574	0DB9		SUB R13, R11
0576	0C01		DEC R12, R0
0578	0F15		AND R15, R1
057A	0DB2		INC R13, R11
057C	0C00		DEC2 R12, R0
057E	0F17		XOR R15, R1
0580	0DB4		MOVE R13, R11
0582	3C80		MOVE $100, R12
0584	0F14		MOVE R15, R1
0586	F153		SUB R1, #$54
0588	FAFE		SUB R10, #$FF
058A	CD80		SLE R13, R8
058C	0F1D		MLH R15, R1
058E	8FE4		LBI R15, #$E4
0590	3520		MOVE $40, R5
0592	0F18		ADD R15, R1
0594	B520		SET R5, #$20
0596	4233		PUTB $2, (R3)++++
0598	00FF		GETA R15, $0
059A	FDB6		SUB R13, #$B7
059C	001C		MHL R0, R1
059E	B510		SET R5, #$10
05A0	24F8		MOVE R4, $1F0
05A2	1000		CTRL $0, #$00
05A4	4902		PUTB $9, (R0)+++
05A6	0000		HALT
05A8	00F1		DEC R0, R15
05AA	77F6		MOVB (R15)---, R7
05AC	3520		MOVE $40, R5
05AE	0B65		AND R11, R6
05B0	F03B		BRA $0576		; -> -$3C(R0)

05B2	D8FE		MOVE R8, (R15)
05B4	3C91		MOVE $122, R12
05B6	0BB4		MOVE R11, R11
05B8	F03B		BRA $057E		; -> -$3C(R0)

05BA	CEFE		SNBC R14, R15
05BC	3C8B		MOVE $116, R12
05BE	0BB4		MOVE R11, R11
05C0	F03B		BRA $0586		; -> -$3C(R0)

05C2	CEFE		SNBC R14, R15
05C4	093F		GETA R3, $9
05C6	05C0		DEC2 R5, R12
05C8	0040		DEC2 R0, R4
05CA	0963		INC2 R9, R6
05CC	0F24		MOVE R15, R2
05CE	0000		HALT
05D0	7310		MOVB (R1)+, R3
05D2	060C		MHL R6, R0
05D4	020F		GETA R0, $2
05D6	7F0B		MOVB (R0), R15
05D8	69DC		MOVB R9, (R13)
05DA	4000		PUTB $0, (R0)+
05DC	82F4		LBI R2, #$F4
05DE	F15F		SUB R1, #$60
05E0	F6FE		SUB R6, #$FF
05E2	DD40		MOVE R13, (R4)'
05E4	005F		GETA R5, $0
05E6	F4FE		SUB R4, #$FF
05E8	F15F		SUB R1, #$60
05EA	EEFE		
05EC	3310		MOVE $20, R3
05EE	0F24		MOVE R15, R2
05F0	DD0E		MOVE R13, (R0)
05F2	005F		GETA R5, $0
05F4	D833		MOVE R8, (R3)++
05F6	2002		JMP ($0004)

05F8	0074		RET R7

05FA	200A		JMP ($0014)

05FC	7540		MOVB (R4)+, R5
05FE	08BC		MHL R8, R11
0600	0000		HALT
0602	A440		ADD R4, #$41
0604	0100		DEC2 R1, R0
0606	7C07		MOVB (R0)----, R12
0608	02D3		INC2 R2, R13
060A	0000		HALT
060C	7910		MOVB (R1)+, R9
060E	1183		CTRL $1, #$83
0610	06FE		GETB R15, $6
0612	4D01		PUTB $D, (R0)++
0614	0C0E		GETB R0, $C
0616	DA28		MOVE R10, (R2)
0618	5FDE		MOVE (R13), R15
061A	3980		MOVE $100, R9
061C	00A4		RET R10

061E	5FDA		MOVE (R13), R15
0620	3C80		MOVE $100, R12
0622	0BB5		AND R11, R11
0624	F05F		BRA $05C6		; -> -$60(R0)

0626	E2FE		
0628	1C00		CTRL $C, #$00
062A	0F14		MOVE R15, R1
062C	003C		MHL R0, R3
062E	8A0F		LBI R10, #$0F
0630	15DD		CTRL $5, #$DD
0632	5B01		MOVE (R0)+, R11
0634	831F		LBI R3, #$1F
0636	3C8B		MOVE $116, R12
0638	0F15		AND R15, R1
063A	7310		MOVB (R1)+, R3
063C	01FE		GETB R15, $1
063E	7300		MOVB (R0)+, R3
0640	0133		INC2 R1, R3
0642	100F		CTRL $0, #$0F
0644	1430		CTRL $4, #$30
0646	160D		CTRL $6, #$0D
0648	AEC4		ADD R14, #$C5
064A	100D		CTRL $0, #$0D
064C	AE20		ADD R14, #$21
064E	832F		LBI R3, #$2F
0650	3320		MOVE $40, R3
0652	FFFA		SUB R15, #$FB
0654	F820		SUB R8, #$21
0656	10FB		CTRL $0, #$FB
0658	1000		CTRL $0, #$00
065A	FC80		SUB R12, #$81
065C	00FE		GETB R15, $0
065E	3CA4		MOVE $148, R12
0660	0BB4		MOVE R11, R11
0662	F03B		BRA $0628		; -> -$3C(R0)

0664	CEFE		SNBC R14, R15
0666	3480		MOVE $100, R4
0668	1066		CTRL $0, #$66
066A	F10B		SUB R1, #$0C
066C	F2FE		SUB R2, #$FF
066E	F18F		SUB R1, #$90
0670	F8FE		SUB R8, #$FF
0672	DD6B		MOVE R13, (R6)
0674	0083		INC2 R0, R8
0676	3FF1		MOVE $1E2, R15
0678	0BF2		INC R11, R15
067A	F18F		SUB R1, #$90
067C	F8FE		SUB R8, #$FF
067E	DD5D		MOVE R13, (R5)
0680	0083		INC2 R0, R8
0682	45F1		PUTB $5, (R15)++
0684	0BF2		INC R11, R15
0686	3100		MOVE $00, R1
0688	1066		CTRL $0, #$66
068A	3C00		MOVE $00, R12
068C	0B5A		ADDH R11, R5
068E	F00B		BRA $0684		; -> -$0C(R0)

0690	E600		
0692	0000		HALT
0694	0000		HALT
0696	0000		HALT
0698	0000		HALT
069A	0000		HALT
069C	0000		HALT
069E	0000		HALT
06A0	0000		HALT
06A2	0000		HALT
06A4	0000		HALT
06A6	0000		HALT
06A8	0000		HALT
06AA	0000		HALT
06AC	0000		HALT
06AE	0000		HALT
06B0	0000		HALT
06B2	0000		HALT
06B4	0000		HALT
06B6	0000		HALT
06B8	0000		HALT
06BA	0000		HALT
06BC	0000		HALT
06BE	0000		HALT
06C0	0000		HALT
06C2	0000		HALT
06C4	0000		HALT
06C6	0000		HALT
06C8	0000		HALT
06CA	0000		HALT
06CC	0000		HALT
06CE	0000		HALT
06D0	0000		HALT
06D2	0000		HALT
06D4	0000		HALT
06D6	0000		HALT
06D8	0000		HALT
06DA	0000		HALT
06DC	0000		HALT
06DE	0000		HALT
06E0	0000		HALT
06E2	0000		HALT
06E4	0000		HALT
06E6	0000		HALT
06E8	0000		HALT
06EA	0000		HALT
06EC	0000		HALT
06EE	0000		HALT
06F0	0000		HALT
06F2	0000		HALT
06F4	0000		HALT
06F6	0000		HALT
06F8	0000		HALT
06FA	0000		HALT
06FC	0000		HALT
06FE	0000		HALT
0700	0000		HALT
0702	0000		HALT
0704	0000		HALT
0706	0000		HALT
0708	0000		HALT
070A	0000		HALT
070C	0000		HALT
070E	0000		HALT
0710	0000		HALT
0712	0000		HALT
0714	0000		HALT
0716	0000		HALT
0718	0000		HALT
071A	0000		HALT
071C	0000		HALT
071E	0000		HALT
0720	0000		HALT
0722	0000		HALT
0724	0000		HALT
0726	0000		HALT
0728	0000		HALT
072A	0000		HALT
072C	0000		HALT
072E	0000		HALT
0730	0000		HALT
0732	0000		HALT
0734	0000		HALT
0736	0000		HALT
0738	0000		HALT
073A	0000		HALT
073C	0000		HALT
073E	0000		HALT
0740	0000		HALT
0742	0000		HALT
0744	0000		HALT
0746	0000		HALT
0748	0000		HALT
074A	0000		HALT
074C	0000		HALT
074E	0000		HALT
0750	0000		HALT
0752	0000		HALT
0754	0000		HALT
0756	0000		HALT
0758	0000		HALT
075A	0000		HALT
075C	0000		HALT
075E	0000		HALT
0760	0000		HALT
0762	0000		HALT
0764	0000		HALT
0766	0000		HALT
0768	0000		HALT
076A	0000		HALT
076C	0000		HALT
076E	0000		HALT
0770	0000		HALT
0772	0000		HALT
0774	0000		HALT
0776	0000		HALT
0778	0000		HALT
077A	0000		HALT
077C	0000		HALT
077E	0000		HALT
0780	0000		HALT
0782	0000		HALT
0784	0000		HALT
0786	0000		HALT
0788	0000		HALT
078A	0000		HALT
078C	0000		HALT
078E	0000		HALT
0790	0000		HALT
0792	0000		HALT
0794	0000		HALT
0796	0000		HALT
0798	0000		HALT
079A	0000		HALT
079C	0000		HALT
079E	0000		HALT
07A0	0000		HALT
07A2	0000		HALT
07A4	0000		HALT
07A6	0000		HALT
07A8	0000		HALT
07AA	0000		HALT
07AC	0000		HALT
07AE	0000		HALT
07B0	F083		BRA $072E		; -> -$84(R0)

07B2	3300		MOVE $00, R3
07B4	F083		BRA $0732		; -> -$84(R0)

07B6	1400		CTRL $4, #$00
07B8	F082		BRA $0737		; -> -$83(R0)

07BA	E200		
07BC	F082		BRA $073B		; -> -$83(R0)

07BE	9B00		CLR R11, #$00
07C0	F082		BRA $073F		; -> -$83(R0)

07C2	6900		MOVB R9, (R0)+
07C4	F082		BRA $0743		; -> -$83(R0)

07C6	3200		MOVE $00, R2
07C8	F081		BRA $0748		; -> -$82(R0)

07CA	AE00		ADD R14, #$01
07CC	F081		BRA $074C		; -> -$82(R0)

07CE	0400		DEC2 R4, R0
07D0	F081		BRA $0750		; -> -$82(R0)

07D2	0200		DEC2 R2, R0
07D4	F080		BRA $0755		; -> -$81(R0)

07D6	7800		MOVB (R0)+, R8
07D8	F080		BRA $0759		; -> -$81(R0)

07DA	2E00		MOVE R14, $00
07DC	F07E		BRA $075F		; -> -$7F(R0)

07DE	F600		SUB R6, #$01
07E0	F07D		BRA $0764		; -> -$7E(R0)

07E2	4800		PUTB $8, (R0)+
07E4	F07D		BRA $0768		; -> -$7E(R0)

07E6	3900		MOVE $00, R9
07E8	F07C		BRA $076D		; -> -$7D(R0)

07EA	E100		
07EC	F07C		BRA $0771		; -> -$7D(R0)

07EE	9100		CLR R1, #$00
07F0	F07C		BRA $0775		; -> -$7D(R0)

07F2	4A00		PUTB $A, (R0)+
07F4	F07A		BRA $077B		; -> -$7B(R0)

07F6	F000		BRA $07F7		; -> -$01(R0)

07F8	F078		BRA $0781		; -> -$79(R0)

07FA	0000		HALT
07FC	041A		ADDH R4, R1
07FE	CD2A		SNE R13, R2
0800	3C01		MOVE $02, R12
0802	1033		CTRL $0, #$33
0804	F084		BRA $0781		; -> -$85(R0)

0806	06FE		GETB R15, $6
0808	3C00		MOVE $00, R12
080A	1033		CTRL $0, #$33
080C	300C		MOVE $18, R0
080E	0FA4		MOVE R15, R10
0810	3510		MOVE $20, R5
0812	0EB4		MOVE R14, R11
0814	4D01		PUTB $D, (R0)++
0816	000E		GETB R0, $0
0818	DA20		MOVE R10, (R2)'
081A	8686		LBI R6, #$86
081C	5D01		MOVE (R0)+, R13
081E	0002		INC R0, R0
0820	2886		MOVE R8, $10C
0822	8B05		LBI R11, #$05
0824	0910		DEC2 R9, R1
0826	3686		MOVE $10C, R6
0828	97FE		CLR R7, #$FE
082A	1C00		CTRL $C, #$00
082C	1035		CTRL $0, #$35
082E	01C8		ADD R1, R12
0830	3210		MOVE $20, R2
0832	3586		MOVE $10C, R5
0834	8F75		LBI R15, #$75
0836	1008		CTRL $0, #$08
0838	3006		MOVE $0C, R0
083A	0EB0		DEC2 R14, R11
083C	3200		MOVE $00, R2
083E	1035		CTRL $0, #$35
0840	3530		MOVE $60, R5
0842	0EBE		GETB R11, $E
0844	F500		SUB R5, #$01
0846	3034		MOVE $68, R0
0848	300F		MOVE $1E, R0
084A	AA32		ADD R10, #$33
084C	0010		DEC2 R0, R1
084E	35FB		MOVE $1F6, R5
0850	6000		MOVB R0, (R0)+
0852	F500		SUB R5, #$01
0854	6035		MOVB R0, (R3)--
0856	300E		MOVE $1C, R0
0858	BEF5		SET R14, #$F5
085A	3060		MOVE $C0, R0
085C	FB20		SUB R11, #$21
085E	10F9		CTRL $0, #$F9
0860	2060		JMP ($00C0)

0862	CC00		SLE R12, R0
0864	1033		CTRL $0, #$33
0866	843F		LBI R4, #$3F
0868	3500		MOVE $00, R5
086A	0DB0		DEC2 R13, R11
086C	3700		MOVE $00, R7
086E	0B63		INC2 R11, R6
0870	FA60		SUB R10, #$61
0872	0000		HALT
0874	868F		LBI R6, #$8F
0876	3510		MOVE $20, R5
0878	0B63		INC2 R11, R6
087A	F084		BRA $07F7		; -> -$85(R0)

087C	4EFE		PUTB $E, (R15)
087E	3510		MOVE $20, R5
0880	0EB4		MOVE R14, R11
0882	5D01		MOVE (R0)+, R13
0884	0002		INC R0, R0
0886	2886		MOVE R8, $10C
0888	8B4D		LBI R11, #$4D
088A	0001		DEC R0, R0
088C	1035		CTRL $0, #$35
088E	2886		MOVE R8, $10C
0890	8B30		LBI R11, #$30
0892	060E		GETB R0, $6
0894	B075		SET R0, #$75
0896	1008		CTRL $0, #$08
0898	F910		SUB R9, #$11
089A	60FE		MOVB R0, (R15)
089C	6460		MOVB R4, (R6)+
089E	0000		HALT
08A0	F810		SUB R8, #$11
08A2	6037		MOVB R0, (R3)----
08A4	100E		CTRL $0, #$0E
08A6	BE34		SET R14, #$34
08A8	100F		CTRL $0, #$0F
08AA	AC35		ADD R12, #$36
08AC	700E		MOVB (R0), R0
08AE	BE3C		SET R14, #$3C
08B0	0010		DEC2 R0, R1
08B2	340C		MOVE $18, R4
08B4	070F		GETA R0, $7
08B6	AE10		ADD R14, #$11
08B8	8009		LBI R0, #$09
08BA	010F		GETA R0, $1
08BC	B600		SET R6, #$00
08BE	000F		GETA R0, $0
08C0	100F		CTRL $0, #$0F
08C2	B610		SET R6, #$10
08C4	343C		MOVE $78, R4
08C6	000F		GETA R0, $0
08C8	B833		SET R8, #$33
08CA	400F		PUTB $0, (R0)
08CC	B833		SET R8, #$33
08CE	500F		MOVE (R0), R0
08D0	EAFE		
08D2	3E01		MOVE $02, R14
08D4	0FB8		ADD R15, R11
08D6	0D00		DEC2 R13, R0
08D8	0FB8		ADD R15, R11
08DA	1035		CTRL $0, #$35
08DC	0085		AND R0, R8
08DE	FA35		SUB R10, #$36
08E0	200F		JMP ($001E)

08E2	ACF8		ADD R12, #$F9
08E4	2070		JMP ($00E0)

08E6	3640		MOVE $80, R6
08E8	1036		CTRL $0, #$36
08EA	3650		MOVE $A0, R6
08EC	1036		CTRL $0, #$36
08EE	FB10		SUB R11, #$11
08F0	404C		PUTB $0, (R4)
08F2	0000		HALT
08F4	0FB8		ADD R15, R11
08F6	FB10		SUB R11, #$11
08F8	504C		MOVE (R4), R0
08FA	0000		HALT
08FC	0FB8		ADD R15, R11
08FE	0E10		DEC2 R14, R1
0900	0FB6		OR R15, R11
0902	1034		CTRL $0, #$34
0904	3200		MOVE $00, R2
0906	0FB8		ADD R15, R11
0908	3600		MOVE $00, R6
090A	0FB6		OR R15, R11
090C	FB30		SUB R11, #$31
090E	70F5		MOVB (R15)--, R0
0910	0030		DEC2 R0, R3
0912	F920		SUB R9, #$21
0914	3024		MOVE $48, R0
0916	7010		MOVB (R1)+, R0
0918	1D00		CTRL $D, #$00
091A	0C00		DEC2 R12, R0
091C	102D		CTRL $0, #$2D
091E	101D		CTRL $0, #$1D
0920	3B80		MOVE $100, R11
0922	101D		CTRL $0, #$1D
0924	0C00		DEC2 R12, R0
0926	102E		CTRL $0, #$2E
0928	0FB8		ADD R15, R11
092A	0C00		DEC2 R12, R0
092C	102F		CTRL $0, #$2F
092E	0FB8		ADD R15, R11
0930	F084		BRA $08AD		; -> -$85(R0)

0932	A7FE		ADD R7, #$FF
0934	CC01		SLT R12, R0
0936	0FB8		ADD R15, R11
0938	84A5		LBI R4, #$A5
093A	3200		MOVE $00, R2
093C	0FB8		ADD R15, R11
093E	FB30		SUB R11, #$31
0940	70F5		MOVB (R15)--, R0
0942	0030		DEC2 R0, R3
0944	F920		SUB R9, #$21
0946	30F0		MOVE $1E0, R0
0948	84A7		LBI R4, #$A7
094A	F920		SUB R9, #$21
094C	70FE		MOVB (R15), R0
094E	2C00		MOVE R12, $00
0950	1030		CTRL $0, #$30
0952	00BB		ADDH2 R0, R11
0954	8000		LBI R0, #$00
0956	2D07		MOVE R13, $0E
0958	101D		CTRL $0, #$1D
095A	0018		ADD R0, R1
095C	84BD		LBI R4, #$BD
095E	2470		MOVE R4, $E0
0960	101D		CTRL $0, #$1D
0962	000C		MHL R0, R0
0964	0010		DEC2 R0, R1
0966	2D10		MOVE R13, $20
0968	30FB		MOVE $1F6, R0
096A	1040		CTRL $0, #$40
096C	4C00		PUTB $C, (R0)+
096E	0010		DEC2 R0, R1
0970	2EFB		MOVE R14, $1F6
0972	1050		CTRL $0, #$50
0974	4C00		PUTB $C, (R0)+
0976	0010		DEC2 R0, R1
0978	2FFE		MOVE R15, $1FC
097A	8C00		LBI R12, #$00
097C	0010		DEC2 R0, R1
097E	303E		MOVE $7C, R0
0980	0110		DEC2 R1, R1
0982	2F0D		MOVE R15, $1A
0984	0010		DEC2 R0, R1
0986	2F10		MOVE R15, $20
0988	3508		MOVE $10, R5
098A	84A5		LBI R4, #$A5
098C	0C00		DEC2 R12, R0
098E	102F		CTRL $0, #$2F
0990	0FB8		ADD R15, R11
0992	3E01		MOVE $02, R14
0994	102E		CTRL $0, #$2E
0996	0D00		DEC2 R13, R0
0998	102E		CTRL $0, #$2E
099A	1035		CTRL $0, #$35
099C	0884		MOVE R8, R8
099E	9AFB		CLR R10, #$FB
09A0	1050		CTRL $0, #$50
09A2	1C00		CTRL $C, #$00
09A4	102F		CTRL $0, #$2F
09A6	000D		MLH R0, R0
09A8	0010		DEC2 R0, R1
09AA	2F0F		MOVE R15, $1E
09AC	B808		SET R8, #$08
09AE	8506		LBI R5, #$06
09B0	3510		MOVE $20, R5
09B2	0FAC		MHL R15, R10
09B4	FB20		SUB R11, #$21
09B6	1032		CTRL $0, #$32
09B8	000F		GETA R0, $0
09BA	B837		SET R8, #$37
09BC	000E		GETB R0, $0
09BE	DBFB		MOVE R11, (R15)
09C0	3070		MOVE $E0, R0
09C2	F500		SUB R5, #$01
09C4	30F9		MOVE $1F2, R0
09C6	1030		CTRL $0, #$30
09C8	3200		MOVE $00, R2
09CA	102F		CTRL $0, #$2F
09CC	3700		MOVE $00, R7
09CE	0EDB		ADDH2 R14, R13
09D0	FB30		SUB R11, #$31
09D2	70F5		MOVB (R15)--, R0
09D4	0030		DEC2 R0, R3
09D6	F920		SUB R9, #$21
09D8	300C		MOVE $18, R0
09DA	0010		DEC2 R0, R1
09DC	2E10		MOVE R14, $20
09DE	35F0		MOVE $1E0, R5
09E0	84F5		LBI R4, #$F5
09E2	3720		MOVE $40, R7
09E4	0FAA		ADDH R15, R10
09E6	3710		MOVE $20, R7
09E8	0FAA		ADDH R15, R10
09EA	1470		CTRL $4, #$70
09EC	1025		CTRL $0, #$25
09EE	00CC		MHL R0, R12
09F0	0010		DEC2 R0, R1
09F2	2584		MOVE R5, $108
09F4	FD3E		SUB R13, #$3F
09F6	8010		LBI R0, #$10
09F8	25FE		MOVE R5, $1FC
09FA	6470		MOVB R4, (R7)+
09FC	0000		HALT
09FE	8470		LBI R4, #$70
0A00	0010		DEC2 R0, R1
0A02	253F		MOVE R5, $7E
0A04	0110		DEC2 R1, R1
0A06	2EC0		MOVE R14, $180
0A08	0184		MOVE R1, R8
0A0A	F1FE		SUB R1, #$FF
0A0C	FB10		SUB R11, #$11
0A0E	401C		PUTB $0, (R1)
0A10	0010		DEC2 R0, R1
0A12	2E00		MOVE R14, $00
0A14	0D00		DEC2 R13, R0
0A16	102E		CTRL $0, #$2E
0A18	0FB8		ADD R15, R11
0A1A	0885		AND R8, R8
0A1C	3D35		MOVE $6A, R13
0A1E	100F		CTRL $0, #$0F
0A20	ACFB		ADD R12, #$FC
0A22	2010		JMP ($0020)

0A24	3200		MOVE $00, R2
0A26	0FB8		ADD R15, R11
0A28	3700		MOVE $00, R7
0A2A	0EDB		ADDH2 R14, R13
0A2C	3530		MOVE $60, R5
0A2E	0FAA		ADDH R15, R10
0A30	F500		SUB R5, #$01
0A32	30F9		MOVE $1F2, R0
0A34	1030		CTRL $0, #$30
0A36	3200		MOVE $00, R2
0A38	102E		CTRL $0, #$2E
0A3A	3700		MOVE $00, R7
0A3C	0EDB		ADDH2 R14, R13
0A3E	3530		MOVE $60, R5
0A40	0FAA		ADDH R15, R10
0A42	F500		SUB R5, #$01
0A44	30F9		MOVE $1F2, R0
0A46	2030		JMP ($0060)

0A48	0C00		DEC2 R12, R0
0A4A	102F		CTRL $0, #$2F
0A4C	1035		CTRL $0, #$35
0A4E	F085		BRA $09CA		; -> -$86(R0)

0A50	2CFE		MOVE R12, $1FC
0A52	F910		SUB R9, #$11
0A54	70F9		MOVB (R15), R0
0A56	2070		JMP ($00E0)

0A58	1470		CTRL $4, #$70
0A5A	1025		CTRL $0, #$25
0A5C	00CC		MHL R0, R12
0A5E	0010		DEC2 R0, R1
0A60	2585		MOVE R5, $10A
0A62	343E		MOVE $7C, R4
0A64	8010		LBI R0, #$10
0A66	25FE		MOVE R5, $1FC
0A68	6C07		MOVB R12, (R0)----
0A6A	0000		HALT
0A6C	8C07		LBI R12, #$07
0A6E	0010		DEC2 R0, R1
0A70	253F		MOVE R5, $7E
0A72	0110		DEC2 R1, R1
0A74	2FC0		MOVE R15, $180
0A76	0185		AND R1, R8
0A78	29FE		MOVE R9, $1FC
0A7A	0D07		XOR R13, R0
0A7C	101D		CTRL $0, #$1D
0A7E	1038		CTRL $0, #$38
0A80	0085		AND R0, R8
0A82	4909		PUTB $9, (R0)
0A84	070F		GETA R0, $7
0A86	AE00		ADD R14, #$01
0A88	00CC		MHL R0, R12
0A8A	0010		DEC2 R0, R1
0A8C	3386		MOVE $10C, R3
0A8E	93F0		CLR R3, #$F0
0A90	8680		LBI R6, #$80
0A92	0C00		DEC2 R12, R0
0A94	101D		CTRL $0, #$1D
0A96	102D		CTRL $0, #$2D
0A98	3E80		MOVE $100, R14
0A9A	101D		CTRL $0, #$1D
0A9C	3520		MOVE $40, R5
0A9E	0FAC		MHL R15, R10
0AA0	3200		MOVE $00, R2
0AA2	0FB8		ADD R15, R11
0AA4	3700		MOVE $00, R7
0AA6	0EDB		ADDH2 R14, R13
0AA8	FB30		SUB R11, #$31
0AAA	70F5		MOVB (R15)--, R0
0AAC	0030		DEC2 R0, R3
0AAE	F920		SUB R9, #$21
0AB0	303C		MOVE $78, R0
0AB2	0110		DEC2 R1, R1
0AB4	2EF0		MOVE R14, $1E0
0AB6	855E		LBI R5, #$5E
0AB8	3720		MOVE $40, R7
0ABA	0FAA		ADDH R15, R10
0ABC	0D00		DEC2 R13, R0
0ABE	102E		CTRL $0, #$2E
0AC0	0FB8		ADD R15, R11
0AC2	2085		JMP ($010A)

0AC4	68E7		MOVB R8, (R14)----
0AC6	0800		DEC2 R8, R0
0AC8	C716		SBC R7, R1
0ACA	101D		CTRL $0, #$1D
0ACC	E70C		
0ACE	00FE		GETB R15, $0
0AD0	3E01		MOVE $02, R14
0AD2	102E		CTRL $0, #$2E
0AD4	0D00		DEC2 R13, R0
0AD6	102E		CTRL $0, #$2E
0AD8	1035		CTRL $0, #$35
0ADA	0885		AND R8, R8
0ADC	5C35		MOVE (R3)-, R12
0ADE	200F		JMP ($001E)

0AE0	ACFB		ADD R12, #$FC
0AE2	1020		CTRL $0, #$20
0AE4	3200		MOVE $00, R2
0AE6	0FB8		ADD R15, R11
0AE8	3700		MOVE $00, R7
0AEA	0EDB		ADDH2 R14, R13
0AEC	FB30		SUB R11, #$31
0AEE	70F5		MOVB (R15)--, R0
0AF0	0030		DEC2 R0, R3
0AF2	F910		SUB R9, #$11
0AF4	303C		MOVE $78, R0
0AF6	0110		DEC2 R1, R1
0AF8	2E34		MOVE R14, $68
0AFA	1010		CTRL $0, #$10
0AFC	31F0		MOVE $1E0, R1
0AFE	8584		LBI R5, #$84
0B00	3510		MOVE $20, R5
0B02	1031		CTRL $0, #$31
0B04	3710		MOVE $20, R7
0B06	0FAA		ADDH R15, R10
0B08	1470		CTRL $4, #$70
0B0A	1025		CTRL $0, #$25
0B0C	0034		RET R3

0B0E	1010		CTRL $0, #$10
0B10	3135		MOVE $6A, R1
0B12	100F		CTRL $0, #$0F
0B14	AC32		ADD R12, #$33
0B16	000F		GETA R0, $0
0B18	B837		SET R8, #$37
0B1A	000E		GETB R0, $0
0B1C	DB35		MOVE R11, (R3)-
0B1E	300F		MOVE $1E, R0
0B20	AAF5		ADD R10, #$F6
0B22	0030		DEC2 R0, R3
0B24	F910		SUB R9, #$11
0B26	303C		MOVE $78, R0
0B28	0110		DEC2 R1, R1
0B2A	2FCC		MOVE R15, $198
0B2C	0110		DEC2 R1, R1
0B2E	2E85		MOVE R14, $10A
0B30	A0FE		BRA $0C31		; $FF(R0)

0B32	CC01		SLT R12, R0
0B34	102F		CTRL $0, #$2F
0B36	859E		LBI R5, #$9E
0B38	F910		SUB R9, #$11
0B3A	70FE		MOVB (R15), R0
0B3C	F920		SUB R9, #$21
0B3E	70FE		MOVB (R15), R0
0B40	0D00		DEC2 R13, R0
0B42	102E		CTRL $0, #$2E
0B44	0FB8		ADD R15, R11
0B46	2085		JMP ($010A)

0B48	B00D		SET R0, #$0D
0B4A	0010		DEC2 R0, R1
0B4C	2F0F		MOVE R15, $1E
0B4E	B820		SET R8, #$20
0B50	85B0		LBI R5, #$B0
0B52	D708		MOVE R7, (R0)
0B54	00C7		XOR R0, R12
0B56	0210		DEC2 R2, R1
0B58	25E7		MOVE R5, $1CE
0B5A	0000		HALT
0B5C	E70C		
0B5E	00FE		GETB R15, $0
0B60	3E01		MOVE $02, R14
0B62	102F		CTRL $0, #$2F
0B64	0D00		DEC2 R13, R0
0B66	102F		CTRL $0, #$2F
0B68	1035		CTRL $0, #$35
0B6A	0885		AND R8, R8
0B6C	993E		CLR R9, #$3E
0B6E	0110		DEC2 R1, R1
0B70	2E0D		MOVE R14, $1A
0B72	0010		DEC2 R0, R1
0B74	2E10		MOVE R14, $20
0B76	3508		MOVE $10, R5
0B78	8580		LBI R5, #$80
0B7A	3E80		MOVE $100, R14
0B7C	101D		CTRL $0, #$1D
0B7E	3520		MOVE $40, R5
0B80	0FAC		MHL R15, R10
0B82	3200		MOVE $00, R2
0B84	0FB8		ADD R15, R11
0B86	3700		MOVE $00, R7
0B88	0EDB		ADDH2 R14, R13
0B8A	3530		MOVE $60, R5
0B8C	0FAA		ADDH R15, R10
0B8E	F500		SUB R5, #$01
0B90	30F9		MOVE $1F2, R0
0B92	2030		JMP ($0060)

0B94	3C01		MOVE $02, R12
0B96	102F		CTRL $0, #$2F
0B98	F085		BRA $0B14		; -> -$86(R0)

0B9A	D0FE		JMP (R15)
0B9C	F920		SUB R9, #$21
0B9E	70FE		MOVB (R15), R0
0BA0	0D00		DEC2 R13, R0
0BA2	102F		CTRL $0, #$2F
0BA4	0FB8		ADD R15, R11
0BA6	2085		JMP ($010A)

0BA8	DAE7		MOVE R10, (R14)--
0BAA	0800		DEC2 R8, R0
0BAC	C716		SBC R7, R1
0BAE	101D		CTRL $0, #$1D
0BB0	E70C		
0BB2	00FE		GETB R15, $0
0BB4	3E01		MOVE $02, R14
0BB6	102F		CTRL $0, #$2F
0BB8	0D00		DEC2 R13, R0
0BBA	102F		CTRL $0, #$2F
0BBC	1035		CTRL $0, #$35
0BBE	0885		AND R8, R8
0BC0	CEC7		SBSH R14, R12
0BC2	080F		GETA R0, $8
0BC4	AEC7		ADD R14, #$C8
0BC6	0210		DEC2 R2, R1
0BC8	1DC7		CTRL $D, #$C7
0BCA	0C0F		GETA R0, $C
0BCC	AEC7		ADD R14, #$C8
0BCE	0810		DEC2 R8, R1
0BD0	80C7		LBI R0, #$C7
0BD2	1610		CTRL $6, #$10
0BD4	1D35		CTRL $D, #$35
0BD6	200F		JMP ($001E)

0BD8	AC32		ADD R12, #$33
0BDA	000F		GETA R0, $0
0BDC	B837		SET R8, #$37
0BDE	000E		GETB R0, $0
0BE0	DBFB		MOVE R11, (R15)
0BE2	3070		MOVE $E0, R0
0BE4	3630		MOVE $60, R6
0BE6	0FAA		ADDH R15, R10
0BE8	F500		SUB R5, #$01
0BEA	30F9		MOVE $1F2, R0
0BEC	2030		JMP ($0060)

0BEE	E70C		
0BF0	00F0		DEC2 R0, R15
0BF2	8469		LBI R4, #$69
0BF4	CC00		SLE R12, R0
0BF6	1033		CTRL $0, #$33
0BF8	85FF		LBI R5, #$FF
0BFA	F086		BRA $0B75		; -> -$87(R0)

0BFC	80FE		LBI R0, #$FE
0BFE	0C00		DEC2 R12, R0
0C00	0FB8		ADD R15, R11
0C02	1035		CTRL $0, #$35
0C04	3200		MOVE $00, R2
0C06	0FB8		ADD R15, R11
0C08	3340		MOVE $80, R3
0C0A	0FB8		ADD R15, R11
0C0C	F840		SUB R8, #$41
0C0E	0033		INC2 R0, R3
0C10	500F		MOVE (R0), R0
0C12	EAF8		
0C14	5000		MOVE (R0)', R0
0C16	3F01		MOVE $02, R15
0C18	0FB8		ADD R15, R11
0C1A	C081		SLT R0, R8
0C1C	8684		LBI R6, #$84
0C1E	3740		MOVE $80, R7
0C20	1036		CTRL $0, #$36
0C22	FB10		SUB R11, #$11
0C24	401C		PUTB $0, (R1)
0C26	0010		DEC2 R0, R1
0C28	2F00		MOVE R15, $00
0C2A	0D00		DEC2 R13, R0
0C2C	102F		CTRL $0, #$2F
0C2E	0FB8		ADD R15, R11
0C30	0886		OR R8, R8
0C32	4735		PUTB $7, (R3)--
0C34	100F		CTRL $0, #$0F
0C36	ACFB		ADD R12, #$FC
0C38	2010		JMP ($0020)

0C3A	3200		MOVE $00, R2
0C3C	0FB8		ADD R15, R11
0C3E	3700		MOVE $00, R7
0C40	0EDB		ADDH2 R14, R13
0C42	FB30		SUB R11, #$31
0C44	70F5		MOVB (R15)--, R0
0C46	0030		DEC2 R0, R3
0C48	F910		SUB R9, #$11
0C4A	3032		MOVE $64, R0
0C4C	0010		DEC2 R0, R1
0C4E	2F37		MOVE R15, $6E
0C50	000E		GETB R0, $0
0C52	DBFB		MOVE R11, (R15)
0C54	3070		MOVE $E0, R0
0C56	F500		SUB R5, #$01
0C58	30F9		MOVE $1F2, R0
0C5A	2030		JMP ($0060)

0C5C	0C00		DEC2 R12, R0
0C5E	102E		CTRL $0, #$2E
0C60	1035		CTRL $0, #$35
0C62	F086		BRA $0BDD		; -> -$87(R0)

0C64	37FE		MOVE $1FC, R7
0C66	3710		MOVE $20, R7
0C68	0FAA		ADDH R15, R10
0C6A	3720		MOVE $40, R7
0C6C	0FAA		ADDH R15, R10
0C6E	1470		CTRL $4, #$70
0C70	1025		CTRL $0, #$25
0C72	0064		RET R6

0C74	7000		MOVB (R0)+, R0
0C76	00DC		MHL R0, R13
0C78	0001		DEC R0, R0
0C7A	8640		LBI R6, #$40
0C7C	7E80		MOVB (R8)+, R14
0C7E	00FE		GETB R15, $0
0C80	8470		LBI R4, #$70
0C82	0010		DEC2 R0, R1
0C84	253F		MOVE R5, $7E
0C86	0110		DEC2 R1, R1
0C88	2EC0		MOVE R14, $180
0C8A	0186		OR R1, R8
0C8C	33FE		MOVE $1FC, R3
0C8E	3750		MOVE $A0, R7
0C90	1036		CTRL $0, #$36
0C92	FB10		SUB R11, #$11
0C94	501C		MOVE (R1), R0
0C96	0010		DEC2 R0, R1
0C98	2E00		MOVE R14, $00
0C9A	0D00		DEC2 R13, R0
0C9C	102E		CTRL $0, #$2E
0C9E	0FB8		ADD R15, R11
0CA0	0886		OR R8, R8
0CA2	0B35		AND R11, R3
0CA4	100F		CTRL $0, #$0F
0CA6	ACFB		ADD R12, #$FC
0CA8	2010		JMP ($0020)

0CAA	3200		MOVE $00, R2
0CAC	0FB8		ADD R15, R11
0CAE	3700		MOVE $00, R7
0CB0	0EDB		ADDH2 R14, R13
0CB2	3530		MOVE $60, R5
0CB4	0FAA		ADDH R15, R10
0CB6	F500		SUB R5, #$01
0CB8	30F9		MOVE $1F2, R0
0CBA	1030		CTRL $0, #$30
0CBC	3200		MOVE $00, R2
0CBE	102E		CTRL $0, #$2E
0CC0	3700		MOVE $00, R7
0CC2	0EDB		ADDH2 R14, R13
0CC4	3530		MOVE $60, R5
0CC6	0FAA		ADDH R15, R10
0CC8	F500		SUB R5, #$01
0CCA	30F9		MOVE $1F2, R0
0CCC	2030		JMP ($0060)

0CCE	0C00		DEC2 R12, R0
0CD0	102F		CTRL $0, #$2F
0CD2	1035		CTRL $0, #$35
0CD4	F086		BRA $0C4F		; -> -$87(R0)

0CD6	6FFE		MOVB R15, (R15)
0CD8	F910		SUB R9, #$11
0CDA	70F9		MOVB (R15), R0
0CDC	2070		JMP ($00E0)

0CDE	1470		CTRL $4, #$70
0CE0	1025		CTRL $0, #$25
0CE2	0064		RET R6

0CE4	7000		MOVB (R0)+, R0
0CE6	00DC		MHL R0, R13
0CE8	0001		DEC R0, R0
0CEA	8678		LBI R6, #$78
0CEC	7E80		MOVB (R8)+, R14
0CEE	00FE		GETB R15, $0
0CF0	8470		LBI R4, #$70
0CF2	0010		DEC2 R0, R1
0CF4	253F		MOVE R5, $7E
0CF6	0110		DEC2 R1, R1
0CF8	2FC0		MOVE R15, $180
0CFA	0186		OR R1, R8
0CFC	6CF0		MOVB R12, (R15)+
0CFE	860B		LBI R6, #$0B
0D00	C708		SGT R7, R0
0D02	0FAE		GETB R10, $F
0D04	301A		MOVE $34, R0
0D06	0EBA		ADDH R14, R11
0D08	300E		MOVE $1C, R0
0D0A	0FA4		MOVE R15, R10
0D0C	3CCE		MOVE $19C, R12
0D0E	0BB4		MOVE R11, R11
0D10	7C40		MOVB (R4)+, R12
0D12	04F0		DEC2 R4, R15
0D14	3BD0		MOVE $1A0, R11
0D16	3CCE		MOVE $19C, R12
0D18	0BB4		MOVE R11, R11
0D1A	F03B		BRA $0CE0		; -> -$3C(R0)

0D1C	D0FE		JMP (R15)
0D1E	3CD9		MOVE $1B2, R12
0D20	0BB4		MOVE R11, R11
0D22	F03B		BRA $0CE8		; -> -$3C(R0)

0D24	D0FE		JMP (R15)
0D26	3CA5		MOVE $14A, R12
0D28	0BB4		MOVE R11, R11
0D2A	F03B		BRA $0CF0		; -> -$3C(R0)

0D2C	D0FE		JMP (R15)
0D2E	0001		DEC R0, R0
0D30	302F		MOVE $5E, R0
0D32	3942		MOVE $84, R9
0D34	1924		CTRL $9, #$24
0D36	8446		LBI R4, #$46
0D38	3B40		MOVE $80, R11
0D3A	0BA6		OR R11, R10
0D3C	0C03		INC2 R12, R0
0D3E	0BAE		GETB R10, $B
0D40	0BA6		OR R11, R10
0D42	3004		MOVE $08, R0
0D44	0BAA		ADDH R11, R10
0D46	3480		MOVE $100, R4
0D48	0BA8		ADD R11, R10
0D4A	3C00		MOVE $00, R12
0D4C	0BA7		XOR R11, R10
0D4E	3C80		MOVE $100, R12
0D50	0BA6		OR R11, R10
0D52	DC4E		MOVE R12, (R4)
0D54	0086		OR R0, R8
0D56	B1DD		SET R1, #$DD
0D58	6000		MOVB R0, (R0)+
0D5A	86B7		LBI R6, #$B7
0D5C	BC35		SET R12, #$35
0D5E	00F0		DEC2 R0, R15
0D60	86B3		LBI R6, #$B3
0D62	BC34		SET R12, #$34
0D64	00FE		GETB R15, $0
0D66	F10B		SUB R1, #$0C
0D68	F0FE		BRA $0C6B		; -> -$FF(R0)

0D6A	3A80		MOVE $100, R10
0D6C	0BA6		OR R11, R10
0D6E	DC4D		MOVE R12, (R4)
0D70	0087		XOR R0, R8
0D72	2EDC		MOVE R14, $1B8
0D74	5000		MOVE (R0)', R0
0D76	870D		LBI R7, #$0D
0D78	DC4B		MOVE R12, (R4)
0D7A	0086		OR R0, R8
0D7C	E670		
0D7E	1200		CTRL $2, #$00
0D80	8809		LBI R8, #$09
0D82	86E6		LBI R6, #$E6
0D84	86C4		LBI R6, #$C4
0D86	8818		LBI R8, #$18
0D88	7012		MOVB (R1)+++, R0
0D8A	0186		OR R1, R8
0D8C	E286		
0D8E	DE87		MOVE R14, (R8)--
0D90	3886		MOVE $10C, R8
0D92	CA00		SLE R10, R0
0D94	F10B		SUB R1, #$0C
0D96	F2FE		SUB R2, #$FF
0D98	DD4D		MOVE R13, (R4)
0D9A	0087		XOR R0, R8
0D9C	DCF1		MOVE R12, (R15)+
0D9E	0BF2		INC R11, R15
0DA0	F18F		SUB R1, #$90
0DA2	F8FE		SUB R8, #$FF
0DA4	DD6B		MOVE R13, (R6)
0DA6	0086		OR R0, R8
0DA8	D8F1		MOVE R8, (R15)+
0DAA	0BF2		INC R11, R15
0DAC	F18F		SUB R1, #$90
0DAE	F8FE		SUB R8, #$FF
0DB0	DD5D		MOVE R13, (R5)
0DB2	0088		ADD R0, R8
0DB4	18F1		CTRL $8, #$F1
0DB6	0BF2		INC R11, R15
0DB8	F087		BRA $0D32		; -> -$88(R0)

0DBA	DCFE		MOVE R12, (R15)
0DBC	F10B		SUB R1, #$0C
0DBE	EEFE		
0DC0	F087		BRA $0D3A		; -> -$88(R0)

0DC2	DCFE		MOVE R12, (R15)
0DC4	F10B		SUB R1, #$0C
0DC6	F2FE		SUB R2, #$FF
0DC8	F087		BRA $0D42		; -> -$88(R0)

0DCA	DCFE		MOVE R12, (R15)
0DCC	3B02		MOVE $04, R11
0DCE	0BA4		MOVE R11, R10
0DD0	3330		MOVE $60, R3
0DD2	10CC		CTRL $0, #$CC
0DD4	3A10		MOVE $20, R10
0DD6	0ED7		XOR R14, R13
0DD8	F123		SUB R1, #$24
0DDA	F4FE		SUB R4, #$FF
0DDC	C087		SBSH R0, R8
0DDE	8818		LBI R8, #$18
0DE0	3920		MOVE $40, R9
0DE2	0BA2		INC R11, R10
0DE4	8707		LBI R7, #$07
0DE6	CC00		SLE R12, R0
0DE8	0F24		MOVE R15, R2
0DEA	86FC		LBI R6, #$FC
0DEC	CA41		SLT R10, R4
0DEE	0F24		MOVE R15, R2
0DF0	8707		LBI R7, #$07
0DF2	C844		SS R8
0DF4	0F24		MOVE R15, R2
0DF6	8707		LBI R7, #$07
0DF8	BC3A		SET R12, #$3A
0DFA	00E7		XOR R0, R14
0DFC	1200		CTRL $2, #$00
0DFE	C70C		SNS R7
0E00	0F24		MOVE R15, R2
0E02	8C01		LBI R12, #$01
0E04	010F		GETA R0, $1
0E06	26B3		MOVE R6, $166
0E08	2003		JMP ($0006)

0E0A	F087		BRA $0D84		; -> -$88(R0)

0E0C	DCFE		MOVE R12, (R15)
0E0E	BC3B		SET R12, #$3B
0E10	00E7		XOR R0, R14
0E12	0C01		DEC R12, R0
0E14	B320		SET R3, #$20
0E16	09F0		DEC2 R9, R15
0E18	87DC		LBI R7, #$DC
0E1A	FB50		SUB R11, #$51
0E1C	2033		JMP ($0066)

0E1E	2001		JMP ($0002)

0E20	ADB3		ADD R13, #$B4
0E22	601B		MOVB R0, (R1)
0E24	2505		MOVE R5, $0A
0E26	0F24		MOVE R15, R2
0E28	00FE		GETB R15, $0
0E2A	3240		MOVE $80, R2
0E2C	0F25		AND R15, R2
0E2E	B370		SET R3, #$70
0E30	0335		AND R3, R3
0E32	200F		JMP ($001E)

0E34	2660		MOVE R6, $C0
0E36	4000		PUTB $0, (R0)+
0E38	00FE		GETB R15, $0
0E3A	2087		JMP ($010E)

0E3C	25FB		MOVE R5, $1F6
0E3E	2070		JMP ($00E0)

0E40	FA20		SUB R10, #$21
0E42	6028		MOVB R0, (R2)
0E44	8712		LBI R7, #$12
0E46	F088		BRA $0DBF		; -> -$89(R0)

0E48	09FE		GETB R15, $9
0E4A	FB20		SUB R11, #$21
0E4C	508C		MOVE (R8), R0
0E4E	0100		DEC2 R1, R0
0E50	0F28		ADD R15, R2
0E52	B320		SET R3, #$20
0E54	02F8		ADD R2, R15
0E56	1040		CTRL $0, #$40
0E58	F087		BRA $0DD2		; -> -$88(R0)

0E5A	DCFE		MOVE R12, (R15)
0E5C	F10B		SUB R1, #$0C
0E5E	F2FE		SUB R2, #$FF
0E60	3E01		MOVE $02, R14
0E62	0BA7		XOR R11, R10
0E64	C0A0		SLE R0, R10
0E66	8818		LBI R8, #$18
0E68	DC5D		MOVE R12, (R5)
0E6A	0088		ADD R0, R8
0E6C	18F0		CTRL $8, #$F0
0E6E	86A9		LBI R6, #$A9
0E70	DDC6		MOVE R13, (R12)-~
0E72	0087		XOR R0, R8
0E74	3DDC		MOVE $1B8, R13
0E76	D501 87BD	LWI R5, #$87BD
0E7A	FB70		SUB R11, #$71
0E7C	2033		JMP ($0066)

0E7E	2003		JMP ($0006)

0E80	28B3		MOVE R8, $166
0E82	606C		MOVB R0, (R6)
0E84	3340		MOVE $80, R3
0E86	0004		NOP
0E88	6040		MOVB R0, (R4)+
0E8A	0000		HALT
0E8C	2087		JMP ($010E)

0E8E	69B3		MOVB R9, (R11)++++
0E90	2003		JMP ($0006)

0E92	FA20		SUB R10, #$21
0E94	6008		MOVB R0, (R0)
0E96	8744		LBI R7, #$44
0E98	FB20		SUB R11, #$21
0E9A	7033		MOVB (R3)++++, R0
0E9C	4000		PUTB $0, (R0)+
0E9E	0340		DEC2 R3, R4
0EA0	4000		PUTB $0, (R0)+
0EA2	0370		DEC2 R3, R7
0EA4	2087		JMP ($010E)

0EA6	B533		SET R5, #$33
0EA8	0000		HALT
0EAA	0440		DEC2 R4, R4
0EAC	0001		DEC R0, R0
0EAE	01F5		AND R1, R15
0EB0	2086		JMP ($010C)

0EB2	E240		
0EB4	0001		DEC R0, R0
0EB6	02DB		ADDH2 R2, R13
0EB8	2086		JMP ($010C)

0EBA	E240		
0EBC	0001		DEC R0, R0
0EBE	023C		MHL R2, R3
0EC0	2086		JMP ($010C)

0EC2	E233		
0EC4	0000		HALT
0EC6	0240		DEC2 R2, R4
0EC8	0001		DEC R0, R0
0ECA	02DD		MLH R2, R13
0ECC	2086		JMP ($010C)

0ECE	E2F0		
0ED0	8809		LBI R8, #$09
0ED2	E640		
0ED4	02FE		GETB R15, $2
0ED6	FB20		SUB R11, #$21
0ED8	70B4		MOVB (R11)-, R0
0EDA	4000		PUTB $0, (R0)+
0EDC	BC4D		SET R12, #$4D
0EDE	02B3		INC2 R2, R11
0EE0	2003		JMP ($0006)

0EE2	7310		MOVB (R1)+, R3
0EE4	0434		MOVE R4, R3
0EE6	400F		PUTB $0, (R0)
0EE8	24CC		MOVE R4, $198
0EEA	1F0F		CTRL $F, #$0F
0EEC	2587		MOVE R5, $10E
0EEE	99CC		CLR R9, #$CC
0EF0	1E0F		CTRL $E, #$0F
0EF2	2587		MOVE R5, $10E
0EF4	99CC		CLR R9, #$CC
0EF6	020F		GETA R0, $2
0EF8	2587		MOVE R5, $10E
0EFA	9FCC		CLR R15, #$CC
0EFC	030F		GETA R0, $3
0EFE	2587		MOVE R5, $10E
0F00	9FCC		CLR R15, #$CC
0F02	010F		GETA R0, $1
0F04	2587		MOVE R5, $10E
0F06	9FCC		CLR R15, #$CC
0F08	220F		MOVE R2, $1E
0F0A	2587		MOVE R5, $10E
0F0C	A7CC		ADD R7, #$CD
0F0E	250F		MOVE R5, $1E
0F10	2587		MOVE R5, $10E
0F12	A7CC		ADD R7, #$CD
0F14	260F		MOVE R6, $1E
0F16	2587		MOVE R5, $10E
0F18	A7CC		ADD R7, #$CD
0F1A	270F		MOVE R7, $1E
0F1C	2587		MOVE R5, $10E
0F1E	A7CC		ADD R7, #$CD
0F20	200F		JMP ($001E)

0F22	2587		MOVE R5, $10E
0F24	A7CC		ADD R7, #$CD
0F26	210F		MOVE R1, $1E
0F28	2587		MOVE R5, $10E
0F2A	ABF0		ADD R11, #$F1
0F2C	8730		LBI R7, #$30
0F2E	F10B		SUB R1, #$0C
0F30	F2FE		SUB R2, #$FF
0F32	F18F		SUB R1, #$90
0F34	F8FE		SUB R8, #$FF
0F36	DC6B		MOVE R12, (R6)
0F38	0087		XOR R0, R8
0F3A	97F0		CLR R7, #$F0
0F3C	87D8		LBI R7, #$D8
0F3E	7012		MOVB (R1)+++, R0
0F40	0088		ADD R0, R8
0F42	1888		CTRL $8, #$88
0F44	180B		CTRL $8, #$0B
0F46	F288		SUB R2, #$89
0F48	1800		CTRL $8, #$00
0F4A	F087		BRA $0EC4		; -> -$88(R0)

0F4C	D8FE		MOVE R8, (R15)
0F4E	F18F		SUB R1, #$90
0F50	F6FE		SUB R6, #$FF
0F52	F087		BRA $0ECC		; -> -$88(R0)

0F54	D8FE		MOVE R8, (R15)
0F56	F18F		SUB R1, #$90
0F58	F6FE		SUB R6, #$FF
0F5A	DD6B		MOVE R13, (R6)
0F5C	0088		ADD R0, R8
0F5E	18F1		CTRL $8, #$F1
0F60	0BF2		INC R11, R15
0F62	F18F		SUB R1, #$90
0F64	F6FE		SUB R6, #$FF
0F66	F087		BRA $0EE0		; -> -$88(R0)

0F68	D8FE		MOVE R8, (R15)
0F6A	BC3D		SET R12, #$3D
0F6C	00BC		MHL R0, R11
0F6E	1401		CTRL $4, #$01
0F70	B320		SET R3, #$20
0F72	0273		INC2 R2, R7
0F74	1003		CTRL $0, #$03
0F76	F087		BRA $0EF0		; -> -$88(R0)

0F78	DCFE		MOVE R12, (R15)
0F7A	3908		MOVE $10, R9
0F7C	0BA3		INC2 R11, R10
0F7E	8818		LBI R8, #$18
0F80	7012		MOVB (R1)+++, R0
0F82	0288		ADD R2, R8
0F84	0988		ADD R9, R8
0F86	0987		XOR R9, R8
0F88	C688		SGT R6, R8
0F8A	0900		DEC2 R9, R0
0F8C	BC3E		SET R12, #$3E
0F8E	009C		MHL R0, R9
0F90	0001		DEC R0, R0
0F92	02BC		MHL R2, R11
0F94	4002		PUTB $0, (R0)+++
0F96	7310		MOVB (R1)+, R3
0F98	03B3		INC2 R3, R11
0F9A	2003		JMP ($0006)

0F9C	DD4D		MOVE R13, (R4)
0F9E	0087		XOR R0, R8
0FA0	DCFE		MOVE R12, (R15)
0FA2	F10B		SUB R1, #$0C
0FA4	F2FE		SUB R2, #$FF
0FA6	F18F		SUB R1, #$90
0FA8	F4FE		SUB R4, #$FF
0FAA	DC6B		MOVE R12, (R6)
0FAC	0087		XOR R0, R8
0FAE	D1FE		MOVE R1, (R15)
0FB0	DD5D		MOVE R13, (R5)
0FB2	0088		ADD R0, R8
0FB4	18F1		CTRL $8, #$F1
0FB6	0BF2		INC R11, R15
0FB8	3B80		MOVE $100, R11
0FBA	0BA6		OR R11, R10
0FBC	DC4E		MOVE R12, (R4)
0FBE	0087		XOR R0, R8
0FC0	F8DC		SUB R8, #$DD
0FC2	6000		MOVB R0, (R0)+
0FC4	87F8		LBI R7, #$F8
0FC6	DC61		MOVE R12, (R6)+
0FC8	0087		XOR R0, R8
0FCA	F8DC		SUB R8, #$DD
0FCC	5D00		MOVE (R0)', R13
0FCE	87FE		LBI R7, #$FE
0FD0	DC5C		MOVE R12, (R5)
0FD2	0087		XOR R0, R8
0FD4	EFDC		
0FD6	8A00		LBI R10, #$00
0FD8	87F8		LBI R7, #$F8
0FDA	F088		BRA $0F53		; -> -$89(R0)

0FDC	09FE		GETB R15, $9
0FDE	DD5C		MOVE R13, (R5)
0FE0	0187		XOR R1, R8
0FE2	F8BC		SUB R8, #$BD
0FE4	8A00		LBI R10, #$00
0FE6	B320		SET R3, #$20
0FE8	0173		INC2 R1, R7
0FEA	1002		CTRL $0, #$02
0FEC	F087		BRA $0F66		; -> -$88(R0)

0FEE	FAFE		SUB R10, #$FF
0FF0	F10B		SUB R1, #$0C
0FF2	F2FE		SUB R2, #$FF
0FF4	3A80		MOVE $100, R10
0FF6	0BA6		OR R11, R10
0FF8	F086		BRA $0F73		; -> -$87(R0)

0FFA	B7FE		SET R7, #$FE
0FFC	CC00		SLE R12, R0
0FFE	0BA7		XOR R11, R10
1000	8809		LBI R8, #$09
1002	3F01		MOVE $02, R15
1004	0BA7		XOR R11, R10
1006	F10B		SUB R1, #$0C
1008	F2FE		SUB R2, #$FF
100A	DC4D		MOVE R12, (R4)
100C	0088		ADD R0, R8
100E	18F0		CTRL $8, #$F0
1010	87DE		LBI R7, #$DE
1012	3980		MOVE $100, R9
1014	0BA6		OR R11, R10
1016	8818		LBI R8, #$18
1018	CD00		SLE R13, R0
101A	0BA7		XOR R11, R10
101C	881C		LBI R8, #$1C
101E	3580		MOVE $100, R5
1020	0BA8		ADD R11, R10
1022	0C03		INC2 R12, R0
1024	0BA6		OR R11, R10
1026	0BAE		GETB R10, $B
1028	3006		MOVE $0C, R0
102A	0BAA		ADDH R11, R10
102C	FC80		SUB R12, #$81
102E	00FE		GETB R15, $0
1030	3C00		MOVE $00, R12
1032	0B5A		ADDH R11, R5
1034	F00B		BRA $102A		; -> -$0C(R0)

1036	E6FE		
1038	3C02		MOVE $04, R12
103A	0B5A		ADDH R11, R5
103C	F00B		BRA $1032		; -> -$0C(R0)

103E	E6FE		
1040	3A40		MOVE $80, R10
1042	0BA6		OR R11, R10
1044	0C03		INC2 R12, R0
1046	0BAE		GETB R10, $B
1048	0BA6		OR R11, R10
104A	3004		MOVE $08, R0
104C	0BAA		ADDH R11, R10
104E	3480		MOVE $100, R4
1050	0BA8		ADD R11, R10
1052	3C00		MOVE $00, R12
1054	0BA7		XOR R11, R10
1056	3C80		MOVE $100, R12
1058	0BA6		OR R11, R10
105A	DC7D		MOVE R12, (R7)
105C	0088		ADD R0, R8
105E	40DC		PUTB $0, (R13)
1060	4D00		PUTB $D, (R0)+
1062	8866		LBI R8, #$66
1064	7012		MOVB (R1)+++, R0
1066	0088		ADD R0, R8
1068	0988		ADD R9, R8
106A	0988		ADD R9, R8
106C	3888		MOVE $110, R8
106E	0900		DEC2 R9, R0
1070	DC5B		MOVE R12, (R5)
1072	0188		ADD R1, R8
1074	5270		MOVE (R7)', R2
1076	1201		CTRL $2, #$01
1078	8809		LBI R8, #$09
107A	8809		LBI R8, #$09
107C	8870		LBI R8, #$70
107E	8809		LBI R8, #$09
1080	0C03		INC2 R12, R0
1082	0BAE		GETB R10, $B
1084	0BA6		OR R11, R10
1086	3004		MOVE $08, R0
1088	0BAA		ADDH R11, R10
108A	3380		MOVE $100, R3
108C	884B		LBI R8, #$4B
108E	3480		MOVE $100, R4
1090	0BA8		ADD R11, R10
1092	F077		BRA $101C		; -> -$78(R0)

1094	DCFE		MOVE R12, (R15)
1096	0C03		INC2 R12, R0
1098	0BA6		OR R11, R10
109A	0BAE		GETB R10, $B
109C	3006		MOVE $0C, R0
109E	0BAA		ADDH R11, R10
10A0	F088		BRA $1019		; -> -$89(R0)

10A2	D9FE		MOVE R9, (R15)
10A4	F10B		SUB R1, #$0C
10A6	EEFE		
10A8	DD4D		MOVE R13, (R4)
10AA	0088		ADD R0, R8
10AC	D9F1		MOVE R9, (R15)+
10AE	0BF2		INC R11, R15
10B0	F18F		SUB R1, #$90
10B2	F8FE		SUB R8, #$FF
10B4	DD6B		MOVE R13, (R6)
10B6	0088		ADD R0, R8
10B8	60F1		MOVB R0, (R15)++
10BA	0BF2		INC R11, R15
10BC	F18F		SUB R1, #$90
10BE	F8FE		SUB R8, #$FF
10C0	DD5D		MOVE R13, (R5)
10C2	0088		ADD R0, R8
10C4	18F1		CTRL $8, #$F1
10C6	0BF2		INC R11, R15
10C8	F088		BRA $1041		; -> -$89(R0)

10CA	D9FE		MOVE R9, (R15)
10CC	F10B		SUB R1, #$0C
10CE	F2FE		SUB R2, #$FF
10D0	3E01		MOVE $02, R14
10D2	0BA7		XOR R11, R10
10D4	C0A0		SLE R0, R10
10D6	8818		LBI R8, #$18
10D8	DC5D		MOVE R12, (R5)
10DA	0088		ADD R0, R8
10DC	18F0		CTRL $8, #$F0
10DE	882D		LBI R8, #$2D
10E0	DDC6		MOVE R13, (R12)-~
10E2	0088		ADD R0, R8
10E4	75DC		MOVB (R13), R5
10E6	D501 88BD	LWI R5, #$88BD
10EA	3300		MOVE $00, R3
10EC	0004		NOP
10EE	4000		PUTB $0, (R0)+
10F0	0003		INC2 R0, R0
10F2	22FE		MOVE R2, $1FC
10F4	2088		JMP ($0110)

10F6	8940		LBI R9, #$40
10F8	0000		HALT
10FA	0325		AND R3, R2
10FC	2088		JMP ($0110)

10FE	A040		BRA $1141		; $41(R0)

1100	0000		HALT
1102	0301		DEC R3, R0
1104	2088		JMP ($0110)

1106	AE40		ADD R14, #$41
1108	0000		HALT
110A	02FF		GETA R15, $2
110C	2088		JMP ($0110)

110E	ABF0		ADD R11, #$F1
1110	8809		LBI R8, #$09
1112	BC3D		SET R12, #$3D
1114	00BC		MHL R0, R11
1116	0401		DEC R4, R0
1118	BC4D		SET R12, #$4D
111A	02B3		INC2 R2, R11
111C	2003		JMP ($0006)

111E	7310		MOVB (R1)+, R3
1120	04F1		DEC R4, R15
1122	8FF6		LBI R15, #$F6
1124	DD6B		MOVE R13, (R6)
1126	0088		ADD R0, R8
1128	18F1		CTRL $8, #$F1
112A	0BF2		INC R11, R15
112C	F18F		SUB R1, #$90
112E	F8FE		SUB R8, #$FF
1130	DD6B		MOVE R13, (R6)
1132	0088		ADD R0, R8
1134	D5F1		MOVE R5, (R15)+
1136	0BF2		INC R11, R15
1138	F18F		SUB R1, #$90
113A	F8FE		SUB R8, #$FF
113C	F088		BRA $10B5		; -> -$89(R0)

113E	D5FE		MOVE R5, (R15)
1140	BC3D		SET R12, #$3D
1142	00BC		MHL R0, R11
1144	2301		MOVE R3, $02
1146	BC4D		SET R12, #$4D
1148	02B3		INC2 R2, R11
114A	2003		JMP ($0006)

114C	7310		MOVB (R1)+, R3
114E	04F1		DEC R4, R15
1150	8FF8		LBI R15, #$F8
1152	F088		BRA $10CB		; -> -$89(R0)

1154	D5FE		MOVE R5, (R15)
1156	BC1E		SET R12, #$1E
1158	01F0		DEC2 R1, R15
115A	88B0		LBI R8, #$B0
115C	BC1F		SET R12, #$1F
115E	01FE		GETB R15, $1
1160	BC3D		SET R12, #$3D
1162	00B3		INC2 R0, R11
1164	2002		JMP ($0004)

1166	7310		MOVB (R1)+, R3
1168	03FE		GETB R15, $3
116A	F10B		SUB R1, #$0C
116C	F2FE		SUB R2, #$FF
116E	F18F		SUB R1, #$90
1170	F6FE		SUB R6, #$FF
1172	DC6B		MOVE R12, (R6)
1174	0088		ADD R0, R8
1176	B5F0		SET R5, #$F0
1178	88D5		LBI R8, #$D5
117A	DD5B		MOVE R13, (R5)
117C	0388		ADD R3, R8
117E	0970		DEC2 R9, R7
1180	1202		CTRL $2, #$02
1182	8809		LBI R8, #$09
1184	8809		LBI R8, #$09
1186	88C5		LBI R8, #$C5
1188	8809		LBI R8, #$09
118A	BC3E		SET R12, #$3E
118C	009C		MHL R0, R9
118E	0101		DEC R1, R0
1190	02B3		INC2 R2, R11
1192	2003		JMP ($0006)

1194	7310		MOVB (R1)+, R3
1196	04DD		MLH R4, R13
1198	4D00		PUTB $D, (R0)+
119A	88D9		LBI R8, #$D9
119C	F10B		SUB R1, #$0C
119E	F2FE		SUB R2, #$FF
11A0	F18F		SUB R1, #$90
11A2	F4FE		SUB R4, #$FF
11A4	DC6B		MOVE R12, (R6)
11A6	0088		ADD R0, R8
11A8	CEFE		SNBC R14, R15
11AA	DD5D		MOVE R13, (R5)
11AC	0088		ADD R0, R8
11AE	18F1		CTRL $8, #$F1
11B0	0BF2		INC R11, R15
11B2	3B80		MOVE $100, R11
11B4	0BA6		OR R11, R10
11B6	DC5D		MOVE R12, (R5)
11B8	0088		ADD R0, R8
11BA	E5DD		
11BC	4F00		PUTB $F, (R0)+
11BE	88E3		LBI R8, #$E3
11C0	DC4F		MOVE R12, (R4)
11C2	0188		ADD R1, R8
11C4	EEFE		
11C6	F088		BRA $113F		; -> -$89(R0)

11C8	09FE		GETB R15, $9
11CA	CC00		SLE R12, R0
11CC	0BA7		XOR R11, R10
11CE	8809		LBI R8, #$09
11D0	3F01		MOVE $02, R15
11D2	0BA7		XOR R11, R10
11D4	F10B		SUB R1, #$0C
11D6	F2FE		SUB R2, #$FF
11D8	F088		BRA $1151		; -> -$89(R0)

11DA	DBFE		MOVE R11, (R15)
11DC	BC31		SET R12, #$31
11DE	00B3		INC2 R0, R11
11E0	2001		JMP ($0002)

11E2	7310		MOVB (R1)+, R3
11E4	023A		ADDH R2, R3
11E6	800B		LBI R0, #$0B
11E8	A6F0		ADD R6, #$F1
11EA	882D		LBI R8, #$2D
11EC	FB70		SUB R11, #$71
11EE	80FB		LBI R0, #$FB
11F0	6010		MOVB R0, (R1)+
11F2	DC4D		MOVE R12, (R4)
11F4	0089		SUB R0, R8
11F6	2A33		MOVE R10, $66
11F8	0000		HALT
11FA	0440		DEC2 R4, R4
11FC	0000		HALT
11FE	0301		DEC R3, R0
1200	2089		JMP ($0112)

1202	2D40		MOVE R13, $80
1204	0000		HALT
1206	02FF		GETA R15, $2
1208	2089		JMP ($0112)

120A	2DDC		MOVE R13, $1B8
120C	7D00		MOVB (R0)+, R13
120E	8930		LBI R9, #$30
1210	7012		MOVB (R1)+++, R0
1212	0089		SUB R0, R8
1214	3589		MOVE $112, R5
1216	3589		MOVE $112, R5
1218	0E89		SUB R14, R8
121A	3500		MOVE $00, R5
121C	DC5B		MOVE R12, (R5)
121E	0189		SUB R1, R8
1220	3070		MOVE $E0, R0
1222	1201		CTRL $2, #$01
1224	8935		LBI R9, #$35
1226	8935		LBI R9, #$35
1228	8916		LBI R9, #$16
122A	8935		LBI R9, #$35
122C	3300		MOVE $00, R3
122E	0004		NOP
1230	4000		PUTB $0, (R0)+
1232	0003		INC2 R0, R0
1234	22FE		MOVE R2, $1FC
1236	2089		JMP ($0112)

1238	3040		MOVE $80, R0
123A	0000		HALT
123C	0325		AND R3, R2
123E	2089		JMP ($0112)

1240	30DD		MOVE $1BA, R0
1242	C600		SLE R6, R0
1244	8935		LBI R9, #$35
1246	DDD5		MOVE R13, (R13)-
1248	0189		SUB R1, R8
124A	35DC		MOVE $1B8, R5
124C	5B03		MOVE (R0)++, R11
124E	8930		LBI R9, #$30
1250	F089		BRA $11C8		; -> -$8A(R0)

1252	35FE		MOVE $1FC, R5
1254	7310		MOVB (R1)+, R3
1256	01F0		DEC2 R1, R15
1258	88F9		LBI R8, #$F9
125A	7310		MOVB (R1)+, R3
125C	04F0		DEC2 R4, R15
125E	88F9		LBI R8, #$F9
1260	FB80		SUB R11, #$81
1262	70FB		MOVB (R15), R0
1264	1060		CTRL $0, #$60
1266	F08F		BRA $11D8		; -> -$90(R0)

1268	F6FE		SUB R6, #$FF
126A	FB80		SUB R11, #$81
126C	70FB		MOVB (R15), R0
126E	1060		CTRL $0, #$60
1270	F08F		BRA $11E2		; -> -$90(R0)

1272	F8FE		SUB R8, #$FF
1274	300C		MOVE $18, R0
1276	0C5C		MHL R12, R5
1278	3300		MOVE $00, R3
127A	0002		INC R0, R0
127C	8000		LBI R0, #$00
127E	078A		ADDH R7, R8
1280	B3FE		SET R3, #$FE
1282	2889		MOVE R8, $112
1284	47FE		PUTB $7, (R15)
1286	3310		MOVE $20, R3
1288	0B00		DEC2 R11, R0
128A	F089		BRA $1202		; -> -$8A(R0)

128C	82FE		LBI R2, #$FE
128E	8000		LBI R0, #$00
1290	078A		ADDH R7, R8
1292	B4FE		SET R4, #$FE
1294	2889		MOVE R8, $112
1296	90C5		CLR R0, #$C5
1298	100B		CTRL $0, #$0B
129A	40C0		PUTB $0, (R12)+
129C	0189		SUB R1, R8
129E	8239		LBI R2, #$39
12A0	010D		MLH R1, R0
12A2	BF89		SET R15, #$89
12A4	43FE		PUTB $3, (R15)
12A6	3940		MOVE $80, R9
12A8	0ED7		XOR R14, R13
12AA	53E2		MOVE (R14)+', R3
12AC	3420		MOVE $40, R4
12AE	0C5E		GETB R5, $C
12B0	3310		MOVE $20, R3
12B2	0F24		MOVE R15, R2
12B4	450D		PUTB $5, (R0)
12B6	048A		ADDH R4, R8
12B8	B6FE		SET R6, #$FE
12BA	4C01		PUTB $C, (R0)++
12BC	000B		ADDH2 R0, R0
12BE	634C		MOVB R3, (R4)
12C0	0102		INC R1, R0
12C2	0DB0		DEC2 R13, R11
12C4	F153		SUB R1, #$54
12C6	FCFE		SUB R12, #$FF
12C8	DD00		MOVE R13, (R0)'
12CA	0C8A		ADDH R12, R8
12CC	9E1C		CLR R14, #$1C
12CE	010B		ADDH2 R1, R0
12D0	6302		MOVB R3, (R0)+++
12D2	7510		MOVB (R1)+, R5
12D4	0034		RET R3

12D6	100D		CTRL $0, #$0D
12D8	B9D5		SET R9, #$D5
12DA	000C		MHL R0, R0
12DC	C001		SLT R0, R0
12DE	8989		LBI R9, #$89
12E0	5C01		MOVE (R0)+, R12
12E2	1604		CTRL $6, #$04
12E4	7A02		MOVB (R0)+++, R10
12E6	037A		ADDH R3, R7
12E8	0815		AND R8, R1
12EA	3410		MOVE $20, R4
12EC	0B40		DEC2 R11, R4
12EE	7500		MOVB (R0)+, R5
12F0	0637		XOR R6, R3
12F2	000E		GETB R0, $0
12F4	DB75		MOVE R11, (R7)-
12F6	1004		CTRL $0, #$04
12F8	7C40		MOVB (R4)+, R12
12FA	0054		RET R5

12FC	0001		DEC R0, R0
12FE	0035		AND R0, R3
1300	100B		CTRL $0, #$0B
1302	40FE		PUTB $0, (R15)
1304	7A48		MOVB (R4), R10
1306	1439		CTRL $4, #$39
1308	040D		MLH R4, R0
130A	BF3B		SET R15, #$3B
130C	D4FE		MOVE R4, (R15)
130E	F089		BRA $1286		; -> -$8A(R0)

1310	C1FE		SNBC R1, R15
1312	3A40		MOVE $80, R10
1314	0ED7		XOR R14, R13
1316	3904		MOVE $08, R9
1318	0DBF		GETA R11, $D
131A	8FEA		LBI R15, #$EA
131C	F089		BRA $1294		; -> -$8A(R0)

131E	C1FE		SNBC R1, R15
1320	8000		LBI R0, #$00
1322	078A		ADDH R7, R8
1324	B5FE		SET R5, #$FE
1326	2889		MOVE R8, $112
1328	B8C5		SET R8, #$C5
132A	100B		CTRL $0, #$0B
132C	3EC0		MOVE $180, R14
132E	0189		SUB R1, R8
1330	B40E		SET R4, #$0E
1332	100B		CTRL $0, #$0B
1334	630E		MOVB R3, (R0)
1336	DB3B		MOVE R11, (R3)
1338	010B		ADDH2 R1, R0
133A	6435		MOVB R4, (R3)--
133C	100B		CTRL $0, #$0B
133E	6333		MOVB R3, (R3)++++
1340	0000		HALT
1342	4DF8		PUTB $D, (R15)
1344	0010		DEC2 R0, R1
1346	C0A0		SLE R0, R10
1348	8AA2		LBI R10, #$A2
134A	C400		SLE R4, R0
134C	0DB0		DEC2 R13, R11
134E	088A		ADDH R8, R8
1350	A245		ADD R2, #$46
1352	4C00		PUTB $C, (R0)+
1354	8ABD		LBI R10, #$BD
1356	3400		MOVE $00, R4
1358	0B63		INC2 R11, R6
135A	7300		MOVB (R0)+, R3
135C	2A74		MOVE R10, $E8
135E	0004		NOP
1360	7400		MOVB (R0)+, R4
1362	2434		MOVE R4, $68
1364	100B		CTRL $0, #$0B
1366	3EFE		MOVE $1FC, R14
1368	4902		PUTB $9, (R0)+++
136A	2600		MOVE R6, $00
136C	FFF0		SUB R15, #$F1
136E	89C1		LBI R9, #$C1
1370	3310		MOVE $20, R3
1372	0B42		INC R11, R4
1374	B610		SET R6, #$10
1376	07DE		GETB R13, $7
1378	1000		CTRL $0, #$00
137A	8A9A		LBI R10, #$9A
137C	7808		MOVB (R0), R8
137E	148A		CTRL $4, #$8A
1380	9AFE		CLR R10, #$FE
1382	3410		MOVE $20, R4
1384	0DB9		SUB R13, R11
1386	B310		SET R3, #$10
1388	09F1		DEC R9, R15
138A	8FEC		LBI R15, #$EC
138C	3410		MOVE $20, R4
138E	0C5C		MHL R12, R5
1390	EB14		
1392	068A		ADDH R6, R8
1394	4EB8		PUTB $E, (R11)
1396	0206		OR R2, R0
1398	8A4E		LBI R10, #$4E
139A	DDF0		MOVE R13, (R15)'
139C	008A		ADDH R0, R8
139E	291C		MOVE R9, $38
13A0	000F		GETA R0, $0
13A2	A401		ADD R4, #$02
13A4	7310		MOVB (R1)+, R3
13A6	0234		MOVE R2, R3
13A8	100C		CTRL $0, #$0C
13AA	5C33		MOVE (R3)++, R12
13AC	100F		CTRL $0, #$0F
13AE	A449		ADD R4, #$4A
13B0	0101		DEC R1, R0
13B2	005B		ADDH2 R0, R5
13B4	F183		SUB R1, #$84
13B6	E4FE		
13B8	3510		MOVE $20, R5
13BA	0DB2		INC R13, R11
13BC	3300		MOVE $00, R3
13BE	0004		NOP
13C0	4000		PUTB $0, (R0)+
13C2	0002		INC R0, R0
13C4	17FE		CTRL $7, #$FE
13C6	288A		MOVE R8, $114
13C8	1C0C		CTRL $C, #$0C
13CA	0910		DEC2 R9, R1
13CC	8C0F		LBI R12, #$0F
13CE	2433		MOVE R4, $66
13D0	2010		JMP ($0020)

13D2	CE32		SE R14, R3
13D4	600D		MOVB R0, (R0)
13D6	B4F8		SET R4, #$F8
13D8	6010		MOVB R0, (R1)+
13DA	3760		MOVE $C0, R7
13DC	0EDB		ADDH2 R14, R13
13DE	3A02		MOVE $04, R10
13E0	0BA5		AND R11, R10
13E2	F12F		SUB R1, #$30
13E4	F8FE		SUB R8, #$FF
13E6	3B02		MOVE $04, R11
13E8	0BA5		AND R11, R10
13EA	BC40		SET R12, #$40
13EC	00C5		AND R0, R12
13EE	200E		JMP ($001C)

13F0	E8C0		
13F2	018A		ADDH R1, R8
13F4	0A33		INC2 R10, R3
13F6	0001		DEC R0, R0
13F8	A435		ADD R4, #$36
13FA	200B		JMP ($0016)

13FC	63F8		MOVB R3, (R15)
13FE	0020		DEC2 R0, R2
1400	C0A0		SLE R0, R10
1402	8AAF		LBI R10, #$AF
1404	C400		SLE R4, R0
1406	0DB0		DEC2 R13, R11
1408	088A		ADDH R8, R8
140A	AF34		ADD R15, #$35
140C	200E		JMP ($001C)

140E	E834		
1410	000B		ADDH2 R0, R0
1412	63FE		MOVB R3, (R15)
1414	3310		MOVE $20, R3
1416	10CE		CTRL $0, #$CE
1418	F177		SUB R1, #$78
141A	F4FE		SUB R4, #$FF
141C	3300		MOVE $00, R3
141E	FFF9		SUB R15, #$FA
1420	3600		MOVE $00, R6
1422	0EE8		ADD R14, R14
1424	3400		MOVE $00, R4
1426	0EA0		DEC2 R14, R10
1428	0C01		DEC R12, R0
142A	0EA2		INC R14, R10
142C	0EE8		ADD R14, R14
142E	0C09		SUB R12, R0
1430	0F24		MOVE R15, R2
1432	108C		CTRL $0, #$8C
1434	F08A		BRA $13AB		; -> -$8B(R0)

1436	49FE		PUTB $9, (R15)
1438	3410		MOVE $20, R4
143A	0EA0		DEC2 R14, R10
143C	3410		MOVE $20, R4
143E	0EA2		INC R14, R10
1440	3200		MOVE $00, R2
1442	0DB4		MOVE R13, R11
1444	F800		SUB R8, #$01
1446	1034		CTRL $0, #$34
1448	000E		GETB R0, $0
144A	A43A		ADD R4, #$3B
144C	200E		JMP ($001C)

144E	D7F0		MOVE R7, (R15)'
1450	8A4E		LBI R10, #$4E
1452	1C01		CTRL $C, #$01
1454	0DAB		ADDH2 R13, R10
1456	0073		INC2 R0, R7
1458	1002		CTRL $0, #$02
145A	3410		MOVE $20, R4
145C	0C5C		MHL R12, R5
145E	F13B		SUB R1, #$3C
1460	B4FE		SET R4, #$FE
1462	ED3A		
1464	068A		ADDH R6, R8
1466	41B3		PUTB $1, (R11)++++
1468	1007		CTRL $0, #$07
146A	3410		MOVE $20, R4
146C	0EA0		DEC2 R14, R10
146E	3410		MOVE $20, R4
1470	0EA2		INC R14, R10
1472	300A		MOVE $14, R0
1474	00FF		GETA R15, $0
1476	3410		MOVE $20, R4
1478	0EA4		MOVE R14, R10
147A	3A20		MOVE $40, R10
147C	0ED7		XOR R14, R13
147E	F08A		BRA $13F5		; -> -$8B(R0)

1480	4EFE		PUTB $E, (R15)
1482	ED22		
1484	068A		ADDH R6, R8
1486	A634		ADD R6, #$35
1488	200E		JMP ($001C)

148A	A0B3		BRA $1540		; $B4(R0)

148C	2007		JMP ($000E)

148E	3420		MOVE $40, R4
1490	0EA2		INC R14, R10
1492	0901		DEC R9, R0
1494	0EA4		MOVE R14, R10
1496	0000		HALT
1498	3B20		MOVE $40, R11
149A	0ED7		XOR R14, R13
149C	3804		MOVE $08, R8
149E	0F24		MOVE R15, R2
14A0	8A58		LBI R10, #$58
14A2	3310		MOVE $20, R3
14A4	0F26		OR R15, R2
14A6	F18F		SUB R1, #$90
14A8	CEFE		SNBC R14, R15
14AA	0C02		INC R12, R0
14AC	0F26		OR R15, R2
14AE	0FA4		MOVE R15, R10
14B0	39C0		MOVE $180, R9
14B2	0F25		AND R15, R2
14B4	8A5D		LBI R10, #$5D
14B6	F08A		BRA $142D		; -> -$8B(R0)

14B8	64FE		MOVB R4, (R15)
14BA	3310		MOVE $20, R3
14BC	0F27		XOR R15, R2
14BE	F183		SUB R1, #$84
14C0	E4FE		
14C2	0C02		INC R12, R0
14C4	0F26		OR R15, R2
14C6	0DB2		INC R13, R11
14C8	3510		MOVE $20, R5
14CA	0DB9		SUB R13, R11
14CC	7880		MOVB (R8)+, R8
14CE	158A		CTRL $5, #$8A
14D0	8BFE		LBI R11, #$FE
14D2	7B80		MOVB (R8)+, R11
14D4	1549		CTRL $5, #$49
14D6	010C		MHL R1, R0
14D8	0000		HALT
14DA	7820		MOVB (R2)+, R8
14DC	118A		CTRL $1, #$8A
14DE	8BFE		LBI R11, #$FE
14E0	3300		MOVE $00, R3
14E2	0094		RET R9

14E4	3520		MOVE $40, R5
14E6	0B63		INC2 R11, R6
14E8	B320		SET R3, #$20
14EA	01F7		XOR R1, R15
14EC	2000		JMP ($0000)

14EE	F620		SUB R6, #$21
14F0	00F8		ADD R0, R15
14F2	0020		DEC2 R0, R2
14F4	C0A0		SLE R0, R10
14F6	8A8B		LBI R10, #$8B
14F8	C400		SLE R4, R0
14FA	0DB0		DEC2 R13, R11
14FC	088A		ADDH R8, R8
14FE	8B9C		LBI R11, #$9C
1500	0100		DEC2 R1, R0
1502	0089		SUB R0, R8
1504	1302		CTRL $3, #$02
1506	0000		HALT
1508	B300		SET R3, #$00
150A	14B4		CTRL $4, #$B4
150C	0004		NOP
150E	E300		
1510	00FE		GETB R15, $0
1512	6C01		MOVB R12, (R0)++
1514	0C0C		MHL R12, R0
1516	7910		MOVB (R1)+, R9
1518	118A		CTRL $1, #$8A
151A	8BFE		LBI R11, #$FE
151C	D500		MOVE R5, (R0)'
151E	0CC0		DEC2 R12, R12
1520	018F		GETA R8, $1
1522	EA78		
1524	4015		PUTB $0, (R1)--
1526	8A98		LBI R10, #$98
1528	F16B		SUB R1, #$6C
152A	E2FE		
152C	C087		SBSH R0, R8
152E	8AAA		LBI R10, #$AA
1530	300E		MOVE $1C, R0
1532	0C5C		MHL R12, R5
1534	3C91		MOVE $122, R12
1536	0BB4		MOVE R11, R11
1538	F03B		BRA $14FE		; -> -$3C(R0)

153A	CEFE		SNBC R14, R15
153C	1C00		CTRL $C, #$00
153E	0BB4		MOVE R11, R11
1540	0CF0		DEC2 R12, R15
1542	3BCE		MOVE $19C, R11
1544	3C1C		MOVE $38, R12
1546	0BB4		MOVE R11, R11
1548	F03B		BRA $150E		; -> -$3C(R0)

154A	CEFE		SNBC R14, R15
154C	3C96		MOVE $12C, R12
154E	0BB4		MOVE R11, R11
1550	F03B		BRA $1516		; -> -$3C(R0)

1552	CEFE		SNBC R14, R15
1554	3300		MOVE $00, R3
1556	F3F0		SUB R3, #$F1
1558	7400		MOVB (R0)+, R4
155A	0CF0		DEC2 R12, R15
155C	8FEA		LBI R15, #$EA
155E	3C9A		MOVE $134, R12
1560	0BB4		MOVE R11, R11
1562	F03B		BRA $1528		; -> -$3C(R0)

1564	CEFE		SNBC R14, R15
1566	00FD		MLH R0, R15
1568	00FE		GETB R15, $0
156A	00FC		MHL R0, R15
156C	0500		DEC2 R5, R0
156E	0000		HALT
1570	0000		HALT
1572	0000		HALT
1574	0000		HALT
1576	0000		HALT
1578	40FE		PUTB $0, (R15)
157A	0401		DEC R4, R0
157C	0000		HALT
157E	0000		HALT
1580	0023		INC2 R0, R2
1582	0000		HALT
1584	0000		HALT
1586	0000		HALT
1588	0000		HALT
158A	C800		SLE R8, R0
158C	0000		HALT
158E	DC00		MOVE R12, (R0)'
1590	0000		HALT
1592	004D		MLH R0, R4
1594	0000		HALT
1596	0023		INC2 R0, R2
1598	0000		HALT
159A	0000		HALT
159C	0001		DEC R0, R0
159E	0000		HALT
15A0	8000		LBI R0, #$00
15A2	00FE		GETB R15, $0
15A4	4040		PUTB $0, (R4)+
15A6	4040		PUTB $0, (R4)+
15A8	4040		PUTB $0, (R4)+
15AA	4040		PUTB $0, (R4)+
15AC	4040		PUTB $0, (R4)+
15AE	4040		PUTB $0, (R4)+
15B0	4040		PUTB $0, (R4)+
15B2	4040		PUTB $0, (R4)+
15B4	4040		PUTB $0, (R4)+
15B6	4040		PUTB $0, (R4)+
15B8	4040		PUTB $0, (R4)+
15BA	4040		PUTB $0, (R4)+
15BC	4040		PUTB $0, (R4)+
15BE	4040		PUTB $0, (R4)+
15C0	4040		PUTB $0, (R4)+
15C2	4040		PUTB $0, (R4)+
15C4	4040		PUTB $0, (R4)+
15C6	40FE		PUTB $0, (R15)
15C8	3310		MOVE $20, R3
15CA	05C1		DEC R5, R12
15CC	3C00		MOVE $00, R12
15CE	0B02		INC R11, R0
15D0	C300		SLE R3, R0
15D2	0B00		DEC2 R11, R0
15D4	3910		MOVE $20, R9
15D6	0BA1		DEC R11, R10
15D8	8AF0		LBI R10, #$F0
15DA	093F		GETA R3, $9
15DC	05C0		DEC2 R5, R12
15DE	0040		DEC2 R0, R4
15E0	C520		SLE R5, R2
15E2	0BB6		OR R11, R11
15E4	C001		SLT R0, R0
15E6	8B90		LBI R11, #$90
15E8	3980		MOVE $100, R9
15EA	0BB5		AND R11, R11
15EC	8BE5		LBI R11, #$E5
15EE	3940		MOVE $80, R9
15F0	0BA2		INC R11, R10
15F2	8B67		LBI R11, #$67
15F4	3901		MOVE $02, R9
15F6	0BA3		INC2 R11, R10
15F8	8B78		LBI R11, #$78
15FA	3940		MOVE $80, R9
15FC	0B6D		MLH R11, R6
15FE	8B73		LBI R11, #$73
1600	3840		MOVE $80, R8
1602	0BB5		AND R11, R11
1604	8B05		LBI R11, #$05
1606	3C40		MOVE $80, R12
1608	0BB5		AND R11, R11
160A	3540		MOVE $80, R5
160C	0BB5		AND R11, R11
160E	F740		SUB R7, #$41
1610	07C0		DEC2 R7, R12
1612	818B		LBI R1, #$8B
1614	293C		MOVE R9, $78
1616	020B		ADDH2 R2, R0
1618	02C3		INC2 R2, R12
161A	000B		ADDH2 R0, R0
161C	00FE		GETB R15, $0
161E	0C3F		GETA R3, $C
1620	0580		DEC2 R5, R8
1622	108C		CTRL $0, #$8C
1624	3310		MOVE $20, R3
1626	05C0		DEC2 R5, R12
1628	3350		MOVE $A0, R3
162A	05FC		MHL R5, R15
162C	3740		MOVE $80, R7
162E	0EDB		ADDH2 R14, R13
1630	F810		SUB R8, #$11
1632	40FA		PUTB $0, (R15)
1634	4050		PUTB $0, (R5)+
1636	088B		ADDH2 R8, R8
1638	1EFB		CTRL $E, #$FB
163A	1050		CTRL $0, #$50
163C	7C8A		MOVB (R8), R12
163E	0033		INC2 R0, R3
1640	1005		CTRL $0, #$05
1642	C133		SZ R1
1644	5000		MOVE (R0)', R0
1646	21F9		MOVE R1, $1F2
1648	4050		PUTB $0, (R5)+
164A	C002		SE R0, R0
164C	8B29		LBI R11, #$29
164E	7310		MOVB (R1)+, R3
1650	32FE		MOVE $1FC, R2
1652	4504		PUTB $5, (R0)-
1654	0002		INC R0, R0
1656	96FE		CLR R6, #$FE
1658	7310		MOVB (R1)+, R3
165A	0632		INC R6, R3
165C	400B		PUTB $0, (R0)
165E	B433		SET R4, #$33
1660	5001		MOVE (R0)+, R0
1662	F4F8		SUB R4, #$F9
1664	4050		PUTB $0, (R5)+
1666	3440		MOVE $80, R4
1668	0F1A		ADDH R15, R1
166A	F10B		SUB R1, #$0C
166C	C6FE		SNBC R6, R15
166E	4B02		PUTB $B, (R0)+++
1670	000F		GETA R0, $0
1672	1838		CTRL $8, #$38
1674	200B		JMP ($0016)

1676	A18B		ADD R1, #$8C
1678	B1FE		SET R1, #$FE
167A	3A02		MOVE $04, R10
167C	0BA1		DEC R11, R10
167E	F08B		BRA $15F4		; -> -$8C(R0)

1680	B1FE		SET R1, #$FE
1682	F950		SUB R9, #$51
1684	5034		MOVE (R3)~, R0
1686	500B		MOVE (R0), R0
1688	B634		SET R6, #$34
168A	500B		MOVE (R0), R0
168C	B43B		SET R4, #$3B
168E	100B		CTRL $0, #$0B
1690	A13B		ADD R1, #$3C
1692	400B		PUTB $0, (R0)
1694	A33B		ADD R3, #$3C
1696	080B		ADDH2 R8, R0
1698	A33B		ADD R3, #$3C
169A	010B		ADDH2 R1, R0
169C	A33B		ADD R3, #$3C
169E	400B		PUTB $0, (R0)
16A0	A23B		ADD R2, #$3C
16A2	400B		PUTB $0, (R0)
16A4	6D3B		MOVB R13, (R3)
16A6	800B		LBI R0, #$0B
16A8	6C3C		MOVB R12, (R3)
16AA	000B		ADDH2 R0, R0
16AC	303C		MOVE $78, R0
16AE	000B		ADDH2 R0, R0
16B0	3138		MOVE $70, R1
16B2	020B		ADDH2 R2, R0
16B4	A18B		ADD R1, #$8C
16B6	60FE		MOVB R0, (R15)
16B8	3B02		MOVE $04, R11
16BA	0BA1		DEC R11, R10
16BC	F00B		BRA $16B2		; -> -$0C(R0)

16BE	F6FE		SUB R6, #$FF
16C0	3808		MOVE $10, R8
16C2	0BA1		DEC R11, R10
16C4	0BFC		MHL R11, R15
16C6	3B08		MOVE $10, R11
16C8	0BA1		DEC R11, R10
16CA	F00B		BRA $16C0		; -> -$0C(R0)

16CC	F8FE		SUB R8, #$FF
16CE	4503		PUTB $5, (R0)++++
16D0	0002		INC R0, R0
16D2	ADFE		ADD R13, #$FF
16D4	3B80		MOVE $100, R11
16D6	00A4		RET R10

16D8	0F10		DEC2 R15, R1
16DA	0B3C		MHL R11, R3
16DC	0B3C		MHL R11, R3
16DE	4B03		PUTB $B, (R0)++++
16E0	050B		ADDH2 R5, R0
16E2	67F0		MOVB R7, (R15)+
16E4	8B41		LBI R11, #$41
16E6	4503		PUTB $5, (R0)++++
16E8	0001		DEC R0, R0
16EA	F5FE		SUB R5, #$FF
16EC	F08B		BRA $1662		; -> -$8C(R0)

16EE	6FFE		MOVB R15, (R15)
16F0	4504		PUTB $5, (R0)-
16F2	0002		INC R0, R0
16F4	54FE		MOVE (R15), R4
16F6	4B03		PUTB $B, (R0)++++
16F8	060D		MLH R6, R0
16FA	B533		SET R5, #$33
16FC	5005		MOVE (R0)-, R0
16FE	FF73		SUB R15, #$74
1700	200B		JMP ($0016)

1702	3510		MOVE $20, R5
1704	0DB7		XOR R13, R11
1706	7310		MOVB (R1)+, R3
1708	07DD		MLH R7, R13
170A	7D00		MOVB (R0)+, R13
170C	8B41		LBI R11, #$41
170E	DCFF		MOVE R12, (R15)
1710	008B		ADDH2 R0, R8
1712	41FA		PUTB $1, (R15)
1714	1050		CTRL $0, #$50
1716	208B		JMP ($0116)

1718	41F1		PUTB $1, (R15)++
171A	0BF2		INC R11, R15
171C	F08B		BRA $1692		; -> -$8C(R0)

171E	87FE		LBI R7, #$FE
1720	4923		PUTB $9, (R2)++++
1722	0000		HALT
1724	40F1		PUTB $0, (R15)++
1726	23E6		MOVE R3, $1CC
1728	4504		PUTB $5, (R0)-
172A	0002		INC R0, R0
172C	96FE		CLR R6, #$FE
172E	7CF0		MOVB (R15)+, R12
1730	066C		MHL R6, R6
1732	0107		XOR R1, R0
1734	0CEB		ADDH2 R12, R14
1736	0A00		DEC2 R10, R0
1738	8BA8		LBI R11, #$A8
173A	6B00		MOVB R11, (R0)+
173C	0B00		DEC2 R11, R0
173E	6B01		MOVB R11, (R0)++
1740	0C01		DEC R12, R0
1742	3980		MOVE $100, R9
1744	0B6C		MHL R11, R6
1746	8BB1		LBI R11, #$B1
1748	6C10		MOVB R12, (R1)+
174A	0F29		SUB R15, R2
174C	F08B		BRA $16C2		; -> -$8C(R0)

174E	B1FE		SET R1, #$FE
1750	2C00		MOVE R12, $00
1752	0B5A		ADDH R11, R5
1754	003E		GETB R3, $0
1756	B70B		SET R7, #$0B
1758	5A4C		MOVE (R4), R10
175A	000B		ADDH2 R0, R0
175C	0B5A		ADDH R11, R5
175E	F08B		BRA $16D4		; -> -$8C(R0)

1760	9FFE		CLR R15, #$FE
1762	3C07		MOVE $0E, R12
1764	0B02		INC R11, R0
1766	C300		SLE R3, R0
1768	0B00		DEC2 R11, R0
176A	3C01		MOVE $02, R12
176C	0B02		INC R11, R0
176E	C300		SLE R3, R0
1770	0B00		DEC2 R11, R0
1772	3350		MOVE $A0, R3
1774	09FF		GETA R15, $9
1776	3360		MOVE $C0, R3
1778	0001		DEC R0, R0
177A	F950		SUB R9, #$51
177C	6039		MOVB R0, (R3)
177E	8000		LBI R0, #$00
1780	A48B		ADD R4, #$8C
1782	C4FE		SNBC R4, R15
1784	C002		SE R0, R0
1786	8BBD		LBI R11, #$BD
1788	3C00		MOVE $00, R12
178A	0B02		INC R11, R0
178C	C300		SLE R3, R0
178E	0B00		DEC2 R11, R0
1790	3350		MOVE $A0, R3
1792	09FF		GETA R15, $9
1794	3360		MOVE $C0, R3
1796	0001		DEC R0, R0
1798	F950		SUB R9, #$51
179A	6039		MOVB R0, (R3)
179C	8000		LBI R0, #$00
179E	A48B		ADD R4, #$8C
17A0	D5FE		MOVE R5, (R15)
17A2	C002		SE R0, R0
17A4	8BCC		LBI R11, #$CC
17A6	F08B		BRA $171C		; -> -$8C(R0)

17A8	B5FE		SET R5, #$FE
17AA	3B80		MOVE $100, R11
17AC	00A4		RET R10

17AE	3A08		MOVE $10, R10
17B0	0BA1		DEC R11, R10
17B2	C500		SLE R5, R0
17B4	0B3C		MHL R11, R3
17B6	C081		SLT R0, R8
17B8	8B41		LBI R11, #$41
17BA	3901		MOVE $02, R9
17BC	0BA5		AND R11, R10
17BE	8B41		LBI R11, #$41
17C0	F900		SUB R9, #$01
17C2	0034		RET R3

17C4	000B		ADDH2 R0, R0
17C6	3CF0		MOVE $1E0, R12
17C8	8B41		LBI R11, #$41
17CA	0905		AND R9, R0
17CC	05C0		DEC2 R5, R12
17CE	0040		DEC2 R0, R4
17D0	3920		MOVE $40, R9
17D2	0BA1		DEC R11, R10
17D4	8B41		LBI R11, #$41
17D6	3901		MOVE $02, R9
17D8	0B6D		MLH R11, R6
17DA	8C09		LBI R12, #$09
17DC	3902		MOVE $04, R9
17DE	0B6D		MLH R11, R6
17E0	8C10		LBI R12, #$10
17E2	4504		PUTB $5, (R0)-
17E4	0002		INC R0, R0
17E6	AFFE		ADD R15, #$FF
17E8	3940		MOVE $80, R9
17EA	0BA3		INC2 R11, R10
17EC	8B41		LBI R11, #$41
17EE	3540		MOVE $80, R5
17F0	0DB0		DEC2 R13, R11
17F2	3740		MOVE $80, R7
17F4	0B63		INC2 R11, R6
17F6	3440		MOVE $80, R4
17F8	0F1A		ADDH R15, R1
17FA	F10B		SUB R1, #$0C
17FC	C6FE		SNBC R6, R15
17FE	0B05		AND R11, R0
1800	0F48		ADD R15, R4
1802	0F17		XOR R15, R1
1804	3C40		MOVE $80, R12
1806	0F48		ADD R15, R4
1808	0C05		AND R12, R0
180A	05F6		OR R5, R15
180C	0F48		ADD R15, R4
180E	F08B		BRA $1784		; -> -$8C(R0)

1810	41FE		PUTB $1, (R15)
1812	4502		PUTB $5, (R0)+++
1814	0002		INC R0, R0
1816	00FE		GETB R15, $0
1818	4C00		PUTB $C, (R0)+
181A	050B		ADDH2 R5, R0
181C	56F0		MOVE (R15)', R6
181E	8BF7		LBI R11, #$F7
1820	4503		PUTB $5, (R0)++++
1822	0002		INC R0, R0
1824	51FE		MOVE (R15), R1
1826	F08B		BRA $179C		; -> -$8C(R0)

1828	F7FE		SUB R7, #$FF
182A	FB70		SUB R11, #$71
182C	8009		LBI R0, #$09
182E	0D0E		GETB R0, $D
1830	9200		CLR R2, #$00
1832	001C		MHL R0, R1
1834	010F		GETA R0, $1
1836	2400		MOVE R4, $00
1838	7310		MOVB (R1)+, R3
183A	0238		ADD R2, R3
183C	040F		GETA R0, $4
183E	248C		MOVE R4, $118
1840	25FE		MOVE R5, $1FC
1842	1C02		CTRL $C, #$02
1844	0F26		OR R15, R2
1846	0073		INC2 R0, R7
1848	1003		CTRL $0, #$03
184A	39C0		MOVE $180, R9
184C	0F25		AND R15, R2
184E	8C2A		LBI R12, #$2A
1850	F08C		BRA $17C5		; -> -$8D(R0)

1852	2EFE		MOVE R14, $1FC
1854	1C02		CTRL $C, #$02
1856	0F26		OR R15, R2
1858	0073		INC2 R0, R7
185A	1003		CTRL $0, #$03
185C	3880		MOVE $100, R8
185E	0F24		MOVE R15, R2
1860	8C35		LBI R12, #$35
1862	1C01		CTRL $C, #$01
1864	0E92		INC R14, R9
1866	0073		INC2 R0, R7
1868	1002		CTRL $0, #$02
186A	3840		MOVE $80, R8
186C	0F24		MOVE R15, R2
186E	8C3C		LBI R12, #$3C
1870	1C01		CTRL $C, #$01
1872	0E94		MOVE R14, R9
1874	0073		INC2 R0, R7
1876	1002		CTRL $0, #$02
1878	3820		MOVE $40, R8
187A	0F24		MOVE R15, R2
187C	8C43		LBI R12, #$43
187E	1C01		CTRL $C, #$01
1880	0E98		ADD R14, R9
1882	0073		INC2 R0, R7
1884	1002		CTRL $0, #$02
1886	3810		MOVE $20, R8
1888	0F24		MOVE R15, R2
188A	8C4A		LBI R12, #$4A
188C	1C01		CTRL $C, #$01
188E	0E96		OR R14, R9
1890	0073		INC2 R0, R7
1892	1002		CTRL $0, #$02
1894	3808		MOVE $10, R8
1896	0F24		MOVE R15, R2
1898	8C51		LBI R12, #$51
189A	1C01		CTRL $C, #$01
189C	0E9A		ADDH R14, R9
189E	0073		INC2 R0, R7
18A0	1002		CTRL $0, #$02
18A2	3802		MOVE $04, R8
18A4	0F24		MOVE R15, R2
18A6	8C58		LBI R12, #$58
18A8	1C01		CTRL $C, #$01
18AA	0E9C		MHL R14, R9
18AC	0073		INC2 R0, R7
18AE	1002		CTRL $0, #$02
18B0	3801		MOVE $02, R8
18B2	0F24		MOVE R15, R2
18B4	8C5F		LBI R12, #$5F
18B6	1C01		CTRL $C, #$01
18B8	0E9E		GETB R9, $E
18BA	0073		INC2 R0, R7
18BC	1002		CTRL $0, #$02
18BE	FC70		SUB R12, #$71
18C0	00FE		GETB R15, $0
18C2	3510		MOVE $20, R5
18C4	0DB9		SUB R13, R11
18C6	7A80		MOVB (R8)+, R10
18C8	1533		CTRL $5, #$33
18CA	00F1		DEC R0, R15
18CC	F0D4		BRA $17F9		; -> -$D5(R0)

18CE	000C		MHL R0, R0
18D0	208C		JMP ($0118)

18D2	7F33		MOVB (R3)++++, R15
18D4	00F0		DEC2 R0, R15
18D6	F9D4		SUB R9, #$D5
18D8	000C		MHL R0, R0
18DA	208C		JMP ($0118)

18DC	7F33		MOVB (R3)++++, R15
18DE	00F3		INC2 R0, R15
18E0	F0D4		BRA $180D		; -> -$D5(R0)

18E2	000C		MHL R0, R0
18E4	5023		MOVE (R2)++, R0
18E6	E4FE		
18E8	3310		MOVE $20, R3
18EA	0E98		ADD R14, R9
18EC	F08C		BRA $1861		; -> -$8D(R0)

18EE	81FE		LBI R1, #$FE
18F0	3510		MOVE $20, R5
18F2	0DB9		SUB R13, R11
18F4	3300		MOVE $00, R3
18F6	F1F0		SUB R1, #$F1
18F8	7400		MOVB (R0)+, R4
18FA	0C7A		ADDH R12, R7
18FC	8015		LBI R0, #$15
18FE	3310		MOVE $20, R3
1900	0E94		MOVE R14, R9
1902	3C00		MOVE $00, R12
1904	0ED9		SUB R14, R13
1906	F08C		BRA $187B		; -> -$8D(R0)

1908	AAFE		ADD R10, #$FF
190A	3C89		MOVE $112, R12
190C	0ED9		SUB R14, R13
190E	3310		MOVE $20, R3
1910	0E9A		ADDH R14, R9
1912	F08C		BRA $1887		; -> -$8D(R0)

1914	9BFE		CLR R11, #$FE
1916	3C88		MOVE $110, R12
1918	0ED9		SUB R14, R13
191A	3310		MOVE $20, R3
191C	0E9C		MHL R14, R9
191E	F08C		BRA $1893		; -> -$8D(R0)

1920	9BFE		CLR R11, #$FE
1922	3C87		MOVE $10E, R12
1924	0ED9		SUB R14, R13
1926	3310		MOVE $20, R3
1928	0E9E		GETB R9, $E
192A	F08C		BRA $189F		; -> -$8D(R0)

192C	9BFE		CLR R11, #$FE
192E	3C86		MOVE $10C, R12
1930	0ED9		SUB R14, R13
1932	3310		MOVE $20, R3
1934	0E96		OR R14, R9
1936	3520		MOVE $40, R5
1938	0B65		AND R11, R6
193A	EA08		
193C	068C		MHL R6, R8
193E	A7E8		ADD R7, #$E9
1940	0B06		OR R11, R0
1942	8CA7		LBI R12, #$A7
1944	3520		MOVE $40, R5
1946	0DB9		SUB R13, R11
1948	8F20		LBI R15, #$20
194A	260E		MOVE R6, $1C
194C	DAFE		MOVE R10, (R15)
194E	0901		DEC R9, R0
1950	0DB9		SUB R13, R11
1952	0000		HALT
1954	0C00		DEC2 R12, R0
1956	0BB4		MOVE R11, R11
1958	0ED9		SUB R14, R13
195A	0C01		DEC R12, R0
195C	0BB6		OR R11, R11
195E	0DB9		SUB R13, R11
1960	F16B		SUB R1, #$6C
1962	E6FE		
1964	3410		MOVE $20, R4
1966	0F29		SUB R15, R2
1968	3B20		MOVE $40, R11
196A	0DBF		GETA R11, $D
196C	D510		MOVE R5, (R1)'
196E	00C0		DEC2 R0, R12
1970	018C		MHL R1, R8
1972	CFC5		SBS R15, R12
1974	100E		CTRL $0, #$0E
1976	92C0		CLR R2, #$C0
1978	018C		MHL R1, R8
197A	C0FE		SNBC R0, R15
197C	F03B		BRA $1942		; -> -$3C(R0)

197E	CEFE		SNBC R14, R15
1980	3410		MOVE $20, R4
1982	0DAB		ADDH2 R13, R10
1984	F13B		SUB R1, #$3C
1986	B4FE		SET R4, #$FE
1988	ED1F		STAT R1, $D
198A	068C		MHL R6, R8
198C	DAB3		MOVE R10, (R11)++
198E	1007		CTRL $0, #$07
1990	F18F		SUB R1, #$90
1992	ECFE		
1994	3510		MOVE $20, R5
1996	0F29		SUB R15, R2
1998	DE10		MOVE R14, (R1)'
199A	008C		MHL R0, R8
199C	BEFE		SET R14, #$FE
199E	3410		MOVE $20, R4
19A0	0DAB		ADDH2 R13, R10
19A2	F13B		SUB R1, #$3C
19A4	B4FE		SET R4, #$FE
19A6	3C00		MOVE $00, R12
19A8	0BB4		MOVE R11, R11
19AA	0901		DEC R9, R0
19AC	0BB6		OR R11, R11
19AE	0000		HALT
19B0	F03B		BRA $1976		; -> -$3C(R0)

19B2	D6FE		MOVE R6, (R15)
19B4	3C98		MOVE $130, R12
19B6	0BB4		MOVE R11, R11
19B8	F03B		BRA $197E		; -> -$3C(R0)

19BA	CEFE		SNBC R14, R15
19BC	B310		SET R3, #$10
19BE	09FE		GETB R15, $9
19C0	F16B		SUB R1, #$6C
19C2	FCFE		SUB R12, #$FF
19C4	9C00		CLR R12, #$00
19C6	0800		DEC2 R8, R0
19C8	7310		MOVB (R1)+, R3
19CA	01F1		DEC R1, R15
19CC	6BFC		MOVB R11, (R15)
19CE	FB50		SUB R11, #$51
19D0	10CD		CTRL $0, #$CD
19D2	000E		GETB R0, $0
19D4	B68D		SET R6, #$8D
19D6	1530		CTRL $5, #$30
19D8	1C0E		CTRL $C, #$0E
19DA	B0D7		SET R0, #$D7
19DC	0800		DEC2 R8, R0
19DE	301C		MOVE $38, R0
19E0	0EB0		DEC2 R14, R11
19E2	3C01		MOVE $02, R12
19E4	0F9C		MHL R15, R9
19E6	D706		MOVE R7, (R0)-~
19E8	00C0		DEC2 R0, R12
19EA	818D		LBI R1, #$8D
19EC	623C		MOVB R2, (R3)
19EE	040F		GETA R0, $4
19F0	9CC0		CLR R12, #$C0
19F2	828C		LBI R2, #$8C
19F4	FD3C		SUB R13, #$3D
19F6	020F		GETA R0, $2
19F8	9CFE		CLR R12, #$FE
19FA	3530		MOVE $60, R5
19FC	01F0		DEC2 R1, R15
19FE	7E80		MOVB (R8)+, R14
1A00	00D7		XOR R0, R13
1A02	0000		HALT
1A04	7E80		MOVB (R8)+, R14
1A06	0034		RET R3

1A08	3001		MOVE $02, R0
1A0A	F009		BRA $1A02		; -> -$0A(R0)

1A0C	070F		GETA R0, $7
1A0E	2400		MOVE R4, $00
1A10	00C7		XOR R0, R12
1A12	0C0F		GETA R0, $C
1A14	243B		MOVE R4, $76
1A16	800F		LBI R0, #$0F
1A18	240D		MOVE R4, $1A
1A1A	070F		GETA R0, $7
1A1C	2401		MOVE R4, $02
1A1E	6800		MOVB R8, (R0)+
1A20	8D62		LBI R13, #$62
1A22	3C01		MOVE $02, R12
1A24	0F9C		MHL R15, R9
1A26	F08D		BRA $199A		; -> -$8E(R0)

1A28	62FE		MOVB R2, (R15)
1A2A	3510		MOVE $20, R5
1A2C	0EB4		MOVE R14, R11
1A2E	3230		MOVE $60, R2
1A30	0EB6		OR R14, R11
1A32	3006		MOVE $0C, R0
1A34	0EB0		DEC2 R14, R11
1A36	C410		SLE R4, R1
1A38	0EC2		INC R14, R12
1A3A	108D		CTRL $0, #$8D
1A3C	2134		MOVE R1, $68
1A3E	100E		CTRL $0, #$0E
1A40	C4FE		SNBC R4, R15
1A42	3520		MOVE $40, R5
1A44	0EB4		MOVE R14, R11
1A46	3240		MOVE $80, R2
1A48	0EB6		OR R14, R11
1A4A	3006		MOVE $0C, R0
1A4C	0EB0		DEC2 R14, R11
1A4E	C420		SLE R4, R2
1A50	0EC2		INC R14, R12
1A52	108D		CTRL $0, #$8D
1A54	2D34		MOVE R13, $68
1A56	200E		JMP ($001C)

1A58	C4FE		SNBC R4, R15
1A5A	3360		MOVE $C0, R3
1A5C	003C		MHL R0, R3
1A5E	0977		XOR R9, R7
1A60	0F24		MOVE R15, R2
1A62	0040		DEC2 R0, R4
1A64	FA40		SUB R10, #$41
1A66	6008		MOVB R0, (R0)
1A68	8D3C		LBI R13, #$3C
1A6A	2460		MOVE R4, $C0
1A6C	0F24		MOVE R15, R2
1A6E	00F9		SUB R0, R15
1A70	4060		PUTB $0, (R6)+
1A72	F820		SUB R8, #$21
1A74	60F0		MOVB R0, (R15)+
1A76	8D40		LBI R13, #$40
1A78	2440		MOVE R4, $80
1A7A	0F24		MOVE R15, R2
1A7C	00F9		SUB R0, R15
1A7E	4040		PUTB $0, (R4)+
1A80	FA30		SUB R10, #$31
1A82	6008		MOVB R0, (R0)
1A84	8D4A		LBI R13, #$4A
1A86	1460		CTRL $4, #$60
1A88	0F60		DEC2 R15, R6
1A8A	00F9		SUB R0, R15
1A8C	3060		MOVE $C0, R0
1A8E	F810		SUB R8, #$11
1A90	60F0		MOVB R0, (R15)+
1A92	8D4E		LBI R13, #$4E
1A94	1430		CTRL $4, #$30
1A96	0F60		DEC2 R15, R6
1A98	00F9		SUB R0, R15
1A9A	3030		MOVE $60, R0
1A9C	3C04		MOVE $08, R12
1A9E	0F9C		MHL R15, R9
1AA0	0D3B		ADDH2 R13, R3
1AA2	0F24		MOVE R15, R2
1AA4	0F60		DEC2 R15, R6
1AA6	008D		MLH R0, R8
1AA8	623C		MOVB R2, (R3)
1AAA	020F		GETA R0, $2
1AAC	9C0D		CLR R12, #$0D
1AAE	3B0F		MOVE $1E, R11
1AB0	240F		MOVE R4, $1E
1AB2	6010		MOVB R0, (R1)+
1AB4	8D62		LBI R13, #$62
1AB6	3C01		MOVE $02, R12
1AB8	0F9C		MHL R15, R9
1ABA	FB00		SUB R11, #$01
1ABC	40F8		PUTB $0, (R15)
1ABE	0030		DEC2 R0, R3
1AC0	C001		SLT R0, R0
1AC2	8D2F		LBI R13, #$2F
1AC4	3520		MOVE $40, R5
1AC6	0B65		AND R11, R6
1AC8	0511		DEC R5, R1
1ACA	0F24		MOVE R15, R2
1ACC	8DA6		LBI R13, #$A6
1ACE	3310		MOVE $20, R3
1AD0	0F21		DEC R15, R2
1AD2	7310		MOVB (R1)+, R3
1AD4	036D		MLH R3, R6
1AD6	0000		HALT
1AD8	0828		ADD R8, R2
1ADA	8D69		LBI R13, #$69
1ADC	7500		MOVB (R0)+, R5
1ADE	01FB		ADDH2 R1, R15
1AE0	1050		CTRL $0, #$50
1AE2	FC00		SUB R12, #$01
1AE4	00FE		GETB R15, $0
1AE6	3905		MOVE $0A, R9
1AE8	0F9C		MHL R15, R9
1AEA	8D9F		LBI R13, #$9F
1AEC	F08D		BRA $1A60		; -> -$8E(R0)

1AEE	8FFE		LBI R15, #$FE
1AF0	3904		MOVE $08, R9
1AF2	0F9C		MHL R15, R9
1AF4	8D9F		LBI R13, #$9F
1AF6	F08D		BRA $1A6A		; -> -$8E(R0)

1AF8	8FFE		LBI R15, #$FE
1AFA	3906		MOVE $0C, R9
1AFC	0F9C		MHL R15, R9
1AFE	8D9F		LBI R13, #$9F
1B00	F08D		BRA $1A74		; -> -$8E(R0)

1B02	8FFE		LBI R15, #$FE
1B04	3902		MOVE $04, R9
1B06	0F9C		MHL R15, R9
1B08	8D9F		LBI R13, #$9F
1B0A	F08D		BRA $1A7E		; -> -$8E(R0)

1B0C	8FFE		LBI R15, #$FE
1B0E	3903		MOVE $06, R9
1B10	0F9C		MHL R15, R9
1B12	8D9F		LBI R13, #$9F
1B14	F08D		BRA $1A88		; -> -$8E(R0)

1B16	8FFE		LBI R15, #$FE
1B18	3901		MOVE $02, R9
1B1A	0F9C		MHL R15, R9
1B1C	8D9F		LBI R13, #$9F
1B1E	DCFE		MOVE R12, (R15)
1B20	008D		MLH R0, R8
1B22	99DC		CLR R9, #$DC
1B24	4F00		PUTB $F, (R0)+
1B26	8D97		LBI R13, #$97
1B28	7310		MOVB (R1)+, R3
1B2A	01F0		DEC2 R1, R15
1B2C	8CE0		LBI R12, #$E0
1B2E	3008		MOVE $10, R0
1B30	00FE		GETB R15, $0
1B32	1C01		CTRL $C, #$01
1B34	0DAB		ADDH2 R13, R10
1B36	01F1		DEC R1, R15
1B38	3BB4		MOVE $168, R11
1B3A	F03B		BRA $1B00		; -> -$3C(R0)

1B3C	D6FE		MOVE R6, (R15)
1B3E	DCFE		MOVE R12, (R15)
1B40	003B		ADDH2 R0, R3
1B42	D8DD		MOVE R8, (R13)
1B44	4F00		PUTB $F, (R0)+
1B46	3BD8		MOVE $1B0, R11
1B48	F08D		BRA $1ABC		; -> -$8E(R0)

1B4A	94FE		CLR R4, #$FE
1B4C	7E8D		MOVB (R8), R14
1B4E	7D4C		MOVB (R4), R13
1B50	8D73		LBI R13, #$73
1B52	6E8D		MOVB R14, (R8)
1B54	87AE		LBI R7, #$AE
1B56	8D82		LBI R13, #$82
1B58	8C8D		LBI R12, #$8D
1B5A	78BE		MOVB (R11), R8
1B5C	8D8C		LBI R13, #$8C
1B5E	3C02		MOVE $04, R12
1B60	0F5A		ADDH R15, R5
1B62	F08D		BRA $1AD6		; -> -$8E(R0)

1B64	B9FE		SET R9, #$FE
1B66	3C01		MOVE $02, R12
1B68	0F5A		ADDH R15, R5
1B6A	F08D		BRA $1ADE		; -> -$8E(R0)

1B6C	B9FE		SET R9, #$FE
1B6E	3C00		MOVE $00, R12
1B70	0F5A		ADDH R15, R5
1B72	300C		MOVE $18, R0
1B74	0F54		MOVE R15, R5
1B76	3320		MOVE $40, R3
1B78	0F24		MOVE R15, R2
1B7A	301C		MOVE $38, R0
1B7C	0EB0		DEC2 R14, R11
1B7E	D708		MOVE R7, (R0)
1B80	0079		SUB R0, R7
1B82	8000		LBI R0, #$00
1B84	8E16		LBI R14, #$16
1B86	DC00		MOVE R12, (R0)'
1B88	018E		GETB R8, $1
1B8A	16D7		CTRL $6, #$D7
1B8C	0400		DEC2 R4, R0
1B8E	E70C		
1B90	0089		SUB R0, R8
1B92	0708		ADD R7, R0
1B94	0000		HALT
1B96	BC46		SET R12, #$46
1B98	08AC		MHL R8, R10
1B9A	000B		ADDH2 R0, R0
1B9C	0083		INC2 R0, R8
1B9E	100A		CTRL $0, #$0A
1BA0	0001		DEC R0, R0
1BA2	3310		MOVE $20, R3
1BA4	0000		HALT
1BA6	EB80		
1BA8	018D		MLH R1, R8
1BAA	E173		
1BAC	1001		CTRL $0, #$01
1BAE	EB40		
1BB0	018D		MLH R1, R8
1BB2	DF73		MOVE R15, (R7)++
1BB4	1001		CTRL $0, #$01
1BB6	EB20		
1BB8	018D		MLH R1, R8
1BBA	DF73		MOVE R15, (R7)++
1BBC	1001		CTRL $0, #$01
1BBE	9360		CLR R3, #$60
1BC0	01FF		GETA R15, $1
1BC2	BC40		SET R12, #$40
1BC4	0085		AND R0, R8
1BC6	1F10		CTRL $F, #$10
1BC8	8E1A		LBI R14, #$1A
1BCA	C706		SBC R7, R0
1BCC	1080		CTRL $0, #$80
1BCE	C084		SS R0
1BD0	8DEE		LBI R13, #$EE
1BD2	C081		SLT R0, R8
1BD4	8E13		LBI R14, #$13
1BD6	BE00		SET R14, #$00
1BD8	00F0		DEC2 R0, R15
1BDA	8DF0		LBI R13, #$F0
1BDC	E706		
1BDE	28FE		MOVE R8, $1FC
1BE0	E708		
1BE2	00E7		XOR R0, R14
1BE4	3600		MOVE $00, R6
1BE6	C082		SE R0, R8
1BE8	8E01		LBI R14, #$01
1BEA	E70C		
1BEC	00E7		XOR R0, R14
1BEE	0A08		ADD R10, R0
1BF0	B410		SET R4, #$10
1BF2	0ABC		MHL R10, R11
1BF4	010A		ADDH R1, R0
1BF6	BCC6		SET R12, #$C6
1BF8	08E7		XOR R8, R14
1BFA	0008		ADD R0, R0
1BFC	E702		
1BFE	20E7		JMP ($01CE)

1C00	0000		HALT
1C02	EC00		
1C04	368E		MOVE $11C, R6
1C06	0AEC		MHL R10, R14
1C08	0136		OR R1, R3
1C0A	8E08		LBI R14, #$08
1C0C	AC07		ADD R12, #$08
1C0E	1810		CTRL $8, #$10
1C10	E716		
1C12	18FE		CTRL $8, #$FE
1C14	CC08		SGT R12, R0
1C16	0EBF		GETA R11, $E
1C18	8E0F		LBI R14, #$0F
1C1A	D714		MOVE R7, (R1)~
1C1C	00FE		GETB R15, $0
1C1E	301A		MOVE $34, R0
1C20	0EBA		ADDH R14, R11
1C22	B00E		SET R0, #$0E
1C24	30FE		MOVE $1FC, R0
1C26	E70E		
1C28	00F0		DEC2 R0, R15
1C2A	8E0F		LBI R14, #$0F
1C2C	3CCF		MOVE $19E, R12
1C2E	0BB4		MOVE R11, R11
1C30	F03B		BRA $1BF6		; -> -$3C(R0)

1C32	D0FE		JMP (R15)
1C34	40B1		PUTB $0, (R11)++
1C36	7217		MOVB (R1)----, R2
1C38	F7D1		SUB R7, #$D2
1C3A	CF77		SBSH R15, R7
1C3C	4124		PUTB $1, (R2)-
1C3E	D763		MOVE R7, (R6)++
1C40	776A		MOVB (R6), R7
1C42	AA2A		ADD R10, #$2B
1C44	40B1		PUTB $0, (R11)++
1C46	7217		MOVB (R1)----, R2
1C48	F7D1		SUB R7, #$D2
1C4A	CF79		SGE R15, R7
1C4C	4111		PUTB $1, (R1)++
1C4E	0000		HALT
1C50	0000		HALT
1C52	0000		HALT
1C54	B310		SET R3, #$10
1C56	09F1		DEC R9, R15
1C58	6BFC		MOVB R11, (R15)
1C5A	7310		MOVB (R1)+, R3
1C5C	01F1		DEC R1, R15
1C5E	6BFC		MOVB R11, (R15)
1C60	DCFF		MOVE R12, (R15)
1C62	008E		GETB R8, $0
1C64	3873		MOVE $E6, R8
1C66	1001		CTRL $0, #$01
1C68	F16B		SUB R1, #$6C
1C6A	FCFE		SUB R12, #$FF
1C6C	F08E		BRA $1BDF		; -> -$8F(R0)

1C6E	3EFE		MOVE $1FC, R14
1C70	3310		MOVE $20, R3
1C72	1080		CTRL $0, #$80
1C74	3410		MOVE $20, R4
1C76	0EB4		MOVE R14, R11
1C78	3018		MOVE $30, R0
1C7A	0EB0		DEC2 R14, R11
1C7C	3310		MOVE $20, R3
1C7E	0F34		MOVE R15, R3
1C80	7C10		MOVB (R1)+, R12
1C82	026C		MHL R2, R6
1C84	0103		INC2 R1, R0
1C86	046C		MHL R4, R6
1C88	0100		DEC2 R1, R0
1C8A	07F1		DEC R7, R15
1C8C	83E4		LBI R3, #$E4
1C8E	3310		MOVE $20, R3
1C90	0F34		MOVE R15, R3
1C92	7BF0		MOVB (R15)+, R11
1C94	01ED		MLH R1, R14
1C96	4008		PUTB $0, (R0)
1C98	8E4F		LBI R14, #$4F
1C9A	7C0A		MOVB (R0), R12
1C9C	01FE		GETB R15, $1
1C9E	3016		MOVE $2C, R0
1CA0	0DAE		GETB R10, $D
1CA2	3410		MOVE $20, R4
1CA4	0DB2		INC R13, R11
1CA6	2C01		MOVE R12, $02
1CA8	0F34		MOVE R15, R3
1CAA	07FE		GETB R15, $7
1CAC	E520		
1CAE	00C0		DEC2 R0, R12
1CB0	818E		LBI R1, #$8E
1CB2	7FED		MOVB (R14), R15
1CB4	2906		MOVE R9, $0C
1CB6	8E62		LBI R14, #$62
1CB8	3E10		MOVE $20, R14
1CBA	0F36		OR R15, R3
1CBC	C020		SLE R0, R2
1CBE	8E56		LBI R14, #$56
1CC0	F08E		BRA $1C33		; -> -$8F(R0)

1CC2	7FFE		MOVB (R15), R15
1CC4	ED2A		
1CC6	068E		GETB R8, $6
1CC8	563F		MOVE (R3), R6
1CCA	100F		CTRL $0, #$0F
1CCC	36C0		MOVE $180, R6
1CCE	018E		GETB R8, $1
1CD0	562D		MOVE (R2), R6
1CD2	010F		GETA R0, $1
1CD4	3407		MOVE $0E, R4
1CD6	288E		MOVE R8, $11C
1CD8	7F8C		MOVB (R8), R15
1CDA	011B		ADDH2 R1, R1
1CDC	0DB2		INC R13, R11
1CDE	301C		MOVE $38, R0
1CE0	0EB0		DEC2 R14, R11
1CE2	9C07		CLR R12, #$07
1CE4	1300		CTRL $3, #$00
1CE6	301C		MOVE $38, R0
1CE8	0EB0		DEC2 R14, R11
1CEA	9C07		CLR R12, #$07
1CEC	0B00		DEC2 R11, R0
1CEE	8C01		LBI R12, #$01
1CF0	090F		GETA R0, $9
1CF2	3730		MOVE $60, R7
1CF4	1C0E		CTRL $C, #$0E
1CF6	B0D7		SET R0, #$D7
1CF8	0800		DEC2 R8, R0
1CFA	F08F		BRA $1C6C		; -> -$90(R0)

1CFC	D0FE		JMP (R15)
1CFE	3CAA		MOVE $154, R12
1D00	0BB4		MOVE R11, R11
1D02	3C0C		MOVE $18, R12
1D04	0ED9		SUB R14, R13
1D06	0F10		DEC2 R15, R1
1D08	0EB2		INC R14, R11
1D0A	0ED8		ADD R14, R13
1D0C	F03B		BRA $1CD2		; -> -$3C(R0)

1D0E	CEFE		SNBC R14, R15
1D10	1C00		CTRL $C, #$00
1D12	0DC0		DEC2 R13, R12
1D14	00FE		GETB R15, $0
1D16	DC6B		MOVE R12, (R6)
1D18	008E		GETB R8, $0
1D1A	90DD		CLR R0, #$DD
1D1C	5E00		MOVE (R0)', R14
1D1E	8E93		LBI R14, #$93
1D20	7310		MOVB (R1)+, R3
1D22	01F0		DEC2 R1, R15
1D24	8E8B		LBI R14, #$8B
1D26	DDFF		MOVE R13, (R15)
1D28	008E		GETB R8, $0
1D2A	ABEB		ADD R11, #$EC
1D2C	1406		CTRL $4, #$06
1D2E	8EDE		LBI R14, #$DE
1D30	B802		SET R8, #$02
1D32	068E		GETB R8, $6
1D34	DEFE		MOVE R14, (R15)
1D36	3920		MOVE $40, R9
1D38	0ED7		XOR R14, R13
1D3A	8EA2		LBI R14, #$A2
1D3C	F147		SUB R1, #$48
1D3E	EEFE		
1D40	F08E		BRA $1CB3		; -> -$8F(R0)

1D42	DEFE		MOVE R14, (R15)
1D44	F147		SUB R1, #$48
1D46	E4FE		
1D48	CC5E		SNBC R12, R5
1D4A	0DC0		DEC2 R13, R12
1D4C	8EDE		LBI R14, #$DE
1D4E	F13B		SUB R1, #$3C
1D50	C2FE		SNBC R2, R15
1D52	F08E		BRA $1CC5		; -> -$8F(R0)

1D54	DEFE		MOVE R14, (R15)
1D56	DC6B		MOVE R12, (R6)
1D58	008E		GETB R8, $0
1D5A	B0DD		SET R0, #$DD
1D5C	5E00		MOVE (R0)', R14
1D5E	8EB3		LBI R14, #$B3
1D60	7310		MOVB (R1)+, R3
1D62	01F0		DEC2 R1, R15
1D64	8EAB		LBI R14, #$AB
1D66	3300		MOVE $00, R3
1D68	0003		INC2 R0, R0
1D6A	4000		PUTB $0, (R0)+
1D6C	0002		INC R0, R0
1D6E	86FE		LBI R6, #$FE
1D70	288E		MOVE R8, $11C
1D72	C373		SZ R3
1D74	1003		CTRL $0, #$03
1D76	3300		MOVE $00, R3
1D78	8EDB		LBI R14, #$DB
1D7A	3400		MOVE $00, R4
1D7C	0DB7		XOR R13, R11
1D7E	3A80		MOVE $100, R10
1D80	0ED7		XOR R14, R13
1D82	F02F		BRA $1D54		; -> -$30(R0)

1D84	EAFE		
1D86	F16B		SUB R1, #$6C
1D88	FCFE		SUB R12, #$FF
1D8A	1C00		CTRL $C, #$00
1D8C	0DC0		DEC2 R13, R12
1D8E	003B		ADDH2 R0, R3
1D90	050E		GETB R0, $5
1D92	D6FE		MOVE R6, (R15)
1D94	DC6B		MOVE R12, (R6)
1D96	008E		GETB R8, $0
1D98	CFDD		SNBS R15, R13
1D9A	5E00		MOVE (R0)', R14
1D9C	8ED2		LBI R14, #$D2
1D9E	7310		MOVB (R1)+, R3
1DA0	01F0		DEC2 R1, R15
1DA2	8ECA		LBI R14, #$CA
1DA4	DDFF		MOVE R13, (R15)
1DA6	008E		GETB R8, $0
1DA8	D73A		MOVE R7, (R3)
1DAA	040E		GETB R0, $4
1DAC	D6FE		MOVE R6, (R15)
1DAE	3500		MOVE $00, R5
1DB0	0DB5		AND R13, R11
1DB2	FD00		SUB R13, #$01
1DB4	00FE		GETB R15, $0
1DB6	3804		MOVE $08, R8
1DB8	0ED6		OR R14, R13
1DBA	8EAB		LBI R14, #$AB
1DBC	3B20		MOVE $40, R11
1DBE	0DBF		GETA R11, $D
1DC0	F03B		BRA $1D86		; -> -$3C(R0)

1DC2	D8FE		MOVE R8, (R15)
1DC4	E510		
1DC6	09C0		DEC2 R9, R12
1DC8	018E		GETB R8, $1
1DCA	E93C		
1DCC	AB0B		ADD R11, #$0C
1DCE	B4F0		SET R4, #$F0
1DD0	3BCE		MOVE $19C, R11
1DD2	B510		SET R5, #$10
1DD4	1B75		CTRL $B, #$75
1DD6	1002		CTRL $0, #$02
1DD8	D708		MOVE R7, (R0)
1DDA	00E7		XOR R0, R14
1DDC	0013		INC2 R0, R1
1DDE	E706		
1DE0	0BC0		DEC2 R11, R12
1DE2	818E		LBI R1, #$8E
1DE4	FBB9		SUB R11, #$BA
1DE6	8013		LBI R0, #$13
1DE8	8EF9		LBI R14, #$F9
1DEA	C082		SE R0, R8
1DEC	8EFB		LBI R14, #$FB
1DEE	F08F		BRA $1D60		; -> -$90(R0)

1DF0	06FE		GETB R15, $6
1DF2	C082		SE R0, R8
1DF4	8F06		LBI R15, #$06
1DF6	2C01		MOVE R12, $02
1DF8	0DAB		ADDH2 R13, R10
1DFA	09B5		AND R9, R11
1DFC	201B		JMP ($0036)

1DFE	B520		SET R5, #$20
1E00	02E7		XOR R2, R14
1E02	0C00		DEC2 R12, R0
1E04	F13B		SUB R1, #$3C
1E06	B4FE		SET R4, #$FE
1E08	F03B		BRA $1DCE		; -> -$3C(R0)

1E0A	D8FE		MOVE R8, (R15)
1E0C	8901		LBI R9, #$01
1E0E	0900		DEC2 R9, R0
1E10	00F0		DEC2 R0, R15
1E12	3BD8		MOVE $1B0, R11
1E14	300C		MOVE $18, R0
1E16	0FAC		MHL R15, R10
1E18	DDF0		MOVE R13, (R15)'
1E1A	008F		GETA R8, $0
1E1C	1C1C		CTRL $C, #$1C
1E1E	010F		GETA R0, $1
1E20	A401		ADD R4, #$02
1E22	3C00		MOVE $00, R12
1E24	0FA6		OR R15, R10
1E26	3310		MOVE $20, R3
1E28	0FA4		MOVE R15, R10
1E2A	F183		SUB R1, #$84
1E2C	E4FE		
1E2E	3510		MOVE $20, R5
1E30	0DB2		INC R13, R11
1E32	D708		MOVE R7, (R0)
1E34	00F0		DEC2 R0, R15
1E36	8F24		LBI R15, #$24
1E38	0907		XOR R9, R0
1E3A	0FA4		MOVE R15, R10
1E3C	0000		HALT
1E3E	1C02		CTRL $C, #$02
1E40	0FA9		SUB R15, R10
1E42	00C7		XOR R0, R12
1E44	260F		MOVE R6, $1E
1E46	A4FE		ADD R4, #$FF
1E48	D712		MOVE R7, (R1)+'
1E4A	00C7		XOR R0, R12
1E4C	0C0F		GETA R0, $C
1E4E	A4C9		ADD R4, #$CA
1E50	460F		PUTB $6, (R0)
1E52	A48F		ADD R4, #$90
1E54	2E09		MOVE R14, $12
1E56	030F		GETA R0, $3
1E58	A400		ADD R4, #$01
1E5A	FFFE		SUB R15, #$FF
1E5C	0C02		INC R12, R0
1E5E	0FA4		MOVE R15, R10
1E60	0FA5		AND R15, R10
1E62	300E		MOVE $1C, R0
1E64	0FAC		MHL R15, R10
1E66	0000		HALT
1E68	0000		HALT
1E6A	0000		HALT
1E6C	0000		HALT
1E6E	0000		HALT
1E70	0000		HALT
1E72	0000		HALT
1E74	0000		HALT
1E76	0000		HALT
1E78	0000		HALT
1E7A	0000		HALT
1E7C	0000		HALT
1E7E	0000		HALT
1E80	0000		HALT
1E82	0000		HALT
1E84	0000		HALT
1E86	0000		HALT
1E88	0000		HALT
1E8A	0000		HALT
1E8C	0000		HALT
1E8E	0000		HALT
1E90	0000		HALT
1E92	0000		HALT
1E94	0000		HALT
1E96	0000		HALT
1E98	0000		HALT
1E9A	0000		HALT
1E9C	0000		HALT
1E9E	0000		HALT
1EA0	0000		HALT
1EA2	0000		HALT
1EA4	0000		HALT
1EA6	0000		HALT
1EA8	0000		HALT
1EAA	0000		HALT
1EAC	0000		HALT
1EAE	0000		HALT
1EB0	0000		HALT
1EB2	0000		HALT
1EB4	0000		HALT
1EB6	0000		HALT
1EB8	0000		HALT
1EBA	0000		HALT
1EBC	0000		HALT
1EBE	0000		HALT
1EC0	0000		HALT
1EC2	0000		HALT
1EC4	0000		HALT
1EC6	0000		HALT
1EC8	0000		HALT
1ECA	0000		HALT
1ECC	0000		HALT
1ECE	0000		HALT
1ED0	0000		HALT
1ED2	0000		HALT
1ED4	0000		HALT
1ED6	0000		HALT
1ED8	0000		HALT
1EDA	0000		HALT
1EDC	0000		HALT
1EDE	0000		HALT
1EE0	0000		HALT
1EE2	0000		HALT
1EE4	0000		HALT
1EE6	0000		HALT
1EE8	0000		HALT
1EEA	0000		HALT
1EEC	0000		HALT
1EEE	0000		HALT
1EF0	0000		HALT
1EF2	0000		HALT
1EF4	0000		HALT
1EF6	0000		HALT
1EF8	0000		HALT
1EFA	0000		HALT
1EFC	0000		HALT
1EFE	0000		HALT
1F00	0000		HALT
1F02	0000		HALT
1F04	0000		HALT
1F06	0000		HALT
1F08	0000		HALT
1F0A	0000		HALT
1F0C	0000		HALT
1F0E	0000		HALT
1F10	0000		HALT
1F12	0000		HALT
1F14	0000		HALT
1F16	0000		HALT
1F18	0000		HALT
1F1A	0000		HALT
1F1C	0000		HALT
1F1E	0000		HALT
1F20	0000		HALT
1F22	0000		HALT
1F24	0000		HALT
1F26	0000		HALT
1F28	0000		HALT
1F2A	0000		HALT
1F2C	0000		HALT
1F2E	0000		HALT
1F30	0000		HALT
1F32	0000		HALT
1F34	0000		HALT
1F36	0000		HALT
1F38	0000		HALT
1F3A	0000		HALT
1F3C	0000		HALT
1F3E	0000		HALT
1F40	0000		HALT
1F42	0000		HALT
1F44	0000		HALT
1F46	0000		HALT
1F48	0000		HALT
1F4A	0000		HALT
1F4C	0000		HALT
1F4E	0000		HALT
1F50	0000		HALT
1F52	0000		HALT
1F54	0000		HALT
1F56	0000		HALT
1F58	0000		HALT
1F5A	0000		HALT
1F5C	0000		HALT
1F5E	0000		HALT
1F60	0000		HALT
1F62	0000		HALT
1F64	0000		HALT
1F66	0000		HALT
1F68	0000		HALT
1F6A	0000		HALT
1F6C	0000		HALT
1F6E	0000		HALT
1F70	0000		HALT
1F72	0000		HALT
1F74	0000		HALT
1F76	0000		HALT
1F78	0000		HALT
1F7A	0000		HALT
1F7C	0000		HALT
1F7E	0000		HALT
1F80	0000		HALT
1F82	0000		HALT
1F84	0000		HALT
1F86	0000		HALT
1F88	0000		HALT
1F8A	0000		HALT
1F8C	0000		HALT
1F8E	0000		HALT
1F90	0000		HALT
1F92	0000		HALT
1F94	0000		HALT
1F96	0000		HALT
1F98	0000		HALT
1F9A	0000		HALT
1F9C	F08F		BRA $1F0E		; -> -$90(R0)

1F9E	0A00		DEC2 R10, R0
1FA0	F08E		BRA $1F13		; -> -$8F(R0)

1FA2	EF00		
1FA4	F08E		BRA $1F17		; -> -$8F(R0)

1FA6	E200		
1FA8	F08E		BRA $1F1B		; -> -$8F(R0)

1FAA	8800		LBI R8, #$00
1FAC	F08E		BRA $1F1F		; -> -$8F(R0)

1FAE	2A00		MOVE R10, $00
1FB0	F08D		BRA $1F24		; -> -$8E(R0)

1FB2	B700		SET R7, #$00
1FB4	F08D		BRA $1F28		; -> -$8E(R0)

1FB6	B300		SET R3, #$00
1FB8	F08D		BRA $1F2C		; -> -$8E(R0)

1FBA	AF00		ADD R15, #$01
1FBC	F08C		BRA $1F31		; -> -$8D(R0)

1FBE	DE00		MOVE R14, (R0)'
1FC0	F08C		BRA $1F35		; -> -$8D(R0)

1FC2	9700		CLR R7, #$00
1FC4	F08C		BRA $1F39		; -> -$8D(R0)

1FC6	9100		CLR R1, #$00
1FC8	F08C		BRA $1F3D		; -> -$8D(R0)

1FCA	8B00		LBI R11, #$00
1FCC	F08C		BRA $1F41		; -> -$8D(R0)

1FCE	8500		LBI R5, #$00
1FD0	F08C		BRA $1F45		; -> -$8D(R0)

1FD2	7800		MOVB (R0)+, R8
1FD4	F08C		BRA $1F49		; -> -$8D(R0)

1FD6	6100		MOVB R1, (R0)+
1FD8	F08C		BRA $1F4D		; -> -$8D(R0)

1FDA	1500		CTRL $5, #$00
1FDC	F08A		BRA $1F53		; -> -$8B(R0)

1FDE	E400		
1FE0	F089		BRA $1F58		; -> -$8A(R0)

1FE2	5300		MOVE (R0)', R3
1FE4	F089		BRA $1F5C		; -> -$8A(R0)

1FE6	3A00		MOVE $00, R10
1FE8	F088		BRA $1F61		; -> -$89(R0)

1FEA	F600		SUB R6, #$01
1FEC	F088		BRA $1F65		; -> -$89(R0)

1FEE	2000		JMP ($0000)

1FF0	F086		BRA $1F6B		; -> -$87(R0)

1FF2	9C00		CLR R12, #$00
1FF4	F084		BRA $1F71		; -> -$85(R0)

1FF6	0400		DEC2 R4, R0
1FF8	F084		BRA $1F75		; -> -$85(R0)

1FFA	0000		HALT
1FFC	041B		ADDH2 R4, R1
1FFE	F10B		SUB R1, #$0C
Fertig!

