0000	0004		NOP
0002	0000		HALT
0004	1FFF		CTRL $F, #$FF
0006	8200		LBI R2, #$00
0008	022D		MLH R2, R2
000A	0324		MOVE R3, R2
000C	8308		LBI R3, #$08
000E	5231		MOVE (R3)+, R2
0010	8402		LBI R4, #$02
0012	C347		SBSH R3, R4
0014	F007		BRA $000E		; -> -$08(R0)

0016	8840		LBI R8, #$40
0018	088D		MLH R8, R8
001A	8800		LBI R8, #$00
001C	7888		MOVB (R8), R8
001E	6184		MOVB R1, (R8)-
0020	C10C		SNS R1
0022	A01B		BRA $0040		; $1C(R0)

0024	8880		LBI R8, #$80
0026	088D		MLH R8, R8
0028	8800		LBI R8, #$00
002A	7888		MOVB (R8), R8
002C	6184		MOVB R1, (R8)-
002E	C10C		SNS R1
0030	A00D		BRA $0040		; $0E(R0)

0032	88C0		LBI R8, #$C0
0034	088D		MLH R8, R8
0036	8800		LBI R8, #$00
0038	7888		MOVB (R8), R8
003A	6184		MOVB R1, (R8)-
003C	C104		SS R1
003E	088D		MLH R8, R8
0040	C804		SS R8
0042	0000		HALT
0044	10F0		CTRL $0, #$F0
0046	1FFF		CTRL $F, #$FF
0048	0532		INC R5, R3
004A	83AA		LBI R3, #$AA
004C	033D		MLH R3, R3
004E	8420		LBI R4, #$20
0050	8705		LBI R7, #$05
0052	077D		MLH R7, R7
0054	87FF		LBI R7, #$FF
0056	8104		LBI R1, #$04
0058	011D		MLH R1, R1
005A	8136		LBI R1, #$36
005C	0203		INC2 R2, R0
005E	0014		RET R1

0060	8200		LBI R2, #$00
0062	022D		MLH R2, R2
0064	0324		MOVE R3, R2
0066	8312		LBI R3, #$12
0068	8406		LBI R4, #$06
006A	5231		MOVE (R3)+, R2
006C	C347		SBSH R3, R4
006E	F005		BRA $006A		; -> -$06(R0)

0070	381D		MOVE $3A, R8
0072	87C0		LBI R7, #$C0
0074	0894		MOVE R8, R9
0076	8880		LBI R8, #$80
0078	5981		MOVE (R8)+, R9
007A	C90C		SNS R9
007C	89EF		LBI R9, #$EF
007E	A910		ADD R9, #$11
0080	099D		MLH R9, R9
0082	C872		SE R8, R7
0084	F00D		BRA $0078		; -> -$0E(R0)

0086	7550		MOVB (R5)+, R5
0088	8FFF		LBI R15, #$FF
008A	00FE		GETB R15, $0
008C	CF04		SS R15
008E	0000		HALT
0090	7550		MOVB (R5)+, R5
0092	351C		MOVE $38, R5
0094	A003		BRA $009A		; $04(R0)

0096	81FF		LBI R1, #$FF
0098	311F		MOVE $3E, R1
009A	8101		LBI R1, #$01
009C	311E		MOVE $3C, R1
009E	8100		LBI R1, #$00
00A0	011D		MLH R1, R1
00A2	0310		DEC2 R3, R1
00A4	E03D		ROR R3
00A6	A382		ADD R3, #$83
00A8	7331		MOVB (R3)++, R3
00AA	0211		DEC R2, R1
00AC	6433		MOVB R4, (R3)++++
00AE	E04D		ROR R4
00B0	0436		OR R4, R3
00B2	D533		MOVE R5, (R3)++
00B4	F57F		SUB R5, #$80
00B6	5534		MOVE (R3)~, R5
00B8	0563		INC2 R5, R6
00BA	6736		MOVB R7, (R3)---
00BC	D837		MOVE R8, (R3)--
00BE	5838		MOVE (R3), R8
00C0	0277		XOR R2, R7
00C2	D938		MOVE R9, (R3)
00C4	B707		SET R7, #$07
00C6	0738		ADD R7, R3
00C8	6A78		MOVB R10, (R7)
00CA	E05F		SWAP R5
00CC	0A59		SUB R10, R5
00CE	5A38		MOVE (R3), R10
00D0	02AA		ADDH R2, R10
00D2	E02E		ROR3 R2
00D4	D938		MOVE R9, (R3)
00D6	E09C		SHR R9
00D8	099B		ADDH2 R9, R9
00DA	6B78		MOVB R11, (R7)
00DC	089C		MHL R8, R9
00DE	985A		CLR R8, #$5A
00E0	0B85		AND R11, R8
00E2	E0BC		SHR R11
00E4	330C		MOVE $18, R3
00E6	FC02		SUB R12, #$03
00E8	2D07		MOVE R13, $0E
00EA	0ED4		MOVE R14, R13
00EC	0EC8		ADD R14, R12
00EE	0EB8		ADD R14, R11
00F0	0F04		MOVE R15, R0
00F2	8F56		LBI R15, #$56
00F4	CEFA		SNE R14, R15
00F6	CEF2		SE R14, R15
00F8	0000		HALT
00FA	CEF1		SLT R14, R15
00FC	CEF9		SGE R14, R15
00FE	F001		BRA $00FE		; -> -$02(R0)

0100	CEF8		SGT R14, R15
0102	CEF0		SLE R14, R15
0104	F001		BRA $0104		; -> -$02(R0)

0106	CE03		SZ R14
0108	CE0B		SNZ R14
010A	0000		HALT
010C	CE04		SS R14
010E	CE0C		SNS R14
0110	0000		HALT
0112	CEFD		SNBS R14, R15
0114	CEF5		SBS R14, R15
0116	0000		HALT
0118	CE5E		SNBC R14, R5
011A	CE56		SBC R14, R5
011C	0000		HALT
011E	CEC7		SBSH R14, R12
0120	CECF		SNBSH R14, R12
0122	0000		HALT
0124	221E		MOVE R2, $3C
0126	251C		MOVE R5, $38
0128	8540		LBI R5, #$40
012A	7258		MOVB (R5), R2
012C	8102		LBI R1, #$02
012E	A200		ADD R2, #$01
0130	321E		MOVE $3C, R2
0132	C218		SGT R2, R1
0134	F097		BRA $009E		; -> -$98(R0)

0136	231F		MOVE R3, $3E
0138	C303		SZ R3
013A	F0A1		BRA $009A		; -> -$A2(R0)

013C	8503		LBI R5, #$03
013E	7550		MOVB (R5)+, R5
0140	8101		LBI R1, #$01
0142	011D		MLH R1, R1
0144	8150		LBI R1, #$50
0146	8210		LBI R2, #$10
0148	022D		MLH R2, R2
014A	8230		LBI R2, #$30
014C	5218		MOVE (R1), R2
014E	1030		CTRL $0, #$30
0150	0000		HALT
0152	7550		MOVB (R5)+, R5
0154	8104		LBI R1, #$04
0156	011D		MLH R1, R1
0158	81BA		LBI R1, #$BA
015A	3110		MOVE $20, R1
015C	A117		ADD R1, #$18
015E	3120		MOVE $40, R1
0160	A14B		ADD R1, #$4C
0162	3130		MOVE $60, R1
0164	1054		CTRL $0, #$54
0166	7550		MOVB (R5)+, R5
0168	8D1A		LBI R13, #$1A
016A	0E54		MOVE R14, R5
016C	8E40		LBI R14, #$40
016E	8B25		LBI R11, #$25
0170	0A04		MOVE R10, R0
0172	AA0D		ADD R10, #$0E
0174	0C04		MOVE R12, R0
0176	AD00		ADD R13, #$01
0178	CDBA		SNE R13, R11
017A	8D01		LBI R13, #$01
017C	7DE8		MOVB (R14), R13
017E	AA03		ADD R10, #$04
0180	8FFF		LBI R15, #$FF
0182	00A4		RET R10

0184	00FE		GETB R15, $0
0186	00C4		RET R12

0188	01FE		GETB R15, $1
018A	00C4		RET R12

018C	02FE		GETB R15, $2
018E	00C4		RET R12

0190	03FE		GETB R15, $3
0192	00C4		RET R12

0194	04FE		GETB R15, $4
0196	00C4		RET R12

0198	05FE		GETB R15, $5
019A	00C4		RET R12

019C	06FE		GETB R15, $6
019E	00C4		RET R12

01A0	07FE		GETB R15, $7
01A2	00C4		RET R12

01A4	08FE		GETB R15, $8
01A6	00C4		RET R12

01A8	09FE		GETB R15, $9
01AA	00C4		RET R12

01AC	0AFE		GETB R15, $A
01AE	00C4		RET R12

01B0	0BFE		GETB R15, $B
01B2	00C4		RET R12

01B4	0CFE		GETB R15, $C
01B6	00C4		RET R12

01B8	0DFE		GETB R15, $D
01BA	00C4		RET R12

01BC	0EFE		GETB R15, $E
01BE	00C4		RET R12

01C0	0FFE		GETB R15, $F
01C2	8D00		LBI R13, #$00
01C4	7DE8		MOVB (R14), R13
01C6	7550		MOVB (R5)+, R5
01C8	1F2A		CTRL $F, #$2A
01CA	1FD5		CTRL $F, #$D5
01CC	1FFF		CTRL $F, #$FF
01CE	7550		MOVB (R5)+, R5
01D0	1450		CTRL $4, #$50
01D2	AF00		ADD R15, #$01
01D4	CF04		SS R15
01D6	F005		BRA $01D2		; -> -$06(R0)

01D8	1412		CTRL $4, #$12
01DA	7550		MOVB (R5)+, R5
01DC	271D		MOVE R7, $3A
01DE	83AA		LBI R3, #$AA
01E0	8406		LBI R4, #$06
01E2	044D		MLH R4, R4
01E4	8400		LBI R4, #$00
01E6	8104		LBI R1, #$04
01E8	011D		MLH R1, R1
01EA	8136		LBI R1, #$36
01EC	0203		INC2 R2, R0
01EE	0014		RET R1

01F0	A003		BRA $01F6		; $04(R0)

01F2	2154		MOVE R1, $A8
01F4	311D		MOVE $3A, R1
01F6	1034		CTRL $0, #$34
01F8	1FFF		CTRL $F, #$FF
01FA	8502		LBI R5, #$02
01FC	055D		MLH R5, R5
01FE	8509		LBI R5, #$09
0200	7550		MOVB (R5)+, R5
0202	8400		LBI R4, #$00
0204	044D		MLH R4, R4
0206	84A0		LBI R4, #$A0
0208	8300		LBI R3, #$00
020A	033D		MLH R3, R3
020C	8602		LBI R6, #$02
020E	5341		MOVE (R4)+, R3
0210	C467		SBSH R4, R6
0212	F005		BRA $020E		; -> -$06(R0)

0214	211D		MOVE R1, $3A
0216	3154		MOVE $A8, R1
0218	8600		LBI R6, #$00
021A	8780		LBI R7, #$80
021C	E47F		STAT R7, $4
021E	8140		LBI R1, #$40
0220	C715		SBS R7, R1
0222	B680		SET R6, #$80
0224	8712		LBI R7, #$12
0226	067D		MLH R6, R7
0228	3652		MOVE $A4, R6
022A	8102		LBI R1, #$02
022C	011D		MLH R1, R1
022E	819E		LBI R1, #$9E
0230	315B		MOVE $B6, R1
0232	8101		LBI R1, #$01
0234	011D		MLH R1, R1
0236	81F2		LBI R1, #$F2
0238	317A		MOVE $F4, R1
023A	8106		LBI R1, #$06
023C	011D		MLH R1, R1
023E	8100		LBI R1, #$00
0240	3176		MOVE $EC, R1
0242	A103		ADD R1, #$04
0244	3175		MOVE $EA, R1
0246	8106		LBI R1, #$06
0248	011D		MLH R1, R1
024A	8180		LBI R1, #$80
024C	315D		MOVE $BA, R1
024E	8107		LBI R1, #$07
0250	011D		MLH R1, R1
0252	8100		LBI R1, #$00
0254	31FC		MOVE $1F8, R1
0256	8106		LBI R1, #$06
0258	011D		MLH R1, R1
025A	81D0		LBI R1, #$D0
025C	3166		MOVE $CC, R1
025E	810A		LBI R1, #$0A
0260	011D		MLH R1, R1
0262	81A0		LBI R1, #$A0
0264	315C		MOVE $B8, R1
0266	A101		ADD R1, #$02
0268	3158		MOVE $B0, R1
026A	A107		ADD R1, #$08
026C	315A		MOVE $B4, R1
026E	8150		LBI R1, #$50
0270	011D		MLH R1, R1
0272	8100		LBI R1, #$00
0274	3161		MOVE $C2, R1
0276	A101		ADD R1, #$02
0278	3178		MOVE $F0, R1
027A	3130		MOVE $60, R1
027C	81C0		LBI R1, #$C0
027E	011D		MLH R1, R1
0280	8100		LBI R1, #$00
0282	317F		MOVE $FE, R1
0284	8160		LBI R1, #$60
0286	011D		MLH R1, R1
0288	8100		LBI R1, #$00
028A	3163		MOVE $C6, R1
028C	A101		ADD R1, #$02
028E	3165		MOVE $CA, R1
0290	8111		LBI R1, #$11
0292	011D		MLH R1, R1
0294	8120		LBI R1, #$20
0296	3179		MOVE $F2, R1
0298	2153		MOVE R1, $A6
029A	311F		MOVE $3E, R1
029C	A02F		BRA $02CE		; $30(R0)

029E	815E		LBI R1, #$5E
02A0	011D		MLH R1, R1
02A2	81E0		LBI R1, #$E0
02A4	0014		RET R1

02A6	8100		LBI R1, #$00
02A8	011D		MLH R1, R1
02AA	8196		LBI R1, #$96
02AC	0014		RET R1

02AE	8102		LBI R1, #$02
02B0	011D		MLH R1, R1
02B2	81C6		LBI R1, #$C6
02B4	0014		RET R1

02B6	8103		LBI R1, #$03
02B8	011D		MLH R1, R1
02BA	81B8		LBI R1, #$B8
02BC	0014		RET R1

02BE	8104		LBI R1, #$04
02C0	011D		MLH R1, R1
02C2	812C		LBI R1, #$2C
02C4	0014		RET R1

02C6	81FF		LBI R1, #$FF
02C8	311F		MOVE $3E, R1
02CA	8502		LBI R5, #$02
02CC	055D		MLH R5, R5
02CE	8301		LBI R3, #$01
02D0	033D		MLH R3, R3
02D2	8300		LBI R3, #$00
02D4	8101		LBI R1, #$01
02D6	011D		MLH R1, R1
02D8	8108		LBI R1, #$08
02DA	3180		MOVE $100, R1
02DC	8100		LBI R1, #$00
02DE	3181		MOVE $102, R1
02E0	8F16		LBI R15, #$16
02E2	01FD		MLH R1, R15
02E4	3182		MOVE $104, R1
02E6	8F18		LBI R15, #$18
02E8	01FD		MLH R1, R15
02EA	3183		MOVE $106, R1
02EC	8FC0		LBI R15, #$C0
02EE	01FD		MLH R1, R15
02F0	3184		MOVE $108, R1
02F2	2853		MOVE R8, $A6
02F4	3886		MOVE $10C, R8
02F6	8540		LBI R5, #$40
02F8	351C		MOVE $38, R5
02FA	8818		LBI R8, #$18
02FC	381E		MOVE $3C, R8
02FE	0203		INC2 R2, R0
0300	A053		BRA $0356		; $54(R0)

0302	5758		MOVE (R5), R7
0304	0203		INC2 R2, R0
0306	205B		JMP ($00B6)

0308	241E		MOVE R4, $3C
030A	251C		MOVE R5, $38
030C	2686		MOVE R6, $10C
030E	C60B		SNZ R6
0310	A011		BRA $0324		; $12(R0)

0312	A503		ADD R5, #$04
0314	5658		MOVE (R5), R6
0316	8118		LBI R1, #$18
0318	C412		SE R4, R1
031A	0000		HALT
031C	8105		LBI R1, #$05
031E	011D		MLH R1, R1
0320	8162		LBI R1, #$62
0322	0014		RET R1

0324	E1FF		STAT R15, $1
0326	0FFD		MLH R15, R15
0328	E1FF		STAT R15, $1
032A	3F84		MOVE $108, R15
032C	0FF0		DEC2 R15, R15
032E	8120		LBI R1, #$20
0330	C415		SBS R4, R1
0332	FF01		SUB R15, #$02
0334	8E00		LBI R14, #$00
0336	0EED		MLH R14, R14
0338	8E1E		LBI R14, #$1E
033A	41E0		PUTB $1, (R14)+
033C	41E8		PUTB $1, (R14)
033E	F000		BRA $033F		; -> -$01(R0)

0340	018E		GETB R8, $1
0342	088D		MLH R8, R8
0344	0004		NOP
0346	018E		GETB R8, $1
0348	C48A		SNE R4, R8
034A	A011		BRA $035E		; $12(R0)

034C	A503		ADD R5, #$04
034E	0203		INC2 R2, R0
0350	A003		BRA $0356		; $04(R0)

0352	5758		MOVE (R5), R7
0354	0000		HALT
0356	8105		LBI R1, #$05
0358	011D		MLH R1, R1
035A	8146		LBI R1, #$46
035C	0014		RET R1

035E	A800		ADD R8, #$01
0360	381E		MOVE $3C, R8
0362	8118		LBI R1, #$18
0364	C412		SE R4, R1
0366	A035		BRA $039E		; $36(R0)

0368	8E06		LBI R14, #$06
036A	0EED		MLH R14, R14
036C	8E00		LBI R14, #$00
036E	2D83		MOVE R13, $106
0370	D1D1		MOVE R1, (R13)+
0372	51E1		MOVE (R14)+, R1
0374	CE03		SZ R14
0376	F007		BRA $0370		; -> -$08(R0)

0378	1054		CTRL $0, #$54
037A	1442		CTRL $4, #$42
037C	2181		MOVE R1, $102
037E	8140		LBI R1, #$40
0380	3181		MOVE $102, R1
0382	2853		MOVE R8, $A6
0384	3884		MOVE $108, R8
0386	8810		LBI R8, #$10
0388	381E		MOVE $3C, R8
038A	2E52		MOVE R14, $A4
038C	8180		LBI R1, #$80
038E	CE15		SBS R14, R1
0390	F093		BRA $02FE		; -> -$94(R0)

0392	8820		LBI R8, #$20
0394	381E		MOVE $3C, R8
0396	2180		MOVE R1, $100
0398	8104		LBI R1, #$04
039A	3180		MOVE $100, R1
039C	F09F		BRA $02FE		; -> -$A0(R0)

039E	8E30		LBI R14, #$30
03A0	8F18		LBI R15, #$18
03A2	C8E2		SE R8, R14
03A4	C8FA		SNE R8, R15
03A6	A001		BRA $03AA		; $02(R0)

03A8	F0AB		BRA $02FE		; -> -$AC(R0)

03AA	211F		MOVE R1, $3E
03AC	C103		SZ R1
03AE	F0E1		BRA $02CE		; -> -$E2(R0)

03B0	850A		LBI R5, #$0A
03B2	7550		MOVB (R5)+, R5
03B4	8600		LBI R6, #$00
03B6	A005		BRA $03BE		; $06(R0)

03B8	86FF		LBI R6, #$FF
03BA	8502		LBI R5, #$02
03BC	055D		MLH R5, R5
03BE	2E53		MOVE R14, $A6
03C0	8E1E		LBI R14, #$1E
03C2	8F01		LBI R15, #$01
03C4	0FFD		MLH R15, R15
03C6	8F40		LBI R15, #$40
03C8	8D0F		LBI R13, #$0F
03CA	8540		LBI R5, #$40
03CC	7D58		MOVB (R5), R13
03CE	2C53		MOVE R12, $A6
03D0	1108		CTRL $1, #$08
03D2	2852		MOVE R8, $A4
03D4	8180		LBI R1, #$80
03D6	C815		SBS R8, R1
03D8	A003		BRA $03DE		; $04(R0)

03DA	1104		CTRL $1, #$04
03DC	8CFF		LBI R12, #$FF
03DE	2B53		MOVE R11, $A6
03E0	41E0		PUTB $1, (R14)+
03E2	41E4		PUTB $1, (R14)-
03E4	F000		BRA $03E5		; -> -$01(R0)

03E6	011E		GETB R1, $1
03E8	AB00		ADD R11, #$01
03EA	CC03		SZ R12
03EC	011E		GETB R1, $1
03EE	CBD2		SE R11, R13
03F0	F00B		BRA $03E6		; -> -$0C(R0)

03F2	E1AF		STAT R10, $1
03F4	E19F		STAT R9, $1
03F6	0FB8		ADD R15, R11
03F8	C9F2		SE R9, R15
03FA	0000		HALT
03FC	01FC		MHL R1, R15
03FE	CA12		SE R10, R1
0400	0000		HALT
0402	AA10		ADD R10, #$11
0404	0FAD		MLH R15, R10
0406	FD00		SUB R13, #$01
0408	7D58		MOVB (R5), R13
040A	81CD		LBI R1, #$CD
040C	CA12		SE R10, R1
040E	F031		BRA $03DE		; -> -$32(R0)

0410	C603		SZ R6
0412	F055		BRA $03BE		; -> -$56(R0)

0414	850B		LBI R5, #$0B
0416	7558		MOVB (R5), R5
0418	CC0B		SNZ R12
041A	A007		BRA $0424		; $08(R0)

041C	8180		LBI R1, #$80
041E	011D		MLH R1, R1
0420	8100		LBI R1, #$00
0422	0014		RET R1

0424	8112		LBI R1, #$12
0426	011D		MLH R1, R1
0428	8100		LBI R1, #$00
042A	0014		RET R1

042C	8401		LBI R4, #$01
042E	044D		MLH R4, R4
0430	8400		LBI R4, #$00
0432	2754		MOVE R7, $A8
0434	83FF		LBI R3, #$FF
0436	067C		MHL R6, R7
0438	9401		CLR R4, #$01
043A	8AFD		LBI R10, #$FD
043C	8DAA		LBI R13, #$AA
043E	0DDD		MLH R13, R13
0440	0F44		MOVE R15, R4
0442	5DF8		MOVE (R15), R13
0444	8E00		LBI R14, #$00
0446	6EF8		MOVB R14, (R15)
0448	CED2		SE R14, R13
044A	0000		HALT
044C	0CFC		MHL R12, R15
044E	CC62		SE R12, R6
0450	A005		BRA $0458		; $06(R0)

0452	C7F2		SE R7, R15
0454	A001		BRA $0458		; $02(R0)

0456	A013		BRA $046C		; $14(R0)

0458	8E00		LBI R14, #$00
045A	AF00		ADD R15, #$01
045C	6EF8		MOVB R14, (R15)
045E	CED2		SE R14, R13
0460	0000		HALT
0462	0CFC		MHL R12, R15
0464	CC62		SE R12, R6
0466	A013		BRA $047C		; $14(R0)

0468	C7F2		SE R7, R15
046A	A00F		BRA $047C		; $10(R0)

046C	AA00		ADD R10, #$01
046E	CA0B		SNZ R10
0470	A00D		BRA $0480		; $0E(R0)

0472	8D55		LBI R13, #$55
0474	CA04		SS R10
0476	F039		BRA $043E		; -> -$3A(R0)

0478	8DD6		LBI R13, #$D6
047A	F03D		BRA $043E		; -> -$3E(R0)

047C	AF00		ADD R15, #$01
047E	F03D		BRA $0442		; -> -$3E(R0)

0480	0944		MOVE R9, R4
0482	0D94		MOVE R13, R9
0484	0F44		MOVE R15, R4
0486	7DF0		MOVB (R15)+, R13
0488	AD00		ADD R13, #$01
048A	0CFC		MHL R12, R15
048C	C7F2		SE R7, R15
048E	F009		BRA $0486		; -> -$0A(R0)

0490	AD00		ADD R13, #$01
0492	CC62		SE R12, R6
0494	F00F		BRA $0486		; -> -$10(R0)

0496	0D94		MOVE R13, R9
0498	0F44		MOVE R15, R4
049A	6EF8		MOVB R14, (R15)
049C	CED2		SE R14, R13
049E	0000		HALT
04A0	AF00		ADD R15, #$01
04A2	AD00		ADD R13, #$01
04A4	C7F2		SE R7, R15
04A6	F00D		BRA $049A		; -> -$0E(R0)

04A8	AD00		ADD R13, #$01
04AA	0CFC		MHL R12, R15
04AC	CC62		SE R12, R6
04AE	F015		BRA $049A		; -> -$16(R0)

04B0	C304		SS R3
04B2	0024		RET R2

04B4	A900		ADD R9, #$01
04B6	F035		BRA $0482		; -> -$36(R0)

04B8	0000		HALT
04BA	1034		CTRL $0, #$34
04BC	251C		MOVE R5, $38
04BE	8580		LBI R5, #$80
04C0	871C		LBI R7, #$1C
04C2	7753		MOVB (R5)++++, R7
04C4	8723		LBI R7, #$23
04C6	7751		MOVB (R5)++, R7
04C8	E88F		STAT R8, $8
04CA	0203		INC2 R2, R0
04CC	A077		BRA $0546		; $78(R0)

04CE	5751		MOVE (R5)+, R7
04D0	0000		HALT
04D2	1034		CTRL $0, #$34
04D4	251C		MOVE R5, $38
04D6	8580		LBI R5, #$80
04D8	871D		LBI R7, #$1D
04DA	7753		MOVB (R5)++++, R7
04DC	8720		LBI R7, #$20
04DE	7751		MOVB (R5)++, R7
04E0	05AE		GETB R10, $5
04E2	05BE		GETB R11, $5
04E4	08A4		MOVE R8, R10
04E6	0203		INC2 R2, R0
04E8	A05B		BRA $0546		; $5C(R0)

04EA	5751		MOVE (R5)+, R7
04EC	08B4		MOVE R8, R11
04EE	0203		INC2 R2, R0
04F0	A053		BRA $0546		; $54(R0)

04F2	5753		MOVE (R5)++, R7
04F4	1F40		CTRL $F, #$40
04F6	1E80		CTRL $E, #$80
04F8	0EFE		GETB R15, $E
04FA	8705		LBI R7, #$05
04FC	7751		MOVB (R5)++, R7
04FE	0EFE		GETB R15, $E
0500	8840		LBI R8, #$40
0502	EE8F		STAT R8, $E
0504	0203		INC2 R2, R0
0506	A03D		BRA $0546		; $3E(R0)

0508	5753		MOVE (R5)++, R7
050A	1F40		CTRL $F, #$40
050C	1E40		CTRL $E, #$40
050E	0EFE		GETB R15, $E
0510	0EFE		GETB R15, $E
0512	8840		LBI R8, #$40
0514	EE8F		STAT R8, $E
0516	0203		INC2 R2, R0
0518	A02B		BRA $0546		; $2C(R0)

051A	5758		MOVE (R5), R7
051C	0000		HALT
051E	1034		CTRL $0, #$34
0520	251C		MOVE R5, $38
0522	8508		LBI R5, #$08
0524	8100		LBI R1, #$00
0526	7158		MOVB (R5), R1
0528	8580		LBI R5, #$80
052A	871E		LBI R7, #$1E
052C	7751		MOVB (R5)++, R7
052E	8840		LBI R8, #$40
0530	E48F		STAT R8, $4
0532	0203		INC2 R2, R0
0534	A00F		BRA $0546		; $10(R0)

0536	5751		MOVE (R5)+, R7
0538	A57D		ADD R5, #$7E
053A	8880		LBI R8, #$80
053C	E48F		STAT R8, $4
053E	0203		INC2 R2, R0
0540	A003		BRA $0546		; $04(R0)

0542	5758		MOVE (R5), R7
0544	0000		HALT
0546	87F0		LBI R7, #$F0
0548	0785		AND R7, R8
054A	E07F		SWAP R7
054C	A71A		ADD R7, #$1B
054E	8925		LBI R9, #$25
0550	C791		SLT R7, R9
0552	F723		SUB R7, #$24
0554	077D		MLH R7, R7
0556	870F		LBI R7, #$0F
0558	0785		AND R7, R8
055A	A71A		ADD R7, #$1B
055C	C791		SLT R7, R9
055E	F723		SUB R7, #$24
0560	0024		RET R2

0562	8114		LBI R1, #$14
0564	71E0		MOVB (R14)+, R1
0566	8101		LBI R1, #$01
0568	71E0		MOVB (R14)+, R1
056A	8110		LBI R1, #$10
056C	71E0		MOVB (R14)+, R1
056E	8105		LBI R1, #$05
0570	71E1		MOVB (R14)++, R1
0572	8109		LBI R1, #$09
0574	71E8		MOVB (R14), R1
0576	8110		LBI R1, #$10
0578	71E0		MOVB (R14)+, R1
057A	810C		LBI R1, #$0C
057C	71E0		MOVB (R14)+, R1
057E	2153		MOVE R1, $A6
0580	313B		MOVE $76, R1
0582	8101		LBI R1, #$01
0584	3139		MOVE $72, R1
0586	8140		LBI R1, #$40
0588	011D		MLH R1, R1
058A	8100		LBI R1, #$00
058C	3137		MOVE $6E, R1
058E	8105		LBI R1, #$05
0590	011D		MLH R1, R1
0592	81AE		LBI R1, #$AE
0594	3176		MOVE $EC, R1
0596	0203		INC2 R2, R0
0598	2066		JMP ($00CC)

059A	2137		MOVE R1, $6E
059C	3174		MOVE $E8, R1
059E	8120		LBI R1, #$20
05A0	011D		MLH R1, R1
05A2	8174		LBI R1, #$74
05A4	8206		LBI R2, #$06
05A6	022D		MLH R2, R2
05A8	8202		LBI R2, #$02
05AA	5125		MOVE (R2)-, R1
05AC	0024		RET R2

05AE	1F40		CTRL $F, #$40
05B0	1E80		CTRL $E, #$80
05B2	0EFE		GETB R15, $E
05B4	817F		LBI R1, #$7F
05B6	2577		MOVE R5, $EE
05B8	A501		ADD R5, #$02
05BA	CF1A		SNE R15, R1
05BC	0054		RET R5

05BE	0534		MOVE R5, R3
05C0	A50B		ADD R5, #$0C
05C2	891C		LBI R9, #$1C
05C4	099D		MLH R9, R9
05C6	891F		LBI R9, #$1F
05C8	5958		MOVE (R5), R9
05CA	2253		MOVE R2, $A6
05CC	205A		JMP ($00B4)

05CE	0000		HALT
05D0	0000		HALT
05D2	0000		HALT
05D4	0000		HALT
05D6	0000		HALT
05D8	0000		HALT
05DA	0000		HALT
05DC	0000		HALT
05DE	0000		HALT
05E0	0000		HALT
05E2	0000		HALT
05E4	0000		HALT
05E6	0000		HALT
05E8	0000		HALT
05EA	0000		HALT
05EC	0000		HALT
05EE	0000		HALT
05F0	0000		HALT
05F2	0000		HALT
05F4	0000		HALT
05F6	0000		HALT
05F8	0000		HALT
05FA	0000		HALT
05FC	0000		HALT
05FE	0000		HALT
0600	1030		CTRL $0, #$30
0602	0000		HALT
0604	1034		CTRL $0, #$34
0606	313C		MOVE $78, R1
0608	2178		MOVE R1, $F0
060A	3130		MOVE $60, R1
060C	2151		MOVE R1, $A2
060E	8110		LBI R1, #$10
0610	C117		SBSH R1, R1
0612	A003		BRA $0618		; $04(R0)

0614	2179		MOVE R1, $F2
0616	3110		MOVE $20, R1
0618	2152		MOVE R1, $A4
061A	9120		CLR R1, #$20
061C	3152		MOVE $A4, R1
061E	1054		CTRL $0, #$54
0620	8110		LBI R1, #$10
0622	C117		SBSH R1, R1
0624	1064		CTRL $0, #$64
0626	213C		MOVE R1, $78
0628	2077		JMP ($00EE)

062A	0000		HALT
062C	0000		HALT
062E	0000		HALT
0630	0000		HALT
0632	0000		HALT
0634	0000		HALT
0636	0000		HALT
0638	0000		HALT
063A	0000		HALT
063C	0000		HALT
063E	0000		HALT
0640	0000		HALT
0642	0000		HALT
0644	0000		HALT
0646	0000		HALT
0648	0000		HALT
064A	0000		HALT
064C	0000		HALT
064E	0000		HALT
0650	0000		HALT
0652	0000		HALT
0654	0000		HALT
0656	0000		HALT
0658	0000		HALT
065A	0000		HALT
065C	0000		HALT
065E	0000		HALT
0660	0000		HALT
0662	0000		HALT
0664	0000		HALT
0666	0000		HALT
0668	0000		HALT
066A	0000		HALT
066C	0000		HALT
066E	0000		HALT
0670	0000		HALT
0672	0000		HALT
0674	0000		HALT
0676	0000		HALT
0678	0000		HALT
067A	0000		HALT
067C	0000		HALT
067E	0000		HALT
0680	0000		HALT
0682	0000		HALT
0684	0000		HALT
0686	0000		HALT
0688	0000		HALT
068A	0000		HALT
068C	0000		HALT
068E	0000		HALT
0690	0000		HALT
0692	0000		HALT
0694	0000		HALT
0696	0000		HALT
0698	0000		HALT
069A	0000		HALT
069C	0000		HALT
069E	0000		HALT
06A0	0000		HALT
06A2	0000		HALT
06A4	0000		HALT
06A6	0000		HALT
06A8	0000		HALT
06AA	0000		HALT
06AC	0000		HALT
06AE	0000		HALT
06B0	0000		HALT
06B2	0000		HALT
06B4	0000		HALT
06B6	0000		HALT
06B8	0000		HALT
06BA	0000		HALT
06BC	0000		HALT
06BE	0000		HALT
06C0	0000		HALT
06C2	0000		HALT
06C4	0000		HALT
06C6	0000		HALT
06C8	0000		HALT
06CA	0000		HALT
06CC	0000		HALT
06CE	0000		HALT
06D0	A007		BRA $06DA		; $08(R0)

06D2	8307		LBI R3, #$07
06D4	033D		MLH R3, R3
06D6	83FA		LBI R3, #$FA
06D8	A003		BRA $06DE		; $04(R0)

06DA	0304		MOVE R3, R0
06DC	A335		ADD R3, #$36
06DE	8405		LBI R4, #$05
06E0	044D		MLH R4, R4
06E2	8480		LBI R4, #$80
06E4	2553		MOVE R5, $A6
06E6	5541		MOVE (R4)+, R5
06E8	C403		SZ R4
06EA	F005		BRA $06E6		; -> -$06(R0)

06EC	F447		SUB R4, #$48
06EE	5241		MOVE (R4)+, R2
06F0	5348		MOVE (R4), R3
06F2	0340		DEC2 R3, R4
06F4	F315		SUB R3, #$16
06F6	8501		LBI R5, #$01
06F8	7535		MOVB (R3)--, R5
06FA	0203		INC2 R2, R0
06FC	2061		JMP ($00C2)

06FE	8405		LBI R4, #$05
0700	044D		MLH R4, R4
0702	8480		LBI R4, #$80
0704	253B		MOVE R5, $76
0706	8101		LBI R1, #$01
0708	051D		MLH R5, R1
070A	5541		MOVE (R4)+, R5
070C	0344		MOVE R3, R4
070E	A337		ADD R3, #$38
0710	D038		JMP (R3)
0712	8502		LBI R5, #$02
0714	7541		MOVB (R4)++, R5
0716	8503		LBI R5, #$03
0718	055D		MLH R5, R5
071A	8500		LBI R5, #$00
071C	5541		MOVE (R4)+, R5
071E	F5FF		SUB R5, #$100
0720	5541		MOVE (R4)+, R5
0722	2537		MOVE R5, $6E
0724	5548		MOVE (R4), R5
0726	850E		LBI R5, #$0E
0728	055D		MLH R5, R5
072A	8580		LBI R5, #$80
072C	A407		ADD R4, #$08
072E	5548		MOVE (R4), R5
0730	0344		MOVE R3, R4
0732	0203		INC2 R2, R0
0734	2061		JMP ($00C2)

0736	0203		INC2 R2, R0
0738	A083		BRA $07BE		; $84(R0)

073A	8504		LBI R5, #$04
073C	8405		LBI R4, #$05
073E	044D		MLH R4, R4
0740	8492		LBI R4, #$92
0742	7541		MOVB (R4)++, R5
0744	8503		LBI R5, #$03
0746	055D		MLH R5, R5
0748	8500		LBI R5, #$00
074A	5548		MOVE (R4), R5
074C	2539		MOVE R5, $72
074E	A403		ADD R4, #$04
0750	5541		MOVE (R4)+, R5
0752	0540		DEC2 R5, R4
0754	A517		ADD R5, #$18
0756	5548		MOVE (R4), R5
0758	0354		MOVE R3, R5
075A	F31F		SUB R3, #$20
075C	0203		INC2 R2, R0
075E	2061		JMP ($00C2)

0760	0203		INC2 R2, R0
0762	A059		BRA $07BE		; $5A(R0)

0764	8403		LBI R4, #$03
0766	044D		MLH R4, R4
0768	8400		LBI R4, #$00
076A	6548		MOVB R5, (R4)
076C	8106		LBI R1, #$06
076E	C15A		SNE R1, R5
0770	A085		BRA $07F8		; $86(R0)

0772	8107		LBI R1, #$07
0774	C15A		SNE R1, R5
0776	A07F		BRA $07F8		; $80(R0)

0778	8501		LBI R5, #$01
077A	0433		INC2 R4, R3
077C	7548		MOVB (R4), R5
077E	8305		LBI R3, #$05
0780	033D		MLH R3, R3
0782	8390		LBI R3, #$90
0784	0203		INC2 R2, R0
0786	2061		JMP ($00C2)

0788	0203		INC2 R2, R0
078A	A031		BRA $07BE		; $32(R0)

078C	253B		MOVE R5, $76
078E	C503		SZ R5
0790	A01F		BRA $07B2		; $20(R0)

0792	0434		MOVE R4, R3
0794	F407		SUB R4, #$08
0796	D448		MOVE R4, (R4)
0798	8C03		LBI R12, #$03
079A	0CCD		MLH R12, R12
079C	8C00		LBI R12, #$00
079E	8705		LBI R7, #$05
07A0	014C		MHL R1, R4
07A2	0146		OR R1, R4
07A4	C10B		SNZ R1
07A6	A033		BRA $07DC		; $34(R0)

07A8	D5C1		MOVE R5, (R12)+
07AA	5541		MOVE (R4)+, R5
07AC	CC77		SBSH R12, R7
07AE	F00F		BRA $07A0		; -> -$10(R0)

07B0	A00D		BRA $07C0		; $0E(R0)

07B2	8305		LBI R3, #$05
07B4	033D		MLH R3, R3
07B6	8380		LBI R3, #$80
07B8	0203		INC2 R2, R0
07BA	2061		JMP ($00C2)

07BC	0203		INC2 R2, R0
07BE	A071		BRA $0832		; $72(R0)

07C0	8405		LBI R4, #$05
07C2	044D		MLH R4, R4
07C4	8488		LBI R4, #$88
07C6	6548		MOVB R5, (R4)
07C8	273B		MOVE R7, $76
07CA	8101		LBI R1, #$01
07CC	C17A		SNE R1, R7
07CE	A005		BRA $07D6		; $06(R0)

07D0	8104		LBI R1, #$04
07D2	C172		SE R1, R7
07D4	A500		ADD R5, #$01
07D6	A500		ADD R5, #$01
07D8	7548		MOVB (R4), R5
07DA	F05D		BRA $077E		; -> -$5E(R0)

07DC	8501		LBI R5, #$01
07DE	055D		MLH R5, R5
07E0	8504		LBI R5, #$04
07E2	8305		LBI R3, #$05
07E4	033D		MLH R3, R3
07E6	839C		LBI R3, #$9C
07E8	5538		MOVE (R3), R5
07EA	F30B		SUB R3, #$0C
07EC	2553		MOVE R5, $A6
07EE	5538		MOVE (R3), R5
07F0	8109		LBI R1, #$09
07F2	011D		MLH R1, R1
07F4	8188		LBI R1, #$88
07F6	0014		RET R1

07F8	A0B3		BRA $08AE		; $B4(R0)

07FA	8501		LBI R5, #$01
07FC	7540		MOVB (R4)+, R5
07FE	8508		LBI R5, #$08
0800	7540		MOVB (R4)+, R5
0802	8503		LBI R5, #$03
0804	055D		MLH R5, R5
0806	8500		LBI R5, #$00
0808	5541		MOVE (R4)+, R5
080A	F5FF		SUB R5, #$100
080C	5541		MOVE (R4)+, R5
080E	2537		MOVE R5, $6E
0810	5548		MOVE (R4), R5
0812	850E		LBI R5, #$0E
0814	055D		MLH R5, R5
0816	8580		LBI R5, #$80
0818	8405		LBI R4, #$05
081A	044D		MLH R4, R4
081C	8490		LBI R4, #$90
081E	5548		MOVE (R4), R5
0820	8305		LBI R3, #$05
0822	033D		MLH R3, R3
0824	8390		LBI R3, #$90
0826	0203		INC2 R2, R0
0828	2061		JMP ($00C2)

082A	8305		LBI R3, #$05
082C	033D		MLH R3, R3
082E	8390		LBI R3, #$90
0830	0203		INC2 R2, R0
0832	A0A7		BRA $08DC		; $A8(R0)

0834	8504		LBI R5, #$04
0836	2752		MOVE R7, $A4
0838	8104		LBI R1, #$04
083A	C71F		SNBSH R7, R1
083C	8507		LBI R5, #$07
083E	8405		LBI R4, #$05
0840	044D		MLH R4, R4
0842	8492		LBI R4, #$92
0844	7541		MOVB (R4)++, R5
0846	8503		LBI R5, #$03
0848	055D		MLH R5, R5
084A	8500		LBI R5, #$00
084C	5548		MOVE (R4), R5
084E	2539		MOVE R5, $72
0850	A403		ADD R4, #$04
0852	5541		MOVE (R4)+, R5
0854	0340		DEC2 R3, R4
0856	A317		ADD R3, #$18
0858	5348		MOVE (R4), R3
085A	F31F		SUB R3, #$20
085C	0203		INC2 R2, R0
085E	2061		JMP ($00C2)

0860	0203		INC2 R2, R0
0862	A077		BRA $08DC		; $78(R0)

0864	2552		MOVE R5, $A4
0866	055C		MHL R5, R5
0868	95FB		CLR R5, #$FB
086A	C50B		SNZ R5
086C	A02F		BRA $089E		; $30(R0)

086E	850A		LBI R5, #$0A
0870	8305		LBI R3, #$05
0872	033D		MLH R3, R3
0874	8392		LBI R3, #$92
0876	7535		MOVB (R3)--, R5
0878	0203		INC2 R2, R0
087A	2061		JMP ($00C2)

087C	0203		INC2 R2, R0
087E	A05B		BRA $08DC		; $5C(R0)

0880	8403		LBI R4, #$03
0882	044D		MLH R4, R4
0884	8400		LBI R4, #$00
0886	6542		MOVB R5, (R4)+++
0888	C503		SZ R5
088A	F01D		BRA $086E		; -> -$1E(R0)

088C	6540		MOVB R5, (R4)+
088E	C503		SZ R5
0890	A007		BRA $089A		; $08(R0)

0892	6548		MOVB R5, (R4)
0894	8110		LBI R1, #$10
0896	C519		SGE R5, R1
0898	F02B		BRA $086E		; -> -$2C(R0)

089A	8548		LBI R5, #$48
089C	353A		MOVE $74, R5
089E	273B		MOVE R7, $76
08A0	C703		SZ R7
08A2	A011		BRA $08B6		; $12(R0)

08A4	253A		MOVE R5, $74
08A6	C50B		SNZ R5
08A8	A003		BRA $08AE		; $04(R0)

08AA	C504		SS R5
08AC	A015		BRA $08C4		; $16(R0)

08AE	8506		LBI R5, #$06
08B0	055D		MLH R5, R5
08B2	8514		LBI R5, #$14
08B4	F0D3		BRA $07E2		; -> -$D4(R0)

08B6	8540		LBI R5, #$40
08B8	8101		LBI R1, #$01
08BA	C17A		SNE R1, R7
08BC	8580		LBI R5, #$80
08BE	8104		LBI R1, #$04
08C0	C17A		SNE R1, R7
08C2	8580		LBI R5, #$80
08C4	8403		LBI R4, #$03
08C6	044D		MLH R4, R4
08C8	8400		LBI R4, #$00
08CA	7548		MOVB (R4), R5
08CC	850B		LBI R5, #$0B
08CE	8305		LBI R3, #$05
08D0	033D		MLH R3, R3
08D2	8392		LBI R3, #$92
08D4	7535		MOVB (R3)--, R5
08D6	0203		INC2 R2, R0
08D8	2061		JMP ($00C2)

08DA	0203		INC2 R2, R0
08DC	A08D		BRA $096C		; $8E(R0)

08DE	8502		LBI R5, #$02
08E0	0433		INC2 R4, R3
08E2	7548		MOVB (R4), R5
08E4	253B		MOVE R5, $76
08E6	C50B		SNZ R5
08E8	A051		BRA $093C		; $52(R0)

08EA	8305		LBI R3, #$05
08EC	033D		MLH R3, R3
08EE	8380		LBI R3, #$80
08F0	0203		INC2 R2, R0
08F2	2061		JMP ($00C2)

08F4	0203		INC2 R2, R0
08F6	A073		BRA $096C		; $74(R0)

08F8	8405		LBI R4, #$05
08FA	044D		MLH R4, R4
08FC	8488		LBI R4, #$88
08FE	6548		MOVB R5, (R4)
0900	273B		MOVE R7, $76
0902	8101		LBI R1, #$01
0904	C17A		SNE R1, R7
0906	A005		BRA $090E		; $06(R0)

0908	8104		LBI R1, #$04
090A	C172		SE R1, R7
090C	A500		ADD R5, #$01
090E	A500		ADD R5, #$01
0910	7548		MOVB (R4), R5
0912	D548		MOVE R5, (R4)
0914	2738		MOVE R7, $70
0916	0579		SUB R5, R7
0918	075C		MHL R7, R5
091A	055D		MLH R5, R5
091C	057C		MHL R5, R7
091E	0759		SUB R7, R5
0920	055C		MHL R5, R5
0922	057D		MLH R5, R7
0924	055C		MHL R5, R5
0926	81FE		LBI R1, #$FE
0928	C51E		SNBC R5, R1
092A	A029		BRA $0956		; $2A(R0)

092C	8305		LBI R3, #$05
092E	033D		MLH R3, R3
0930	8390		LBI R3, #$90
0932	0203		INC2 R2, R0
0934	2061		JMP ($00C2)

0936	0203		INC2 R2, R0
0938	A031		BRA $096C		; $32(R0)

093A	F057		BRA $08E4		; -> -$58(R0)

093C	8405		LBI R4, #$05
093E	044D		MLH R4, R4
0940	8488		LBI R4, #$88
0942	D448		MOVE R4, (R4)
0944	8C03		LBI R12, #$03
0946	0CCD		MLH R12, R12
0948	8C00		LBI R12, #$00
094A	8705		LBI R7, #$05
094C	D541		MOVE R5, (R4)+
094E	55C1		MOVE (R12)+, R5
0950	CC77		SBSH R12, R7
0952	F007		BRA $094C		; -> -$08(R0)

0954	F05D		BRA $08F8		; -> -$5E(R0)

0956	8305		LBI R3, #$05
0958	033D		MLH R3, R3
095A	8392		LBI R3, #$92
095C	8503		LBI R5, #$03
095E	7535		MOVB (R3)--, R5
0960	0203		INC2 R2, R0
0962	2061		JMP ($00C2)

0964	0203		INC2 R2, R0
0966	A003		BRA $096C		; $04(R0)

0968	2353		MOVE R3, $A6
096A	A01B		BRA $0988		; $1C(R0)

096C	0434		MOVE R4, R3
096E	A40B		ADD R4, #$0C
0970	D648		MOVE R6, (R4)
0972	C603		SZ R6
0974	A011		BRA $0988		; $12(R0)

0976	2552		MOVE R5, $A4
0978	055C		MHL R5, R5
097A	957F		CLR R5, #$7F
097C	C50B		SNZ R5
097E	0024		RET R2

0980	8501		LBI R5, #$01
0982	055D		MLH R5, R5
0984	8514		LBI R5, #$14
0986	F0D3		BRA $08B4		; -> -$D4(R0)

0988	2553		MOVE R5, $A6
098A	8403		LBI R4, #$03
098C	044D		MLH R4, R4
098E	8400		LBI R4, #$00
0990	8705		LBI R7, #$05
0992	5541		MOVE (R4)+, R5
0994	C477		SBSH R4, R7
0996	F005		BRA $0992		; -> -$06(R0)

0998	A4B9		ADD R4, #$BA
099A	5348		MOVE (R4), R3
099C	0344		MOVE R3, R4
099E	F317		SUB R3, #$18
09A0	2553		MOVE R5, $A6
09A2	7535		MOVB (R3)--, R5
09A4	0203		INC2 R2, R0
09A6	2061		JMP ($00C2)

09A8	0434		MOVE R4, R3
09AA	A419		ADD R4, #$1A
09AC	D345		MOVE R3, (R4)-
09AE	D248		MOVE R2, (R4)
09B0	013C		MHL R1, R3
09B2	0136		OR R1, R3
09B4	C10B		SNZ R1
09B6	0024		RET R2

09B8	6538		MOVB R5, (R3)
09BA	810E		LBI R1, #$0E
09BC	C152		SE R1, R5
09BE	A02B		BRA $09EC		; $2C(R0)

09C0	0433		INC2 R4, R3
09C2	6748		MOVB R7, (R4)
09C4	A409		ADD R4, #$0A
09C6	D648		MOVE R6, (R4)
09C8	8101		LBI R1, #$01
09CA	C172		SE R1, R7
09CC	A01D		BRA $09EC		; $1E(R0)

09CE	8124		LBI R1, #$24
09D0	C162		SE R1, R6
09D2	A007		BRA $09DC		; $08(R0)

09D4	016C		MHL R1, R6
09D6	811B		LBI R1, #$1B
09D8	C11A		SNE R1, R1
09DA	2353		MOVE R3, $A6
09DC	811B		LBI R1, #$1B
09DE	C162		SE R1, R6
09E0	A007		BRA $09EA		; $08(R0)

09E2	016C		MHL R1, R6
09E4	811C		LBI R1, #$1C
09E6	C11A		SNE R1, R1
09E8	2353		MOVE R3, $A6
09EA	0024		RET R2

09EC	2552		MOVE R5, $A4
09EE	8104		LBI R1, #$04
09F0	C517		SBSH R5, R1
09F2	0024		RET R2

09F4	811B		LBI R1, #$1B
09F6	C162		SE R1, R6
09F8	A007		BRA $0A02		; $08(R0)

09FA	016C		MHL R1, R6
09FC	811C		LBI R1, #$1C
09FE	C11A		SNE R1, R1
0A00	0024		RET R2

0A02	2253		MOVE R2, $A6
0A04	205A		JMP ($00B4)

0A06	0000		HALT
0A08	0000		HALT
0A0A	0000		HALT
0A0C	0000		HALT
0A0E	0000		HALT
0A10	0000		HALT
0A12	0000		HALT
0A14	0000		HALT
0A16	0000		HALT
0A18	0000		HALT
0A1A	0000		HALT
0A1C	0000		HALT
0A1E	0000		HALT
0A20	0000		HALT
0A22	0000		HALT
0A24	0000		HALT
0A26	0000		HALT
0A28	0000		HALT
0A2A	0000		HALT
0A2C	0000		HALT
0A2E	0000		HALT
0A30	0000		HALT
0A32	0000		HALT
0A34	0000		HALT
0A36	0000		HALT
0A38	0000		HALT
0A3A	0000		HALT
0A3C	0000		HALT
0A3E	0000		HALT
0A40	0000		HALT
0A42	0000		HALT
0A44	0000		HALT
0A46	0000		HALT
0A48	0000		HALT
0A4A	0000		HALT
0A4C	0000		HALT
0A4E	0000		HALT
0A50	0000		HALT
0A52	0000		HALT
0A54	0000		HALT
0A56	0000		HALT
0A58	0000		HALT
0A5A	0000		HALT
0A5C	0000		HALT
0A5E	0000		HALT
0A60	0000		HALT
0A62	0000		HALT
0A64	0000		HALT
0A66	0000		HALT
0A68	0000		HALT
0A6A	0000		HALT
0A6C	0000		HALT
0A6E	0000		HALT
0A70	0000		HALT
0A72	0000		HALT
0A74	0000		HALT
0A76	0000		HALT
0A78	0000		HALT
0A7A	0000		HALT
0A7C	0000		HALT
0A7E	0000		HALT
0A80	0000		HALT
0A82	0000		HALT
0A84	0000		HALT
0A86	0000		HALT
0A88	0000		HALT
0A8A	0000		HALT
0A8C	0000		HALT
0A8E	0000		HALT
0A90	0000		HALT
0A92	0000		HALT
0A94	0000		HALT
0A96	0000		HALT
0A98	0000		HALT
0A9A	0000		HALT
0A9C	0000		HALT
0A9E	0000		HALT
0AA0	A00F		BRA $0AB2		; $10(R0)

0AA2	8110		LBI R1, #$10
0AA4	011D		MLH R1, R1
0AA6	8166		LBI R1, #$66
0AA8	0014		RET R1

0AAA	8110		LBI R1, #$10
0AAC	011D		MLH R1, R1
0AAE	817E		LBI R1, #$7E
0AB0	0014		RET R1

0AB2	2F52		MOVE R15, $A4
0AB4	8106		LBI R1, #$06
0AB6	CF1E		SNBC R15, R1
0AB8	2353		MOVE R3, $A6
0ABA	8902		LBI R9, #$02
0ABC	099D		MLH R9, R9
0ABE	8900		LBI R9, #$00
0AC0	0E94		MOVE R14, R9
0AC2	8C08		LBI R12, #$08
0AC4	0203		INC2 R2, R0
0AC6	A0F3		BRA $0BBC		; $F4(R0)

0AC8	0E94		MOVE R14, R9
0ACA	8E0E		LBI R14, #$0E
0ACC	8104		LBI R1, #$04
0ACE	011D		MLH R1, R1
0AD0	8103		LBI R1, #$03
0AD2	51E8		MOVE (R14), R1
0AD4	8E2E		LBI R14, #$2E
0AD6	51E1		MOVE (R14)+, R1
0AD8	8110		LBI R1, #$10
0ADA	011D		MLH R1, R1
0ADC	811C		LBI R1, #$1C
0ADE	51E8		MOVE (R14), R1
0AE0	8E10		LBI R14, #$10
0AE2	51E8		MOVE (R14), R1
0AE4	8E80		LBI R14, #$80
0AE6	0DE4		MOVE R13, R14
0AE8	2F52		MOVE R15, $A4
0AEA	01FC		MHL R1, R15
0AEC	B110		SET R1, #$10
0AEE	91E7		CLR R1, #$E7
0AF0	0F1D		MLH R15, R1
0AF2	9F20		CLR R15, #$20
0AF4	BF01		SET R15, #$01
0AF6	3F52		MOVE $A4, R15
0AF8	8106		LBI R1, #$06
0AFA	CF16		SBC R15, R1
0AFC	A003		BRA $0B02		; $04(R0)

0AFE	85E5		LBI R5, #$E5
0B00	A03F		BRA $0B42		; $40(R0)

0B02	0ED4		MOVE R14, R13
0B04	2F53		MOVE R15, $A6
0B06	3F50		MOVE $A0, R15
0B08	0403		INC2 R4, R0
0B0A	A09F		BRA $0BAC		; $A0(R0)

0B0C	2B53		MOVE R11, $A6
0B0E	8B04		LBI R11, #$04
0B10	C5BA		SNE R5, R11
0B12	A003		BRA $0B18		; $04(R0)

0B14	8B01		LBI R11, #$01
0B16	C5BA		SNE R5, R11
0B18	A06D		BRA $0B88		; $6E(R0)

0B1A	8BE7		LBI R11, #$E7
0B1C	C5BA		SNE R5, R11
0B1E	A047		BRA $0B68		; $48(R0)

0B20	2F52		MOVE R15, $A4
0B22	8906		LBI R9, #$06
0B24	8B03		LBI R11, #$03
0B26	C5B0		SLE R5, R11
0B28	A017		BRA $0B42		; $18(R0)

0B2A	CF96		SBC R15, R9
0B2C	A039		BRA $0B68		; $3A(R0)

0B2E	C5B2		SE R5, R11
0B30	A007		BRA $0B3A		; $08(R0)

0B32	810C		LBI R1, #$0C
0B34	011D		MLH R1, R1
0B36	818E		LBI R1, #$8E
0B38	0014		RET R1

0B3A	810E		LBI R1, #$0E
0B3C	011D		MLH R1, R1
0B3E	818A		LBI R1, #$8A
0B40	0014		RET R1

0B42	8BE5		LBI R11, #$E5
0B44	C5B2		SE R5, R11
0B46	F045		BRA $0B02		; -> -$46(R0)

0B48	9F46		CLR R15, #$46
0B4A	3F52		MOVE $A4, R15
0B4C	8F0A		LBI R15, #$0A
0B4E	0FFD		MLH R15, R15
0B50	8FA0		LBI R15, #$A0
0B52	3F5C		MOVE $B8, R15
0B54	8E00		LBI R14, #$00
0B56	8104		LBI R1, #$04
0B58	71E0		MOVB (R14)+, R1
0B5A	8109		LBI R1, #$09
0B5C	71E0		MOVB (R14)+, R1
0B5E	8101		LBI R1, #$01
0B60	71E0		MOVB (R14)+, R1
0B62	8107		LBI R1, #$07
0B64	71E8		MOVB (R14), R1
0B66	F065		BRA $0B02		; -> -$66(R0)

0B68	8E40		LBI R14, #$40
0B6A	8105		LBI R1, #$05
0B6C	71E0		MOVB (R14)+, R1
0B6E	8112		LBI R1, #$12
0B70	71E0		MOVB (R14)+, R1
0B72	71E8		MOVB (R14), R1
0B74	8F00		LBI R15, #$00
0B76	0ED4		MOVE R14, R13
0B78	0403		INC2 R4, R0
0B7A	A02F		BRA $0BAC		; $30(R0)

0B7C	8E40		LBI R14, #$40
0B7E	8C01		LBI R12, #$01
0B80	0203		INC2 R2, R0
0B82	A037		BRA $0BBC		; $38(R0)

0B84	0ED4		MOVE R14, R13
0B86	F07B		BRA $0B0C		; -> -$7C(R0)

0B88	75E1		MOVB (R14)++, R5
0B8A	0203		INC2 R2, R0
0B8C	A025		BRA $0BB4		; $26(R0)

0B8E	9601		CLR R6, #$01
0B90	0764		MOVE R7, R6
0B92	8EC2		LBI R14, #$C2
0B94	810C		LBI R1, #$0C
0B96	71E0		MOVB (R14)+, R1
0B98	810F		LBI R1, #$0F
0B9A	71E0		MOVB (R14)+, R1
0B9C	8103		LBI R1, #$03
0B9E	71E0		MOVB (R14)+, R1
0BA0	8170		LBI R1, #$70
0BA2	71E8		MOVB (R14), R1
0BA4	8104		LBI R1, #$04
0BA6	CB11		SLT R11, R1
0BA8	A021		BRA $0BCC		; $22(R0)

0BAA	A09F		BRA $0C4C		; $A0(R0)

0BAC	810F		LBI R1, #$0F
0BAE	011D		MLH R1, R1
0BB0	81AC		LBI R1, #$AC
0BB2	0014		RET R1

0BB4	810F		LBI R1, #$0F
0BB6	011D		MLH R1, R1
0BB8	81DE		LBI R1, #$DE
0BBA	0014		RET R1

0BBC	8110		LBI R1, #$10
0BBE	011D		MLH R1, R1
0BC0	816E		LBI R1, #$6E
0BC2	0014		RET R1

0BC4	8110		LBI R1, #$10
0BC6	011D		MLH R1, R1
0BC8	8146		LBI R1, #$46
0BCA	0014		RET R1

0BCC	2F54		MOVE R15, $A8
0BCE	0FFC		MHL R15, R15
0BD0	8A3F		LBI R10, #$3F
0BD2	CFA0		SLE R15, R10
0BD4	8A7F		LBI R10, #$7F
0BD6	CFA0		SLE R15, R10
0BD8	8ABF		LBI R10, #$BF
0BDA	CFA0		SLE R15, R10
0BDC	8AFF		LBI R10, #$FF
0BDE	0ED4		MOVE R14, R13
0BE0	AE81		ADD R14, #$82
0BE2	0F7C		MHL R15, R7
0BE4	CFA8		SGT R15, R10
0BE6	A005		BRA $0BEE		; $06(R0)

0BE8	CF04		SS R15
0BEA	8F00		LBI R15, #$00
0BEC	0FA5		AND R15, R10
0BEE	07FD		MLH R7, R15
0BF0	0674		MOVE R6, R7
0BF2	0203		INC2 R2, R0
0BF4	F031		BRA $0BC4		; -> -$32(R0)

0BF6	AE03		ADD R14, #$04
0BF8	0F7C		MHL R15, R7
0BFA	CFA8		SGT R15, R10
0BFC	A005		BRA $0C04		; $06(R0)

0BFE	CF04		SS R15
0C00	8F00		LBI R15, #$00
0C02	0FA5		AND R15, R10
0C04	07FD		MLH R7, R15
0C06	D671		MOVE R6, (R7)+
0C08	0203		INC2 R2, R0
0C0A	F047		BRA $0BC4		; -> -$48(R0)

0C0C	AE01		ADD R14, #$02
0C0E	813A		LBI R1, #$3A
0C10	CE15		SBS R14, R1
0C12	F01B		BRA $0BF8		; -> -$1C(R0)

0C14	81BA		LBI R1, #$BA
0C16	CE11		SLT R14, R1
0C18	A003		BRA $0C1E		; $04(R0)

0C1A	8E82		LBI R14, #$82
0C1C	F03B		BRA $0BE2		; -> -$3C(R0)

0C1E	0ED4		MOVE R14, R13
0C20	8F04		LBI R15, #$04
0C22	0403		INC2 R4, R0
0C24	F079		BRA $0BAC		; -> -$7A(R0)

0C26	81FD		LBI R1, #$FD
0C28	C51A		SNE R5, R1
0C2A	F05F		BRA $0BCC		; -> -$60(R0)

0C2C	81FC		LBI R1, #$FC
0C2E	C512		SE R5, R1
0C30	A003		BRA $0C36		; $04(R0)

0C32	F73F		SUB R7, #$40
0C34	F069		BRA $0BCC		; -> -$6A(R0)

0C36	81E7		LBI R1, #$E7
0C38	C51A		SNE R5, R1
0C3A	A005		BRA $0C42		; $06(R0)

0C3C	8104		LBI R1, #$04
0C3E	C510		SLE R5, R1
0C40	F023		BRA $0C1E		; -> -$24(R0)

0C42	8C05		LBI R12, #$05
0C44	0203		INC2 R2, R0
0C46	F08B		BRA $0BBC		; -> -$8C(R0)

0C48	0ED4		MOVE R14, R13
0C4A	F0C5		BRA $0B86		; -> -$C6(R0)

0C4C	BB80		SET R11, #$80
0C4E	0ED4		MOVE R14, R13
0C50	AE81		ADD R14, #$82
0C52	0674		MOVE R6, R7
0C54	0203		INC2 R2, R0
0C56	F093		BRA $0BC4		; -> -$94(R0)

0C58	AE03		ADD R14, #$04
0C5A	0203		INC2 R2, R0
0C5C	F0A9		BRA $0BB4		; -> -$AA(R0)

0C5E	5671		MOVE (R7)+, R6
0C60	AE01		ADD R14, #$02
0C62	813A		LBI R1, #$3A
0C64	CE15		SBS R14, R1
0C66	F00D		BRA $0C5A		; -> -$0E(R0)

0C68	81BA		LBI R1, #$BA
0C6A	CE11		SLT R14, R1
0C6C	A003		BRA $0C72		; $04(R0)

0C6E	8E82		LBI R14, #$82
0C70	F01F		BRA $0C52		; -> -$20(R0)

0C72	8E02		LBI R14, #$02
0C74	09E4		MOVE R9, R14
0C76	8982		LBI R9, #$82
0C78	DF91		MOVE R15, (R9)+
0C7A	5FE1		MOVE (R14)+, R15
0C7C	813A		LBI R1, #$3A
0C7E	CE15		SBS R14, R1
0C80	F009		BRA $0C78		; -> -$0A(R0)

0C82	8E82		LBI R14, #$82
0C84	8C01		LBI R12, #$01
0C86	0203		INC2 R2, R0
0C88	F0CD		BRA $0BBC		; -> -$CE(R0)

0C8A	8E82		LBI R14, #$82
0C8C	F03B		BRA $0C52		; -> -$3C(R0)

0C8E	75E1		MOVB (R14)++, R5
0C90	8F00		LBI R15, #$00
0C92	0403		INC2 R4, R0
0C94	F0E9		BRA $0BAC		; -> -$EA(R0)

0C96	81F0		LBI R1, #$F0
0C98	8AF9		LBI R10, #$F9
0C9A	C511		SLT R5, R1
0C9C	C5A0		SLE R5, R10
0C9E	F00F		BRA $0C90		; -> -$10(R0)

0CA0	275B		MOVE R7, $B6
0CA2	BB40		SET R11, #$40
0CA4	0A54		MOVE R10, R5
0CA6	9AF0		CLR R10, #$F0
0CA8	0AA8		ADD R10, R10
0CAA	00A8		ADD R0, R10
0CAC	A01F		BRA $0CCE		; $20(R0)

0CAE	A01D		BRA $0CCE		; $1E(R0)

0CB0	A08D		BRA $0D40		; $8E(R0)

0CB2	A0A7		BRA $0D5C		; $A8(R0)

0CB4	A0C5		BRA $0D7C		; $C6(R0)

0CB6	A0DF		BRA $0D98		; $E0(R0)

0CB8	F029		BRA $0C90		; -> -$2A(R0)

0CBA	F02B		BRA $0C90		; -> -$2C(R0)

0CBC	A007		BRA $0CC6		; $08(R0)

0CBE	810D		LBI R1, #$0D
0CC0	011D		MLH R1, R1
0CC2	81BC		LBI R1, #$BC
0CC4	0014		RET R1

0CC6	810D		LBI R1, #$0D
0CC8	011D		MLH R1, R1
0CCA	81F4		LBI R1, #$F4
0CCC	0014		RET R1

0CCE	8114		LBI R1, #$14
0CD0	71E0		MOVB (R14)+, R1
0CD2	8101		LBI R1, #$01
0CD4	71E0		MOVB (R14)+, R1
0CD6	8110		LBI R1, #$10
0CD8	71E0		MOVB (R14)+, R1
0CDA	8105		LBI R1, #$05
0CDC	71E3		MOVB (R14)++++, R1
0CDE	CA0B		SNZ R10
0CE0	A011		BRA $0CF4		; $12(R0)

0CE2	8104		LBI R1, #$04
0CE4	71E0		MOVB (R14)+, R1
0CE6	8109		LBI R1, #$09
0CE8	71E0		MOVB (R14)+, R1
0CEA	8101		LBI R1, #$01
0CEC	71E0		MOVB (R14)+, R1
0CEE	8107		LBI R1, #$07
0CF0	71E8		MOVB (R14), R1
0CF2	A00F		BRA $0D04		; $10(R0)

0CF4	8114		LBI R1, #$14
0CF6	71E0		MOVB (R14)+, R1
0CF8	8105		LBI R1, #$05
0CFA	71E0		MOVB (R14)+, R1
0CFC	8113		LBI R1, #$13
0CFE	71E0		MOVB (R14)+, R1
0D00	8114		LBI R1, #$14
0D02	71E8		MOVB (R14), R1
0D04	8305		LBI R3, #$05
0D06	033D		MLH R3, R3
0D08	8340		LBI R3, #$40
0D0A	0E34		MOVE R14, R3
0D0C	8C02		LBI R12, #$02
0D0E	0203		INC2 R2, R0
0D10	F089		BRA $0C88		; -> -$8A(R0)

0D12	0934		MOVE R9, R3
0D14	8F01		LBI R15, #$01
0D16	7F90		MOVB (R9)+, R15
0D18	8F08		LBI R15, #$08
0D1A	7F90		MOVB (R9)+, R15
0D1C	8F01		LBI R15, #$01
0D1E	7F90		MOVB (R9)+, R15
0D20	8FA8		LBI R15, #$A8
0D22	7F90		MOVB (R9)+, R15
0D24	0F34		MOVE R15, R3
0D26	AF3F		ADD R15, #$40
0D28	5F92		MOVE (R9)+', R15
0D2A	8F12		LBI R15, #$12
0D2C	7F91		MOVB (R9)++, R15
0D2E	8FC3		LBI R15, #$C3
0D30	0FFD		MLH R15, R15
0D32	8F00		LBI R15, #$00
0D34	CA0B		SNZ R10
0D36	AF11		ADD R15, #$12
0D38	5F98		MOVE (R9), R15
0D3A	2761		MOVE R7, $C2
0D3C	0ED4		MOVE R14, R13
0D3E	A075		BRA $0DB6		; $76(R0)

0D40	810F		LBI R1, #$0F
0D42	71E0		MOVB (R14)+, R1
0D44	8110		LBI R1, #$10
0D46	71E2		MOVB (R14)+++, R1
0D48	8103		LBI R1, #$03
0D4A	71E0		MOVB (R14)+, R1
0D4C	810F		LBI R1, #$0F
0D4E	71E0		MOVB (R14)+, R1
0D50	8104		LBI R1, #$04
0D52	71E0		MOVB (R14)+, R1
0D54	8105		LBI R1, #$05
0D56	71E8		MOVB (R14), R1
0D58	A707		ADD R7, #$08
0D5A	A059		BRA $0DB6		; $5A(R0)

0D5C	8112		LBI R1, #$12
0D5E	71E0		MOVB (R14)+, R1
0D60	810F		LBI R1, #$0F
0D62	71E0		MOVB (R14)+, R1
0D64	8113		LBI R1, #$13
0D66	71E2		MOVB (R14)+++, R1
0D68	8112		LBI R1, #$12
0D6A	71E0		MOVB (R14)+, R1
0D6C	8105		LBI R1, #$05
0D6E	71E0		MOVB (R14)+, R1
0D70	8101		LBI R1, #$01
0D72	71E0		MOVB (R14)+, R1
0D74	8104		LBI R1, #$04
0D76	71E8		MOVB (R14), R1
0D78	A70F		ADD R7, #$10
0D7A	A039		BRA $0DB6		; $3A(R0)

0D7C	8112		LBI R1, #$12
0D7E	71E0		MOVB (R14)+, R1
0D80	810F		LBI R1, #$0F
0D82	71E0		MOVB (R14)+, R1
0D84	8113		LBI R1, #$13
0D86	71E2		MOVB (R14)+++, R1
0D88	8101		LBI R1, #$01
0D8A	71E0		MOVB (R14)+, R1
0D8C	8104		LBI R1, #$04
0D8E	71E0		MOVB (R14)+, R1
0D90	8112		LBI R1, #$12
0D92	71E8		MOVB (R14), R1
0D94	A717		ADD R7, #$18
0D96	A01D		BRA $0DB6		; $1E(R0)

0D98	8112		LBI R1, #$12
0D9A	71E0		MOVB (R14)+, R1
0D9C	8101		LBI R1, #$01
0D9E	71E0		MOVB (R14)+, R1
0DA0	810D		LBI R1, #$0D
0DA2	71E2		MOVB (R14)+++, R1
0DA4	8114		LBI R1, #$14
0DA6	71E0		MOVB (R14)+, R1
0DA8	8105		LBI R1, #$05
0DAA	71E0		MOVB (R14)+, R1
0DAC	8113		LBI R1, #$13
0DAE	71E0		MOVB (R14)+, R1
0DB0	8114		LBI R1, #$14
0DB2	71E8		MOVB (R14), R1
0DB4	A71F		ADD R7, #$20
0DB6	8EC2		LBI R14, #$C2
0DB8	0AE4		MOVE R10, R14
0DBA	A0CB		BRA $0E88		; $CC(R0)

0DBC	8104		LBI R1, #$04
0DBE	71E0		MOVB (R14)+, R1
0DC0	8115		LBI R1, #$15
0DC2	71E0		MOVB (R14)+, R1
0DC4	810D		LBI R1, #$0D
0DC6	71E0		MOVB (R14)+, R1
0DC8	8110		LBI R1, #$10
0DCA	71E8		MOVB (R14), R1
0DCC	8E94		LBI R14, #$94
0DCE	8105		LBI R1, #$05
0DD0	71E0		MOVB (R14)+, R1
0DD2	810E		LBI R1, #$0E
0DD4	71E0		MOVB (R14)+, R1
0DD6	8104		LBI R1, #$04
0DD8	71E0		MOVB (R14)+, R1
0DDA	8170		LBI R1, #$70
0DDC	71E8		MOVB (R14), R1
0DDE	AE3C		ADD R14, #$3D
0DE0	8114		LBI R1, #$14
0DE2	71E0		MOVB (R14)+, R1
0DE4	8119		LBI R1, #$19
0DE6	71E0		MOVB (R14)+, R1
0DE8	8110		LBI R1, #$10
0DEA	71E0		MOVB (R14)+, R1
0DEC	8105		LBI R1, #$05
0DEE	71E8		MOVB (R14), R1
0DF0	8E88		LBI R14, #$88
0DF2	A00F		BRA $0E04		; $10(R0)

0DF4	810C		LBI R1, #$0C
0DF6	71E0		MOVB (R14)+, R1
0DF8	810F		LBI R1, #$0F
0DFA	71E0		MOVB (R14)+, R1
0DFC	8101		LBI R1, #$01
0DFE	71E0		MOVB (R14)+, R1
0E00	8104		LBI R1, #$04
0E02	71E2		MOVB (R14)+++, R1
0E04	810D		LBI R1, #$0D
0E06	71E0		MOVB (R14)+, R1
0E08	8105		LBI R1, #$05
0E0A	71E0		MOVB (R14)+, R1
0E0C	810D		LBI R1, #$0D
0E0E	71E0		MOVB (R14)+, R1
0E10	8170		LBI R1, #$70
0E12	71E8		MOVB (R14), R1
0E14	AE3C		ADD R14, #$3D
0E16	8106		LBI R1, #$06
0E18	71E0		MOVB (R14)+, R1
0E1A	8109		LBI R1, #$09
0E1C	71E0		MOVB (R14)+, R1
0E1E	810C		LBI R1, #$0C
0E20	71E0		MOVB (R14)+, R1
0E22	8105		LBI R1, #$05
0E24	71E0		MOVB (R14)+, R1
0E26	8171		LBI R1, #$71
0E28	71E8		MOVB (R14), R1
0E2A	AE3B		ADD R14, #$3C
0E2C	8113		LBI R1, #$13
0E2E	71E0		MOVB (R14)+, R1
0E30	8105		LBI R1, #$05
0E32	71E0		MOVB (R14)+, R1
0E34	810C		LBI R1, #$0C
0E36	71E0		MOVB (R14)+, R1
0E38	8114		LBI R1, #$14
0E3A	71E8		MOVB (R14), R1
0E3C	0ED4		MOVE R14, R13
0E3E	8E8E		LBI R14, #$8E
0E40	2153		MOVE R1, $A6
0E42	3138		MOVE $70, R1
0E44	313A		MOVE $74, R1
0E46	0203		INC2 R2, R0
0E48	A0B1		BRA $0EFC		; $B2(R0)

0E4A	3637		MOVE $6E, R6
0E4C	8112		LBI R1, #$12
0E4E	CA12		SE R10, R1
0E50	A007		BRA $0E5A		; $08(R0)

0E52	8E9A		LBI R14, #$9A
0E54	0203		INC2 R2, R0
0E56	A0A3		BRA $0EFC		; $A4(R0)

0E58	3638		MOVE $70, R6
0E5A	8ECE		LBI R14, #$CE
0E5C	0203		INC2 R2, R0
0E5E	A09B		BRA $0EFC		; $9C(R0)

0E60	3639		MOVE $72, R6
0E62	8112		LBI R1, #$12
0E64	CA12		SE R10, R1
0E66	A007		BRA $0E70		; $08(R0)

0E68	8EDA		LBI R14, #$DA
0E6A	0203		INC2 R2, R0
0E6C	A08D		BRA $0EFC		; $8E(R0)

0E6E	363A		MOVE $74, R6
0E70	8E03		LBI R14, #$03
0E72	0EED		MLH R14, R14
0E74	8E0E		LBI R14, #$0E
0E76	0203		INC2 R2, R0
0E78	A081		BRA $0EFC		; $82(R0)

0E7A	363B		MOVE $76, R6
0E7C	2766		MOVE R7, $CC
0E7E	8112		LBI R1, #$12
0E80	CA1A		SNE R10, R1
0E82	A701		ADD R7, #$02
0E84	0AE4		MOVE R10, R14
0E86	8A48		LBI R10, #$48
0E88	A089		BRA $0F14		; $8A(R0)

0E8A	75E0		MOVB (R14)+, R5
0E8C	8F00		LBI R15, #$00
0E8E	0403		INC2 R4, R0
0E90	A093		BRA $0F26		; $94(R0)

0E92	8105		LBI R1, #$05
0E94	C51A		SNE R5, R1
0E96	BB40		SET R11, #$40
0E98	8112		LBI R1, #$12
0E9A	C51A		SNE R5, R1
0E9C	BB20		SET R11, #$20
0E9E	8108		LBI R1, #$08
0EA0	C51A		SNE R5, R1
0EA2	BB10		SET R11, #$10
0EA4	8110		LBI R1, #$10
0EA6	CB19		SGE R11, R1
0EA8	F01D		BRA $0E8C		; -> -$1E(R0)

0EAA	75E2		MOVB (R14)+++, R5
0EAC	8140		LBI R1, #$40
0EAE	CB15		SBS R11, R1
0EB0	A013		BRA $0EC6		; $14(R0)

0EB2	8112		LBI R1, #$12
0EB4	71E0		MOVB (R14)+, R1
0EB6	810F		LBI R1, #$0F
0EB8	71E0		MOVB (R14)+, R1
0EBA	8113		LBI R1, #$13
0EBC	71E0		MOVB (R14)+, R1
0EBE	8170		LBI R1, #$70
0EC0	71E8		MOVB (R14), R1
0EC2	AE3C		ADD R14, #$3D
0EC4	A029		BRA $0EF0		; $2A(R0)

0EC6	810D		LBI R1, #$0D
0EC8	011D		MLH R1, R1
0ECA	8105		LBI R1, #$05
0ECC	51E1		MOVE (R14)+, R1
0ECE	8170		LBI R1, #$70
0ED0	51E8		MOVE (R14), R1
0ED2	AE3D		ADD R14, #$3E
0ED4	8110		LBI R1, #$10
0ED6	CB15		SBS R11, R1
0ED8	A015		BRA $0EF0		; $16(R0)

0EDA	8108		LBI R1, #$08
0EDC	71E0		MOVB (R14)+, R1
0EDE	8101		LBI R1, #$01
0EE0	71E0		MOVB (R14)+, R1
0EE2	810C		LBI R1, #$0C
0EE4	71E0		MOVB (R14)+, R1
0EE6	8114		LBI R1, #$14
0EE8	71E0		MOVB (R14)+, R1
0EEA	8170		LBI R1, #$70
0EEC	71E8		MOVB (R14), R1
0EEE	AE3B		ADD R14, #$3C
0EF0	0AE4		MOVE R10, R14
0EF2	0ED4		MOVE R14, R13
0EF4	8E8C		LBI R14, #$8C
0EF6	A001		BRA $0EFA		; $02(R0)

0EF8	BB08		SET R11, #$08
0EFA	0203		INC2 R2, R0
0EFC	A0DF		BRA $0FDE		; $E0(R0)

0EFE	FE03		SUB R14, #$04
0F00	9601		CLR R6, #$01
0F02	0203		INC2 R2, R0
0F04	A0A3		BRA $0FAA		; $A4(R0)

0F06	AE3B		ADD R14, #$3C
0F08	8108		LBI R1, #$08
0F0A	CB15		SBS R11, R1
0F0C	0764		MOVE R7, R6
0F0E	8113		LBI R1, #$13
0F10	CB18		SGT R11, R1
0F12	F01B		BRA $0EF8		; -> -$1C(R0)

0F14	0EA4		MOVE R14, R10
0F16	8105		LBI R1, #$05
0F18	011D		MLH R1, R1
0F1A	8118		LBI R1, #$18
0F1C	51E1		MOVE (R14)+, R1
0F1E	8103		LBI R1, #$03
0F20	51E2		MOVE (R14)+', R1
0F22	8F28		LBI R15, #$28
0F24	0403		INC2 R4, R0
0F26	A083		BRA $0FAC		; $84(R0)

0F28	81E3		LBI R1, #$E3
0F2A	C512		SE R5, R1
0F2C	F019		BRA $0F14		; -> -$1A(R0)

0F2E	8F28		LBI R15, #$28
0F30	7FE8		MOVB (R14), R15
0F32	8110		LBI R1, #$10
0F34	CB15		SBS R11, R1
0F36	A009		BRA $0F42		; $0A(R0)

0F38	363F		MOVE $7E, R6
0F3A	DF68		MOVE R15, (R6)
0F3C	3F3E		MOVE $7C, R15
0F3E	2F53		MOVE R15, $A6
0F40	5F68		MOVE (R6), R15
0F42	8C01		LBI R12, #$01
0F44	8E05		LBI R14, #$05
0F46	0EED		MLH R14, R14
0F48	8EC0		LBI R14, #$C0
0F4A	0203		INC2 R2, R0
0F4C	A08D		BRA $0FDC		; $8E(R0)

0F4E	820F		LBI R2, #$0F
0F50	022D		MLH R2, R2
0F52	827E		LBI R2, #$7E
0F54	3277		MOVE $EE, R2
0F56	0F34		MOVE R15, R3
0F58	AF0B		ADD R15, #$0C
0F5A	2953		MOVE R9, $A6
0F5C	01FC		MHL R1, R15
0F5E	C103		SZ R1
0F60	59F8		MOVE (R15), R9
0F62	2F52		MOVE R15, $A4
0F64	09FC		MHL R9, R15
0F66	B902		SET R9, #$02
0F68	8110		LBI R1, #$10
0F6A	CB16		SBC R11, R1
0F6C	B901		SET R9, #$01
0F6E	0F9D		MLH R15, R9
0F70	9F01		CLR R15, #$01
0F72	3F52		MOVE $A4, R15
0F74	8140		LBI R1, #$40
0F76	CB16		SBC R11, R1
0F78	0074		RET R7

0F7A	3774		MOVE $E8, R7
0F7C	2076		JMP ($00EC)

0F7E	2F52		MOVE R15, $A4
0F80	8101		LBI R1, #$01
0F82	CF17		SBSH R15, R1
0F84	A005		BRA $0F8C		; $06(R0)

0F86	213F		MOVE R1, $7E
0F88	253E		MOVE R5, $7C
0F8A	5518		MOVE (R1), R5
0F8C	820A		LBI R2, #$0A
0F8E	022D		MLH R2, R2
0F90	82BA		LBI R2, #$BA
0F92	0F3C		MHL R15, R3
0F94	0004		NOP
0F96	CF0B		SNZ R15
0F98	0024		RET R2

0F9A	0F34		MOVE R15, R3
0F9C	AF0B		ADD R15, #$0C
0F9E	D9F8		MOVE R9, (R15)
0FA0	019C		MHL R1, R9
0FA2	0916		OR R9, R1
0FA4	C903		SZ R9
0FA6	205A		JMP ($00B4)

0FA8	0024		RET R2

0FAA	A099		BRA $1046		; $9A(R0)

0FAC	AF7F		ADD R15, #$80
0FAE	7FE8		MOVB (R14), R15
0FB0	8C00		LBI R12, #$00
0FB2	8140		LBI R1, #$40
0FB4	0C1D		MLH R12, R1
0FB6	2550		MOVE R5, $A0
0FB8	8102		LBI R1, #$02
0FBA	C51F		SNBSH R5, R1
0FBC	A009		BRA $0FC8		; $0A(R0)

0FBE	FC00		SUB R12, #$01
0FC0	81FF		LBI R1, #$FF
0FC2	CC17		SBSH R12, R1
0FC4	F00F		BRA $0FB6		; -> -$10(R0)

0FC6	F01B		BRA $0FAC		; -> -$1C(R0)

0FC8	2153		MOVE R1, $A6
0FCA	3150		MOVE $A0, R1
0FCC	C503		SZ R5
0FCE	0044		RET R4

0FD0	820B		LBI R2, #$0B
0FD2	022D		MLH R2, R2
0FD4	8202		LBI R2, #$02
0FD6	0ED4		MOVE R14, R13
0FD8	FE3F		SUB R14, #$40
0FDA	8C06		LBI R12, #$06
0FDC	A08F		BRA $106E		; $90(R0)

0FDE	8804		LBI R8, #$04
0FE0	2653		MOVE R6, $A6
0FE2	2F53		MOVE R15, $A6
0FE4	0403		INC2 R4, R0
0FE6	F03B		BRA $0FAC		; -> -$3C(R0)

0FE8	81FB		LBI R1, #$FB
0FEA	C51A		SNE R5, R1
0FEC	A031		BRA $1020		; $32(R0)

0FEE	8106		LBI R1, #$06
0FF0	C510		SLE R5, R1
0FF2	A005		BRA $0FFA		; $06(R0)

0FF4	75E0		MOVB (R14)+, R5
0FF6	A523		ADD R5, #$24
0FF8	A00D		BRA $1008		; $0E(R0)

0FFA	811B		LBI R1, #$1B
0FFC	C519		SGE R5, R1
0FFE	F01D		BRA $0FE2		; -> -$1E(R0)

1000	8124		LBI R1, #$24
1002	C510		SLE R5, R1
1004	F023		BRA $0FE2		; -> -$24(R0)

1006	75E0		MOVB (R14)+, R5
1008	F51A		SUB R5, #$1B
100A	E06F		SWAP R6
100C	0656		OR R6, R5
100E	F800		SUB R8, #$01
1010	8102		LBI R1, #$02
1012	C812		SE R8, R1
1014	A003		BRA $101A		; $04(R0)

1016	066D		MLH R6, R6
1018	8600		LBI R6, #$00
101A	C803		SZ R8
101C	F03B		BRA $0FE2		; -> -$3C(R0)

101E	0024		RET R2

1020	8F04		LBI R15, #$04
1022	8180		LBI R1, #$80
1024	CB16		SBC R11, R1
1026	C8F2		SE R8, R15
1028	A00F		BRA $103A		; $10(R0)

102A	810A		LBI R1, #$0A
102C	CE18		SGT R14, R1
102E	F04D		BRA $0FE2		; -> -$4E(R0)

1030	818A		LBI R1, #$8A
1032	CE1A		SNE R14, R1
1034	F053		BRA $0FE2		; -> -$54(R0)

1036	F701		SUB R7, #$02
1038	F805		SUB R8, #$06
103A	C8FA		SNE R8, R15
103C	F05F		BRA $0FDE		; -> -$60(R0)

103E	8100		LBI R1, #$00
1040	71E4		MOVB (R14)-, R1
1042	A800		ADD R8, #$01
1044	F00B		BRA $103A		; -> -$0C(R0)

1046	8C02		LBI R12, #$02
1048	0F6C		MHL R15, R6
104A	890F		LBI R9, #$0F
104C	E0FF		SWAP R15
104E	09F5		AND R9, R15
1050	810A		LBI R1, #$0A
1052	C919		SGE R9, R1
1054	A923		ADD R9, #$24
1056	F908		SUB R9, #$09
1058	79E0		MOVB (R14)+, R9
105A	CC0C		SNS R12
105C	0024		RET R2

105E	FC00		SUB R12, #$01
1060	CC0B		SNZ R12
1062	0F64		MOVE R15, R6
1064	F01B		BRA $104A		; -> -$1C(R0)

1066	8E02		LBI R14, #$02
1068	0EED		MLH R14, R14
106A	8E00		LBI R14, #$00
106C	8C10		LBI R12, #$10
106E	2F53		MOVE R15, $A6
1070	813E		LBI R1, #$3E
1072	CE1D		SNBS R14, R1
1074	FC00		SUB R12, #$01
1076	5FE1		MOVE (R14)+, R15
1078	CC03		SZ R12
107A	F00B		BRA $1070		; -> -$0C(R0)

107C	0024		RET R2

107E	0724		MOVE R7, R2
1080	8E05		LBI R14, #$05
1082	0EED		MLH R14, R14
1084	8EC0		LBI R14, #$C0
1086	8C01		LBI R12, #$01
1088	0203		INC2 R2, R0
108A	F01D		BRA $106E		; -> -$1E(R0)

108C	FE3E		SUB R14, #$3F
108E	8105		LBI R1, #$05
1090	71E0		MOVB (R14)+, R1
1092	8112		LBI R1, #$12
1094	011D		MLH R1, R1
1096	51E1		MOVE (R14)+, R1
1098	8F0F		LBI R15, #$0F
109A	01FD		MLH R1, R15
109C	51E2		MOVE (R14)+', R1
109E	811B		LBI R1, #$1B
10A0	71E0		MOVB (R14)+, R1
10A2	0934		MOVE R9, R3
10A4	A90B		ADD R9, #$0C
10A6	DF98		MOVE R15, (R9)
10A8	5FE2		MOVE (R14)+', R15
10AA	D638		MOVE R6, (R3)
10AC	0203		INC2 R2, R0
10AE	F069		BRA $1046		; -> -$6A(R0)

10B0	FE03		SUB R14, #$04
10B2	8100		LBI R1, #$00
10B4	71E8		MOVB (R14), R1
10B6	0074		RET R7

10B8	0000		HALT
10BA	0000		HALT
10BC	0000		HALT
10BE	0000		HALT
10C0	0000		HALT
10C2	0000		HALT
10C4	0000		HALT
10C6	0000		HALT
10C8	0000		HALT
10CA	0000		HALT
10CC	0000		HALT
10CE	0000		HALT
10D0	0000		HALT
10D2	0000		HALT
10D4	0000		HALT
10D6	0000		HALT
10D8	0000		HALT
10DA	0000		HALT
10DC	0000		HALT
10DE	0000		HALT
10E0	0000		HALT
10E2	0000		HALT
10E4	0000		HALT
10E6	0000		HALT
10E8	0000		HALT
10EA	0000		HALT
10EC	0000		HALT
10EE	0000		HALT
10F0	0000		HALT
10F2	0000		HALT
10F4	0000		HALT
10F6	0000		HALT
10F8	0000		HALT
10FA	0000		HALT
10FC	0000		HALT
10FE	0000		HALT
1100	0000		HALT
1102	0000		HALT
1104	0000		HALT
1106	0000		HALT
1108	0000		HALT
110A	0000		HALT
110C	0000		HALT
110E	0000		HALT
1110	0000		HALT
1112	0000		HALT
1114	0000		HALT
1116	0000		HALT
1118	0000		HALT
111A	0000		HALT
111C	0000		HALT
111E	0000		HALT
1120	1034		CTRL $0, #$34
1122	E88F		STAT R8, $8
1124	8508		LBI R5, #$08
1126	C856		SBC R8, R5
1128	A023		BRA $114E		; $24(R0)

112A	250F		MOVE R5, $1E
112C	957F		CLR R5, #$7F
112E	04AC		MHL R4, R10
1130	0546		OR R5, R4
1132	8600		LBI R6, #$00
1134	066D		MLH R6, R6
1136	862B		LBI R6, #$2B
1138	4868		PUTB $8, (R6)
113A	2700		MOVE R7, $00
113C	2504		MOVE R5, $08
113E	3500		MOVE $00, R5
1140	8610		LBI R6, #$10
1142	CA65		SBS R10, R6
1144	A003		BRA $114A		; $04(R0)

1146	18FA		CTRL $8, #$FA
1148	A01B		BRA $1166		; $1C(R0)

114A	18DA		CTRL $8, #$DA
114C	A017		BRA $1166		; $18(R0)

114E	8604		LBI R6, #$04
1150	CA65		SBS R10, R6
1152	A005		BRA $115A		; $06(R0)

1154	9A04		CLR R10, #$04
1156	2602		MOVE R6, $04
1158	3600		MOVE $00, R6
115A	2652		MOVE R6, $A4
115C	056C		MHL R5, R6
115E	B508		SET R5, #$08
1160	065D		MLH R6, R5
1162	3652		MOVE $A4, R6
1164	185E		CTRL $8, #$5E
1166	2652		MOVE R6, $A4
1168	8520		LBI R5, #$20
116A	C656		SBC R6, R5
116C	A00D		BRA $117C		; $0E(R0)

116E	8510		LBI R5, #$10
1170	C657		SBSH R6, R5
1172	A003		BRA $1178		; $04(R0)

1174	1054		CTRL $0, #$54
1176	F057		BRA $1120		; -> -$58(R0)

1178	1044		CTRL $0, #$44
117A	F05B		BRA $1120		; -> -$5C(R0)

117C	2651		MOVE R6, $A2
117E	056C		MHL R5, R6
1180	B5B0		SET R5, #$B0
1182	065D		MLH R6, R5
1184	3651		MOVE $A2, R6
1186	2076		JMP ($00EC)

1188	0000		HALT
118A	0000		HALT
118C	0000		HALT
118E	0000		HALT
1190	0000		HALT
1192	0000		HALT
1194	0000		HALT
1196	0000		HALT
1198	0000		HALT
119A	0000		HALT
119C	0000		HALT
119E	0000		HALT
11A0	0000		HALT
11A2	0000		HALT
11A4	0000		HALT
11A6	0000		HALT
11A8	0000		HALT
11AA	0000		HALT
11AC	0000		HALT
11AE	0000		HALT
11B0	0000		HALT
11B2	0000		HALT
11B4	0000		HALT
11B6	0000		HALT
11B8	0000		HALT
11BA	0000		HALT
11BC	0000		HALT
11BE	0000		HALT
11C0	0000		HALT
11C2	0000		HALT
11C4	0000		HALT
11C6	0000		HALT
11C8	0000		HALT
11CA	0000		HALT
11CC	0000		HALT
11CE	0000		HALT
11D0	0000		HALT
11D2	0000		HALT
11D4	0000		HALT
11D6	0000		HALT
11D8	0000		HALT
11DA	0000		HALT
11DC	0000		HALT
11DE	0000		HALT
11E0	0000		HALT
11E2	0000		HALT
11E4	0000		HALT
11E6	0000		HALT
11E8	0000		HALT
11EA	0000		HALT
11EC	0000		HALT
11EE	0000		HALT
11F0	0000		HALT
11F2	0000		HALT
11F4	0000		HALT
11F6	0000		HALT
11F8	0000		HALT
11FA	0000		HALT
11FC	0000		HALT
11FE	0000		HALT
1200	1108		CTRL $1, #$08
1202	8313		LBI R3, #$13
1204	033D		MLH R3, R3
1206	8304		LBI R3, #$04
1208	3382		MOVE $104, R3
120A	8301		LBI R3, #$01
120C	033D		MLH R3, R3
120E	8300		LBI R3, #$00
1210	3381		MOVE $102, R3
1212	8300		LBI R3, #$00
1214	033D		MLH R3, R3
1216	83A6		LBI R3, #$A6
1218	33B1		MOVE $162, R3
121A	8313		LBI R3, #$13
121C	033D		MLH R3, R3
121E	8310		LBI R3, #$10
1220	3391		MOVE $122, R3
1222	8313		LBI R3, #$13
1224	033D		MLH R3, R3
1226	83D0		LBI R3, #$D0
1228	3393		MOVE $126, R3
122A	8313		LBI R3, #$13
122C	033D		MLH R3, R3
122E	83D4		LBI R3, #$D4
1230	33A1		MOVE $142, R3
1232	8313		LBI R3, #$13
1234	033D		MLH R3, R3
1236	83D8		LBI R3, #$D8
1238	33A2		MOVE $144, R3
123A	8313		LBI R3, #$13
123C	033D		MLH R3, R3
123E	83DC		LBI R3, #$DC
1240	33A3		MOVE $146, R3
1242	8313		LBI R3, #$13
1244	033D		MLH R3, R3
1246	83E0		LBI R3, #$E0
1248	33A9		MOVE $152, R3
124A	8300		LBI R3, #$00
124C	033D		MLH R3, R3
124E	831A		LBI R3, #$1A
1250	33B9		MOVE $172, R3
1252	8300		LBI R3, #$00
1254	033D		MLH R3, R3
1256	831C		LBI R3, #$1C
1258	33BA		MOVE $174, R3
125A	8300		LBI R3, #$00
125C	033D		MLH R3, R3
125E	8306		LBI R3, #$06
1260	33BB		MOVE $176, R3
1262	8300		LBI R3, #$00
1264	033D		MLH R3, R3
1266	8313		LBI R3, #$13
1268	33C3		MOVE $186, R3
126A	8D00		LBI R13, #$00
126C	0DDD		MLH R13, R13
126E	8D00		LBI R13, #$00
1270	23B9		MOVE R3, $172
1272	4130		PUTB $1, (R3)+
1274	4138		PUTB $1, (R3)
1276	8D08		LBI R13, #$08
1278	0DDD		MLH R13, R13
127A	8D00		LBI R13, #$00
127C	3D83		MOVE $106, R13
127E	8CFF		LBI R12, #$FF
1280	013E		GETB R3, $1
1282	033D		MLH R3, R3
1284	0004		NOP
1286	013E		GETB R3, $1
1288	53D1		MOVE (R13)+, R3
128A	FC00		SUB R12, #$01
128C	CC04		SS R12
128E	F00F		BRA $1280		; -> -$10(R0)

1290	8301		LBI R3, #$01
1292	033D		MLH R3, R3
1294	830F		LBI R3, #$0F
1296	8701		LBI R7, #$01
1298	077D		MLH R7, R7
129A	871F		LBI R7, #$1F
129C	8408		LBI R4, #$08
129E	2553		MOVE R5, $A6
12A0	85FF		LBI R5, #$FF
12A2	0954		MOVE R9, R5
12A4	7534		MOVB (R3)-, R5
12A6	7974		MOVB (R7)-, R9
12A8	E05C		SHR R5
12AA	0998		ADD R9, R9
12AC	F400		SUB R4, #$01
12AE	C403		SZ R4
12B0	F00D		BRA $12A4		; -> -$0E(R0)

12B2	A300		ADD R3, #$01
12B4	A700		ADD R7, #$01
12B6	33C1		MOVE $182, R3
12B8	37C2		MOVE $184, R7
12BA	0303		INC2 R3, R0
12BC	33E7		MOVE $1CE, R3
12BE	8D02		LBI R13, #$02
12C0	0DDD		MLH R13, R13
12C2	8D00		LBI R13, #$00
12C4	23B9		MOVE R3, $172
12C6	4130		PUTB $1, (R3)+
12C8	4138		PUTB $1, (R3)
12CA	2352		MOVE R3, $A4
12CC	013C		MHL R1, R3
12CE	9102		CLR R1, #$02
12D0	031D		MLH R3, R1
12D2	3352		MOVE $A4, R3
12D4	2093		JMP ($0126)

12D6	0CCD		MLH R12, R12
12D8	01CE		GETB R12, $1
12DA	3C74		MOVE $E8, R12
12DC	2076		JMP ($00EC)

12DE	21DF		MOVE R1, $1BE
12E0	3174		MOVE $E8, R1
12E2	2076		JMP ($00EC)

12E4	2DDE		MOVE R13, $1BC
12E6	E13F		STAT R3, $1
12E8	E17F		STAT R7, $1
12EA	64D3		MOVB R4, (R13)++++
12EC	C340		SLE R3, R4
12EE	F005		BRA $12EA		; -> -$06(R0)

12F0	C342		SE R3, R4
12F2	A00F		BRA $1304		; $10(R0)

12F4	FD02		SUB R13, #$03
12F6	68D2		MOVB R8, (R13)+++
12F8	C782		SE R7, R8
12FA	F011		BRA $12EA		; -> -$12(R0)

12FC	FD01		SUB R13, #$02
12FE	D3D8		MOVE R3, (R13)
1300	3374		MOVE $E8, R3
1302	2076		JMP ($00EC)

1304	013E		GETB R3, $1
1306	2283		MOVE R2, $106
1308	0238		ADD R2, R3
130A	01CE		GETB R12, $1
130C	0238		ADD R2, R3
130E	D028		JMP (R2)
1310	015E		GETB R5, $1
1312	930F		CLR R3, #$0F
1314	0038		ADD R0, R3
1316	01DE		GETB R13, $1
1318	0D5D		MLH R13, R5
131A	0004		NOP
131C	01EE		GETB R14, $1
131E	0EED		MLH R14, R14
1320	0004		NOP
1322	01EE		GETB R14, $1
1324	0024		RET R2

1326	01DE		GETB R13, $1
1328	0D5D		MLH R13, R5
132A	2E88		MOVE R14, $110
132C	017E		GETB R7, $1
132E	0E78		ADD R14, R7
1330	0024		RET R2

1332	0000		HALT
1334	0000		HALT
1336	01DE		GETB R13, $1
1338	0D5D		MLH R13, R5
133A	2E90		MOVE R14, $120
133C	017E		GETB R7, $1
133E	0E78		ADD R14, R7
1340	0024		RET R2

1342	0000		HALT
1344	0000		HALT
1346	0000		HALT
1348	0000		HALT
134A	0000		HALT
134C	0000		HALT
134E	0000		HALT
1350	0000		HALT
1352	0000		HALT
1354	0000		HALT
1356	016E		GETB R6, $1
1358	2D88		MOVE R13, $110
135A	0D58		ADD R13, R5
135C	01EE		GETB R14, $1
135E	0E6D		MLH R14, R6
1360	0024		RET R2

1362	0000		HALT
1364	0000		HALT
1366	016E		GETB R6, $1
1368	2D88		MOVE R13, $110
136A	0D58		ADD R13, R5
136C	2E88		MOVE R14, $110
136E	0E68		ADD R14, R6
1370	0024		RET R2

1372	0000		HALT
1374	0000		HALT
1376	016E		GETB R6, $1
1378	2D88		MOVE R13, $110
137A	0D58		ADD R13, R5
137C	2E90		MOVE R14, $120
137E	0E68		ADD R14, R6
1380	0024		RET R2

1382	0000		HALT
1384	0000		HALT
1386	0000		HALT
1388	0000		HALT
138A	0000		HALT
138C	0000		HALT
138E	0000		HALT
1390	0000		HALT
1392	0000		HALT
1394	0000		HALT
1396	016E		GETB R6, $1
1398	2D90		MOVE R13, $120
139A	0D58		ADD R13, R5
139C	01EE		GETB R14, $1
139E	0E6D		MLH R14, R6
13A0	0024		RET R2

13A2	0000		HALT
13A4	0000		HALT
13A6	016E		GETB R6, $1
13A8	2D90		MOVE R13, $120
13AA	0D58		ADD R13, R5
13AC	2E88		MOVE R14, $110
13AE	0E68		ADD R14, R6
13B0	0024		RET R2

13B2	0000		HALT
13B4	0000		HALT
13B6	016E		GETB R6, $1
13B8	2D90		MOVE R13, $120
13BA	0D58		ADD R13, R5
13BC	2E90		MOVE R14, $120
13BE	0E68		ADD R14, R6
13C0	0024		RET R2

13C2	0000		HALT
13C4	0000		HALT
13C6	E11F		STAT R1, $1
13C8	011D		MLH R1, R1
13CA	E11F		STAT R1, $1
13CC	1074		CTRL $0, #$74
13CE	0000		HALT
13D0	8F01		LBI R15, #$01
13D2	2082		JMP ($0104)

13D4	8F21		LBI R15, #$21
13D6	2082		JMP ($0104)

13D8	8F04		LBI R15, #$04
13DA	2082		JMP ($0104)

13DC	8F24		LBI R15, #$24
13DE	2082		JMP ($0104)

13E0	8F02		LBI R15, #$02
13E2	2082		JMP ($0104)

13E4	015E		GETB R5, $1
13E6	2D88		MOVE R13, $110
13E8	0D58		ADD R13, R5
13EA	63D8		MOVB R3, (R13)
13EC	03C8		ADD R3, R12
13EE	73D8		MOVB (R13), R3
13F0	A01B		BRA $140E		; $1C(R0)

13F2	015E		GETB R5, $1
13F4	2D90		MOVE R13, $120
13F6	0D58		ADD R13, R5
13F8	63D8		MOVB R3, (R13)
13FA	03C8		ADD R3, R12
13FC	73D8		MOVB (R13), R3
13FE	A00D		BRA $140E		; $0E(R0)

1400	015E		GETB R5, $1
1402	0D5D		MLH R13, R5
1404	0004		NOP
1406	01DE		GETB R13, $1
1408	63D8		MOVB R3, (R13)
140A	03C8		ADD R3, R12
140C	73D8		MOVB (R13), R3
140E	8101		LBI R1, #$01
1410	C31F		SNBSH R3, R1
1412	A005		BRA $141A		; $06(R0)

1414	C30B		SNZ R3
1416	2093		JMP ($0126)

1418	20A2		JMP ($0144)

141A	C30B		SNZ R3
141C	20A1		JMP ($0142)

141E	20A3		JMP ($0146)

1420	015E		GETB R5, $1
1422	2E88		MOVE R14, $110
1424	0E58		ADD R14, R5
1426	63E0		MOVB R3, (R14)+
1428	64E8		MOVB R4, (R14)
142A	043D		MLH R4, R3
142C	A025		BRA $1454		; $26(R0)

142E	015E		GETB R5, $1
1430	2E90		MOVE R14, $120
1432	0E58		ADD R14, R5
1434	63E0		MOVB R3, (R14)+
1436	64E8		MOVB R4, (R14)
1438	043D		MLH R4, R3
143A	A017		BRA $1454		; $18(R0)

143C	015E		GETB R5, $1
143E	0E5D		MLH R14, R5
1440	0004		NOP
1442	01EE		GETB R14, $1
1444	63E0		MOVB R3, (R14)+
1446	64E8		MOVB R4, (R14)
1448	043D		MLH R4, R3
144A	A007		BRA $1454		; $08(R0)

144C	015E		GETB R5, $1
144E	2E81		MOVE R14, $102
1450	0E56		OR R14, R5
1452	D4E8		MOVE R4, (R14)
1454	2D81		MOVE R13, $102
1456	0DC6		OR R13, R12
1458	D3D8		MOVE R3, (R13)
145A	013C		MHL R1, R3
145C	034D		MLH R3, R4
145E	033A		ADDH R3, R3
1460	043C		MHL R4, R3
1462	044A		ADDH R4, R4
1464	0418		ADD R4, R1
1466	034D		MLH R3, R4
1468	53D8		MOVE (R13), R3
146A	8101		LBI R1, #$01
146C	C41F		SNBSH R4, R1
146E	A00B		BRA $147C		; $0C(R0)

1470	C303		SZ R3
1472	20A2		JMP ($0144)

1474	033C		MHL R3, R3
1476	C30B		SNZ R3
1478	2093		JMP ($0126)

147A	20A2		JMP ($0144)

147C	C303		SZ R3
147E	20A3		JMP ($0146)

1480	033C		MHL R3, R3
1482	C30B		SNZ R3
1484	20A1		JMP ($0142)

1486	20A3		JMP ($0146)

1488	0203		INC2 R2, R0
148A	2091		JMP ($0122)

148C	0DC8		ADD R13, R12
148E	0EC8		ADD R14, R12
1490	8600		LBI R6, #$00
1492	63D8		MOVB R3, (R13)
1494	64E4		MOVB R4, (R14)-
1496	0348		ADD R3, R4
1498	73D4		MOVB (R13)-, R3
149A	0636		OR R6, R3
149C	FC00		SUB R12, #$01
149E	CC0C		SNS R12
14A0	A005		BRA $14A8		; $06(R0)

14A2	64D8		MOVB R4, (R13)
14A4	034A		ADDH R3, R4
14A6	F013		BRA $1494		; -> -$14(R0)

14A8	8101		LBI R1, #$01
14AA	C31F		SNBSH R3, R1
14AC	A005		BRA $14B4		; $06(R0)

14AE	C60B		SNZ R6
14B0	2093		JMP ($0126)

14B2	20A2		JMP ($0144)

14B4	C60B		SNZ R6
14B6	20A1		JMP ($0142)

14B8	20A3		JMP ($0146)

14BA	0203		INC2 R2, R0
14BC	2091		JMP ($0122)

14BE	0DC8		ADD R13, R12
14C0	0EC8		ADD R14, R12
14C2	2553		MOVE R5, $A6
14C4	8600		LBI R6, #$00
14C6	8701		LBI R7, #$01
14C8	8810		LBI R8, #$10
14CA	63D8		MOVB R3, (R13)
14CC	64E4		MOVB R4, (R14)-
14CE	054A		ADDH R5, R4
14D0	A365		ADD R3, #$66
14D2	0437		XOR R4, R3
14D4	0538		ADD R5, R3
14D6	0457		XOR R4, R5
14D8	C485		SBS R4, R8
14DA	F505		SUB R5, #$06
14DC	C577		SBSH R5, R7
14DE	F55F		SUB R5, #$60
14E0	0656		OR R6, R5
14E2	75D4		MOVB (R13)-, R5
14E4	FC00		SUB R12, #$01
14E6	CC04		SS R12
14E8	F01F		BRA $14CA		; -> -$20(R0)

14EA	C57F		SNBSH R5, R7
14EC	A005		BRA $14F4		; $06(R0)

14EE	C60B		SNZ R6
14F0	2093		JMP ($0126)

14F2	20A2		JMP ($0144)

14F4	8C00		LBI R12, #$00
14F6	2EB1		MOVE R14, $162
14F8	F02F		BRA $14CA		; -> -$30(R0)

14FA	01DE		GETB R13, $1
14FC	E16F		STAT R6, $1
14FE	E17F		STAT R7, $1
1500	076D		MLH R7, R6
1502	37C0		MOVE $180, R7
1504	0DCD		MLH R13, R12
1506	23B9		MOVE R3, $172
1508	4130		PUTB $1, (R3)+
150A	4138		PUTB $1, (R3)
150C	0004		NOP
150E	2082		JMP ($0104)

1510	01DE		GETB R13, $1
1512	0DCD		MLH R13, R12
1514	23B9		MOVE R3, $172
1516	4130		PUTB $1, (R3)+
1518	4138		PUTB $1, (R3)
151A	0004		NOP
151C	2082		JMP ($0104)

151E	015E		GETB R5, $1
1520	E13F		STAT R3, $1
1522	E1DF		STAT R13, $1
1524	0D3D		MLH R13, R3
1526	0D58		ADD R13, R5
1528	A023		BRA $154E		; $24(R0)

152A	015E		GETB R5, $1
152C	E13F		STAT R3, $1
152E	E1DF		STAT R13, $1
1530	0D3D		MLH R13, R3
1532	0D59		SUB R13, R5
1534	A017		BRA $154E		; $18(R0)

1536	015E		GETB R5, $1
1538	2D88		MOVE R13, $110
153A	0D58		ADD R13, R5
153C	A00F		BRA $154E		; $10(R0)

153E	015E		GETB R5, $1
1540	2D90		MOVE R13, $120
1542	0D58		ADD R13, R5
1544	A007		BRA $154E		; $08(R0)

1546	015E		GETB R5, $1
1548	0D5D		MLH R13, R5
154A	0004		NOP
154C	01DE		GETB R13, $1
154E	8180		LBI R1, #$80
1550	CC16		SBC R12, R1
1552	A00D		BRA $1562		; $0E(R0)

1554	CFC6		SBC R15, R12
1556	2082		JMP ($0104)

1558	23B9		MOVE R3, $172
155A	4130		PUTB $1, (R3)+
155C	4138		PUTB $1, (R3)
155E	0004		NOP
1560	2082		JMP ($0104)

1562	CFCE		SNBC R15, R12
1564	2082		JMP ($0104)

1566	23B9		MOVE R3, $172
1568	4130		PUTB $1, (R3)+
156A	4138		PUTB $1, (R3)
156C	0004		NOP
156E	2082		JMP ($0104)

1570	015E		GETB R5, $1
1572	E13F		STAT R3, $1
1574	E1DF		STAT R13, $1
1576	0D3D		MLH R13, R3
1578	06D4		MOVE R6, R13
157A	0D58		ADD R13, R5
157C	A00B		BRA $158A		; $0C(R0)

157E	015E		GETB R5, $1
1580	E13F		STAT R3, $1
1582	E1DF		STAT R13, $1
1584	0D3D		MLH R13, R3
1586	06D4		MOVE R6, R13
1588	0D59		SUB R13, R5
158A	8180		LBI R1, #$80
158C	CC16		SBC R12, R1
158E	A00F		BRA $15A0		; $10(R0)

1590	CFC6		SBC R15, R12
1592	2082		JMP ($0104)

1594	36C0		MOVE $180, R6
1596	23B9		MOVE R3, $172
1598	4130		PUTB $1, (R3)+
159A	4138		PUTB $1, (R3)
159C	0004		NOP
159E	2082		JMP ($0104)

15A0	CFCE		SNBC R15, R12
15A2	2082		JMP ($0104)

15A4	36C0		MOVE $180, R6
15A6	23B9		MOVE R3, $172
15A8	4130		PUTB $1, (R3)+
15AA	4138		PUTB $1, (R3)
15AC	0004		NOP
15AE	2082		JMP ($0104)

15B0	015E		GETB R5, $1
15B2	2D88		MOVE R13, $110
15B4	0D58		ADD R13, R5
15B6	A00F		BRA $15C8		; $10(R0)

15B8	015E		GETB R5, $1
15BA	2D90		MOVE R13, $120
15BC	0D58		ADD R13, R5
15BE	A007		BRA $15C8		; $08(R0)

15C0	015E		GETB R5, $1
15C2	0D5D		MLH R13, R5
15C4	0004		NOP
15C6	01DE		GETB R13, $1
15C8	8180		LBI R1, #$80
15CA	CC16		SBC R12, R1
15CC	A015		BRA $15E4		; $16(R0)

15CE	CFC6		SBC R15, R12
15D0	2082		JMP ($0104)

15D2	E16F		STAT R6, $1
15D4	E17F		STAT R7, $1
15D6	076D		MLH R7, R6
15D8	37C0		MOVE $180, R7
15DA	23B9		MOVE R3, $172
15DC	4130		PUTB $1, (R3)+
15DE	4138		PUTB $1, (R3)
15E0	0004		NOP
15E2	2082		JMP ($0104)

15E4	CFCE		SNBC R15, R12
15E6	2082		JMP ($0104)

15E8	E16F		STAT R6, $1
15EA	E17F		STAT R7, $1
15EC	076D		MLH R7, R6
15EE	37C0		MOVE $180, R7
15F0	23B9		MOVE R3, $172
15F2	4130		PUTB $1, (R3)+
15F4	4138		PUTB $1, (R3)
15F6	0004		NOP
15F8	2082		JMP ($0104)

15FA	015E		GETB R5, $1
15FC	2D88		MOVE R13, $110
15FE	0D58		ADD R13, R5
1600	41D0		PUTB $1, (R13)+
1602	41D8		PUTB $1, (R13)
1604	0004		NOP
1606	2082		JMP ($0104)

1608	015E		GETB R5, $1
160A	2D90		MOVE R13, $120
160C	0D58		ADD R13, R5
160E	41D0		PUTB $1, (R13)+
1610	41D8		PUTB $1, (R13)
1612	0004		NOP
1614	2082		JMP ($0104)

1616	015E		GETB R5, $1
1618	0D5D		MLH R13, R5
161A	0004		NOP
161C	01DE		GETB R13, $1
161E	41D0		PUTB $1, (R13)+
1620	41D8		PUTB $1, (R13)
1622	0004		NOP
1624	2082		JMP ($0104)

1626	015E		GETB R5, $1
1628	E16F		STAT R6, $1
162A	E17F		STAT R7, $1
162C	076D		MLH R7, R6
162E	37C0		MOVE $180, R7
1630	2D81		MOVE R13, $102
1632	0DC6		OR R13, R12
1634	41D0		PUTB $1, (R13)+
1636	41D8		PUTB $1, (R13)
1638	0004		NOP
163A	2082		JMP ($0104)

163C	015E		GETB R5, $1
163E	2D81		MOVE R13, $102
1640	0DC6		OR R13, R12
1642	41D0		PUTB $1, (R13)+
1644	41D8		PUTB $1, (R13)
1646	0004		NOP
1648	2082		JMP ($0104)

164A	015E		GETB R5, $1
164C	2D88		MOVE R13, $110
164E	0D58		ADD R13, R5
1650	017E		GETB R7, $1
1652	63D8		MOVB R3, (R13)
1654	A0CD		BRA $1724		; $CE(R0)

1656	015E		GETB R5, $1
1658	2D90		MOVE R13, $120
165A	0D58		ADD R13, R5
165C	017E		GETB R7, $1
165E	63D8		MOVB R3, (R13)
1660	A0C1		BRA $1724		; $C2(R0)

1662	015E		GETB R5, $1
1664	0D5D		MLH R13, R5
1666	0004		NOP
1668	01DE		GETB R13, $1
166A	F000		BRA $166B		; -> -$01(R0)

166C	017E		GETB R7, $1
166E	63D8		MOVB R3, (R13)
1670	A0B1		BRA $1724		; $B2(R0)

1672	015E		GETB R5, $1
1674	2D81		MOVE R13, $102
1676	0DC6		OR R13, R12
1678	2E81		MOVE R14, $102
167A	0E56		OR R14, R5
167C	63D0		MOVB R3, (R13)+
167E	6CE0		MOVB R12, (R14)+
1680	017E		GETB R7, $1
1682	C3C2		SE R3, R12
1684	A09D		BRA $1724		; $9E(R0)

1686	63D8		MOVB R3, (R13)
1688	6CE8		MOVB R12, (R14)
168A	A097		BRA $1724		; $98(R0)

168C	015E		GETB R5, $1
168E	2D88		MOVE R13, $110
1690	0D58		ADD R13, R5
1692	2E81		MOVE R14, $102
1694	0EC6		OR R14, R12
1696	63D0		MOVB R3, (R13)+
1698	6CE0		MOVB R12, (R14)+
169A	017E		GETB R7, $1
169C	C3C2		SE R3, R12
169E	A083		BRA $1724		; $84(R0)

16A0	63D8		MOVB R3, (R13)
16A2	6CE8		MOVB R12, (R14)
16A4	A07D		BRA $1724		; $7E(R0)

16A6	015E		GETB R5, $1
16A8	2D90		MOVE R13, $120
16AA	0D58		ADD R13, R5
16AC	2E81		MOVE R14, $102
16AE	0EC6		OR R14, R12
16B0	63D0		MOVB R3, (R13)+
16B2	6CE0		MOVB R12, (R14)+
16B4	017E		GETB R7, $1
16B6	C3C2		SE R3, R12
16B8	A069		BRA $1724		; $6A(R0)

16BA	63D8		MOVB R3, (R13)
16BC	6CE8		MOVB R12, (R14)
16BE	A063		BRA $1724		; $64(R0)

16C0	015E		GETB R5, $1
16C2	0D5D		MLH R13, R5
16C4	0004		NOP
16C6	01DE		GETB R13, $1
16C8	2E81		MOVE R14, $102
16CA	0EC6		OR R14, R12
16CC	63D0		MOVB R3, (R13)+
16CE	6CE0		MOVB R12, (R14)+
16D0	017E		GETB R7, $1
16D2	C3C2		SE R3, R12
16D4	A04D		BRA $1724		; $4E(R0)

16D6	63D8		MOVB R3, (R13)
16D8	6CE8		MOVB R12, (R14)
16DA	A047		BRA $1724		; $48(R0)

16DC	0203		INC2 R2, R0
16DE	2091		JMP ($0122)

16E0	2481		MOVE R4, $102
16E2	04C6		OR R4, R12
16E4	D448		MOVE R4, (R4)
16E6	017E		GETB R7, $1
16E8	E19F		STAT R9, $1
16EA	E1AF		STAT R10, $1
16EC	25BA		MOVE R5, $174
16EE	4150		PUTB $1, (R5)+
16F0	4158		PUTB $1, (R5)
16F2	0004		NOP
16F4	63D0		MOVB R3, (R13)+
16F6	01CE		GETB R12, $1
16F8	C3C2		SE R3, R12
16FA	A005		BRA $1702		; $06(R0)

16FC	F400		SUB R4, #$01
16FE	C403		SZ R4
1700	F00D		BRA $16F4		; -> -$0E(R0)

1702	25C3		MOVE R5, $186
1704	4151		PUTB $1, (R5)++
1706	4158		PUTB $1, (R5)
1708	0004		NOP
170A	A017		BRA $1724		; $18(R0)

170C	0203		INC2 R2, R0
170E	2091		JMP ($0122)

1710	0004		NOP
1712	017E		GETB R7, $1
1714	63D0		MOVB R3, (R13)+
1716	64E0		MOVB R4, (R14)+
1718	C342		SE R3, R4
171A	A005		BRA $1722		; $06(R0)

171C	FC00		SUB R12, #$01
171E	CC04		SS R12
1720	F00D		BRA $1714		; -> -$0E(R0)

1722	0C44		MOVE R12, R4
1724	019E		GETB R9, $1
1726	0078		ADD R0, R7
1728	C3C0		SLE R3, R12
172A	A05B		BRA $1788		; $5C(R0)

172C	01AE		GETB R10, $1
172E	A075		BRA $17A6		; $76(R0)

1730	C3C8		SGT R3, R12
1732	A053		BRA $1788		; $54(R0)

1734	01AE		GETB R10, $1
1736	A06D		BRA $17A6		; $6E(R0)

1738	C3C9		SGE R3, R12
173A	A04B		BRA $1788		; $4C(R0)

173C	01AE		GETB R10, $1
173E	A065		BRA $17A6		; $66(R0)

1740	C3C1		SLT R3, R12
1742	A043		BRA $1788		; $44(R0)

1744	01AE		GETB R10, $1
1746	A05D		BRA $17A6		; $5E(R0)

1748	C3CA		SNE R3, R12
174A	A03B		BRA $1788		; $3C(R0)

174C	01AE		GETB R10, $1
174E	A055		BRA $17A6		; $56(R0)

1750	C3C2		SE R3, R12
1752	A033		BRA $1788		; $34(R0)

1754	01AE		GETB R10, $1
1756	A04D		BRA $17A6		; $4E(R0)

1758	C3C0		SLE R3, R12
175A	A037		BRA $1794		; $38(R0)

175C	01AE		GETB R10, $1
175E	A045		BRA $17A6		; $46(R0)

1760	C3C8		SGT R3, R12
1762	A02F		BRA $1794		; $30(R0)

1764	01AE		GETB R10, $1
1766	A03D		BRA $17A6		; $3E(R0)

1768	C3C9		SGE R3, R12
176A	A027		BRA $1794		; $28(R0)

176C	01AE		GETB R10, $1
176E	A035		BRA $17A6		; $36(R0)

1770	C3C1		SLT R3, R12
1772	A01F		BRA $1794		; $20(R0)

1774	01AE		GETB R10, $1
1776	A02D		BRA $17A6		; $2E(R0)

1778	C3CA		SNE R3, R12
177A	A017		BRA $1794		; $18(R0)

177C	01AE		GETB R10, $1
177E	A025		BRA $17A6		; $26(R0)

1780	C3C2		SE R3, R12
1782	A00F		BRA $1794		; $10(R0)

1784	01AE		GETB R10, $1
1786	A01D		BRA $17A6		; $1E(R0)

1788	01AE		GETB R10, $1
178A	23C3		MOVE R3, $186
178C	4131		PUTB $1, (R3)++
178E	4138		PUTB $1, (R3)
1790	0004		NOP
1792	2082		JMP ($0104)

1794	01AE		GETB R10, $1
1796	E11F		STAT R1, $1
1798	011D		MLH R1, R1
179A	E11F		STAT R1, $1
179C	31C0		MOVE $180, R1
179E	23C3		MOVE R3, $186
17A0	4131		PUTB $1, (R3)++
17A2	4138		PUTB $1, (R3)
17A4	0004		NOP
17A6	2082		JMP ($0104)

17A8	015E		GETB R5, $1
17AA	2D88		MOVE R13, $110
17AC	0D58		ADD R13, R5
17AE	2E81		MOVE R14, $102
17B0	0EC6		OR R14, R12
17B2	63D0		MOVB R3, (R13)+
17B4	64D8		MOVB R4, (R13)
17B6	043D		MLH R4, R3
17B8	54E8		MOVE (R14), R4
17BA	2082		JMP ($0104)

17BC	015E		GETB R5, $1
17BE	2D90		MOVE R13, $120
17C0	0D58		ADD R13, R5
17C2	2E81		MOVE R14, $102
17C4	0EC6		OR R14, R12
17C6	63D0		MOVB R3, (R13)+
17C8	64D8		MOVB R4, (R13)
17CA	043D		MLH R4, R3
17CC	54E8		MOVE (R14), R4
17CE	2082		JMP ($0104)

17D0	015E		GETB R5, $1
17D2	0D5D		MLH R13, R5
17D4	0004		NOP
17D6	01DE		GETB R13, $1
17D8	2E81		MOVE R14, $102
17DA	0EC6		OR R14, R12
17DC	63D0		MOVB R3, (R13)+
17DE	64D8		MOVB R4, (R13)
17E0	043D		MLH R4, R3
17E2	54E8		MOVE (R14), R4
17E4	2082		JMP ($0104)

17E6	015E		GETB R5, $1
17E8	2D81		MOVE R13, $102
17EA	0DC6		OR R13, R12
17EC	2E81		MOVE R14, $102
17EE	0E56		OR R14, R5
17F0	D3E8		MOVE R3, (R14)
17F2	53D8		MOVE (R13), R3
17F4	2082		JMP ($0104)

17F6	015E		GETB R5, $1
17F8	2D88		MOVE R13, $110
17FA	0D58		ADD R13, R5
17FC	2E81		MOVE R14, $102
17FE	0EC6		OR R14, R12
1800	63D0		MOVB R3, (R13)+
1802	64D8		MOVB R4, (R13)
1804	043D		MLH R4, R3
1806	54E8		MOVE (R14), R4
1808	C403		SZ R4
180A	20A2		JMP ($0144)

180C	C303		SZ R3
180E	20A2		JMP ($0144)

1810	2093		JMP ($0126)

1812	015E		GETB R5, $1
1814	2D90		MOVE R13, $120
1816	0D58		ADD R13, R5
1818	2E81		MOVE R14, $102
181A	0EC6		OR R14, R12
181C	63D0		MOVB R3, (R13)+
181E	64D8		MOVB R4, (R13)
1820	043D		MLH R4, R3
1822	54E8		MOVE (R14), R4
1824	C403		SZ R4
1826	20A2		JMP ($0144)

1828	C303		SZ R3
182A	20A2		JMP ($0144)

182C	2093		JMP ($0126)

182E	015E		GETB R5, $1
1830	0D5D		MLH R13, R5
1832	0004		NOP
1834	01DE		GETB R13, $1
1836	2E81		MOVE R14, $102
1838	0EC6		OR R14, R12
183A	63D0		MOVB R3, (R13)+
183C	64D8		MOVB R4, (R13)
183E	043D		MLH R4, R3
1840	54E8		MOVE (R14), R4
1842	C403		SZ R4
1844	20A2		JMP ($0144)

1846	C303		SZ R3
1848	20A2		JMP ($0144)

184A	2093		JMP ($0126)

184C	015E		GETB R5, $1
184E	2D88		MOVE R13, $110
1850	0D58		ADD R13, R5
1852	A00F		BRA $1864		; $10(R0)

1854	015E		GETB R5, $1
1856	2D90		MOVE R13, $120
1858	0D58		ADD R13, R5
185A	A007		BRA $1864		; $08(R0)

185C	015E		GETB R5, $1
185E	0D5D		MLH R13, R5
1860	0004		NOP
1862	01DE		GETB R13, $1
1864	E1EF		STAT R14, $1
1866	0EED		MLH R14, R14
1868	E1EF		STAT R14, $1
186A	23B9		MOVE R3, $172
186C	4130		PUTB $1, (R3)+
186E	4138		PUTB $1, (R3)
1870	2481		MOVE R4, $102
1872	04C6		OR R4, R12
1874	013E		GETB R3, $1
1876	7340		MOVB (R4)+, R3
1878	25BA		MOVE R5, $174
187A	013E		GETB R3, $1
187C	7348		MOVB (R4), R3
187E	4150		PUTB $1, (R5)+
1880	4158		PUTB $1, (R5)
1882	0004		NOP
1884	2082		JMP ($0104)

1886	015E		GETB R5, $1
1888	2D88		MOVE R13, $110
188A	0D58		ADD R13, R5
188C	2E81		MOVE R14, $102
188E	0EC6		OR R14, R12
1890	5DE8		MOVE (R14), R13
1892	2082		JMP ($0104)

1894	015E		GETB R5, $1
1896	2D90		MOVE R13, $120
1898	0D58		ADD R13, R5
189A	2E81		MOVE R14, $102
189C	0EC6		OR R14, R12
189E	5DE8		MOVE (R14), R13
18A0	2082		JMP ($0104)

18A2	015E		GETB R5, $1
18A4	0D5D		MLH R13, R5
18A6	0004		NOP
18A8	01DE		GETB R13, $1
18AA	2E81		MOVE R14, $102
18AC	0EC6		OR R14, R12
18AE	5DE8		MOVE (R14), R13
18B0	2082		JMP ($0104)

18B2	015E		GETB R5, $1
18B4	2D88		MOVE R13, $110
18B6	0D58		ADD R13, R5
18B8	2E81		MOVE R14, $102
18BA	0EC6		OR R14, R12
18BC	D4E8		MOVE R4, (R14)
18BE	034C		MHL R3, R4
18C0	73D0		MOVB (R13)+, R3
18C2	74D0		MOVB (R13)+, R4
18C4	2082		JMP ($0104)

18C6	015E		GETB R5, $1
18C8	2D90		MOVE R13, $120
18CA	0D58		ADD R13, R5
18CC	2E81		MOVE R14, $102
18CE	0EC6		OR R14, R12
18D0	D4E8		MOVE R4, (R14)
18D2	034C		MHL R3, R4
18D4	73D0		MOVB (R13)+, R3
18D6	74D0		MOVB (R13)+, R4
18D8	2082		JMP ($0104)

18DA	015E		GETB R5, $1
18DC	0D5D		MLH R13, R5
18DE	0004		NOP
18E0	01DE		GETB R13, $1
18E2	2E81		MOVE R14, $102
18E4	0EC6		OR R14, R12
18E6	D4E8		MOVE R4, (R14)
18E8	034C		MHL R3, R4
18EA	73D0		MOVB (R13)+, R3
18EC	74D0		MOVB (R13)+, R4
18EE	2082		JMP ($0104)

18F0	015E		GETB R5, $1
18F2	2D88		MOVE R13, $110
18F4	0D58		ADD R13, R5
18F6	7CD8		MOVB (R13), R12
18F8	2082		JMP ($0104)

18FA	015E		GETB R5, $1
18FC	2D90		MOVE R13, $120
18FE	0D58		ADD R13, R5
1900	7CD8		MOVB (R13), R12
1902	2082		JMP ($0104)

1904	015E		GETB R5, $1
1906	0D5D		MLH R13, R5
1908	0004		NOP
190A	01DE		GETB R13, $1
190C	7CD8		MOVB (R13), R12
190E	2082		JMP ($0104)

1910	0203		INC2 R2, R0
1912	2091		JMP ($0122)

1914	2381		MOVE R3, $102
1916	03C6		OR R3, R12
1918	DC38		MOVE R12, (R3)
191A	CC03		SZ R12
191C	A007		BRA $1926		; $08(R0)

191E	01CC		MHL R1, R12
1920	C103		SZ R1
1922	A001		BRA $1926		; $02(R0)

1924	2082		JMP ($0104)

1926	63E0		MOVB R3, (R14)+
1928	73D0		MOVB (R13)+, R3
192A	FC00		SUB R12, #$01
192C	F013		BRA $191A		; -> -$14(R0)

192E	0203		INC2 R2, R0
1930	2091		JMP ($0122)

1932	63E0		MOVB R3, (R14)+
1934	73D0		MOVB (R13)+, R3
1936	FC00		SUB R12, #$01
1938	CC04		SS R12
193A	F009		BRA $1932		; -> -$0A(R0)

193C	2082		JMP ($0104)

193E	0203		INC2 R2, R0
1940	2091		JMP ($0122)

1942	7ED0		MOVB (R13)+, R14
1944	FC00		SUB R12, #$01
1946	CC04		SS R12
1948	F007		BRA $1942		; -> -$08(R0)

194A	2082		JMP ($0104)

194C	0203		INC2 R2, R0
194E	2091		JMP ($0122)

1950	E13F		STAT R3, $1
1952	033D		MLH R3, R3
1954	E13F		STAT R3, $1
1956	25BA		MOVE R5, $174
1958	4150		PUTB $1, (R5)+
195A	4158		PUTB $1, (R5)
195C	0004		NOP
195E	25BB		MOVE R5, $176
1960	016E		GETB R6, $1
1962	76D0		MOVB (R13)+, R6
1964	FC00		SUB R12, #$01
1966	CC04		SS R12
1968	F009		BRA $1960		; -> -$0A(R0)

196A	4150		PUTB $1, (R5)+
196C	4158		PUTB $1, (R5)
196E	0004		NOP
1970	2082		JMP ($0104)

1972	0203		INC2 R2, R0
1974	2091		JMP ($0122)

1976	63D8		MOVB R3, (R13)
1978	64E8		MOVB R4, (R14)
197A	0CC8		ADD R12, R12
197C	00C8		ADD R0, R12
197E	A007		BRA $1988		; $08(R0)

1980	A003		BRA $1986		; $04(R0)

1982	A00D		BRA $1992		; $0E(R0)

1984	A00D		BRA $1994		; $0E(R0)

1986	E04F		SWAP R4
1988	93F0		CLR R3, #$F0
198A	940F		CLR R4, #$0F
198C	0346		OR R3, R4
198E	73D8		MOVB (R13), R3
1990	2082		JMP ($0104)

1992	E04F		SWAP R4
1994	930F		CLR R3, #$0F
1996	94F0		CLR R4, #$F0
1998	0346		OR R3, R4
199A	73D8		MOVB (R13), R3
199C	2082		JMP ($0104)

199E	0203		INC2 R2, R0
19A0	2091		JMP ($0122)

19A2	8101		LBI R1, #$01
19A4	CC16		SBC R12, R1
19A6	A005		BRA $19AE		; $06(R0)

19A8	8300		LBI R3, #$00
19AA	AC00		ADD R12, #$01
19AC	A005		BRA $19B4		; $06(R0)

19AE	63E0		MOVB R3, (R14)+
19B0	F31A		SUB R3, #$1B
19B2	E03F		SWAP R3
19B4	64E0		MOVB R4, (R14)+
19B6	F41A		SUB R4, #$1B
19B8	0346		OR R3, R4
19BA	73D0		MOVB (R13)+, R3
19BC	FC01		SUB R12, #$02
19BE	CC04		SS R12
19C0	F013		BRA $19AE		; -> -$14(R0)

19C2	2082		JMP ($0104)

19C4	0000		HALT
19C6	0000		HALT
19C8	0000		HALT
19CA	0000		HALT
19CC	0000		HALT
19CE	0000		HALT
19D0	0000		HALT
19D2	0000		HALT
19D4	0000		HALT
19D6	0000		HALT
19D8	0000		HALT
19DA	0000		HALT
19DC	0000		HALT
19DE	0000		HALT
19E0	0000		HALT
19E2	0000		HALT
19E4	0000		HALT
19E6	0000		HALT
19E8	0000		HALT
19EA	0000		HALT
19EC	0000		HALT
19EE	0000		HALT
19F0	0000		HALT
19F2	0000		HALT
19F4	0000		HALT
19F6	0000		HALT
19F8	0000		HALT
19FA	0000		HALT
19FC	0000		HALT
19FE	0000		HALT
1A00	0203		INC2 R2, R0
1A02	2091		JMP ($0122)

1A04	8101		LBI R1, #$01
1A06	CC16		SBC R12, R1
1A08	A005		BRA $1A10		; $06(R0)

1A0A	64E0		MOVB R4, (R14)+
1A0C	AC00		ADD R12, #$01
1A0E	A00B		BRA $1A1C		; $0C(R0)

1A10	63E0		MOVB R3, (R14)+
1A12	0434		MOVE R4, R3
1A14	E03F		SWAP R3
1A16	93F0		CLR R3, #$F0
1A18	A31A		ADD R3, #$1B
1A1A	73D0		MOVB (R13)+, R3
1A1C	94F0		CLR R4, #$F0
1A1E	A41A		ADD R4, #$1B
1A20	74D0		MOVB (R13)+, R4
1A22	FC01		SUB R12, #$02
1A24	CC04		SS R12
1A26	F017		BRA $1A10		; -> -$18(R0)

1A28	2082		JMP ($0104)

1A2A	015E		GETB R5, $1
1A2C	2D81		MOVE R13, $102
1A2E	0DC6		OR R13, R12
1A30	95F0		CLR R5, #$F0
1A32	D3D8		MOVE R3, (R13)
1A34	8108		LBI R1, #$08
1A36	C519		SGE R5, R1
1A38	A005		BRA $1A40		; $06(R0)

1A3A	F507		SUB R5, #$08
1A3C	8300		LBI R3, #$00
1A3E	033A		ADDH R3, R3
1A40	8104		LBI R1, #$04
1A42	C519		SGE R5, R1
1A44	A013		BRA $1A5A		; $14(R0)

1A46	F503		SUB R5, #$04
1A48	E03F		SWAP R3
1A4A	93F0		CLR R3, #$F0
1A4C	063C		MHL R6, R3
1A4E	E06F		SWAP R6
1A50	0764		MOVE R7, R6
1A52	960F		CLR R6, #$0F
1A54	0366		OR R3, R6
1A56	97F0		CLR R7, #$F0
1A58	037D		MLH R3, R7
1A5A	2653		MOVE R6, $A6
1A5C	C50B		SNZ R5
1A5E	A00B		BRA $1A6C		; $0C(R0)

1A60	F500		SUB R5, #$01
1A62	E03C		SHR R3
1A64	063C		MHL R6, R3
1A66	E06C		SHR R6
1A68	036D		MLH R3, R6
1A6A	F011		BRA $1A5A		; -> -$12(R0)

1A6C	53D8		MOVE (R13), R3
1A6E	C303		SZ R3
1A70	20A2		JMP ($0144)

1A72	033C		MHL R3, R3
1A74	C303		SZ R3
1A76	20A2		JMP ($0144)

1A78	2093		JMP ($0126)

1A7A	015E		GETB R5, $1
1A7C	2D81		MOVE R13, $102
1A7E	0DC6		OR R13, R12
1A80	95F0		CLR R5, #$F0
1A82	D3D8		MOVE R3, (R13)
1A84	8108		LBI R1, #$08
1A86	C519		SGE R5, R1
1A88	A005		BRA $1A90		; $06(R0)

1A8A	F507		SUB R5, #$08
1A8C	033D		MLH R3, R3
1A8E	8300		LBI R3, #$00
1A90	8104		LBI R1, #$04
1A92	C519		SGE R5, R1
1A94	A013		BRA $1AAA		; $14(R0)

1A96	F503		SUB R5, #$04
1A98	063C		MHL R6, R3
1A9A	E06F		SWAP R6
1A9C	960F		CLR R6, #$0F
1A9E	E03F		SWAP R3
1AA0	0734		MOVE R7, R3
1AA2	97F0		CLR R7, #$F0
1AA4	0676		OR R6, R7
1AA6	036D		MLH R3, R6
1AA8	930F		CLR R3, #$0F
1AAA	C50B		SNZ R5
1AAC	A00B		BRA $1ABA		; $0C(R0)

1AAE	F500		SUB R5, #$01
1AB0	013C		MHL R1, R3
1AB2	0118		ADD R1, R1
1AB4	031D		MLH R3, R1
1AB6	0338		ADD R3, R3
1AB8	F00F		BRA $1AAA		; -> -$10(R0)

1ABA	53D8		MOVE (R13), R3
1ABC	C303		SZ R3
1ABE	20A2		JMP ($0144)

1AC0	033C		MHL R3, R3
1AC2	C303		SZ R3
1AC4	20A2		JMP ($0144)

1AC6	2093		JMP ($0126)

1AC8	0203		INC2 R2, R0
1ACA	2091		JMP ($0122)

1ACC	23C1		MOVE R3, $182
1ACE	821A		LBI R2, #$1A
1AD0	022D		MLH R2, R2
1AD2	82FE		LBI R2, #$FE
1AD4	08E4		MOVE R8, R14
1AD6	A011		BRA $1AEA		; $12(R0)

1AD8	0203		INC2 R2, R0
1ADA	2091		JMP ($0122)

1ADC	23C2		MOVE R3, $184
1ADE	821B		LBI R2, #$1B
1AE0	022D		MLH R2, R2
1AE2	8202		LBI R2, #$02
1AE4	0DC8		ADD R13, R12
1AE6	8806		LBI R8, #$06
1AE8	08E9		SUB R8, R14
1AEA	98F8		CLR R8, #$F8
1AEC	9EF8		CLR R14, #$F8
1AEE	03E8		ADD R3, R14
1AF0	6738		MOVB R7, (R3)
1AF2	86FF		LBI R6, #$FF
1AF4	0677		XOR R6, R7
1AF6	8500		LBI R5, #$00
1AF8	0888		ADD R8, R8
1AFA	8400		LBI R4, #$00
1AFC	A005		BRA $1B04		; $06(R0)

1AFE	73D0		MOVB (R13)+, R3
1B00	A001		BRA $1B04		; $02(R0)

1B02	73D4		MOVB (R13)-, R3
1B04	63D8		MOVB R3, (R13)
1B06	0365		AND R3, R6
1B08	0475		AND R4, R7
1B0A	0346		OR R3, R4
1B0C	0536		OR R5, R3
1B0E	0088		ADD R0, R8
1B10	A00F		BRA $1B22		; $10(R0)

1B12	A00B		BRA $1B20		; $0C(R0)

1B14	A013		BRA $1B2A		; $14(R0)

1B16	A019		BRA $1B32		; $1A(R0)

1B18	A015		BRA $1B30		; $16(R0)

1B1A	A00B		BRA $1B28		; $0C(R0)

1B1C	A007		BRA $1B26		; $08(R0)

1B1E	A00D		BRA $1B2E		; $0E(R0)

1B20	E03D		ROR R3
1B22	E03D		ROR R3
1B24	A00D		BRA $1B34		; $0E(R0)

1B26	E03D		ROR R3
1B28	E03E		ROR3 R3
1B2A	E03E		ROR3 R3
1B2C	A005		BRA $1B34		; $06(R0)

1B2E	E03E		ROR3 R3
1B30	E03D		ROR R3
1B32	E03F		SWAP R3
1B34	64D8		MOVB R4, (R13)
1B36	FC00		SUB R12, #$01
1B38	CC04		SS R12
1B3A	0024		RET R2

1B3C	73D8		MOVB (R13), R3
1B3E	C50B		SNZ R5
1B40	2093		JMP ($0126)

1B42	20A2		JMP ($0144)

1B44	015E		GETB R5, $1
1B46	2388		MOVE R3, $110
1B48	0358		ADD R3, R5
1B4A	A00F		BRA $1B5C		; $10(R0)

1B4C	015E		GETB R5, $1
1B4E	2390		MOVE R3, $120
1B50	0358		ADD R3, R5
1B52	A007		BRA $1B5C		; $08(R0)

1B54	015E		GETB R5, $1
1B56	035D		MLH R3, R5
1B58	0004		NOP
1B5A	013E		GETB R3, $1
1B5C	3F89		MOVE $112, R15
1B5E	E11F		STAT R1, $1
1B60	011D		MLH R1, R1
1B62	E11F		STAT R1, $1
1B64	318A		MOVE $114, R1
1B66	0203		INC2 R2, R0
1B68	2061		JMP ($00C2)

1B6A	1108		CTRL $1, #$08
1B6C	2F89		MOVE R15, $112
1B6E	2D8A		MOVE R13, $114
1B70	25B9		MOVE R5, $172
1B72	4150		PUTB $1, (R5)+
1B74	4158		PUTB $1, (R5)
1B76	0004		NOP
1B78	2082		JMP ($0104)

1B7A	015E		GETB R5, $1
1B7C	2D88		MOVE R13, $110
1B7E	0D58		ADD R13, R5
1B80	63D8		MOVB R3, (R13)
1B82	03C9		SUB R3, R12
1B84	73D8		MOVB (R13), R3
1B86	A01B		BRA $1BA4		; $1C(R0)

1B88	015E		GETB R5, $1
1B8A	2D90		MOVE R13, $120
1B8C	0D58		ADD R13, R5
1B8E	63D8		MOVB R3, (R13)
1B90	03C9		SUB R3, R12
1B92	73D8		MOVB (R13), R3
1B94	A00D		BRA $1BA4		; $0E(R0)

1B96	015E		GETB R5, $1
1B98	0D5D		MLH R13, R5
1B9A	0004		NOP
1B9C	01DE		GETB R13, $1
1B9E	63D8		MOVB R3, (R13)
1BA0	03C9		SUB R3, R12
1BA2	73D8		MOVB (R13), R3
1BA4	C30B		SNZ R3
1BA6	2093		JMP ($0126)

1BA8	81FF		LBI R1, #$FF
1BAA	C317		SBSH R3, R1
1BAC	20A2		JMP ($0144)

1BAE	20A9		JMP ($0152)

1BB0	015E		GETB R5, $1
1BB2	2E88		MOVE R14, $110
1BB4	0E58		ADD R14, R5
1BB6	63E0		MOVB R3, (R14)+
1BB8	64E8		MOVB R4, (R14)
1BBA	043D		MLH R4, R3
1BBC	A025		BRA $1BE4		; $26(R0)

1BBE	015E		GETB R5, $1
1BC0	2E90		MOVE R14, $120
1BC2	0E58		ADD R14, R5
1BC4	63E0		MOVB R3, (R14)+
1BC6	64E8		MOVB R4, (R14)
1BC8	043D		MLH R4, R3
1BCA	A017		BRA $1BE4		; $18(R0)

1BCC	015E		GETB R5, $1
1BCE	0E5D		MLH R14, R5
1BD0	0004		NOP
1BD2	01EE		GETB R14, $1
1BD4	63E0		MOVB R3, (R14)+
1BD6	64E8		MOVB R4, (R14)
1BD8	043D		MLH R4, R3
1BDA	A007		BRA $1BE4		; $08(R0)

1BDC	015E		GETB R5, $1
1BDE	2E81		MOVE R14, $102
1BE0	0E56		OR R14, R5
1BE2	D4E8		MOVE R4, (R14)
1BE4	2D81		MOVE R13, $102
1BE6	0DC6		OR R13, R12
1BE8	D3D8		MOVE R3, (R13)
1BEA	87FF		LBI R7, #$FF
1BEC	2853		MOVE R8, $A6
1BEE	0836		OR R8, R3
1BF0	0849		SUB R8, R4
1BF2	8300		LBI R3, #$00
1BF4	0386		OR R3, R8
1BF6	083C		MHL R8, R3
1BF8	C87F		SNBSH R8, R7
1BFA	088B		ADDH2 R8, R8
1BFC	044C		MHL R4, R4
1BFE	0849		SUB R8, R4
1C00	038D		MLH R3, R8
1C02	53D8		MOVE (R13), R3
1C04	C303		SZ R3
1C06	A003		BRA $1C0C		; $04(R0)

1C08	C80B		SNZ R8
1C0A	2093		JMP ($0126)

1C0C	C877		SBSH R8, R7
1C0E	20A2		JMP ($0144)

1C10	20A9		JMP ($0152)

1C12	0203		INC2 R2, R0
1C14	2091		JMP ($0122)

1C16	0DC8		ADD R13, R12
1C18	0EC8		ADD R14, R12
1C1A	8600		LBI R6, #$00
1C1C	87FF		LBI R7, #$FF
1C1E	63D8		MOVB R3, (R13)
1C20	64E4		MOVB R4, (R14)-
1C22	0349		SUB R3, R4
1C24	73D4		MOVB (R13)-, R3
1C26	0636		OR R6, R3
1C28	FC00		SUB R12, #$01
1C2A	CC0C		SNS R12
1C2C	A009		BRA $1C38		; $0A(R0)

1C2E	C377		SBSH R3, R7
1C30	F013		BRA $1C1E		; -> -$14(R0)

1C32	64D8		MOVB R4, (R13)
1C34	034B		ADDH2 R3, R4
1C36	F017		BRA $1C20		; -> -$18(R0)

1C38	C60B		SNZ R6
1C3A	2093		JMP ($0126)

1C3C	81FF		LBI R1, #$FF
1C3E	C317		SBSH R3, R1
1C40	20A2		JMP ($0144)

1C42	20A9		JMP ($0152)

1C44	0203		INC2 R2, R0
1C46	2091		JMP ($0122)

1C48	0DC8		ADD R13, R12
1C4A	0EC8		ADD R14, R12
1C4C	3D89		MOVE $112, R13
1C4E	3C8A		MOVE $114, R12
1C50	09D4		MOVE R9, R13
1C52	87FF		LBI R7, #$FF
1C54	8810		LBI R8, #$10
1C56	8A01		LBI R10, #$01
1C58	2553		MOVE R5, $A6
1C5A	8600		LBI R6, #$00
1C5C	63D8		MOVB R3, (R13)
1C5E	0DA9		SUB R13, R10
1C60	64E4		MOVB R4, (R14)-
1C62	053B		ADDH2 R5, R3
1C64	C35A		SNE R3, R5
1C66	0534		MOVE R5, R3
1C68	0347		XOR R3, R4
1C6A	0549		SUB R5, R4
1C6C	0357		XOR R3, R5
1C6E	C386		SBC R3, R8
1C70	F505		SUB R5, #$06
1C72	C57F		SNBSH R5, R7
1C74	F55F		SUB R5, #$60
1C76	0656		OR R6, R5
1C78	7594		MOVB (R9)-, R5
1C7A	FC00		SUB R12, #$01
1C7C	CC04		SS R12
1C7E	F023		BRA $1C5C		; -> -$24(R0)

1C80	CA0B		SNZ R10
1C82	20A9		JMP ($0152)

1C84	C60B		SNZ R6
1C86	2093		JMP ($0126)

1C88	C577		SBSH R5, R7
1C8A	20A2		JMP ($0144)

1C8C	2989		MOVE R9, $112
1C8E	2E89		MOVE R14, $112
1C90	2C8A		MOVE R12, $114
1C92	8A00		LBI R10, #$00
1C94	2DB1		MOVE R13, $162
1C96	F03F		BRA $1C58		; -> -$40(R0)

1C98	015E		GETB R5, $1
1C9A	2D88		MOVE R13, $110
1C9C	0D58		ADD R13, R5
1C9E	019E		GETB R9, $1
1CA0	63D8		MOVB R3, (R13)
1CA2	C3C5		SBS R3, R12
1CA4	A065		BRA $1D0C		; $66(R0)

1CA6	01AE		GETB R10, $1
1CA8	A073		BRA $1D1E		; $74(R0)

1CAA	015E		GETB R5, $1
1CAC	2D90		MOVE R13, $120
1CAE	0D58		ADD R13, R5
1CB0	019E		GETB R9, $1
1CB2	63D8		MOVB R3, (R13)
1CB4	C3C5		SBS R3, R12
1CB6	A053		BRA $1D0C		; $54(R0)

1CB8	01AE		GETB R10, $1
1CBA	A061		BRA $1D1E		; $62(R0)

1CBC	015E		GETB R5, $1
1CBE	0D5D		MLH R13, R5
1CC0	0004		NOP
1CC2	01DE		GETB R13, $1
1CC4	F000		BRA $1CC5		; -> -$01(R0)

1CC6	019E		GETB R9, $1
1CC8	63D8		MOVB R3, (R13)
1CCA	C3C5		SBS R3, R12
1CCC	A03D		BRA $1D0C		; $3E(R0)

1CCE	01AE		GETB R10, $1
1CD0	A04B		BRA $1D1E		; $4C(R0)

1CD2	015E		GETB R5, $1
1CD4	2D88		MOVE R13, $110
1CD6	0D58		ADD R13, R5
1CD8	019E		GETB R9, $1
1CDA	63D8		MOVB R3, (R13)
1CDC	C3C6		SBC R3, R12
1CDE	A02B		BRA $1D0C		; $2C(R0)

1CE0	01AE		GETB R10, $1
1CE2	A039		BRA $1D1E		; $3A(R0)

1CE4	015E		GETB R5, $1
1CE6	2D90		MOVE R13, $120
1CE8	0D58		ADD R13, R5
1CEA	019E		GETB R9, $1
1CEC	63D8		MOVB R3, (R13)
1CEE	C3C6		SBC R3, R12
1CF0	A019		BRA $1D0C		; $1A(R0)

1CF2	01AE		GETB R10, $1
1CF4	A027		BRA $1D1E		; $28(R0)

1CF6	015E		GETB R5, $1
1CF8	0D5D		MLH R13, R5
1CFA	0004		NOP
1CFC	01DE		GETB R13, $1
1CFE	F000		BRA $1CFF		; -> -$01(R0)

1D00	019E		GETB R9, $1
1D02	63D8		MOVB R3, (R13)
1D04	C3C6		SBC R3, R12
1D06	A003		BRA $1D0C		; $04(R0)

1D08	01AE		GETB R10, $1
1D0A	A011		BRA $1D1E		; $12(R0)

1D0C	01AE		GETB R10, $1
1D0E	E11F		STAT R1, $1
1D10	011D		MLH R1, R1
1D12	E11F		STAT R1, $1
1D14	31C0		MOVE $180, R1
1D16	23C3		MOVE R3, $186
1D18	4131		PUTB $1, (R3)++
1D1A	4138		PUTB $1, (R3)
1D1C	0004		NOP
1D1E	2082		JMP ($0104)

1D20	015E		GETB R5, $1
1D22	2D88		MOVE R13, $110
1D24	0D58		ADD R13, R5
1D26	63D8		MOVB R3, (R13)
1D28	03C6		OR R3, R12
1D2A	73D8		MOVB (R13), R3
1D2C	2082		JMP ($0104)

1D2E	015E		GETB R5, $1
1D30	2D90		MOVE R13, $120
1D32	0D58		ADD R13, R5
1D34	63D8		MOVB R3, (R13)
1D36	03C6		OR R3, R12
1D38	73D8		MOVB (R13), R3
1D3A	2082		JMP ($0104)

1D3C	015E		GETB R5, $1
1D3E	0D5D		MLH R13, R5
1D40	0004		NOP
1D42	01DE		GETB R13, $1
1D44	63D8		MOVB R3, (R13)
1D46	03C6		OR R3, R12
1D48	73D8		MOVB (R13), R3
1D4A	2082		JMP ($0104)

1D4C	015E		GETB R5, $1
1D4E	2D88		MOVE R13, $110
1D50	0D58		ADD R13, R5
1D52	63D8		MOVB R3, (R13)
1D54	81FF		LBI R1, #$FF
1D56	01C9		SUB R1, R12
1D58	0315		AND R3, R1
1D5A	73D8		MOVB (R13), R3
1D5C	2082		JMP ($0104)

1D5E	015E		GETB R5, $1
1D60	2D90		MOVE R13, $120
1D62	0D58		ADD R13, R5
1D64	63D8		MOVB R3, (R13)
1D66	81FF		LBI R1, #$FF
1D68	01C9		SUB R1, R12
1D6A	0315		AND R3, R1
1D6C	73D8		MOVB (R13), R3
1D6E	2082		JMP ($0104)

1D70	015E		GETB R5, $1
1D72	0D5D		MLH R13, R5
1D74	0004		NOP
1D76	01DE		GETB R13, $1
1D78	63D8		MOVB R3, (R13)
1D7A	81FF		LBI R1, #$FF
1D7C	01C9		SUB R1, R12
1D7E	0315		AND R3, R1
1D80	73D8		MOVB (R13), R3
1D82	2082		JMP ($0104)

1D84	0203		INC2 R2, R0
1D86	2091		JMP ($0122)

1D88	85FF		LBI R5, #$FF
1D8A	2381		MOVE R3, $102
1D8C	03C6		OR R3, R12
1D8E	DC38		MOVE R12, (R3)
1D90	FC00		SUB R12, #$01
1D92	CC5F		SNBSH R12, R5
1D94	2082		JMP ($0104)

1D96	63D8		MOVB R3, (R13)
1D98	04E4		MOVE R4, R14
1D9A	0438		ADD R4, R3
1D9C	6348		MOVB R3, (R4)
1D9E	73D0		MOVB (R13)+, R3
1DA0	F011		BRA $1D90		; -> -$12(R0)

1DA2	015E		GETB R5, $1
1DA4	2D88		MOVE R13, $110
1DA6	0D58		ADD R13, R5
1DA8	A011		BRA $1DBC		; $12(R0)

1DAA	015E		GETB R5, $1
1DAC	2D90		MOVE R13, $120
1DAE	0D58		ADD R13, R5
1DB0	A009		BRA $1DBC		; $0A(R0)

1DB2	015E		GETB R5, $1
1DB4	0D5D		MLH R13, R5
1DB6	0004		NOP
1DB8	01DE		GETB R13, $1
1DBA	0004		NOP
1DBC	8122		LBI R1, #$22
1DBE	011D		MLH R1, R1
1DC0	8100		LBI R1, #$00
1DC2	0014		RET R1

1DC4	015E		GETB R5, $1
1DC6	2D88		MOVE R13, $110
1DC8	0D58		ADD R13, R5
1DCA	A011		BRA $1DDE		; $12(R0)

1DCC	015E		GETB R5, $1
1DCE	2D90		MOVE R13, $120
1DD0	0D58		ADD R13, R5
1DD2	A009		BRA $1DDE		; $0A(R0)

1DD4	015E		GETB R5, $1
1DD6	0D5D		MLH R13, R5
1DD8	0004		NOP
1DDA	01DE		GETB R13, $1
1DDC	0004		NOP
1DDE	8125		LBI R1, #$25
1DE0	011D		MLH R1, R1
1DE2	8196		LBI R1, #$96
1DE4	0014		RET R1

1DE6	015E		GETB R5, $1
1DE8	2D88		MOVE R13, $110
1DEA	0D58		ADD R13, R5
1DEC	A011		BRA $1E00		; $12(R0)

1DEE	015E		GETB R5, $1
1DF0	2D90		MOVE R13, $120
1DF2	0D58		ADD R13, R5
1DF4	A009		BRA $1E00		; $0A(R0)

1DF6	015E		GETB R5, $1
1DF8	0D5D		MLH R13, R5
1DFA	0004		NOP
1DFC	01DE		GETB R13, $1
1DFE	0004		NOP
1E00	812A		LBI R1, #$2A
1E02	011D		MLH R1, R1
1E04	8100		LBI R1, #$00
1E06	0014		RET R1

1E08	015E		GETB R5, $1
1E0A	2D88		MOVE R13, $110
1E0C	0D58		ADD R13, R5
1E0E	A00F		BRA $1E20		; $10(R0)

1E10	015E		GETB R5, $1
1E12	2D90		MOVE R13, $120
1E14	0D58		ADD R13, R5
1E16	A007		BRA $1E20		; $08(R0)

1E18	015E		GETB R5, $1
1E1A	0D5D		MLH R13, R5
1E1C	0004		NOP
1E1E	01DE		GETB R13, $1
1E20	00C8		ADD R0, R12
1E22	A011		BRA $1E36		; $12(R0)

1E24	A037		BRA $1E5E		; $38(R0)

1E26	A049		BRA $1E72		; $4A(R0)

1E28	A063		BRA $1E8E		; $64(R0)

1E2A	A06F		BRA $1E9C		; $70(R0)

1E2C	A07B		BRA $1EAA		; $7C(R0)

1E2E	A0B9		BRA $1EEA		; $BA(R0)

1E30	A0C5		BRA $1EF8		; $C6(R0)

1E32	A0D3		BRA $1F08		; $D4(R0)

1E34	A055		BRA $1E8C		; $56(R0)

1E36	D4D1		MOVE R4, (R13)+
1E38	034C		MHL R3, R4
1E3A	D6D3		MOVE R6, (R13)++
1E3C	056C		MHL R5, R6
1E3E	C530		SLE R5, R3
1E40	A011		BRA $1E54		; $12(R0)

1E42	C532		SE R5, R3
1E44	A003		BRA $1E4A		; $04(R0)

1E46	C640		SLE R6, R4
1E48	A009		BRA $1E54		; $0A(R0)

1E4A	3688		MOVE $110, R6
1E4C	D3D7		MOVE R3, (R13)--
1E4E	0638		ADD R6, R3
1E50	56D8		MOVE (R13), R6
1E52	2082		JMP ($0104)

1E54	FD01		SUB R13, #$02
1E56	41D0		PUTB $1, (R13)+
1E58	41D8		PUTB $1, (R13)
1E5A	0004		NOP
1E5C	2082		JMP ($0104)

1E5E	63D1		MOVB R3, (R13)++
1E60	2488		MOVE R4, $110
1E62	044C		MHL R4, R4
1E64	C430		SLE R4, R3
1E66	2082		JMP ($0104)

1E68	D3D3		MOVE R3, (R13)++
1E6A	D4D7		MOVE R4, (R13)--
1E6C	0349		SUB R3, R4
1E6E	53D8		MOVE (R13), R3
1E70	2082		JMP ($0104)

1E72	D3D1		MOVE R3, (R13)+
1E74	D4D3		MOVE R4, (R13)++
1E76	C430		SLE R4, R3
1E78	A007		BRA $1E82		; $08(R0)

1E7A	D3D7		MOVE R3, (R13)--
1E7C	5341		MOVE (R4)+, R3
1E7E	54D8		MOVE (R13), R4
1E80	2082		JMP ($0104)

1E82	FD01		SUB R13, #$02
1E84	41D0		PUTB $1, (R13)+
1E86	41D8		PUTB $1, (R13)
1E88	0004		NOP
1E8A	2082		JMP ($0104)

1E8C	A0BD		BRA $1F4C		; $BE(R0)

1E8E	AD01		ADD R13, #$02
1E90	D3D3		MOVE R3, (R13)++
1E92	F303		SUB R3, #$04
1E94	D431		MOVE R4, (R3)+
1E96	54D7		MOVE (R13)--, R4
1E98	53D8		MOVE (R13), R3
1E9A	2082		JMP ($0104)

1E9C	2388		MOVE R3, $110
1E9E	6430		MOVB R4, (R3)+
1EA0	C4D2		SE R4, R13
1EA2	F005		BRA $1E9E		; -> -$06(R0)

1EA4	F300		SUB R3, #$01
1EA6	3388		MOVE $110, R3
1EA8	2082		JMP ($0104)

1EAA	E14F		STAT R4, $1
1EAC	E1EF		STAT R14, $1
1EAE	2380		MOVE R3, $100
1EB0	25BB		MOVE R5, $176
1EB2	4150		PUTB $1, (R5)+
1EB4	4154		PUTB $1, (R5)-
1EB6	0E4D		MLH R14, R4
1EB8	64D8		MOVB R4, (R13)
1EBA	016E		GETB R6, $1
1EBC	2D88		MOVE R13, $110
1EBE	A300		ADD R3, #$01
1EC0	017E		GETB R7, $1
1EC2	C74A		SNE R7, R4
1EC4	A00D		BRA $1ED4		; $0E(R0)

1EC6	C70C		SNS R7
1EC8	A009		BRA $1ED4		; $0A(R0)

1ECA	0368		ADD R3, R6
1ECC	4150		PUTB $1, (R5)+
1ECE	4154		PUTB $1, (R5)-
1ED0	0004		NOP
1ED2	F013		BRA $1EC0		; -> -$14(R0)

1ED4	77D0		MOVB (R13)+, R7
1ED6	F600		SUB R6, #$01
1ED8	C60B		SNZ R6
1EDA	A003		BRA $1EE0		; $04(R0)

1EDC	017E		GETB R7, $1
1EDE	F00B		BRA $1ED4		; -> -$0C(R0)

1EE0	23BA		MOVE R3, $174
1EE2	4130		PUTB $1, (R3)+
1EE4	4138		PUTB $1, (R3)
1EE6	0004		NOP
1EE8	2082		JMP ($0104)

1EEA	2388		MOVE R3, $110
1EEC	53D1		MOVE (R13)+, R3
1EEE	2390		MOVE R3, $120
1EF0	53D1		MOVE (R13)+, R3
1EF2	23C0		MOVE R3, $180
1EF4	53D8		MOVE (R13), R3
1EF6	2082		JMP ($0104)

1EF8	D3D1		MOVE R3, (R13)+
1EFA	3388		MOVE $110, R3
1EFC	D3D1		MOVE R3, (R13)+
1EFE	3390		MOVE $120, R3
1F00	41D0		PUTB $1, (R13)+
1F02	41D8		PUTB $1, (R13)
1F04	0004		NOP
1F06	2082		JMP ($0104)

1F08	64D0		MOVB R4, (R13)+
1F0A	63D0		MOVB R3, (R13)+
1F0C	034D		MLH R3, R4
1F0E	68D0		MOVB R8, (R13)+
1F10	69D0		MOVB R9, (R13)+
1F12	66D0		MOVB R6, (R13)+
1F14	67D0		MOVB R7, (R13)+
1F16	8C80		LBI R12, #$80
1F18	F303		SUB R3, #$04
1F1A	043C		MHL R4, R3
1F1C	C480		SLE R4, R8
1F1E	A007		BRA $1F28		; $08(R0)

1F20	C482		SE R4, R8
1F22	A023		BRA $1F48		; $24(R0)

1F24	C399		SGE R3, R9
1F26	A01F		BRA $1F48		; $20(R0)

1F28	6430		MOVB R4, (R3)+
1F2A	6534		MOVB R5, (R3)-
1F2C	C462		SE R4, R6
1F2E	A003		BRA $1F34		; $04(R0)

1F30	C57A		SNE R5, R7
1F32	A007		BRA $1F3C		; $08(R0)

1F34	C5C5		SBS R5, R12
1F36	F01F		BRA $1F18		; -> -$20(R0)

1F38	F307		SUB R3, #$08
1F3A	F021		BRA $1F1A		; -> -$22(R0)

1F3C	F303		SUB R3, #$04
1F3E	011E		GETB R1, $1
1F40	F000		BRA $1F41		; -> -$01(R0)

1F42	011E		GETB R1, $1
1F44	F000		BRA $1F45		; -> -$01(R0)

1F46	011E		GETB R1, $1
1F48	3390		MOVE $120, R3
1F4A	2082		JMP ($0104)

1F4C	63D8		MOVB R3, (R13)
1F4E	8100		LBI R1, #$00
1F50	C318		SGT R3, R1
1F52	A02F		BRA $1F84		; $30(R0)

1F54	811A		LBI R1, #$1A
1F56	C318		SGT R3, R1
1F58	A019		BRA $1F74		; $1A(R0)

1F5A	8124		LBI R1, #$24
1F5C	C318		SGT R3, R1
1F5E	A01B		BRA $1F7C		; $1C(R0)

1F60	8170		LBI R1, #$70
1F62	C319		SGE R3, R1
1F64	A005		BRA $1F6C		; $06(R0)

1F66	8172		LBI R1, #$72
1F68	C318		SGT R3, R1
1F6A	A007		BRA $1F74		; $08(R0)

1F6C	011E		GETB R1, $1
1F6E	F000		BRA $1F6F		; -> -$01(R0)

1F70	011E		GETB R1, $1
1F72	F000		BRA $1F73		; -> -$01(R0)

1F74	011E		GETB R1, $1
1F76	F000		BRA $1F77		; -> -$01(R0)

1F78	011E		GETB R1, $1
1F7A	F000		BRA $1F7B		; -> -$01(R0)

1F7C	011E		GETB R1, $1
1F7E	F000		BRA $1F7F		; -> -$01(R0)

1F80	011E		GETB R1, $1
1F82	F000		BRA $1F83		; -> -$01(R0)

1F84	01DE		GETB R13, $1
1F86	0DDD		MLH R13, R13
1F88	23B9		MOVE R3, $172
1F8A	01DE		GETB R13, $1
1F8C	4130		PUTB $1, (R3)+
1F8E	4138		PUTB $1, (R3)
1F90	0004		NOP
1F92	2082		JMP ($0104)

1F94	1074		CTRL $0, #$74
1F96	E12F		STAT R2, $1
1F98	022D		MLH R2, R2
1F9A	E12F		STAT R2, $1
1F9C	2330		MOVE R3, $60
1F9E	841F		LBI R4, #$1F
1FA0	044D		MLH R4, R4
1FA2	84AC		LBI R4, #$AC
1FA4	3430		MOVE $60, R4
1FA6	0000		HALT
1FA8	3330		MOVE $60, R3
1FAA	20E4		JMP ($01C8)

1FAC	2100		MOVE R1, $00
1FAE	A101		ADD R1, #$02
1FB0	3100		MOVE $00, R1
1FB2	1450		CTRL $4, #$50
1FB4	841A		LBI R4, #$1A
1FB6	F400		SUB R4, #$01
1FB8	C403		SZ R4
1FBA	F005		BRA $1FB6		; -> -$06(R0)

1FBC	1412		CTRL $4, #$12
1FBE	0000		HALT
1FC0	0000		HALT
1FC2	0000		HALT
1FC4	0000		HALT
1FC6	0000		HALT
1FC8	0000		HALT
1FCA	0000		HALT
1FCC	0000		HALT
1FCE	0000		HALT
1FD0	0000		HALT
1FD2	0000		HALT
1FD4	0000		HALT
1FD6	0000		HALT
1FD8	0000		HALT
1FDA	0000		HALT
1FDC	0000		HALT
1FDE	0000		HALT
1FE0	0000		HALT
1FE2	0000		HALT
1FE4	0000		HALT
1FE6	0000		HALT
1FE8	0000		HALT
1FEA	0000		HALT
1FEC	0000		HALT
1FEE	0000		HALT
1FF0	0000		HALT
1FF2	0000		HALT
1FF4	0000		HALT
1FF6	0000		HALT
1FF8	0000		HALT
1FFA	0000		HALT
1FFC	0000		HALT
1FFE	0000		HALT
2000	0000		HALT
2002	0000		HALT
2004	0000		HALT
2006	0000		HALT
2008	0000		HALT
200A	0000		HALT
200C	0000		HALT
200E	0000		HALT
2010	0000		HALT
2012	0000		HALT
2014	0000		HALT
2016	0000		HALT
2018	0000		HALT
201A	0000		HALT
201C	0000		HALT
201E	0000		HALT
2020	0000		HALT
2022	0000		HALT
2024	0000		HALT
2026	0000		HALT
2028	0000		HALT
202A	0000		HALT
202C	0000		HALT
202E	0000		HALT
2030	0000		HALT
2032	0000		HALT
2034	0000		HALT
2036	0000		HALT
2038	0000		HALT
203A	0000		HALT
203C	0000		HALT
203E	0000		HALT
2040	0000		HALT
2042	0000		HALT
2044	0000		HALT
2046	0000		HALT
2048	0000		HALT
204A	0000		HALT
204C	0000		HALT
204E	0000		HALT
2050	0000		HALT
2052	0000		HALT
2054	0000		HALT
2056	0000		HALT
2058	0000		HALT
205A	0000		HALT
205C	0000		HALT
205E	0000		HALT
2060	0000		HALT
2062	0000		HALT
2064	0000		HALT
2066	0000		HALT
2068	0000		HALT
206A	0000		HALT
206C	0000		HALT
206E	0000		HALT
2070	0000		HALT
2072	0000		HALT
2074	0000		HALT
2076	0000		HALT
2078	0000		HALT
207A	0000		HALT
207C	0000		HALT
207E	0000		HALT
2080	0000		HALT
2082	0000		HALT
2084	0000		HALT
2086	0000		HALT
2088	0000		HALT
208A	0000		HALT
208C	0000		HALT
208E	0000		HALT
2090	0000		HALT
2092	0000		HALT
2094	0000		HALT
2096	0000		HALT
2098	0000		HALT
209A	0000		HALT
209C	0000		HALT
209E	0000		HALT
20A0	0000		HALT
20A2	0000		HALT
20A4	0000		HALT
20A6	0000		HALT
20A8	0000		HALT
20AA	0000		HALT
20AC	0000		HALT
20AE	0000		HALT
20B0	0000		HALT
20B2	0000		HALT
20B4	0000		HALT
20B6	0000		HALT
20B8	0000		HALT
20BA	0000		HALT
20BC	0000		HALT
20BE	0000		HALT
20C0	0000		HALT
20C2	0000		HALT
20C4	0000		HALT
20C6	0000		HALT
20C8	0000		HALT
20CA	0000		HALT
20CC	0000		HALT
20CE	0000		HALT
20D0	0000		HALT
20D2	0000		HALT
20D4	0000		HALT
20D6	0000		HALT
20D8	0000		HALT
20DA	0000		HALT
20DC	0000		HALT
20DE	0000		HALT
20E0	0000		HALT
20E2	0000		HALT
20E4	0000		HALT
20E6	0000		HALT
20E8	0000		HALT
20EA	0000		HALT
20EC	0000		HALT
20EE	0000		HALT
20F0	0000		HALT
20F2	0000		HALT
20F4	0000		HALT
20F6	0000		HALT
20F8	0000		HALT
20FA	0000		HALT
20FC	0000		HALT
20FE	0000		HALT
2100	0000		HALT
2102	0000		HALT
2104	0000		HALT
2106	0000		HALT
2108	0000		HALT
210A	0000		HALT
210C	0000		HALT
210E	0000		HALT
2110	0000		HALT
2112	0000		HALT
2114	0000		HALT
2116	0000		HALT
2118	0000		HALT
211A	0000		HALT
211C	0000		HALT
211E	0000		HALT
2120	0000		HALT
2122	0000		HALT
2124	0000		HALT
2126	0000		HALT
2128	0000		HALT
212A	0000		HALT
212C	0000		HALT
212E	0000		HALT
2130	0000		HALT
2132	0000		HALT
2134	0000		HALT
2136	0000		HALT
2138	0000		HALT
213A	0000		HALT
213C	0000		HALT
213E	0000		HALT
2140	0000		HALT
2142	0000		HALT
2144	0000		HALT
2146	0000		HALT
2148	0000		HALT
214A	0000		HALT
214C	0000		HALT
214E	0000		HALT
2150	0000		HALT
2152	0000		HALT
2154	0000		HALT
2156	0000		HALT
2158	0000		HALT
215A	0000		HALT
215C	0000		HALT
215E	0000		HALT
2160	0000		HALT
2162	0000		HALT
2164	0000		HALT
2166	0000		HALT
2168	0000		HALT
216A	0000		HALT
216C	0000		HALT
216E	0000		HALT
2170	0000		HALT
2172	0000		HALT
2174	0000		HALT
2176	0000		HALT
2178	0000		HALT
217A	0000		HALT
217C	0000		HALT
217E	0000		HALT
2180	0000		HALT
2182	0000		HALT
2184	0000		HALT
2186	0000		HALT
2188	0000		HALT
218A	0000		HALT
218C	0000		HALT
218E	0000		HALT
2190	0000		HALT
2192	0000		HALT
2194	0000		HALT
2196	0000		HALT
2198	0000		HALT
219A	0000		HALT
219C	0000		HALT
219E	0000		HALT
21A0	0000		HALT
21A2	0000		HALT
21A4	0000		HALT
21A6	0000		HALT
21A8	0000		HALT
21AA	0000		HALT
21AC	0000		HALT
21AE	0000		HALT
21B0	0000		HALT
21B2	0000		HALT
21B4	0000		HALT
21B6	0000		HALT
21B8	0000		HALT
21BA	0000		HALT
21BC	0000		HALT
21BE	0000		HALT
21C0	0000		HALT
21C2	0000		HALT
21C4	0000		HALT
21C6	0000		HALT
21C8	0000		HALT
21CA	0000		HALT
21CC	0000		HALT
21CE	0000		HALT
21D0	0000		HALT
21D2	0000		HALT
21D4	0000		HALT
21D6	0000		HALT
21D8	0000		HALT
21DA	0000		HALT
21DC	0000		HALT
21DE	0000		HALT
21E0	0000		HALT
21E2	0000		HALT
21E4	0000		HALT
21E6	0000		HALT
21E8	0000		HALT
21EA	0000		HALT
21EC	0000		HALT
21EE	0000		HALT
21F0	0000		HALT
21F2	0000		HALT
21F4	0000		HALT
21F6	0000		HALT
21F8	0000		HALT
21FA	0000		HALT
21FC	0000		HALT
21FE	0000		HALT
2200	E13F		STAT R3, $1
2202	033D		MLH R3, R3
2204	E13F		STAT R3, $1
2206	03C8		ADD R3, R12
2208	21BB		MOVE R1, $176
220A	4110		PUTB $1, (R1)+
220C	4118		PUTB $1, (R1)
220E	D3D1		MOVE R3, (R13)+
2210	D4D1		MOVE R4, (R13)+
2212	D5D1		MOVE R5, (R13)+
2214	D6D1		MOVE R6, (R13)+
2216	8B0F		LBI R11, #$0F
2218	C3BE		SNBC R3, R11
221A	A005		BRA $2222		; $06(R0)

221C	D7D8		MOVE R7, (R13)
221E	C7B6		SBC R7, R11
2220	A00D		BRA $2230		; $0E(R0)

2222	2353		MOVE R3, $A6
2224	AD07		ADD R13, #$08
2226	53D1		MOVE (R13)+, R3
2228	53D1		MOVE (R13)+, R3
222A	53D1		MOVE (R13)+, R3
222C	53D8		MOVE (R13), R3
222E	2093		JMP ($0126)

2230	33CE		MOVE $19C, R3
2232	37CF		MOVE $19E, R7
2234	97F0		CLR R7, #$F0
2236	57D8		MOVE (R13), R7
2238	8123		LBI R1, #$23
223A	011D		MLH R1, R1
223C	81F0		LBI R1, #$F0
223E	31CA		MOVE $194, R1
2240	8124		LBI R1, #$24
2242	011D		MLH R1, R1
2244	81B6		LBI R1, #$B6
2246	31CB		MOVE $196, R1
2248	8107		LBI R1, #$07
224A	31CD		MOVE $19A, R1
224C	8E0A		LBI R14, #$0A
224E	0EED		MLH R14, R14
2250	8E00		LBI R14, #$00
2252	8B04		LBI R11, #$04
2254	8100		LBI R1, #$00
2256	031D		MLH R3, R1
2258	93F0		CLR R3, #$F0
225A	53E1		MOVE (R14)+, R3
225C	54E1		MOVE (R14)+, R4
225E	55E1		MOVE (R14)+, R5
2260	56E0		MOVE (R14)', R6
2262	FB00		SUB R11, #$01
2264	CB0B		SNZ R11
2266	A007		BRA $2270		; $08(R0)

2268	0203		INC2 R2, R0
226A	20CA		JMP ($0194)

226C	AE00		ADD R14, #$01
226E	F015		BRA $225A		; -> -$16(R0)

2270	FE0F		SUB R14, #$10
2272	0203		INC2 R2, R0
2274	20CA		JMP ($0194)

2276	AE10		ADD R14, #$11
2278	8B04		LBI R11, #$04
227A	53E1		MOVE (R14)+, R3
227C	54E1		MOVE (R14)+, R4
227E	55E1		MOVE (R14)+, R5
2280	56E0		MOVE (R14)', R6
2282	FB00		SUB R11, #$01
2284	CB0B		SNZ R11
2286	A007		BRA $2290		; $08(R0)

2288	0203		INC2 R2, R0
228A	20CA		JMP ($0194)

228C	AE00		ADD R14, #$01
228E	F015		BRA $227A		; -> -$16(R0)

2290	2C53		MOVE R12, $A6
2292	2353		MOVE R3, $A6
2294	2453		MOVE R4, $A6
2296	2553		MOVE R5, $A6
2298	2653		MOVE R6, $A6
229A	2B53		MOVE R11, $A6
229C	AD06		ADD R13, #$07
229E	61D4		MOVB R1, (R13)-
22A0	0B1A		ADDH R11, R1
22A2	8E07		LBI R14, #$07
22A4	01B4		MOVE R1, R11
22A6	91F0		CLR R1, #$F0
22A8	0118		ADD R1, R1
22AA	0018		ADD R0, R1
22AC	A063		BRA $2312		; $64(R0)

22AE	A01B		BRA $22CC		; $1C(R0)

22B0	A023		BRA $22D6		; $24(R0)

22B2	A01D		BRA $22D2		; $1E(R0)

22B4	A033		BRA $22EA		; $34(R0)

22B6	A02D		BRA $22E6		; $2E(R0)

22B8	A023		BRA $22DE		; $24(R0)

22BA	A035		BRA $22F2		; $36(R0)

22BC	A037		BRA $22F6		; $38(R0)

22BE	A03D		BRA $22FE		; $3E(R0)

22C0	A03F		BRA $2302		; $40(R0)

22C2	A04D		BRA $2312		; $4E(R0)

22C4	A04B		BRA $2312		; $4C(R0)

22C6	A049		BRA $2312		; $4A(R0)

22C8	A047		BRA $2312		; $48(R0)

22CA	A045		BRA $2312		; $46(R0)

22CC	0203		INC2 R2, R0
22CE	20CA		JMP ($0194)

22D0	A03F		BRA $2312		; $40(R0)

22D2	0203		INC2 R2, R0
22D4	20CA		JMP ($0194)

22D6	BE0F		SET R14, #$0F
22D8	0203		INC2 R2, R0
22DA	20CA		JMP ($0194)

22DC	A033		BRA $2312		; $34(R0)

22DE	BE17		SET R14, #$17
22E0	0203		INC2 R2, R0
22E2	20CB		JMP ($0196)

22E4	A01B		BRA $2302		; $1C(R0)

22E6	0203		INC2 R2, R0
22E8	20CA		JMP ($0194)

22EA	BE17		SET R14, #$17
22EC	0203		INC2 R2, R0
22EE	20CA		JMP ($0194)

22F0	A01F		BRA $2312		; $20(R0)

22F2	0203		INC2 R2, R0
22F4	20CB		JMP ($0196)

22F6	BE1F		SET R14, #$1F
22F8	0203		INC2 R2, R0
22FA	20CA		JMP ($0194)

22FC	A013		BRA $2312		; $14(R0)

22FE	0203		INC2 R2, R0
2300	20CB		JMP ($0196)

2302	8120		LBI R1, #$20
2304	CE16		SBC R14, R1
2306	A003		BRA $230C		; $04(R0)

2308	AB0F		ADD R11, #$10
230A	A00B		BRA $2318		; $0C(R0)

230C	AB7F		ADD R11, #$80
230E	AB7F		ADD R11, #$80
2310	A00F		BRA $2322		; $10(R0)

2312	8120		LBI R1, #$20
2314	CE16		SBC R14, R1
2316	A009		BRA $2322		; $0A(R0)

2318	8E27		LBI R14, #$27
231A	9B0F		CLR R11, #$0F
231C	E0BE		ROR3 R11
231E	01B4		MOVE R1, R11
2320	F077		BRA $22AA		; -> -$78(R0)

2322	21CD		MOVE R1, $19A
2324	F100		SUB R1, #$01
2326	31CD		MOVE $19A, R1
2328	C10B		SNZ R1
232A	A01B		BRA $2348		; $1C(R0)

232C	066C		MHL R6, R6
232E	065D		MLH R6, R5
2330	055C		MHL R5, R5
2332	054D		MLH R5, R4
2334	044C		MHL R4, R4
2336	043D		MLH R4, R3
2338	033C		MHL R3, R3
233A	CC0C		SNS R12
233C	A003		BRA $2342		; $04(R0)

233E	03CD		MLH R3, R12
2340	F0A3		BRA $229E		; -> -$A4(R0)

2342	8199		LBI R1, #$99
2344	031D		MLH R3, R1
2346	F0A9		BRA $229E		; -> -$AA(R0)

2348	27CE		MOVE R7, $19C
234A	28CF		MOVE R8, $19E
234C	AD07		ADD R13, #$08
234E	81F0		LBI R1, #$F0
2350	C31E		SNBC R3, R1
2352	A04F		BRA $23A4		; $50(R0)

2354	E06F		SWAP R6
2356	96F0		CLR R6, #$F0
2358	016C		MHL R1, R6
235A	E01F		SWAP R1
235C	0E14		MOVE R14, R1
235E	910F		CLR R1, #$0F
2360	0616		OR R6, R1
2362	9EF0		CLR R14, #$F0
2364	E05F		SWAP R5
2366	0154		MOVE R1, R5
2368	910F		CLR R1, #$0F
236A	01E6		OR R1, R14
236C	061D		MLH R6, R1
236E	95F0		CLR R5, #$F0
2370	015C		MHL R1, R5
2372	E01F		SWAP R1
2374	0E14		MOVE R14, R1
2376	910F		CLR R1, #$0F
2378	0516		OR R5, R1
237A	9EF0		CLR R14, #$F0
237C	E04F		SWAP R4
237E	0144		MOVE R1, R4
2380	910F		CLR R1, #$0F
2382	01E6		OR R1, R14
2384	051D		MLH R5, R1
2386	94F0		CLR R4, #$F0
2388	014C		MHL R1, R4
238A	E01F		SWAP R1
238C	0E14		MOVE R14, R1
238E	910F		CLR R1, #$0F
2390	0416		OR R4, R1
2392	9EF0		CLR R14, #$F0
2394	E03F		SWAP R3
2396	0134		MOVE R1, R3
2398	910F		CLR R1, #$0F
239A	01E6		OR R1, R14
239C	041D		MLH R4, R1
239E	93F0		CLR R3, #$F0
23A0	A77F		ADD R7, #$80
23A2	A77F		ADD R7, #$80
23A4	0787		XOR R7, R8
23A6	977F		CLR R7, #$7F
23A8	0376		OR R3, R7
23AA	088C		MHL R8, R8
23AC	078A		ADDH R7, R8
23AE	F763		SUB R7, #$64
23B0	81FF		LBI R1, #$FF
23B2	C717		SBSH R7, R1
23B4	A00B		BRA $23C2		; $0C(R0)

23B6	2353		MOVE R3, $A6
23B8	53D1		MOVE (R13)+, R3
23BA	53D1		MOVE (R13)+, R3
23BC	53D1		MOVE (R13)+, R3
23BE	53D8		MOVE (R13), R3
23C0	20A9		JMP ($0152)

23C2	017C		MHL R1, R7
23C4	C103		SZ R1
23C6	A005		BRA $23CE		; $06(R0)

23C8	88C6		LBI R8, #$C6
23CA	C788		SGT R7, R8
23CC	A015		BRA $23E4		; $16(R0)

23CE	038D		MLH R3, R8
23D0	930F		CLR R3, #$0F
23D2	8109		LBI R1, #$09
23D4	0316		OR R3, R1
23D6	8199		LBI R1, #$99
23D8	011D		MLH R1, R1
23DA	53D1		MOVE (R13)+, R3
23DC	51D1		MOVE (R13)+, R1
23DE	51D1		MOVE (R13)+, R1
23E0	51D8		MOVE (R13), R1
23E2	20A2		JMP ($0144)

23E4	037D		MLH R3, R7
23E6	53D1		MOVE (R13)+, R3
23E8	54D1		MOVE (R13)+, R4
23EA	55D1		MOVE (R13)+, R5
23EC	56D8		MOVE (R13), R6
23EE	2093		JMP ($0126)

23F0	8701		LBI R7, #$01
23F2	8810		LBI R8, #$10
23F4	2953		MOVE R9, $A6
23F6	6AE4		MOVB R10, (R14)-
23F8	096A		ADDH R9, R6
23FA	AA65		ADD R10, #$66
23FC	06A7		XOR R6, R10
23FE	09A8		ADD R9, R10
2400	0697		XOR R6, R9
2402	C685		SBS R6, R8
2404	F905		SUB R9, #$06
2406	C977		SBSH R9, R7
2408	F95F		SUB R9, #$60
240A	0F6C		MHL R15, R6
240C	0694		MOVE R6, R9
240E	6AE4		MOVB R10, (R14)-
2410	09FA		ADDH R9, R15
2412	AA65		ADD R10, #$66
2414	0FA7		XOR R15, R10
2416	09A8		ADD R9, R10
2418	0F97		XOR R15, R9
241A	CF85		SBS R15, R8
241C	F905		SUB R9, #$06
241E	C977		SBSH R9, R7
2420	F95F		SUB R9, #$60
2422	069D		MLH R6, R9
2424	6AE4		MOVB R10, (R14)-
2426	095A		ADDH R9, R5
2428	AA65		ADD R10, #$66
242A	05A7		XOR R5, R10
242C	09A8		ADD R9, R10
242E	0597		XOR R5, R9
2430	C585		SBS R5, R8
2432	F905		SUB R9, #$06
2434	C977		SBSH R9, R7
2436	F95F		SUB R9, #$60
2438	0F5C		MHL R15, R5
243A	0594		MOVE R5, R9
243C	6AE4		MOVB R10, (R14)-
243E	09FA		ADDH R9, R15
2440	AA65		ADD R10, #$66
2442	0FA7		XOR R15, R10
2444	09A8		ADD R9, R10
2446	0F97		XOR R15, R9
2448	CF85		SBS R15, R8
244A	F905		SUB R9, #$06
244C	C977		SBSH R9, R7
244E	F95F		SUB R9, #$60
2450	059D		MLH R5, R9
2452	6AE4		MOVB R10, (R14)-
2454	094A		ADDH R9, R4
2456	AA65		ADD R10, #$66
2458	04A7		XOR R4, R10
245A	09A8		ADD R9, R10
245C	0497		XOR R4, R9
245E	C485		SBS R4, R8
2460	F905		SUB R9, #$06
2462	C977		SBSH R9, R7
2464	F95F		SUB R9, #$60
2466	0F4C		MHL R15, R4
2468	0494		MOVE R4, R9
246A	6AE4		MOVB R10, (R14)-
246C	09FA		ADDH R9, R15
246E	AA65		ADD R10, #$66
2470	0FA7		XOR R15, R10
2472	09A8		ADD R9, R10
2474	0F97		XOR R15, R9
2476	CF85		SBS R15, R8
2478	F905		SUB R9, #$06
247A	C977		SBSH R9, R7
247C	F95F		SUB R9, #$60
247E	049D		MLH R4, R9
2480	6AE4		MOVB R10, (R14)-
2482	093A		ADDH R9, R3
2484	AA65		ADD R10, #$66
2486	03A7		XOR R3, R10
2488	09A8		ADD R9, R10
248A	0397		XOR R3, R9
248C	C385		SBS R3, R8
248E	F905		SUB R9, #$06
2490	C977		SBSH R9, R7
2492	F95F		SUB R9, #$60
2494	0F3C		MHL R15, R3
2496	0394		MOVE R3, R9
2498	6AE4		MOVB R10, (R14)-
249A	09FA		ADDH R9, R15
249C	AA65		ADD R10, #$66
249E	0FA7		XOR R15, R10
24A0	09A8		ADD R9, R10
24A2	0F97		XOR R15, R9
24A4	CF85		SBS R15, R8
24A6	F905		SUB R9, #$06
24A8	C977		SBSH R9, R7
24AA	F95F		SUB R9, #$60
24AC	039D		MLH R3, R9
24AE	099C		MHL R9, R9
24B0	0C98		ADD R12, R9
24B2	AE07		ADD R14, #$08
24B4	0024		RET R2

24B6	87FF		LBI R7, #$FF
24B8	8810		LBI R8, #$10
24BA	2953		MOVE R9, $A6
24BC	2F53		MOVE R15, $A6
24BE	6AE4		MOVB R10, (R14)-
24C0	0966		OR R9, R6
24C2	06A7		XOR R6, R10
24C4	09A9		SUB R9, R10
24C6	0697		XOR R6, R9
24C8	C686		SBC R6, R8
24CA	F905		SUB R9, #$06
24CC	C97F		SNBSH R9, R7
24CE	F95F		SUB R9, #$60
24D0	0F6C		MHL R15, R6
24D2	0694		MOVE R6, R9
24D4	6AE4		MOVB R10, (R14)-
24D6	09FB		ADDH2 R9, R15
24D8	CF9A		SNE R15, R9
24DA	09F4		MOVE R9, R15
24DC	0FA7		XOR R15, R10
24DE	09A9		SUB R9, R10
24E0	0F97		XOR R15, R9
24E2	CF86		SBC R15, R8
24E4	F905		SUB R9, #$06
24E6	C97F		SNBSH R9, R7
24E8	F95F		SUB R9, #$60
24EA	069D		MLH R6, R9
24EC	6AE4		MOVB R10, (R14)-
24EE	2F53		MOVE R15, $A6
24F0	0F56		OR R15, R5
24F2	09FB		ADDH2 R9, R15
24F4	CF9A		SNE R15, R9
24F6	09F4		MOVE R9, R15
24F8	0FA7		XOR R15, R10
24FA	09A9		SUB R9, R10
24FC	0F97		XOR R15, R9
24FE	CF86		SBC R15, R8
2500	F905		SUB R9, #$06
2502	C97F		SNBSH R9, R7
2504	F95F		SUB R9, #$60
2506	0F5C		MHL R15, R5
2508	0594		MOVE R5, R9
250A	6AE4		MOVB R10, (R14)-
250C	09FB		ADDH2 R9, R15
250E	CF9A		SNE R15, R9
2510	09F4		MOVE R9, R15
2512	0FA7		XOR R15, R10
2514	09A9		SUB R9, R10
2516	0F97		XOR R15, R9
2518	CF86		SBC R15, R8
251A	F905		SUB R9, #$06
251C	C97F		SNBSH R9, R7
251E	F95F		SUB R9, #$60
2520	059D		MLH R5, R9
2522	6AE4		MOVB R10, (R14)-
2524	2F53		MOVE R15, $A6
2526	0F46		OR R15, R4
2528	09FB		ADDH2 R9, R15
252A	CF9A		SNE R15, R9
252C	09F4		MOVE R9, R15
252E	0FA7		XOR R15, R10
2530	09A9		SUB R9, R10
2532	0F97		XOR R15, R9
2534	CF86		SBC R15, R8
2536	F905		SUB R9, #$06
2538	C97F		SNBSH R9, R7
253A	F95F		SUB R9, #$60
253C	0F4C		MHL R15, R4
253E	0494		MOVE R4, R9
2540	6AE4		MOVB R10, (R14)-
2542	09FB		ADDH2 R9, R15
2544	CF9A		SNE R15, R9
2546	09F4		MOVE R9, R15
2548	0FA7		XOR R15, R10
254A	09A9		SUB R9, R10
254C	0F97		XOR R15, R9
254E	CF86		SBC R15, R8
2550	F905		SUB R9, #$06
2552	C97F		SNBSH R9, R7
2554	F95F		SUB R9, #$60
2556	049D		MLH R4, R9
2558	6AE4		MOVB R10, (R14)-
255A	2F53		MOVE R15, $A6
255C	0F36		OR R15, R3
255E	09FB		ADDH2 R9, R15
2560	CF9A		SNE R15, R9
2562	09F4		MOVE R9, R15
2564	0FA7		XOR R15, R10
2566	09A9		SUB R9, R10
2568	0F97		XOR R15, R9
256A	CF86		SBC R15, R8
256C	F905		SUB R9, #$06
256E	C97F		SNBSH R9, R7
2570	F95F		SUB R9, #$60
2572	0F3C		MHL R15, R3
2574	0394		MOVE R3, R9
2576	6AE4		MOVB R10, (R14)-
2578	09FB		ADDH2 R9, R15
257A	CF9A		SNE R15, R9
257C	09F4		MOVE R9, R15
257E	0FA7		XOR R15, R10
2580	09A9		SUB R9, R10
2582	0F97		XOR R15, R9
2584	CF86		SBC R15, R8
2586	F905		SUB R9, #$06
2588	C97F		SNBSH R9, R7
258A	F95F		SUB R9, #$60
258C	039D		MLH R3, R9
258E	099C		MHL R9, R9
2590	0C98		ADD R12, R9
2592	AE07		ADD R14, #$08
2594	0024		RET R2

2596	E13F		STAT R3, $1
2598	033D		MLH R3, R3
259A	E13F		STAT R3, $1
259C	03C8		ADD R3, R12
259E	21BB		MOVE R1, $176
25A0	4110		PUTB $1, (R1)+
25A2	4118		PUTB $1, (R1)
25A4	D7D8		MOVE R7, (R13)
25A6	AD06		ADD R13, #$07
25A8	3DCC		MOVE $198, R13
25AA	AD08		ADD R13, #$09
25AC	D3D1		MOVE R3, (R13)+
25AE	8B0F		LBI R11, #$0F
25B0	C3B6		SBC R3, R11
25B2	A01D		BRA $25D2		; $1E(R0)

25B4	2DCC		MOVE R13, $198
25B6	81C6		LBI R1, #$C6
25B8	71D0		MOVB (R13)+, R1
25BA	0377		XOR R3, R7
25BC	937F		CLR R3, #$7F
25BE	8109		LBI R1, #$09
25C0	0316		OR R3, R1
25C2	033D		MLH R3, R3
25C4	8399		LBI R3, #$99
25C6	53D1		MOVE (R13)+, R3
25C8	033D		MLH R3, R3
25CA	53D1		MOVE (R13)+, R3
25CC	53D1		MOVE (R13)+, R3
25CE	73D8		MOVB (R13), R3
25D0	20A2		JMP ($0144)

25D2	C7B6		SBC R7, R11
25D4	A00F		BRA $25E6		; $10(R0)

25D6	2DCC		MOVE R13, $198
25D8	2353		MOVE R3, $A6
25DA	73D0		MOVB (R13)+, R3
25DC	53D1		MOVE (R13)+, R3
25DE	53D1		MOVE (R13)+, R3
25E0	53D1		MOVE (R13)+, R3
25E2	73D8		MOVB (R13), R3
25E4	2093		JMP ($0126)

25E6	37CE		MOVE $19C, R7
25E8	33CF		MOVE $19E, R3
25EA	D4D1		MOVE R4, (R13)+
25EC	D5D1		MOVE R5, (R13)+
25EE	D6D8		MOVE R6, (R13)
25F0	8123		LBI R1, #$23
25F2	011D		MLH R1, R1
25F4	81F0		LBI R1, #$F0
25F6	31CA		MOVE $194, R1
25F8	8E0A		LBI R14, #$0A
25FA	0EED		MLH R14, R14
25FC	8E00		LBI R14, #$00
25FE	8B04		LBI R11, #$04
2600	8100		LBI R1, #$00
2602	031D		MLH R3, R1
2604	93F0		CLR R3, #$F0
2606	53E1		MOVE (R14)+, R3
2608	54E1		MOVE (R14)+, R4
260A	55E1		MOVE (R14)+, R5
260C	56E0		MOVE (R14)', R6
260E	FB00		SUB R11, #$01
2610	CB0B		SNZ R11
2612	A007		BRA $261C		; $08(R0)

2614	0203		INC2 R2, R0
2616	20CA		JMP ($0194)

2618	AE00		ADD R14, #$01
261A	F015		BRA $2606		; -> -$16(R0)

261C	FE0F		SUB R14, #$10
261E	0203		INC2 R2, R0
2620	20CA		JMP ($0194)

2622	AE10		ADD R14, #$11
2624	8B04		LBI R11, #$04
2626	53E1		MOVE (R14)+, R3
2628	54E1		MOVE (R14)+, R4
262A	55E1		MOVE (R14)+, R5
262C	56E0		MOVE (R14)', R6
262E	FB00		SUB R11, #$01
2630	CB0B		SNZ R11
2632	A007		BRA $263C		; $08(R0)

2634	0203		INC2 R2, R0
2636	20CA		JMP ($0194)

2638	AE00		ADD R14, #$01
263A	F015		BRA $2626		; -> -$16(R0)

263C	8B0E		LBI R11, #$0E
263E	8126		LBI R1, #$26
2640	011D		MLH R1, R1
2642	8176		LBI R1, #$76
2644	31CA		MOVE $194, R1
2646	8127		LBI R1, #$27
2648	011D		MLH R1, R1
264A	81AA		LBI R1, #$AA
264C	31CB		MOVE $196, R1
264E	8100		LBI R1, #$00
2650	31CD		MOVE $19A, R1
2652	2DCC		MOVE R13, $198
2654	FD06		SUB R13, #$07
2656	D3D1		MOVE R3, (R13)+
2658	D4D1		MOVE R4, (R13)+
265A	D5D1		MOVE R5, (R13)+
265C	D6D1		MOVE R6, (R13)+
265E	93F0		CLR R3, #$F0
2660	8100		LBI R1, #$00
2662	031D		MLH R3, R1
2664	2153		MOVE R1, $A6
2666	AD05		ADD R13, #$06
2668	51D5		MOVE (R13)-, R1
266A	51D5		MOVE (R13)-, R1
266C	51D5		MOVE (R13)-, R1
266E	51D8		MOVE (R13), R1
2670	8E18		LBI R14, #$18
2672	0BBD		MLH R11, R11
2674	8B08		LBI R11, #$08
2676	073C		MHL R7, R3
2678	6CE0		MOVB R12, (R14)+
267A	CC70		SLE R12, R7
267C	20CB		JMP ($0196)

267E	CC72		SE R12, R7
2680	A047		BRA $26CA		; $48(R0)

2682	6CE0		MOVB R12, (R14)+
2684	CC30		SLE R12, R3
2686	20CB		JMP ($0196)

2688	CC32		SE R12, R3
268A	A03D		BRA $26CA		; $3E(R0)

268C	084C		MHL R8, R4
268E	6CE0		MOVB R12, (R14)+
2690	CC80		SLE R12, R8
2692	20CB		JMP ($0196)

2694	CC82		SE R12, R8
2696	A031		BRA $26CA		; $32(R0)

2698	6CE0		MOVB R12, (R14)+
269A	CC40		SLE R12, R4
269C	20CB		JMP ($0196)

269E	CC42		SE R12, R4
26A0	A027		BRA $26CA		; $28(R0)

26A2	095C		MHL R9, R5
26A4	6CE0		MOVB R12, (R14)+
26A6	CC90		SLE R12, R9
26A8	20CB		JMP ($0196)

26AA	CC92		SE R12, R9
26AC	A01B		BRA $26CA		; $1C(R0)

26AE	6CE0		MOVB R12, (R14)+
26B0	CC50		SLE R12, R5
26B2	20CB		JMP ($0196)

26B4	CC52		SE R12, R5
26B6	A011		BRA $26CA		; $12(R0)

26B8	0A6C		MHL R10, R6
26BA	6CE0		MOVB R12, (R14)+
26BC	CCA0		SLE R12, R10
26BE	20CB		JMP ($0196)

26C0	CCA2		SE R12, R10
26C2	A005		BRA $26CA		; $06(R0)

26C4	6CE8		MOVB R12, (R14)
26C6	CC60		SLE R12, R6
26C8	20CB		JMP ($0196)

26CA	BE07		SET R14, #$07
26CC	61D8		MOVB R1, (R13)
26CE	01B6		OR R1, R11
26D0	71D8		MOVB (R13), R1
26D2	87FF		LBI R7, #$FF
26D4	8810		LBI R8, #$10
26D6	2953		MOVE R9, $A6
26D8	2F53		MOVE R15, $A6
26DA	6AE4		MOVB R10, (R14)-
26DC	0966		OR R9, R6
26DE	06A7		XOR R6, R10
26E0	09A9		SUB R9, R10
26E2	0697		XOR R6, R9
26E4	C686		SBC R6, R8
26E6	F905		SUB R9, #$06
26E8	C97F		SNBSH R9, R7
26EA	F95F		SUB R9, #$60
26EC	0F6C		MHL R15, R6
26EE	0694		MOVE R6, R9
26F0	6AE4		MOVB R10, (R14)-
26F2	09FB		ADDH2 R9, R15
26F4	CF9A		SNE R15, R9
26F6	09F4		MOVE R9, R15
26F8	0FA7		XOR R15, R10
26FA	09A9		SUB R9, R10
26FC	0F97		XOR R15, R9
26FE	CF86		SBC R15, R8
2700	F905		SUB R9, #$06
2702	C97F		SNBSH R9, R7
2704	F95F		SUB R9, #$60
2706	069D		MLH R6, R9
2708	6AE4		MOVB R10, (R14)-
270A	2F53		MOVE R15, $A6
270C	0F56		OR R15, R5
270E	09FB		ADDH2 R9, R15
2710	CF9A		SNE R15, R9
2712	09F4		MOVE R9, R15
2714	0FA7		XOR R15, R10
2716	09A9		SUB R9, R10
2718	0F97		XOR R15, R9
271A	CF86		SBC R15, R8
271C	F905		SUB R9, #$06
271E	C97F		SNBSH R9, R7
2720	F95F		SUB R9, #$60
2722	0F5C		MHL R15, R5
2724	0594		MOVE R5, R9
2726	6AE4		MOVB R10, (R14)-
2728	09FB		ADDH2 R9, R15
272A	CF9A		SNE R15, R9
272C	09F4		MOVE R9, R15
272E	0FA7		XOR R15, R10
2730	09A9		SUB R9, R10
2732	0F97		XOR R15, R9
2734	CF86		SBC R15, R8
2736	F905		SUB R9, #$06
2738	C97F		SNBSH R9, R7
273A	F95F		SUB R9, #$60
273C	059D		MLH R5, R9
273E	6AE4		MOVB R10, (R14)-
2740	2F53		MOVE R15, $A6
2742	0F46		OR R15, R4
2744	09FB		ADDH2 R9, R15
2746	CF9A		SNE R15, R9
2748	09F4		MOVE R9, R15
274A	0FA7		XOR R15, R10
274C	09A9		SUB R9, R10
274E	0F97		XOR R15, R9
2750	CF86		SBC R15, R8
2752	F905		SUB R9, #$06
2754	C97F		SNBSH R9, R7
2756	F95F		SUB R9, #$60
2758	0F4C		MHL R15, R4
275A	0494		MOVE R4, R9
275C	6AE4		MOVB R10, (R14)-
275E	09FB		ADDH2 R9, R15
2760	CF9A		SNE R15, R9
2762	09F4		MOVE R9, R15
2764	0FA7		XOR R15, R10
2766	09A9		SUB R9, R10
2768	0F97		XOR R15, R9
276A	CF86		SBC R15, R8
276C	F905		SUB R9, #$06
276E	C97F		SNBSH R9, R7
2770	F95F		SUB R9, #$60
2772	049D		MLH R4, R9
2774	6AE4		MOVB R10, (R14)-
2776	2F53		MOVE R15, $A6
2778	0F36		OR R15, R3
277A	09FB		ADDH2 R9, R15
277C	CF9A		SNE R15, R9
277E	09F4		MOVE R9, R15
2780	0FA7		XOR R15, R10
2782	09A9		SUB R9, R10
2784	0F97		XOR R15, R9
2786	CF86		SBC R15, R8
2788	F905		SUB R9, #$06
278A	C97F		SNBSH R9, R7
278C	F95F		SUB R9, #$60
278E	0F3C		MHL R15, R3
2790	0394		MOVE R3, R9
2792	6AE8		MOVB R10, (R14)
2794	09FB		ADDH2 R9, R15
2796	CF9A		SNE R15, R9
2798	09F4		MOVE R9, R15
279A	0FA7		XOR R15, R10
279C	09A9		SUB R9, R10
279E	0F97		XOR R15, R9
27A0	CF86		SBC R15, R8
27A2	F905		SUB R9, #$06
27A4	C97F		SNBSH R9, R7
27A6	F95F		SUB R9, #$60
27A8	039D		MLH R3, R9
27AA	9E07		CLR R14, #$07
27AC	E0BC		SHR R11
27AE	CB0B		SNZ R11
27B0	A003		BRA $27B6		; $04(R0)

27B2	FE07		SUB R14, #$08
27B4	20CA		JMP ($0194)

27B6	0BBC		MHL R11, R11
27B8	FB01		SUB R11, #$02
27BA	CB0B		SNZ R11
27BC	A019		BRA $27D8		; $1A(R0)

27BE	AD00		ADD R13, #$01
27C0	0BBD		MLH R11, R11
27C2	8B80		LBI R11, #$80
27C4	033D		MLH R3, R3
27C6	034C		MHL R3, R4
27C8	044D		MLH R4, R4
27CA	045C		MHL R4, R5
27CC	055D		MLH R5, R5
27CE	056C		MHL R5, R6
27D0	066D		MLH R6, R6
27D2	8600		LBI R6, #$00
27D4	8E38		LBI R14, #$38
27D6	20CA		JMP ($0194)

27D8	2CCC		MOVE R12, $198
27DA	AC00		ADD R12, #$01
27DC	67C0		MOVB R7, (R12)+
27DE	810F		LBI R1, #$0F
27E0	C716		SBC R7, R1
27E2	A061		BRA $2846		; $62(R0)

27E4	68C4		MOVB R8, (R12)-
27E6	E08F		SWAP R8
27E8	0B84		MOVE R11, R8
27EA	98F0		CLR R8, #$F0
27EC	0786		OR R7, R8
27EE	77C1		MOVB (R12)++, R7
27F0	9B0F		CLR R11, #$0F
27F2	68C4		MOVB R8, (R12)-
27F4	E08F		SWAP R8
27F6	0784		MOVE R7, R8
27F8	98F0		CLR R8, #$F0
27FA	08B6		OR R8, R11
27FC	78C1		MOVB (R12)++, R8
27FE	970F		CLR R7, #$0F
2800	68C4		MOVB R8, (R12)-
2802	E08F		SWAP R8
2804	0B84		MOVE R11, R8
2806	98F0		CLR R8, #$F0
2808	0786		OR R7, R8
280A	77C1		MOVB (R12)++, R7
280C	9B0F		CLR R11, #$0F
280E	68C4		MOVB R8, (R12)-
2810	E08F		SWAP R8
2812	0784		MOVE R7, R8
2814	98F0		CLR R8, #$F0
2816	08B6		OR R8, R11
2818	78C1		MOVB (R12)++, R8
281A	970F		CLR R7, #$0F
281C	68C4		MOVB R8, (R12)-
281E	E08F		SWAP R8
2820	0B84		MOVE R11, R8
2822	98F0		CLR R8, #$F0
2824	0786		OR R7, R8
2826	77C1		MOVB (R12)++, R7
2828	9B0F		CLR R11, #$0F
282A	68C4		MOVB R8, (R12)-
282C	E08F		SWAP R8
282E	0784		MOVE R7, R8
2830	98F0		CLR R8, #$F0
2832	08B6		OR R8, R11
2834	78C0		MOVB (R12)+, R8
2836	970F		CLR R7, #$0F
2838	77C8		MOVB (R12), R7
283A	8101		LBI R1, #$01
283C	31CD		MOVE $19A, R1
283E	8B02		LBI R11, #$02
2840	0BBD		MLH R11, R11
2842	8B08		LBI R11, #$08
2844	F081		BRA $27C4		; -> -$82(R0)

2846	27CE		MOVE R7, $19C
2848	28CF		MOVE R8, $19E
284A	2DCC		MOVE R13, $198
284C	AD00		ADD R13, #$01
284E	0787		XOR R7, R8
2850	977F		CLR R7, #$7F
2852	61D8		MOVB R1, (R13)
2854	91F0		CLR R1, #$F0
2856	0176		OR R1, R7
2858	71D4		MOVB (R13)-, R1
285A	077C		MHL R7, R7
285C	088C		MHL R8, R8
285E	8100		LBI R1, #$00
2860	071D		MLH R7, R1
2862	0789		SUB R7, R8
2864	A763		ADD R7, #$64
2866	21CD		MOVE R1, $19A
2868	0719		SUB R7, R1
286A	81FF		LBI R1, #$FF
286C	C717		SBSH R7, R1
286E	A00D		BRA $287E		; $0E(R0)

2870	2353		MOVE R3, $A6
2872	73D0		MOVB (R13)+, R3
2874	53D1		MOVE (R13)+, R3
2876	53D1		MOVE (R13)+, R3
2878	53D1		MOVE (R13)+, R3
287A	73D8		MOVB (R13), R3
287C	20A9		JMP ($0152)

287E	017C		MHL R1, R7
2880	C103		SZ R1
2882	A005		BRA $288A		; $06(R0)

2884	88C6		LBI R8, #$C6
2886	C788		SGT R7, R8
2888	A019		BRA $28A4		; $1A(R0)

288A	78D0		MOVB (R13)+, R8
288C	63D8		MOVB R3, (R13)
288E	930F		CLR R3, #$0F
2890	8109		LBI R1, #$09
2892	0316		OR R3, R1
2894	033D		MLH R3, R3
2896	8399		LBI R3, #$99
2898	53D1		MOVE (R13)+, R3
289A	033D		MLH R3, R3
289C	53D1		MOVE (R13)+, R3
289E	53D1		MOVE (R13)+, R3
28A0	73D8		MOVB (R13), R3
28A2	20A2		JMP ($0144)

28A4	77D8		MOVB (R13), R7
28A6	2093		JMP ($0126)

28A8	0000		HALT
28AA	0000		HALT
28AC	0000		HALT
28AE	0000		HALT
28B0	0000		HALT
28B2	0000		HALT
28B4	0000		HALT
28B6	0000		HALT
28B8	0000		HALT
28BA	0000		HALT
28BC	0000		HALT
28BE	0000		HALT
28C0	0000		HALT
28C2	0000		HALT
28C4	0000		HALT
28C6	0000		HALT
28C8	0000		HALT
28CA	0000		HALT
28CC	0000		HALT
28CE	0000		HALT
28D0	0000		HALT
28D2	0000		HALT
28D4	0000		HALT
28D6	0000		HALT
28D8	0000		HALT
28DA	0000		HALT
28DC	0000		HALT
28DE	0000		HALT
28E0	0000		HALT
28E2	0000		HALT
28E4	0000		HALT
28E6	0000		HALT
28E8	0000		HALT
28EA	0000		HALT
28EC	0000		HALT
28EE	0000		HALT
28F0	0000		HALT
28F2	0000		HALT
28F4	0000		HALT
28F6	0000		HALT
28F8	0000		HALT
28FA	0000		HALT
28FC	0000		HALT
28FE	0000		HALT
2900	0000		HALT
2902	0000		HALT
2904	0000		HALT
2906	0000		HALT
2908	0000		HALT
290A	0000		HALT
290C	0000		HALT
290E	0000		HALT
2910	0000		HALT
2912	0000		HALT
2914	0000		HALT
2916	0000		HALT
2918	0000		HALT
291A	0000		HALT
291C	0000		HALT
291E	0000		HALT
2920	0000		HALT
2922	0000		HALT
2924	0000		HALT
2926	0000		HALT
2928	0000		HALT
292A	0000		HALT
292C	0000		HALT
292E	0000		HALT
2930	0000		HALT
2932	0000		HALT
2934	0000		HALT
2936	0000		HALT
2938	0000		HALT
293A	0000		HALT
293C	0000		HALT
293E	0000		HALT
2940	0000		HALT
2942	0000		HALT
2944	0000		HALT
2946	0000		HALT
2948	0000		HALT
294A	0000		HALT
294C	0000		HALT
294E	0000		HALT
2950	0000		HALT
2952	0000		HALT
2954	0000		HALT
2956	0000		HALT
2958	0000		HALT
295A	0000		HALT
295C	0000		HALT
295E	0000		HALT
2960	0000		HALT
2962	0000		HALT
2964	0000		HALT
2966	0000		HALT
2968	0000		HALT
296A	0000		HALT
296C	0000		HALT
296E	0000		HALT
2970	0000		HALT
2972	0000		HALT
2974	0000		HALT
2976	0000		HALT
2978	0000		HALT
297A	0000		HALT
297C	0000		HALT
297E	0000		HALT
2980	0000		HALT
2982	0000		HALT
2984	0000		HALT
2986	0000		HALT
2988	0000		HALT
298A	0000		HALT
298C	0000		HALT
298E	0000		HALT
2990	0000		HALT
2992	0000		HALT
2994	0000		HALT
2996	0000		HALT
2998	0000		HALT
299A	0000		HALT
299C	0000		HALT
299E	0000		HALT
29A0	0000		HALT
29A2	0000		HALT
29A4	0000		HALT
29A6	0000		HALT
29A8	0000		HALT
29AA	0000		HALT
29AC	0000		HALT
29AE	0000		HALT
29B0	0000		HALT
29B2	0000		HALT
29B4	0000		HALT
29B6	0000		HALT
29B8	0000		HALT
29BA	0000		HALT
29BC	0000		HALT
29BE	0000		HALT
29C0	0000		HALT
29C2	0000		HALT
29C4	0000		HALT
29C6	0000		HALT
29C8	0000		HALT
29CA	0000		HALT
29CC	0000		HALT
29CE	0000		HALT
29D0	0000		HALT
29D2	0000		HALT
29D4	0000		HALT
29D6	0000		HALT
29D8	0000		HALT
29DA	0000		HALT
29DC	0000		HALT
29DE	0000		HALT
29E0	0000		HALT
29E2	0000		HALT
29E4	0000		HALT
29E6	0000		HALT
29E8	0000		HALT
29EA	0000		HALT
29EC	0000		HALT
29EE	0000		HALT
29F0	0000		HALT
29F2	0000		HALT
29F4	0000		HALT
29F6	0000		HALT
29F8	0000		HALT
29FA	0000		HALT
29FC	0000		HALT
29FE	0000		HALT
2A00	E13F		STAT R3, $1
2A02	033D		MLH R3, R3
2A04	E13F		STAT R3, $1
2A06	03C8		ADD R3, R12
2A08	21BB		MOVE R1, $176
2A0A	4110		PUTB $1, (R1)+
2A0C	4118		PUTB $1, (R1)
2A0E	8F00		LBI R15, #$00
2A10	D3D1		MOVE R3, (R13)+
2A12	D4D1		MOVE R4, (R13)+
2A14	D5D1		MOVE R5, (R13)+
2A16	D6D1		MOVE R6, (R13)+
2A18	D7D1		MOVE R7, (R13)+
2A1A	D8D1		MOVE R8, (R13)+
2A1C	D9D1		MOVE R9, (R13)+
2A1E	DAD1		MOVE R10, (R13)+
2A20	FD07		SUB R13, #$08
2A22	3DCC		MOVE $198, R13
2A24	812C		LBI R1, #$2C
2A26	011D		MLH R1, R1
2A28	81C6		LBI R1, #$C6
2A2A	31CA		MOVE $194, R1
2A2C	812D		LBI R1, #$2D
2A2E	011D		MLH R1, R1
2A30	815A		LBI R1, #$5A
2A32	31CB		MOVE $196, R1
2A34	0134		MOVE R1, R3
2A36	917F		CLR R1, #$7F
2A38	31CD		MOVE $19A, R1
2A3A	0F37		XOR R15, R3
2A3C	0F77		XOR R15, R7
2A3E	93F0		CLR R3, #$F0
2A40	97F0		CLR R7, #$F0
2A42	0D3C		MHL R13, R3
2A44	0E7C		MHL R14, R7
2A46	CDEA		SNE R13, R14
2A48	A011		BRA $2A5C		; $12(R0)

2A4A	CDE8		SGT R13, R14
2A4C	A007		BRA $2A56		; $08(R0)

2A4E	0DE9		SUB R13, R14
2A50	0203		INC2 R2, R0
2A52	20CB		JMP ($0196)

2A54	A005		BRA $2A5C		; $06(R0)

2A56	0ED9		SUB R14, R13
2A58	0203		INC2 R2, R0
2A5A	20CA		JMP ($0194)

2A5C	8180		LBI R1, #$80
2A5E	CF16		SBC R15, R1
2A60	A007		BRA $2A6A		; $08(R0)

2A62	812B		LBI R1, #$2B
2A64	011D		MLH R1, R1
2A66	81D6		LBI R1, #$D6
2A68	0014		RET R1

2A6A	C37A		SNE R3, R7
2A6C	A005		BRA $2A74		; $06(R0)

2A6E	C378		SGT R3, R7
2A70	A057		BRA $2ACA		; $58(R0)

2A72	A073		BRA $2AE8		; $74(R0)

2A74	0D4C		MHL R13, R4
2A76	0E8C		MHL R14, R8
2A78	CDEA		SNE R13, R14
2A7A	A005		BRA $2A82		; $06(R0)

2A7C	CDE8		SGT R13, R14
2A7E	A049		BRA $2ACA		; $4A(R0)

2A80	A065		BRA $2AE8		; $66(R0)

2A82	C48A		SNE R4, R8
2A84	A005		BRA $2A8C		; $06(R0)

2A86	C488		SGT R4, R8
2A88	A03F		BRA $2ACA		; $40(R0)

2A8A	A05B		BRA $2AE8		; $5C(R0)

2A8C	0D5C		MHL R13, R5
2A8E	0E9C		MHL R14, R9
2A90	CDEA		SNE R13, R14
2A92	A005		BRA $2A9A		; $06(R0)

2A94	CDE8		SGT R13, R14
2A96	A031		BRA $2ACA		; $32(R0)

2A98	A04D		BRA $2AE8		; $4E(R0)

2A9A	C59A		SNE R5, R9
2A9C	A005		BRA $2AA4		; $06(R0)

2A9E	C598		SGT R5, R9
2AA0	A027		BRA $2ACA		; $28(R0)

2AA2	A043		BRA $2AE8		; $44(R0)

2AA4	0D6C		MHL R13, R6
2AA6	0EAC		MHL R14, R10
2AA8	CDEA		SNE R13, R14
2AAA	A005		BRA $2AB2		; $06(R0)

2AAC	CDE8		SGT R13, R14
2AAE	A019		BRA $2ACA		; $1A(R0)

2AB0	A035		BRA $2AE8		; $36(R0)

2AB2	C6AA		SNE R6, R10
2AB4	A005		BRA $2ABC		; $06(R0)

2AB6	C6A8		SGT R6, R10
2AB8	A00F		BRA $2ACA		; $10(R0)

2ABA	A02B		BRA $2AE8		; $2C(R0)

2ABC	2DCC		MOVE R13, $198
2ABE	2353		MOVE R3, $A6
2AC0	53D1		MOVE (R13)+, R3
2AC2	53D1		MOVE (R13)+, R3
2AC4	53D1		MOVE (R13)+, R3
2AC6	53D8		MOVE (R13), R3
2AC8	2093		JMP ($0126)

2ACA	0134		MOVE R1, R3
2ACC	0374		MOVE R3, R7
2ACE	0714		MOVE R7, R1
2AD0	0144		MOVE R1, R4
2AD2	0484		MOVE R4, R8
2AD4	0814		MOVE R8, R1
2AD6	0154		MOVE R1, R5
2AD8	0594		MOVE R5, R9
2ADA	0914		MOVE R9, R1
2ADC	0164		MOVE R1, R6
2ADE	06A4		MOVE R6, R10
2AE0	0A14		MOVE R10, R1
2AE2	21CD		MOVE R1, $19A
2AE4	A17F		ADD R1, #$80
2AE6	31CD		MOVE $19A, R1
2AE8	2ECC		MOVE R14, $198
2AEA	57E1		MOVE (R14)+, R7
2AEC	58E1		MOVE (R14)+, R8
2AEE	59E1		MOVE (R14)+, R9
2AF0	5AE0		MOVE (R14)', R10
2AF2	87FF		LBI R7, #$FF
2AF4	8810		LBI R8, #$10
2AF6	2953		MOVE R9, $A6
2AF8	2F53		MOVE R15, $A6
2AFA	6AE4		MOVB R10, (R14)-
2AFC	0966		OR R9, R6
2AFE	06A7		XOR R6, R10
2B00	09A9		SUB R9, R10
2B02	0697		XOR R6, R9
2B04	C686		SBC R6, R8
2B06	F905		SUB R9, #$06
2B08	C97F		SNBSH R9, R7
2B0A	F95F		SUB R9, #$60
2B0C	0F6C		MHL R15, R6
2B0E	0694		MOVE R6, R9
2B10	6AE4		MOVB R10, (R14)-
2B12	09FB		ADDH2 R9, R15
2B14	CF9A		SNE R15, R9
2B16	09F4		MOVE R9, R15
2B18	0FA7		XOR R15, R10
2B1A	09A9		SUB R9, R10
2B1C	0F97		XOR R15, R9
2B1E	CF86		SBC R15, R8
2B20	F905		SUB R9, #$06
2B22	C97F		SNBSH R9, R7
2B24	F95F		SUB R9, #$60
2B26	069D		MLH R6, R9
2B28	6AE4		MOVB R10, (R14)-
2B2A	2F53		MOVE R15, $A6
2B2C	0F56		OR R15, R5
2B2E	09FB		ADDH2 R9, R15
2B30	CF9A		SNE R15, R9
2B32	09F4		MOVE R9, R15
2B34	0FA7		XOR R15, R10
2B36	09A9		SUB R9, R10
2B38	0F97		XOR R15, R9
2B3A	CF86		SBC R15, R8
2B3C	F905		SUB R9, #$06
2B3E	C97F		SNBSH R9, R7
2B40	F95F		SUB R9, #$60
2B42	0F5C		MHL R15, R5
2B44	0594		MOVE R5, R9
2B46	6AE4		MOVB R10, (R14)-
2B48	09FB		ADDH2 R9, R15
2B4A	CF9A		SNE R15, R9
2B4C	09F4		MOVE R9, R15
2B4E	0FA7		XOR R15, R10
2B50	09A9		SUB R9, R10
2B52	0F97		XOR R15, R9
2B54	CF86		SBC R15, R8
2B56	F905		SUB R9, #$06
2B58	C97F		SNBSH R9, R7
2B5A	F95F		SUB R9, #$60
2B5C	059D		MLH R5, R9
2B5E	6AE4		MOVB R10, (R14)-
2B60	2F53		MOVE R15, $A6
2B62	0F46		OR R15, R4
2B64	09FB		ADDH2 R9, R15
2B66	CF9A		SNE R15, R9
2B68	09F4		MOVE R9, R15
2B6A	0FA7		XOR R15, R10
2B6C	09A9		SUB R9, R10
2B6E	0F97		XOR R15, R9
2B70	CF86		SBC R15, R8
2B72	F905		SUB R9, #$06
2B74	C97F		SNBSH R9, R7
2B76	F95F		SUB R9, #$60
2B78	0F4C		MHL R15, R4
2B7A	0494		MOVE R4, R9
2B7C	6AE4		MOVB R10, (R14)-
2B7E	09FB		ADDH2 R9, R15
2B80	CF9A		SNE R15, R9
2B82	09F4		MOVE R9, R15
2B84	0FA7		XOR R15, R10
2B86	09A9		SUB R9, R10
2B88	0F97		XOR R15, R9
2B8A	CF86		SBC R15, R8
2B8C	F905		SUB R9, #$06
2B8E	C97F		SNBSH R9, R7
2B90	F95F		SUB R9, #$60
2B92	049D		MLH R4, R9
2B94	6AE4		MOVB R10, (R14)-
2B96	2F53		MOVE R15, $A6
2B98	0F36		OR R15, R3
2B9A	09FB		ADDH2 R9, R15
2B9C	CF9A		SNE R15, R9
2B9E	09F4		MOVE R9, R15
2BA0	0FA7		XOR R15, R10
2BA2	09A9		SUB R9, R10
2BA4	0F97		XOR R15, R9
2BA6	CF86		SBC R15, R8
2BA8	F905		SUB R9, #$06
2BAA	C97F		SNBSH R9, R7
2BAC	F95F		SUB R9, #$60
2BAE	8300		LBI R3, #$00
2BB0	0396		OR R3, R9
2BB2	2DCC		MOVE R13, $198
2BB4	812D		LBI R1, #$2D
2BB6	011D		MLH R1, R1
2BB8	81EE		LBI R1, #$EE
2BBA	0203		INC2 R2, R0
2BBC	0014		RET R1

2BBE	A0E1		BRA $2CA2		; $E2(R0)

2BC0	A00B		BRA $2BCE		; $0C(R0)

2BC2	2353		MOVE R3, $A6
2BC4	53D1		MOVE (R13)+, R3
2BC6	53D1		MOVE (R13)+, R3
2BC8	53D1		MOVE (R13)+, R3
2BCA	53D8		MOVE (R13), R3
2BCC	20A9		JMP ($0152)

2BCE	812A		LBI R1, #$2A
2BD0	011D		MLH R1, R1
2BD2	81BC		LBI R1, #$BC
2BD4	0014		RET R1

2BD6	2ECC		MOVE R14, $198
2BD8	57E1		MOVE (R14)+, R7
2BDA	58E1		MOVE (R14)+, R8
2BDC	59E1		MOVE (R14)+, R9
2BDE	5AE0		MOVE (R14)', R10
2BE0	8701		LBI R7, #$01
2BE2	8810		LBI R8, #$10
2BE4	2953		MOVE R9, $A6
2BE6	6AE4		MOVB R10, (R14)-
2BE8	096A		ADDH R9, R6
2BEA	AA65		ADD R10, #$66
2BEC	06A7		XOR R6, R10
2BEE	09A8		ADD R9, R10
2BF0	0697		XOR R6, R9
2BF2	C685		SBS R6, R8
2BF4	F905		SUB R9, #$06
2BF6	C977		SBSH R9, R7
2BF8	F95F		SUB R9, #$60
2BFA	0F6C		MHL R15, R6
2BFC	0694		MOVE R6, R9
2BFE	6AE4		MOVB R10, (R14)-
2C00	09FA		ADDH R9, R15
2C02	AA65		ADD R10, #$66
2C04	0FA7		XOR R15, R10
2C06	09A8		ADD R9, R10
2C08	0F97		XOR R15, R9
2C0A	CF85		SBS R15, R8
2C0C	F905		SUB R9, #$06
2C0E	C977		SBSH R9, R7
2C10	F95F		SUB R9, #$60
2C12	069D		MLH R6, R9
2C14	6AE4		MOVB R10, (R14)-
2C16	095A		ADDH R9, R5
2C18	AA65		ADD R10, #$66
2C1A	05A7		XOR R5, R10
2C1C	09A8		ADD R9, R10
2C1E	0597		XOR R5, R9
2C20	C585		SBS R5, R8
2C22	F905		SUB R9, #$06
2C24	C977		SBSH R9, R7
2C26	F95F		SUB R9, #$60
2C28	0F5C		MHL R15, R5
2C2A	0594		MOVE R5, R9
2C2C	6AE4		MOVB R10, (R14)-
2C2E	09FA		ADDH R9, R15
2C30	AA65		ADD R10, #$66
2C32	0FA7		XOR R15, R10
2C34	09A8		ADD R9, R10
2C36	0F97		XOR R15, R9
2C38	CF85		SBS R15, R8
2C3A	F905		SUB R9, #$06
2C3C	C977		SBSH R9, R7
2C3E	F95F		SUB R9, #$60
2C40	059D		MLH R5, R9
2C42	6AE4		MOVB R10, (R14)-
2C44	094A		ADDH R9, R4
2C46	AA65		ADD R10, #$66
2C48	04A7		XOR R4, R10
2C4A	09A8		ADD R9, R10
2C4C	0497		XOR R4, R9
2C4E	C485		SBS R4, R8
2C50	F905		SUB R9, #$06
2C52	C977		SBSH R9, R7
2C54	F95F		SUB R9, #$60
2C56	0F4C		MHL R15, R4
2C58	0494		MOVE R4, R9
2C5A	6AE4		MOVB R10, (R14)-
2C5C	09FA		ADDH R9, R15
2C5E	AA65		ADD R10, #$66
2C60	0FA7		XOR R15, R10
2C62	09A8		ADD R9, R10
2C64	0F97		XOR R15, R9
2C66	CF85		SBS R15, R8
2C68	F905		SUB R9, #$06
2C6A	C977		SBSH R9, R7
2C6C	F95F		SUB R9, #$60
2C6E	049D		MLH R4, R9
2C70	6AE4		MOVB R10, (R14)-
2C72	093A		ADDH R9, R3
2C74	AA65		ADD R10, #$66
2C76	03A7		XOR R3, R10
2C78	09A8		ADD R9, R10
2C7A	0397		XOR R3, R9
2C7C	C385		SBS R3, R8
2C7E	F905		SUB R9, #$06
2C80	C977		SBSH R9, R7
2C82	F95F		SUB R9, #$60
2C84	8300		LBI R3, #$00
2C86	0396		OR R3, R9
2C88	2DCC		MOVE R13, $198
2C8A	81F0		LBI R1, #$F0
2C8C	C31E		SNBC R3, R1
2C8E	A011		BRA $2CA2		; $12(R0)

2C90	8E01		LBI R14, #$01
2C92	0203		INC2 R2, R0
2C94	20CA		JMP ($0194)

2C96	21CD		MOVE R1, $19A
2C98	0316		OR R3, R1
2C9A	0E3C		MHL R14, R3
2C9C	88C6		LBI R8, #$C6
2C9E	CE80		SLE R14, R8
2CA0	A00D		BRA $2CB0		; $0E(R0)

2CA2	21CD		MOVE R1, $19A
2CA4	0316		OR R3, R1
2CA6	53D1		MOVE (R13)+, R3
2CA8	54D1		MOVE (R13)+, R4
2CAA	55D1		MOVE (R13)+, R5
2CAC	56D8		MOVE (R13), R6
2CAE	2093		JMP ($0126)

2CB0	038D		MLH R3, R8
2CB2	930F		CLR R3, #$0F
2CB4	8109		LBI R1, #$09
2CB6	0316		OR R3, R1
2CB8	8199		LBI R1, #$99
2CBA	011D		MLH R1, R1
2CBC	53D1		MOVE (R13)+, R3
2CBE	51D1		MOVE (R13)+, R1
2CC0	51D1		MOVE (R13)+, R1
2CC2	51D8		MOVE (R13), R1
2CC4	20A2		JMP ($0144)

2CC6	013C		MHL R1, R3
2CC8	01E8		ADD R1, R14
2CCA	031D		MLH R3, R1
2CCC	8108		LBI R1, #$08
2CCE	CE19		SGE R14, R1
2CD0	A00B		BRA $2CDE		; $0C(R0)

2CD2	FE07		SUB R14, #$08
2CD4	0644		MOVE R6, R4
2CD6	0534		MOVE R5, R3
2CD8	2453		MOVE R4, $A6
2CDA	8300		LBI R3, #$00
2CDC	053D		MLH R5, R3
2CDE	8104		LBI R1, #$04
2CE0	CE19		SGE R14, R1
2CE2	A00B		BRA $2CF0		; $0C(R0)

2CE4	FE03		SUB R14, #$04
2CE6	0654		MOVE R6, R5
2CE8	0544		MOVE R5, R4
2CEA	0434		MOVE R4, R3
2CEC	8300		LBI R3, #$00
2CEE	043D		MLH R4, R3
2CF0	8102		LBI R1, #$02
2CF2	CE19		SGE R14, R1
2CF4	A00F		BRA $2D06		; $10(R0)

2CF6	FE01		SUB R14, #$02
2CF8	066C		MHL R6, R6
2CFA	065D		MLH R6, R5
2CFC	055C		MHL R5, R5
2CFE	054D		MLH R5, R4
2D00	044C		MHL R4, R4
2D02	043D		MLH R4, R3
2D04	8300		LBI R3, #$00
2D06	8101		LBI R1, #$01
2D08	CE19		SGE R14, R1
2D0A	0024		RET R2

2D0C	E06F		SWAP R6
2D0E	96F0		CLR R6, #$F0
2D10	016C		MHL R1, R6
2D12	E01F		SWAP R1
2D14	0E14		MOVE R14, R1
2D16	910F		CLR R1, #$0F
2D18	0616		OR R6, R1
2D1A	9EF0		CLR R14, #$F0
2D1C	E05F		SWAP R5
2D1E	0154		MOVE R1, R5
2D20	910F		CLR R1, #$0F
2D22	01E6		OR R1, R14
2D24	061D		MLH R6, R1
2D26	95F0		CLR R5, #$F0
2D28	015C		MHL R1, R5
2D2A	E01F		SWAP R1
2D2C	0E14		MOVE R14, R1
2D2E	910F		CLR R1, #$0F
2D30	0516		OR R5, R1
2D32	9EF0		CLR R14, #$F0
2D34	E04F		SWAP R4
2D36	0144		MOVE R1, R4
2D38	910F		CLR R1, #$0F
2D3A	01E6		OR R1, R14
2D3C	051D		MLH R5, R1
2D3E	94F0		CLR R4, #$F0
2D40	014C		MHL R1, R4
2D42	E01F		SWAP R1
2D44	0E14		MOVE R14, R1
2D46	910F		CLR R1, #$0F
2D48	0416		OR R4, R1
2D4A	9EF0		CLR R14, #$F0
2D4C	E03F		SWAP R3
2D4E	0134		MOVE R1, R3
2D50	910F		CLR R1, #$0F
2D52	01E6		OR R1, R14
2D54	041D		MLH R4, R1
2D56	93F0		CLR R3, #$F0
2D58	0024		RET R2

2D5A	017C		MHL R1, R7
2D5C	01D8		ADD R1, R13
2D5E	071D		MLH R7, R1
2D60	8108		LBI R1, #$08
2D62	CD19		SGE R13, R1
2D64	A00B		BRA $2D72		; $0C(R0)

2D66	FD07		SUB R13, #$08
2D68	0A84		MOVE R10, R8
2D6A	0974		MOVE R9, R7
2D6C	2853		MOVE R8, $A6
2D6E	8700		LBI R7, #$00
2D70	097D		MLH R9, R7
2D72	8104		LBI R1, #$04
2D74	CD19		SGE R13, R1
2D76	A00B		BRA $2D84		; $0C(R0)

2D78	FD03		SUB R13, #$04
2D7A	0A94		MOVE R10, R9
2D7C	0984		MOVE R9, R8
2D7E	0874		MOVE R8, R7
2D80	8700		LBI R7, #$00
2D82	087D		MLH R8, R7
2D84	8102		LBI R1, #$02
2D86	CD19		SGE R13, R1
2D88	A00F		BRA $2D9A		; $10(R0)

2D8A	FD01		SUB R13, #$02
2D8C	0AAC		MHL R10, R10
2D8E	0A9D		MLH R10, R9
2D90	099C		MHL R9, R9
2D92	098D		MLH R9, R8
2D94	088C		MHL R8, R8
2D96	087D		MLH R8, R7
2D98	8700		LBI R7, #$00
2D9A	8101		LBI R1, #$01
2D9C	CD19		SGE R13, R1
2D9E	0024		RET R2

2DA0	E0AF		SWAP R10
2DA2	9AF0		CLR R10, #$F0
2DA4	01AC		MHL R1, R10
2DA6	E01F		SWAP R1
2DA8	0D14		MOVE R13, R1
2DAA	910F		CLR R1, #$0F
2DAC	0A16		OR R10, R1
2DAE	9DF0		CLR R13, #$F0
2DB0	E09F		SWAP R9
2DB2	0194		MOVE R1, R9
2DB4	910F		CLR R1, #$0F
2DB6	01D6		OR R1, R13
2DB8	0A1D		MLH R10, R1
2DBA	99F0		CLR R9, #$F0
2DBC	019C		MHL R1, R9
2DBE	E01F		SWAP R1
2DC0	0D14		MOVE R13, R1
2DC2	910F		CLR R1, #$0F
2DC4	0916		OR R9, R1
2DC6	9DF0		CLR R13, #$F0
2DC8	E08F		SWAP R8
2DCA	0184		MOVE R1, R8
2DCC	910F		CLR R1, #$0F
2DCE	01D6		OR R1, R13
2DD0	091D		MLH R9, R1
2DD2	98F0		CLR R8, #$F0
2DD4	018C		MHL R1, R8
2DD6	E01F		SWAP R1
2DD8	0D14		MOVE R13, R1
2DDA	910F		CLR R1, #$0F
2DDC	0816		OR R8, R1
2DDE	9DF0		CLR R13, #$F0
2DE0	E07F		SWAP R7
2DE2	0174		MOVE R1, R7
2DE4	910F		CLR R1, #$0F
2DE6	01D6		OR R1, R13
2DE8	081D		MLH R8, R1
2DEA	97F0		CLR R7, #$F0
2DEC	0024		RET R2

2DEE	810F		LBI R1, #$0F
2DF0	C316		SBC R3, R1
2DF2	0024		RET R2

2DF4	8C01		LBI R12, #$01
2DF6	0B4C		MHL R11, R4
2DF8	CB03		SZ R11
2DFA	A02B		BRA $2E28		; $2C(R0)

2DFC	AC01		ADD R12, #$02
2DFE	0B44		MOVE R11, R4
2E00	CB03		SZ R11
2E02	A023		BRA $2E28		; $24(R0)

2E04	AC01		ADD R12, #$02
2E06	0B5C		MHL R11, R5
2E08	CB03		SZ R11
2E0A	A01B		BRA $2E28		; $1C(R0)

2E0C	AC01		ADD R12, #$02
2E0E	0B54		MOVE R11, R5
2E10	CB03		SZ R11
2E12	A013		BRA $2E28		; $14(R0)

2E14	AC01		ADD R12, #$02
2E16	0B6C		MHL R11, R6
2E18	CB03		SZ R11
2E1A	A00B		BRA $2E28		; $0C(R0)

2E1C	AC01		ADD R12, #$02
2E1E	0B64		MOVE R11, R6
2E20	CB03		SZ R11
2E22	A003		BRA $2E28		; $04(R0)

2E24	A201		ADD R2, #$02
2E26	0024		RET R2

2E28	81F0		LBI R1, #$F0
2E2A	CB1E		SNBC R11, R1
2E2C	AC00		ADD R12, #$01
2E2E	0CCD		MLH R12, R12
2E30	8108		LBI R1, #$08
2E32	CC19		SGE R12, R1
2E34	A00B		BRA $2E42		; $0C(R0)

2E36	FC07		SUB R12, #$08
2E38	015D		MLH R1, R5
2E3A	031C		MHL R3, R1
2E3C	0464		MOVE R4, R6
2E3E	2553		MOVE R5, $A6
2E40	2653		MOVE R6, $A6
2E42	8104		LBI R1, #$04
2E44	CC19		SGE R12, R1
2E46	A00B		BRA $2E54		; $0C(R0)

2E48	FC03		SUB R12, #$04
2E4A	014D		MLH R1, R4
2E4C	031C		MHL R3, R1
2E4E	0454		MOVE R4, R5
2E50	0564		MOVE R5, R6
2E52	2653		MOVE R6, $A6
2E54	8102		LBI R1, #$02
2E56	CC19		SGE R12, R1
2E58	A00F		BRA $2E6A		; $10(R0)

2E5A	FC01		SUB R12, #$02
2E5C	034C		MHL R3, R4
2E5E	044D		MLH R4, R4
2E60	045C		MHL R4, R5
2E62	055D		MLH R5, R5
2E64	056C		MHL R5, R6
2E66	066D		MLH R6, R6
2E68	8600		LBI R6, #$00
2E6A	8101		LBI R1, #$01
2E6C	CC19		SGE R12, R1
2E6E	A04B		BRA $2EBC		; $4C(R0)

2E70	E03F		SWAP R3
2E72	930F		CLR R3, #$0F
2E74	014C		MHL R1, R4
2E76	E01F		SWAP R1
2E78	0B14		MOVE R11, R1
2E7A	91F0		CLR R1, #$F0
2E7C	0316		OR R3, R1
2E7E	9B0F		CLR R11, #$0F
2E80	E04F		SWAP R4
2E82	0144		MOVE R1, R4
2E84	91F0		CLR R1, #$F0
2E86	01B6		OR R1, R11
2E88	041D		MLH R4, R1
2E8A	940F		CLR R4, #$0F
2E8C	015C		MHL R1, R5
2E8E	E01F		SWAP R1
2E90	0B14		MOVE R11, R1
2E92	91F0		CLR R1, #$F0
2E94	0416		OR R4, R1
2E96	9B0F		CLR R11, #$0F
2E98	E05F		SWAP R5
2E9A	0154		MOVE R1, R5
2E9C	91F0		CLR R1, #$F0
2E9E	01B6		OR R1, R11
2EA0	051D		MLH R5, R1
2EA2	950F		CLR R5, #$0F
2EA4	016C		MHL R1, R6
2EA6	E01F		SWAP R1
2EA8	0B14		MOVE R11, R1
2EAA	91F0		CLR R1, #$F0
2EAC	0516		OR R5, R1
2EAE	9B0F		CLR R11, #$0F
2EB0	E06F		SWAP R6
2EB2	0164		MOVE R1, R6
2EB4	91F0		CLR R1, #$F0
2EB6	01B6		OR R1, R11
2EB8	061D		MLH R6, R1
2EBA	960F		CLR R6, #$0F
2EBC	0CCC		MHL R12, R12
2EBE	2B53		MOVE R11, $A6
2EC0	0B3C		MHL R11, R3
2EC2	0BC9		SUB R11, R12
2EC4	03BD		MLH R3, R11
2EC6	81FF		LBI R1, #$FF
2EC8	CB17		SBSH R11, R1
2ECA	0024		RET R2

2ECC	A203		ADD R2, #$04
2ECE	0024		RET R2

2ED0	0000		HALT
2ED2	0000		HALT
2ED4	0000		HALT
2ED6	0000		HALT
2ED8	0000		HALT
2EDA	0000		HALT
2EDC	0000		HALT
2EDE	0000		HALT
2EE0	0000		HALT
2EE2	0000		HALT
2EE4	0000		HALT
2EE6	0000		HALT
2EE8	0000		HALT
2EEA	0000		HALT
2EEC	0000		HALT
2EEE	0000		HALT
2EF0	0000		HALT
2EF2	0000		HALT
2EF4	0000		HALT
2EF6	0000		HALT
2EF8	0000		HALT
2EFA	0000		HALT
2EFC	0000		HALT
2EFE	0000		HALT
2F00	0000		HALT
2F02	0000		HALT
2F04	0000		HALT
2F06	0000		HALT
2F08	0000		HALT
2F0A	0000		HALT
2F0C	0000		HALT
2F0E	0000		HALT
2F10	0000		HALT
2F12	0000		HALT
2F14	0000		HALT
2F16	0000		HALT
2F18	0000		HALT
2F1A	0000		HALT
2F1C	0000		HALT
2F1E	0000		HALT
2F20	0000		HALT
2F22	0000		HALT
2F24	0000		HALT
2F26	0000		HALT
2F28	0000		HALT
2F2A	0000		HALT
2F2C	0000		HALT
2F2E	0000		HALT
2F30	0000		HALT
2F32	0000		HALT
2F34	0000		HALT
2F36	0000		HALT
2F38	0000		HALT
2F3A	0000		HALT
2F3C	0000		HALT
2F3E	0000		HALT
2F40	0000		HALT
2F42	0000		HALT
2F44	0000		HALT
2F46	0000		HALT
2F48	0000		HALT
2F4A	0000		HALT
2F4C	0000		HALT
2F4E	0000		HALT
2F50	0000		HALT
2F52	0000		HALT
2F54	0000		HALT
2F56	0000		HALT
2F58	0000		HALT
2F5A	0000		HALT
2F5C	0000		HALT
2F5E	0000		HALT
2F60	0000		HALT
2F62	0000		HALT
2F64	0000		HALT
2F66	0000		HALT
2F68	0000		HALT
2F6A	0000		HALT
2F6C	0000		HALT
2F6E	0000		HALT
2F70	0000		HALT
2F72	0000		HALT
2F74	0000		HALT
2F76	0000		HALT
2F78	0000		HALT
2F7A	0000		HALT
2F7C	0000		HALT
2F7E	0000		HALT
2F80	0000		HALT
2F82	0000		HALT
2F84	0000		HALT
2F86	0000		HALT
2F88	0000		HALT
2F8A	0000		HALT
2F8C	0000		HALT
2F8E	0000		HALT
2F90	0000		HALT
2F92	0000		HALT
2F94	0000		HALT
2F96	0000		HALT
2F98	0000		HALT
2F9A	0000		HALT
2F9C	0000		HALT
2F9E	0000		HALT
2FA0	0000		HALT
2FA2	0000		HALT
2FA4	0000		HALT
2FA6	0000		HALT
2FA8	0000		HALT
2FAA	0000		HALT
2FAC	0000		HALT
2FAE	0000		HALT
2FB0	0000		HALT
2FB2	0000		HALT
2FB4	0000		HALT
2FB6	0000		HALT
2FB8	0000		HALT
2FBA	0000		HALT
2FBC	0000		HALT
2FBE	0000		HALT
2FC0	0000		HALT
2FC2	0000		HALT
2FC4	0000		HALT
2FC6	0000		HALT
2FC8	0000		HALT
2FCA	0000		HALT
2FCC	0000		HALT
2FCE	0000		HALT
2FD0	0000		HALT
2FD2	0000		HALT
2FD4	0000		HALT
2FD6	0000		HALT
2FD8	0000		HALT
2FDA	0000		HALT
2FDC	0000		HALT
2FDE	0000		HALT
2FE0	0000		HALT
2FE2	0000		HALT
2FE4	0000		HALT
2FE6	0000		HALT
2FE8	0000		HALT
2FEA	0000		HALT
2FEC	0000		HALT
2FEE	0000		HALT
2FF0	0000		HALT
2FF2	0000		HALT
2FF4	0000		HALT
2FF6	0000		HALT
2FF8	0000		HALT
2FFA	0000		HALT
2FFC	0000		HALT
2FFE	0000		HALT
3000	FFFF		SUB R15, #$100
3002	FFFF		SUB R15, #$100
3004	FFFF		SUB R15, #$100
3006	FFFF		SUB R15, #$100
3008	FFFF		SUB R15, #$100
300A	FFFF		SUB R15, #$100
300C	FFFF		SUB R15, #$100
300E	FFFF		SUB R15, #$100
3010	FFFF		SUB R15, #$100
3012	FFFF		SUB R15, #$100
3014	FFFF		SUB R15, #$100
3016	FFFF		SUB R15, #$100
3018	FFFF		SUB R15, #$100
301A	FFFF		SUB R15, #$100
301C	FFFF		SUB R15, #$100
301E	FFFF		SUB R15, #$100
3020	FFFF		SUB R15, #$100
3022	FFFF		SUB R15, #$100
3024	FFFF		SUB R15, #$100
3026	FFFF		SUB R15, #$100
3028	FFFF		SUB R15, #$100
302A	FFFF		SUB R15, #$100
302C	FFFF		SUB R15, #$100
302E	FFFF		SUB R15, #$100
3030	FFFF		SUB R15, #$100
3032	FFFF		SUB R15, #$100
3034	FFFF		SUB R15, #$100
3036	FFFF		SUB R15, #$100
3038	FFFF		SUB R15, #$100
303A	FFFF		SUB R15, #$100
303C	FFFF		SUB R15, #$100
303E	FFFF		SUB R15, #$100
3040	FFFF		SUB R15, #$100
3042	FFFF		SUB R15, #$100
3044	FFFF		SUB R15, #$100
3046	FFFF		SUB R15, #$100
3048	FFFF		SUB R15, #$100
304A	FFFF		SUB R15, #$100
304C	FFFF		SUB R15, #$100
304E	FFFF		SUB R15, #$100
3050	FFFF		SUB R15, #$100
3052	FFFF		SUB R15, #$100
3054	FFFF		SUB R15, #$100
3056	FFFF		SUB R15, #$100
3058	FFFF		SUB R15, #$100
305A	FFFF		SUB R15, #$100
305C	FFFF		SUB R15, #$100
305E	FFFF		SUB R15, #$100
3060	FFFF		SUB R15, #$100
3062	FFFF		SUB R15, #$100
3064	FFFF		SUB R15, #$100
3066	FFFF		SUB R15, #$100
3068	FFFF		SUB R15, #$100
306A	FFFF		SUB R15, #$100
306C	FFFF		SUB R15, #$100
306E	FFFF		SUB R15, #$100
3070	FFFF		SUB R15, #$100
3072	FFFF		SUB R15, #$100
3074	FFFF		SUB R15, #$100
3076	FFFF		SUB R15, #$100
3078	FFFF		SUB R15, #$100
307A	FFFF		SUB R15, #$100
307C	FFFF		SUB R15, #$100
307E	FFFF		SUB R15, #$100
3080	FFFF		SUB R15, #$100
3082	FFFF		SUB R15, #$100
3084	FFFF		SUB R15, #$100
3086	FFFF		SUB R15, #$100
3088	FFFF		SUB R15, #$100
308A	FFFF		SUB R15, #$100
308C	FFFF		SUB R15, #$100
308E	FFFF		SUB R15, #$100
3090	FFFF		SUB R15, #$100
3092	FFFF		SUB R15, #$100
3094	FFFF		SUB R15, #$100
3096	FFFF		SUB R15, #$100
3098	FFFF		SUB R15, #$100
309A	FFFF		SUB R15, #$100
309C	FFFF		SUB R15, #$100
309E	FFFF		SUB R15, #$100
30A0	FFFF		SUB R15, #$100
30A2	FFFF		SUB R15, #$100
30A4	FFFF		SUB R15, #$100
30A6	FFFF		SUB R15, #$100
30A8	FFFF		SUB R15, #$100
30AA	FFFF		SUB R15, #$100
30AC	FFFF		SUB R15, #$100
30AE	FFFF		SUB R15, #$100
30B0	FFFF		SUB R15, #$100
30B2	FFFF		SUB R15, #$100
30B4	FFFF		SUB R15, #$100
30B6	FFFF		SUB R15, #$100
30B8	FFFF		SUB R15, #$100
30BA	FFFF		SUB R15, #$100
30BC	FFFF		SUB R15, #$100
30BE	FFFF		SUB R15, #$100
30C0	FFFF		SUB R15, #$100
30C2	FFFF		SUB R15, #$100
30C4	FFFF		SUB R15, #$100
30C6	FFFF		SUB R15, #$100
30C8	FFFF		SUB R15, #$100
30CA	FFFF		SUB R15, #$100
30CC	FFFF		SUB R15, #$100
30CE	FFFF		SUB R15, #$100
30D0	FFFF		SUB R15, #$100
30D2	FFFF		SUB R15, #$100
30D4	FFFF		SUB R15, #$100
30D6	FFFF		SUB R15, #$100
30D8	FFFF		SUB R15, #$100
30DA	FFFF		SUB R15, #$100
30DC	FFFF		SUB R15, #$100
30DE	FFFF		SUB R15, #$100
30E0	FFFF		SUB R15, #$100
30E2	FFFF		SUB R15, #$100
30E4	FFFF		SUB R15, #$100
30E6	FFFF		SUB R15, #$100
30E8	FFFF		SUB R15, #$100
30EA	FFFF		SUB R15, #$100
30EC	FFFF		SUB R15, #$100
30EE	FFFF		SUB R15, #$100
30F0	FFFF		SUB R15, #$100
30F2	FFFF		SUB R15, #$100
30F4	FFFF		SUB R15, #$100
30F6	FFFF		SUB R15, #$100
30F8	FFFF		SUB R15, #$100
30FA	FFFF		SUB R15, #$100
30FC	FFFF		SUB R15, #$100
30FE	FFFF		SUB R15, #$100
3100	FFFF		SUB R15, #$100
3102	FFFF		SUB R15, #$100
3104	FFFF		SUB R15, #$100
3106	FFFF		SUB R15, #$100
3108	FFFF		SUB R15, #$100
310A	FFFF		SUB R15, #$100
310C	FFFF		SUB R15, #$100
310E	FFFF		SUB R15, #$100
3110	FFFF		SUB R15, #$100
3112	FFFF		SUB R15, #$100
3114	FFFF		SUB R15, #$100
3116	FFFF		SUB R15, #$100
3118	FFFF		SUB R15, #$100
311A	FFFF		SUB R15, #$100
311C	FFFF		SUB R15, #$100
311E	FFFF		SUB R15, #$100
3120	FFFF		SUB R15, #$100
3122	FFFF		SUB R15, #$100
3124	FFFF		SUB R15, #$100
3126	FFFF		SUB R15, #$100
3128	FFFF		SUB R15, #$100
312A	FFFF		SUB R15, #$100
312C	FFFF		SUB R15, #$100
312E	FFFF		SUB R15, #$100
3130	FFFF		SUB R15, #$100
3132	FFFF		SUB R15, #$100
3134	FFFF		SUB R15, #$100
3136	FFFF		SUB R15, #$100
3138	FFFF		SUB R15, #$100
313A	FFFF		SUB R15, #$100
313C	FFFF		SUB R15, #$100
313E	FFFF		SUB R15, #$100
3140	FFFF		SUB R15, #$100
3142	FFFF		SUB R15, #$100
3144	FFFF		SUB R15, #$100
3146	FFFF		SUB R15, #$100
3148	FFFF		SUB R15, #$100
314A	FFFF		SUB R15, #$100
314C	FFFF		SUB R15, #$100
314E	FFFF		SUB R15, #$100
3150	FFFF		SUB R15, #$100
3152	FFFF		SUB R15, #$100
3154	FFFF		SUB R15, #$100
3156	FFFF		SUB R15, #$100
3158	FFFF		SUB R15, #$100
315A	FFFF		SUB R15, #$100
315C	FFFF		SUB R15, #$100
315E	FFFF		SUB R15, #$100
3160	FFFF		SUB R15, #$100
3162	FFFF		SUB R15, #$100
3164	FFFF		SUB R15, #$100
3166	FFFF		SUB R15, #$100
3168	FFFF		SUB R15, #$100
316A	FFFF		SUB R15, #$100
316C	FFFF		SUB R15, #$100
316E	FFFF		SUB R15, #$100
3170	FFFF		SUB R15, #$100
3172	FFFF		SUB R15, #$100
3174	FFFF		SUB R15, #$100
3176	FFFF		SUB R15, #$100
3178	FFFF		SUB R15, #$100
317A	FFFF		SUB R15, #$100
317C	FFFF		SUB R15, #$100
317E	FFFF		SUB R15, #$100
3180	FFFF		SUB R15, #$100
3182	FFFF		SUB R15, #$100
3184	FFFF		SUB R15, #$100
3186	FFFF		SUB R15, #$100
3188	FFFF		SUB R15, #$100
318A	FFFF		SUB R15, #$100
318C	FFFF		SUB R15, #$100
318E	FFFF		SUB R15, #$100
3190	FFFF		SUB R15, #$100
3192	FFFF		SUB R15, #$100
3194	FFFF		SUB R15, #$100
3196	FFFF		SUB R15, #$100
3198	FFFF		SUB R15, #$100
319A	FFFF		SUB R15, #$100
319C	FFFF		SUB R15, #$100
319E	FFFF		SUB R15, #$100
31A0	FFFF		SUB R15, #$100
31A2	FFFF		SUB R15, #$100
31A4	FFFF		SUB R15, #$100
31A6	FFFF		SUB R15, #$100
31A8	FFFF		SUB R15, #$100
31AA	FFFF		SUB R15, #$100
31AC	FFFF		SUB R15, #$100
31AE	FFFF		SUB R15, #$100
31B0	FFFF		SUB R15, #$100
31B2	FFFF		SUB R15, #$100
31B4	FFFF		SUB R15, #$100
31B6	FFFF		SUB R15, #$100
31B8	FFFF		SUB R15, #$100
31BA	FFFF		SUB R15, #$100
31BC	FFFF		SUB R15, #$100
31BE	FFFF		SUB R15, #$100
31C0	FFFF		SUB R15, #$100
31C2	FFFF		SUB R15, #$100
31C4	FFFF		SUB R15, #$100
31C6	FFFF		SUB R15, #$100
31C8	FFFF		SUB R15, #$100
31CA	FFFF		SUB R15, #$100
31CC	FFFF		SUB R15, #$100
31CE	FFFF		SUB R15, #$100
31D0	FFFF		SUB R15, #$100
31D2	FFFF		SUB R15, #$100
31D4	FFFF		SUB R15, #$100
31D6	FFFF		SUB R15, #$100
31D8	FFFF		SUB R15, #$100
31DA	FFFF		SUB R15, #$100
31DC	FFFF		SUB R15, #$100
31DE	FFFF		SUB R15, #$100
31E0	FFFF		SUB R15, #$100
31E2	FFFF		SUB R15, #$100
31E4	FFFF		SUB R15, #$100
31E6	FFFF		SUB R15, #$100
31E8	FFFF		SUB R15, #$100
31EA	FFFF		SUB R15, #$100
31EC	FFFF		SUB R15, #$100
31EE	FFFF		SUB R15, #$100
31F0	FFFF		SUB R15, #$100
31F2	FFFF		SUB R15, #$100
31F4	FFFF		SUB R15, #$100
31F6	FFFF		SUB R15, #$100
31F8	FFFF		SUB R15, #$100
31FA	FFFF		SUB R15, #$100
31FC	FFFF		SUB R15, #$100
31FE	FFFF		SUB R15, #$100
3200	FFFF		SUB R15, #$100
3202	FFFF		SUB R15, #$100
3204	FFFF		SUB R15, #$100
3206	FFFF		SUB R15, #$100
3208	FFFF		SUB R15, #$100
320A	FFFF		SUB R15, #$100
320C	FFFF		SUB R15, #$100
320E	FFFF		SUB R15, #$100
3210	FFFF		SUB R15, #$100
3212	FFFF		SUB R15, #$100
3214	FFFF		SUB R15, #$100
3216	FFFF		SUB R15, #$100
3218	FFFF		SUB R15, #$100
321A	FFFF		SUB R15, #$100
321C	FFFF		SUB R15, #$100
321E	FFFF		SUB R15, #$100
3220	FFFF		SUB R15, #$100
3222	FFFF		SUB R15, #$100
3224	FFFF		SUB R15, #$100
3226	FFFF		SUB R15, #$100
3228	FFFF		SUB R15, #$100
322A	FFFF		SUB R15, #$100
322C	FFFF		SUB R15, #$100
322E	FFFF		SUB R15, #$100
3230	FFFF		SUB R15, #$100
3232	FFFF		SUB R15, #$100
3234	FFFF		SUB R15, #$100
3236	FFFF		SUB R15, #$100
3238	FFFF		SUB R15, #$100
323A	FFFF		SUB R15, #$100
323C	FFFF		SUB R15, #$100
323E	FFFF		SUB R15, #$100
3240	FFFF		SUB R15, #$100
3242	FFFF		SUB R15, #$100
3244	FFFF		SUB R15, #$100
3246	FFFF		SUB R15, #$100
3248	FFFF		SUB R15, #$100
324A	FFFF		SUB R15, #$100
324C	FFFF		SUB R15, #$100
324E	FFFF		SUB R15, #$100
3250	FFFF		SUB R15, #$100
3252	FFFF		SUB R15, #$100
3254	FFFF		SUB R15, #$100
3256	FFFF		SUB R15, #$100
3258	FFFF		SUB R15, #$100
325A	FFFF		SUB R15, #$100
325C	FFFF		SUB R15, #$100
325E	FFFF		SUB R15, #$100
3260	FFFF		SUB R15, #$100
3262	FFFF		SUB R15, #$100
3264	FFFF		SUB R15, #$100
3266	FFFF		SUB R15, #$100
3268	FFFF		SUB R15, #$100
326A	FFFF		SUB R15, #$100
326C	FFFF		SUB R15, #$100
326E	FFFF		SUB R15, #$100
3270	FFFF		SUB R15, #$100
3272	FFFF		SUB R15, #$100
3274	FFFF		SUB R15, #$100
3276	FFFF		SUB R15, #$100
3278	FFFF		SUB R15, #$100
327A	FFFF		SUB R15, #$100
327C	FFFF		SUB R15, #$100
327E	FFFF		SUB R15, #$100
3280	FFFF		SUB R15, #$100
3282	FFFF		SUB R15, #$100
3284	FFFF		SUB R15, #$100
3286	FFFF		SUB R15, #$100
3288	FFFF		SUB R15, #$100
328A	FFFF		SUB R15, #$100
328C	FFFF		SUB R15, #$100
328E	FFFF		SUB R15, #$100
3290	FFFF		SUB R15, #$100
3292	FFFF		SUB R15, #$100
3294	FFFF		SUB R15, #$100
3296	FFFF		SUB R15, #$100
3298	FFFF		SUB R15, #$100
329A	FFFF		SUB R15, #$100
329C	FFFF		SUB R15, #$100
329E	FFFF		SUB R15, #$100
32A0	FFFF		SUB R15, #$100
32A2	FFFF		SUB R15, #$100
32A4	FFFF		SUB R15, #$100
32A6	FFFF		SUB R15, #$100
32A8	FFFF		SUB R15, #$100
32AA	FFFF		SUB R15, #$100
32AC	FFFF		SUB R15, #$100
32AE	FFFF		SUB R15, #$100
32B0	FFFF		SUB R15, #$100
32B2	FFFF		SUB R15, #$100
32B4	FFFF		SUB R15, #$100
32B6	FFFF		SUB R15, #$100
32B8	FFFF		SUB R15, #$100
32BA	FFFF		SUB R15, #$100
32BC	FFFF		SUB R15, #$100
32BE	FFFF		SUB R15, #$100
32C0	FFFF		SUB R15, #$100
32C2	FFFF		SUB R15, #$100
32C4	FFFF		SUB R15, #$100
32C6	FFFF		SUB R15, #$100
32C8	FFFF		SUB R15, #$100
32CA	FFFF		SUB R15, #$100
32CC	FFFF		SUB R15, #$100
32CE	FFFF		SUB R15, #$100
32D0	FFFF		SUB R15, #$100
32D2	FFFF		SUB R15, #$100
32D4	FFFF		SUB R15, #$100
32D6	FFFF		SUB R15, #$100
32D8	FFFF		SUB R15, #$100
32DA	FFFF		SUB R15, #$100
32DC	FFFF		SUB R15, #$100
32DE	FFFF		SUB R15, #$100
32E0	FFFF		SUB R15, #$100
32E2	FFFF		SUB R15, #$100
32E4	FFFF		SUB R15, #$100
32E6	FFFF		SUB R15, #$100
32E8	FFFF		SUB R15, #$100
32EA	FFFF		SUB R15, #$100
32EC	FFFF		SUB R15, #$100
32EE	FFFF		SUB R15, #$100
32F0	FFFF		SUB R15, #$100
32F2	FFFF		SUB R15, #$100
32F4	FFFF		SUB R15, #$100
32F6	FFFF		SUB R15, #$100
32F8	FFFF		SUB R15, #$100
32FA	FFFF		SUB R15, #$100
32FC	FFFF		SUB R15, #$100
32FE	FFFF		SUB R15, #$100
3300	FFFF		SUB R15, #$100
3302	FFFF		SUB R15, #$100
3304	FFFF		SUB R15, #$100
3306	FFFF		SUB R15, #$100
3308	FFFF		SUB R15, #$100
330A	FFFF		SUB R15, #$100
330C	FFFF		SUB R15, #$100
330E	FFFF		SUB R15, #$100
3310	FFFF		SUB R15, #$100
3312	FFFF		SUB R15, #$100
3314	FFFF		SUB R15, #$100
3316	FFFF		SUB R15, #$100
3318	FFFF		SUB R15, #$100
331A	FFFF		SUB R15, #$100
331C	FFFF		SUB R15, #$100
331E	FFFF		SUB R15, #$100
3320	FFFF		SUB R15, #$100
3322	FFFF		SUB R15, #$100
3324	FFFF		SUB R15, #$100
3326	FFFF		SUB R15, #$100
3328	FFFF		SUB R15, #$100
332A	FFFF		SUB R15, #$100
332C	FFFF		SUB R15, #$100
332E	FFFF		SUB R15, #$100
3330	FFFF		SUB R15, #$100
3332	FFFF		SUB R15, #$100
3334	FFFF		SUB R15, #$100
3336	FFFF		SUB R15, #$100
3338	FFFF		SUB R15, #$100
333A	FFFF		SUB R15, #$100
333C	FFFF		SUB R15, #$100
333E	FFFF		SUB R15, #$100
3340	FFFF		SUB R15, #$100
3342	FFFF		SUB R15, #$100
3344	FFFF		SUB R15, #$100
3346	FFFF		SUB R15, #$100
3348	FFFF		SUB R15, #$100
334A	FFFF		SUB R15, #$100
334C	FFFF		SUB R15, #$100
334E	FFFF		SUB R15, #$100
3350	FFFF		SUB R15, #$100
3352	FFFF		SUB R15, #$100
3354	FFFF		SUB R15, #$100
3356	FFFF		SUB R15, #$100
3358	FFFF		SUB R15, #$100
335A	FFFF		SUB R15, #$100
335C	FFFF		SUB R15, #$100
335E	FFFF		SUB R15, #$100
3360	FFFF		SUB R15, #$100
3362	FFFF		SUB R15, #$100
3364	FFFF		SUB R15, #$100
3366	FFFF		SUB R15, #$100
3368	FFFF		SUB R15, #$100
336A	FFFF		SUB R15, #$100
336C	FFFF		SUB R15, #$100
336E	FFFF		SUB R15, #$100
3370	FFFF		SUB R15, #$100
3372	FFFF		SUB R15, #$100
3374	FFFF		SUB R15, #$100
3376	FFFF		SUB R15, #$100
3378	FFFF		SUB R15, #$100
337A	FFFF		SUB R15, #$100
337C	FFFF		SUB R15, #$100
337E	FFFF		SUB R15, #$100
3380	FFFF		SUB R15, #$100
3382	FFFF		SUB R15, #$100
3384	FFFF		SUB R15, #$100
3386	FFFF		SUB R15, #$100
3388	FFFF		SUB R15, #$100
338A	FFFF		SUB R15, #$100
338C	FFFF		SUB R15, #$100
338E	FFFF		SUB R15, #$100
3390	FFFF		SUB R15, #$100
3392	FFFF		SUB R15, #$100
3394	FFFF		SUB R15, #$100
3396	FFFF		SUB R15, #$100
3398	FFFF		SUB R15, #$100
339A	FFFF		SUB R15, #$100
339C	FFFF		SUB R15, #$100
339E	FFFF		SUB R15, #$100
33A0	FFFF		SUB R15, #$100
33A2	FFFF		SUB R15, #$100
33A4	FFFF		SUB R15, #$100
33A6	FFFF		SUB R15, #$100
33A8	FFFF		SUB R15, #$100
33AA	FFFF		SUB R15, #$100
33AC	FFFF		SUB R15, #$100
33AE	FFFF		SUB R15, #$100
33B0	FFFF		SUB R15, #$100
33B2	FFFF		SUB R15, #$100
33B4	FFFF		SUB R15, #$100
33B6	FFFF		SUB R15, #$100
33B8	FFFF		SUB R15, #$100
33BA	FFFF		SUB R15, #$100
33BC	FFFF		SUB R15, #$100
33BE	FFFF		SUB R15, #$100
33C0	FFFF		SUB R15, #$100
33C2	FFFF		SUB R15, #$100
33C4	FFFF		SUB R15, #$100
33C6	FFFF		SUB R15, #$100
33C8	FFFF		SUB R15, #$100
33CA	FFFF		SUB R15, #$100
33CC	FFFF		SUB R15, #$100
33CE	FFFF		SUB R15, #$100
33D0	FFFF		SUB R15, #$100
33D2	FFFF		SUB R15, #$100
33D4	FFFF		SUB R15, #$100
33D6	FFFF		SUB R15, #$100
33D8	FFFF		SUB R15, #$100
33DA	FFFF		SUB R15, #$100
33DC	FFFF		SUB R15, #$100
33DE	FFFF		SUB R15, #$100
33E0	FFFF		SUB R15, #$100
33E2	FFFF		SUB R15, #$100
33E4	FFFF		SUB R15, #$100
33E6	FFFF		SUB R15, #$100
33E8	FFFF		SUB R15, #$100
33EA	FFFF		SUB R15, #$100
33EC	FFFF		SUB R15, #$100
33EE	FFFF		SUB R15, #$100
33F0	FFFF		SUB R15, #$100
33F2	FFFF		SUB R15, #$100
33F4	FFFF		SUB R15, #$100
33F6	FFFF		SUB R15, #$100
33F8	FFFF		SUB R15, #$100
33FA	FFFF		SUB R15, #$100
33FC	FFFF		SUB R15, #$100
33FE	FFFF		SUB R15, #$100
3400	FFFF		SUB R15, #$100
3402	FFFF		SUB R15, #$100
3404	FFFF		SUB R15, #$100
3406	FFFF		SUB R15, #$100
3408	FFFF		SUB R15, #$100
340A	FFFF		SUB R15, #$100
340C	FFFF		SUB R15, #$100
340E	FFFF		SUB R15, #$100
3410	FFFF		SUB R15, #$100
3412	FFFF		SUB R15, #$100
3414	FFFF		SUB R15, #$100
3416	FFFF		SUB R15, #$100
3418	FFFF		SUB R15, #$100
341A	FFFF		SUB R15, #$100
341C	FFFF		SUB R15, #$100
341E	FFFF		SUB R15, #$100
3420	FFFF		SUB R15, #$100
3422	FFFF		SUB R15, #$100
3424	FFFF		SUB R15, #$100
3426	FFFF		SUB R15, #$100
3428	FFFF		SUB R15, #$100
342A	FFFF		SUB R15, #$100
342C	FFFF		SUB R15, #$100
342E	FFFF		SUB R15, #$100
3430	FFFF		SUB R15, #$100
3432	FFFF		SUB R15, #$100
3434	FFFF		SUB R15, #$100
3436	FFFF		SUB R15, #$100
3438	FFFF		SUB R15, #$100
343A	FFFF		SUB R15, #$100
343C	FFFF		SUB R15, #$100
343E	FFFF		SUB R15, #$100
3440	FFFF		SUB R15, #$100
3442	FFFF		SUB R15, #$100
3444	FFFF		SUB R15, #$100
3446	FFFF		SUB R15, #$100
3448	FFFF		SUB R15, #$100
344A	FFFF		SUB R15, #$100
344C	FFFF		SUB R15, #$100
344E	FFFF		SUB R15, #$100
3450	FFFF		SUB R15, #$100
3452	FFFF		SUB R15, #$100
3454	FFFF		SUB R15, #$100
3456	FFFF		SUB R15, #$100
3458	FFFF		SUB R15, #$100
345A	FFFF		SUB R15, #$100
345C	FFFF		SUB R15, #$100
345E	FFFF		SUB R15, #$100
3460	FFFF		SUB R15, #$100
3462	FFFF		SUB R15, #$100
3464	FFFF		SUB R15, #$100
3466	FFFF		SUB R15, #$100
3468	FFFF		SUB R15, #$100
346A	FFFF		SUB R15, #$100
346C	FFFF		SUB R15, #$100
346E	FFFF		SUB R15, #$100
3470	FFFF		SUB R15, #$100
3472	FFFF		SUB R15, #$100
3474	FFFF		SUB R15, #$100
3476	FFFF		SUB R15, #$100
3478	FFFF		SUB R15, #$100
347A	FFFF		SUB R15, #$100
347C	FFFF		SUB R15, #$100
347E	FFFF		SUB R15, #$100
3480	FFFF		SUB R15, #$100
3482	FFFF		SUB R15, #$100
3484	FFFF		SUB R15, #$100
3486	FFFF		SUB R15, #$100
3488	FFFF		SUB R15, #$100
348A	FFFF		SUB R15, #$100
348C	FFFF		SUB R15, #$100
348E	FFFF		SUB R15, #$100
3490	FFFF		SUB R15, #$100
3492	FFFF		SUB R15, #$100
3494	FFFF		SUB R15, #$100
3496	FFFF		SUB R15, #$100
3498	FFFF		SUB R15, #$100
349A	FFFF		SUB R15, #$100
349C	FFFF		SUB R15, #$100
349E	FFFF		SUB R15, #$100
34A0	FFFF		SUB R15, #$100
34A2	FFFF		SUB R15, #$100
34A4	FFFF		SUB R15, #$100
34A6	FFFF		SUB R15, #$100
34A8	FFFF		SUB R15, #$100
34AA	FFFF		SUB R15, #$100
34AC	FFFF		SUB R15, #$100
34AE	FFFF		SUB R15, #$100
34B0	FFFF		SUB R15, #$100
34B2	FFFF		SUB R15, #$100
34B4	FFFF		SUB R15, #$100
34B6	FFFF		SUB R15, #$100
34B8	FFFF		SUB R15, #$100
34BA	FFFF		SUB R15, #$100
34BC	FFFF		SUB R15, #$100
34BE	FFFF		SUB R15, #$100
34C0	FFFF		SUB R15, #$100
34C2	FFFF		SUB R15, #$100
34C4	FFFF		SUB R15, #$100
34C6	FFFF		SUB R15, #$100
34C8	FFFF		SUB R15, #$100
34CA	FFFF		SUB R15, #$100
34CC	FFFF		SUB R15, #$100
34CE	FFFF		SUB R15, #$100
34D0	FFFF		SUB R15, #$100
34D2	FFFF		SUB R15, #$100
34D4	FFFF		SUB R15, #$100
34D6	FFFF		SUB R15, #$100
34D8	FFFF		SUB R15, #$100
34DA	FFFF		SUB R15, #$100
34DC	FFFF		SUB R15, #$100
34DE	FFFF		SUB R15, #$100
34E0	FFFF		SUB R15, #$100
34E2	FFFF		SUB R15, #$100
34E4	FFFF		SUB R15, #$100
34E6	FFFF		SUB R15, #$100
34E8	FFFF		SUB R15, #$100
34EA	FFFF		SUB R15, #$100
34EC	FFFF		SUB R15, #$100
34EE	FFFF		SUB R15, #$100
34F0	FFFF		SUB R15, #$100
34F2	FFFF		SUB R15, #$100
34F4	FFFF		SUB R15, #$100
34F6	FFFF		SUB R15, #$100
34F8	FFFF		SUB R15, #$100
34FA	FFFF		SUB R15, #$100
34FC	FFFF		SUB R15, #$100
34FE	FFFF		SUB R15, #$100
3500	FFFF		SUB R15, #$100
3502	FFFF		SUB R15, #$100
3504	FFFF		SUB R15, #$100
3506	FFFF		SUB R15, #$100
3508	FFFF		SUB R15, #$100
350A	FFFF		SUB R15, #$100
350C	FFFF		SUB R15, #$100
350E	FFFF		SUB R15, #$100
3510	FFFF		SUB R15, #$100
3512	FFFF		SUB R15, #$100
3514	FFFF		SUB R15, #$100
3516	FFFF		SUB R15, #$100
3518	FFFF		SUB R15, #$100
351A	FFFF		SUB R15, #$100
351C	FFFF		SUB R15, #$100
351E	FFFF		SUB R15, #$100
3520	FFFF		SUB R15, #$100
3522	FFFF		SUB R15, #$100
3524	FFFF		SUB R15, #$100
3526	FFFF		SUB R15, #$100
3528	FFFF		SUB R15, #$100
352A	FFFF		SUB R15, #$100
352C	FFFF		SUB R15, #$100
352E	FFFF		SUB R15, #$100
3530	FFFF		SUB R15, #$100
3532	FFFF		SUB R15, #$100
3534	FFFF		SUB R15, #$100
3536	FFFF		SUB R15, #$100
3538	FFFF		SUB R15, #$100
353A	FFFF		SUB R15, #$100
353C	FFFF		SUB R15, #$100
353E	FFFF		SUB R15, #$100
3540	FFFF		SUB R15, #$100
3542	FFFF		SUB R15, #$100
3544	FFFF		SUB R15, #$100
3546	FFFF		SUB R15, #$100
3548	FFFF		SUB R15, #$100
354A	FFFF		SUB R15, #$100
354C	FFFF		SUB R15, #$100
354E	FFFF		SUB R15, #$100
3550	FFFF		SUB R15, #$100
3552	FFFF		SUB R15, #$100
3554	FFFF		SUB R15, #$100
3556	FFFF		SUB R15, #$100
3558	FFFF		SUB R15, #$100
355A	FFFF		SUB R15, #$100
355C	FFFF		SUB R15, #$100
355E	FFFF		SUB R15, #$100
3560	FFFF		SUB R15, #$100
3562	FFFF		SUB R15, #$100
3564	FFFF		SUB R15, #$100
3566	FFFF		SUB R15, #$100
3568	FFFF		SUB R15, #$100
356A	FFFF		SUB R15, #$100
356C	FFFF		SUB R15, #$100
356E	FFFF		SUB R15, #$100
3570	FFFF		SUB R15, #$100
3572	FFFF		SUB R15, #$100
3574	FFFF		SUB R15, #$100
3576	FFFF		SUB R15, #$100
3578	FFFF		SUB R15, #$100
357A	FFFF		SUB R15, #$100
357C	FFFF		SUB R15, #$100
357E	FFFF		SUB R15, #$100
3580	FFFF		SUB R15, #$100
3582	FFFF		SUB R15, #$100
3584	FFFF		SUB R15, #$100
3586	FFFF		SUB R15, #$100
3588	FFFF		SUB R15, #$100
358A	FFFF		SUB R15, #$100
358C	FFFF		SUB R15, #$100
358E	FFFF		SUB R15, #$100
3590	FFFF		SUB R15, #$100
3592	FFFF		SUB R15, #$100
3594	FFFF		SUB R15, #$100
3596	FFFF		SUB R15, #$100
3598	FFFF		SUB R15, #$100
359A	FFFF		SUB R15, #$100
359C	FFFF		SUB R15, #$100
359E	FFFF		SUB R15, #$100
35A0	FFFF		SUB R15, #$100
35A2	FFFF		SUB R15, #$100
35A4	FFFF		SUB R15, #$100
35A6	FFFF		SUB R15, #$100
35A8	FFFF		SUB R15, #$100
35AA	FFFF		SUB R15, #$100
35AC	FFFF		SUB R15, #$100
35AE	FFFF		SUB R15, #$100
35B0	FFFF		SUB R15, #$100
35B2	FFFF		SUB R15, #$100
35B4	FFFF		SUB R15, #$100
35B6	FFFF		SUB R15, #$100
35B8	FFFF		SUB R15, #$100
35BA	FFFF		SUB R15, #$100
35BC	FFFF		SUB R15, #$100
35BE	FFFF		SUB R15, #$100
35C0	FFFF		SUB R15, #$100
35C2	FFFF		SUB R15, #$100
35C4	FFFF		SUB R15, #$100
35C6	FFFF		SUB R15, #$100
35C8	FFFF		SUB R15, #$100
35CA	FFFF		SUB R15, #$100
35CC	FFFF		SUB R15, #$100
35CE	FFFF		SUB R15, #$100
35D0	FFFF		SUB R15, #$100
35D2	FFFF		SUB R15, #$100
35D4	FFFF		SUB R15, #$100
35D6	FFFF		SUB R15, #$100
35D8	FFFF		SUB R15, #$100
35DA	FFFF		SUB R15, #$100
35DC	FFFF		SUB R15, #$100
35DE	FFFF		SUB R15, #$100
35E0	FFFF		SUB R15, #$100
35E2	FFFF		SUB R15, #$100
35E4	FFFF		SUB R15, #$100
35E6	FFFF		SUB R15, #$100
35E8	FFFF		SUB R15, #$100
35EA	FFFF		SUB R15, #$100
35EC	FFFF		SUB R15, #$100
35EE	FFFF		SUB R15, #$100
35F0	FFFF		SUB R15, #$100
35F2	FFFF		SUB R15, #$100
35F4	FFFF		SUB R15, #$100
35F6	FFFF		SUB R15, #$100
35F8	FFFF		SUB R15, #$100
35FA	FFFF		SUB R15, #$100
35FC	FFFF		SUB R15, #$100
35FE	FFFF		SUB R15, #$100
3600	FFFF		SUB R15, #$100
3602	FFFF		SUB R15, #$100
3604	FFFF		SUB R15, #$100
3606	FFFF		SUB R15, #$100
3608	FFFF		SUB R15, #$100
360A	FFFF		SUB R15, #$100
360C	FFFF		SUB R15, #$100
360E	FFFF		SUB R15, #$100
3610	FFFF		SUB R15, #$100
3612	FFFF		SUB R15, #$100
3614	FFFF		SUB R15, #$100
3616	FFFF		SUB R15, #$100
3618	FFFF		SUB R15, #$100
361A	FFFF		SUB R15, #$100
361C	FFFF		SUB R15, #$100
361E	FFFF		SUB R15, #$100
3620	FFFF		SUB R15, #$100
3622	FFFF		SUB R15, #$100
3624	FFFF		SUB R15, #$100
3626	FFFF		SUB R15, #$100
3628	FFFF		SUB R15, #$100
362A	FFFF		SUB R15, #$100
362C	FFFF		SUB R15, #$100
362E	FFFF		SUB R15, #$100
3630	FFFF		SUB R15, #$100
3632	FFFF		SUB R15, #$100
3634	FFFF		SUB R15, #$100
3636	FFFF		SUB R15, #$100
3638	FFFF		SUB R15, #$100
363A	FFFF		SUB R15, #$100
363C	FFFF		SUB R15, #$100
363E	FFFF		SUB R15, #$100
3640	FFFF		SUB R15, #$100
3642	FFFF		SUB R15, #$100
3644	FFFF		SUB R15, #$100
3646	FFFF		SUB R15, #$100
3648	FFFF		SUB R15, #$100
364A	FFFF		SUB R15, #$100
364C	FFFF		SUB R15, #$100
364E	FFFF		SUB R15, #$100
3650	FFFF		SUB R15, #$100
3652	FFFF		SUB R15, #$100
3654	FFFF		SUB R15, #$100
3656	FFFF		SUB R15, #$100
3658	FFFF		SUB R15, #$100
365A	FFFF		SUB R15, #$100
365C	FFFF		SUB R15, #$100
365E	FFFF		SUB R15, #$100
3660	FFFF		SUB R15, #$100
3662	FFFF		SUB R15, #$100
3664	FFFF		SUB R15, #$100
3666	FFFF		SUB R15, #$100
3668	FFFF		SUB R15, #$100
366A	FFFF		SUB R15, #$100
366C	FFFF		SUB R15, #$100
366E	FFFF		SUB R15, #$100
3670	FFFF		SUB R15, #$100
3672	FFFF		SUB R15, #$100
3674	FFFF		SUB R15, #$100
3676	FFFF		SUB R15, #$100
3678	FFFF		SUB R15, #$100
367A	FFFF		SUB R15, #$100
367C	FFFF		SUB R15, #$100
367E	FFFF		SUB R15, #$100
3680	FFFF		SUB R15, #$100
3682	FFFF		SUB R15, #$100
3684	FFFF		SUB R15, #$100
3686	FFFF		SUB R15, #$100
3688	FFFF		SUB R15, #$100
368A	FFFF		SUB R15, #$100
368C	FFFF		SUB R15, #$100
368E	FFFF		SUB R15, #$100
3690	FFFF		SUB R15, #$100
3692	FFFF		SUB R15, #$100
3694	FFFF		SUB R15, #$100
3696	FFFF		SUB R15, #$100
3698	FFFF		SUB R15, #$100
369A	FFFF		SUB R15, #$100
369C	FFFF		SUB R15, #$100
369E	FFFF		SUB R15, #$100
36A0	FFFF		SUB R15, #$100
36A2	FFFF		SUB R15, #$100
36A4	FFFF		SUB R15, #$100
36A6	FFFF		SUB R15, #$100
36A8	FFFF		SUB R15, #$100
36AA	FFFF		SUB R15, #$100
36AC	FFFF		SUB R15, #$100
36AE	FFFF		SUB R15, #$100
36B0	FFFF		SUB R15, #$100
36B2	FFFF		SUB R15, #$100
36B4	FFFF		SUB R15, #$100
36B6	FFFF		SUB R15, #$100
36B8	FFFF		SUB R15, #$100
36BA	FFFF		SUB R15, #$100
36BC	FFFF		SUB R15, #$100
36BE	FFFF		SUB R15, #$100
36C0	FFFF		SUB R15, #$100
36C2	FFFF		SUB R15, #$100
36C4	FFFF		SUB R15, #$100
36C6	FFFF		SUB R15, #$100
36C8	FFFF		SUB R15, #$100
36CA	FFFF		SUB R15, #$100
36CC	FFFF		SUB R15, #$100
36CE	FFFF		SUB R15, #$100
36D0	FFFF		SUB R15, #$100
36D2	FFFF		SUB R15, #$100
36D4	FFFF		SUB R15, #$100
36D6	FFFF		SUB R15, #$100
36D8	FFFF		SUB R15, #$100
36DA	FFFF		SUB R15, #$100
36DC	FFFF		SUB R15, #$100
36DE	FFFF		SUB R15, #$100
36E0	FFFF		SUB R15, #$100
36E2	FFFF		SUB R15, #$100
36E4	FFFF		SUB R15, #$100
36E6	FFFF		SUB R15, #$100
36E8	FFFF		SUB R15, #$100
36EA	FFFF		SUB R15, #$100
36EC	FFFF		SUB R15, #$100
36EE	FFFF		SUB R15, #$100
36F0	FFFF		SUB R15, #$100
36F2	FFFF		SUB R15, #$100
36F4	FFFF		SUB R15, #$100
36F6	FFFF		SUB R15, #$100
36F8	FFFF		SUB R15, #$100
36FA	FFFF		SUB R15, #$100
36FC	FFFF		SUB R15, #$100
36FE	FFFF		SUB R15, #$100
3700	FFFF		SUB R15, #$100
3702	FFFF		SUB R15, #$100
3704	FFFF		SUB R15, #$100
3706	FFFF		SUB R15, #$100
3708	FFFF		SUB R15, #$100
370A	FFFF		SUB R15, #$100
370C	FFFF		SUB R15, #$100
370E	FFFF		SUB R15, #$100
3710	FFFF		SUB R15, #$100
3712	FFFF		SUB R15, #$100
3714	FFFF		SUB R15, #$100
3716	FFFF		SUB R15, #$100
3718	FFFF		SUB R15, #$100
371A	FFFF		SUB R15, #$100
371C	FFFF		SUB R15, #$100
371E	FFFF		SUB R15, #$100
3720	FFFF		SUB R15, #$100
3722	FFFF		SUB R15, #$100
3724	FFFF		SUB R15, #$100
3726	FFFF		SUB R15, #$100
3728	FFFF		SUB R15, #$100
372A	FFFF		SUB R15, #$100
372C	FFFF		SUB R15, #$100
372E	FFFF		SUB R15, #$100
3730	FFFF		SUB R15, #$100
3732	FFFF		SUB R15, #$100
3734	FFFF		SUB R15, #$100
3736	FFFF		SUB R15, #$100
3738	FFFF		SUB R15, #$100
373A	FFFF		SUB R15, #$100
373C	FFFF		SUB R15, #$100
373E	FFFF		SUB R15, #$100
3740	FFFF		SUB R15, #$100
3742	FFFF		SUB R15, #$100
3744	FFFF		SUB R15, #$100
3746	FFFF		SUB R15, #$100
3748	FFFF		SUB R15, #$100
374A	FFFF		SUB R15, #$100
374C	FFFF		SUB R15, #$100
374E	FFFF		SUB R15, #$100
3750	FFFF		SUB R15, #$100
3752	FFFF		SUB R15, #$100
3754	FFFF		SUB R15, #$100
3756	FFFF		SUB R15, #$100
3758	FFFF		SUB R15, #$100
375A	FFFF		SUB R15, #$100
375C	FFFF		SUB R15, #$100
375E	FFFF		SUB R15, #$100
3760	FFFF		SUB R15, #$100
3762	FFFF		SUB R15, #$100
3764	FFFF		SUB R15, #$100
3766	FFFF		SUB R15, #$100
3768	FFFF		SUB R15, #$100
376A	FFFF		SUB R15, #$100
376C	FFFF		SUB R15, #$100
376E	FFFF		SUB R15, #$100
3770	FFFF		SUB R15, #$100
3772	FFFF		SUB R15, #$100
3774	FFFF		SUB R15, #$100
3776	FFFF		SUB R15, #$100
3778	FFFF		SUB R15, #$100
377A	FFFF		SUB R15, #$100
377C	FFFF		SUB R15, #$100
377E	FFFF		SUB R15, #$100
3780	FFFF		SUB R15, #$100
3782	FFFF		SUB R15, #$100
3784	FFFF		SUB R15, #$100
3786	FFFF		SUB R15, #$100
3788	FFFF		SUB R15, #$100
378A	FFFF		SUB R15, #$100
378C	FFFF		SUB R15, #$100
378E	FFFF		SUB R15, #$100
3790	FFFF		SUB R15, #$100
3792	FFFF		SUB R15, #$100
3794	FFFF		SUB R15, #$100
3796	FFFF		SUB R15, #$100
3798	FFFF		SUB R15, #$100
379A	FFFF		SUB R15, #$100
379C	FFFF		SUB R15, #$100
379E	FFFF		SUB R15, #$100
37A0	FFFF		SUB R15, #$100
37A2	FFFF		SUB R15, #$100
37A4	FFFF		SUB R15, #$100
37A6	FFFF		SUB R15, #$100
37A8	FFFF		SUB R15, #$100
37AA	FFFF		SUB R15, #$100
37AC	FFFF		SUB R15, #$100
37AE	FFFF		SUB R15, #$100
37B0	FFFF		SUB R15, #$100
37B2	FFFF		SUB R15, #$100
37B4	FFFF		SUB R15, #$100
37B6	FFFF		SUB R15, #$100
37B8	FFFF		SUB R15, #$100
37BA	FFFF		SUB R15, #$100
37BC	FFFF		SUB R15, #$100
37BE	FFFF		SUB R15, #$100
37C0	FFFF		SUB R15, #$100
37C2	FFFF		SUB R15, #$100
37C4	FFFF		SUB R15, #$100
37C6	FFFF		SUB R15, #$100
37C8	FFFF		SUB R15, #$100
37CA	FFFF		SUB R15, #$100
37CC	FFFF		SUB R15, #$100
37CE	FFFF		SUB R15, #$100
37D0	FFFF		SUB R15, #$100
37D2	FFFF		SUB R15, #$100
37D4	FFFF		SUB R15, #$100
37D6	FFFF		SUB R15, #$100
37D8	FFFF		SUB R15, #$100
37DA	FFFF		SUB R15, #$100
37DC	FFFF		SUB R15, #$100
37DE	FFFF		SUB R15, #$100
37E0	FFFF		SUB R15, #$100
37E2	FFFF		SUB R15, #$100
37E4	FFFF		SUB R15, #$100
37E6	FFFF		SUB R15, #$100
37E8	FFFF		SUB R15, #$100
37EA	FFFF		SUB R15, #$100
37EC	FFFF		SUB R15, #$100
37EE	FFFF		SUB R15, #$100
37F0	FFFF		SUB R15, #$100
37F2	FFFF		SUB R15, #$100
37F4	FFFF		SUB R15, #$100
37F6	FFFF		SUB R15, #$100
37F8	FFFF		SUB R15, #$100
37FA	FFFF		SUB R15, #$100
37FC	FFFF		SUB R15, #$100
37FE	FFFF		SUB R15, #$100
3800	FFFF		SUB R15, #$100
3802	FFFF		SUB R15, #$100
3804	FFFF		SUB R15, #$100
3806	FFFF		SUB R15, #$100
3808	FFFF		SUB R15, #$100
380A	FFFF		SUB R15, #$100
380C	FFFF		SUB R15, #$100
380E	FFFF		SUB R15, #$100
3810	FFFF		SUB R15, #$100
3812	FFFF		SUB R15, #$100
3814	FFFF		SUB R15, #$100
3816	FFFF		SUB R15, #$100
3818	FFFF		SUB R15, #$100
381A	FFFF		SUB R15, #$100
381C	FFFF		SUB R15, #$100
381E	FFFF		SUB R15, #$100
3820	FFFF		SUB R15, #$100
3822	FFFF		SUB R15, #$100
3824	FFFF		SUB R15, #$100
3826	FFFF		SUB R15, #$100
3828	FFFF		SUB R15, #$100
382A	FFFF		SUB R15, #$100
382C	FFFF		SUB R15, #$100
382E	FFFF		SUB R15, #$100
3830	FFFF		SUB R15, #$100
3832	FFFF		SUB R15, #$100
3834	FFFF		SUB R15, #$100
3836	FFFF		SUB R15, #$100
3838	FFFF		SUB R15, #$100
383A	FFFF		SUB R15, #$100
383C	FFFF		SUB R15, #$100
383E	FFFF		SUB R15, #$100
3840	FFFF		SUB R15, #$100
3842	FFFF		SUB R15, #$100
3844	FFFF		SUB R15, #$100
3846	FFFF		SUB R15, #$100
3848	FFFF		SUB R15, #$100
384A	FFFF		SUB R15, #$100
384C	FFFF		SUB R15, #$100
384E	FFFF		SUB R15, #$100
3850	FFFF		SUB R15, #$100
3852	FFFF		SUB R15, #$100
3854	FFFF		SUB R15, #$100
3856	FFFF		SUB R15, #$100
3858	FFFF		SUB R15, #$100
385A	FFFF		SUB R15, #$100
385C	FFFF		SUB R15, #$100
385E	FFFF		SUB R15, #$100
3860	FFFF		SUB R15, #$100
3862	FFFF		SUB R15, #$100
3864	FFFF		SUB R15, #$100
3866	FFFF		SUB R15, #$100
3868	FFFF		SUB R15, #$100
386A	FFFF		SUB R15, #$100
386C	FFFF		SUB R15, #$100
386E	FFFF		SUB R15, #$100
3870	FFFF		SUB R15, #$100
3872	FFFF		SUB R15, #$100
3874	FFFF		SUB R15, #$100
3876	FFFF		SUB R15, #$100
3878	FFFF		SUB R15, #$100
387A	FFFF		SUB R15, #$100
387C	FFFF		SUB R15, #$100
387E	FFFF		SUB R15, #$100
3880	FFFF		SUB R15, #$100
3882	FFFF		SUB R15, #$100
3884	FFFF		SUB R15, #$100
3886	FFFF		SUB R15, #$100
3888	FFFF		SUB R15, #$100
388A	FFFF		SUB R15, #$100
388C	FFFF		SUB R15, #$100
388E	FFFF		SUB R15, #$100
3890	FFFF		SUB R15, #$100
3892	FFFF		SUB R15, #$100
3894	FFFF		SUB R15, #$100
3896	FFFF		SUB R15, #$100
3898	FFFF		SUB R15, #$100
389A	FFFF		SUB R15, #$100
389C	FFFF		SUB R15, #$100
389E	FFFF		SUB R15, #$100
38A0	FFFF		SUB R15, #$100
38A2	FFFF		SUB R15, #$100
38A4	FFFF		SUB R15, #$100
38A6	FFFF		SUB R15, #$100
38A8	FFFF		SUB R15, #$100
38AA	FFFF		SUB R15, #$100
38AC	FFFF		SUB R15, #$100
38AE	FFFF		SUB R15, #$100
38B0	FFFF		SUB R15, #$100
38B2	FFFF		SUB R15, #$100
38B4	FFFF		SUB R15, #$100
38B6	FFFF		SUB R15, #$100
38B8	FFFF		SUB R15, #$100
38BA	FFFF		SUB R15, #$100
38BC	FFFF		SUB R15, #$100
38BE	FFFF		SUB R15, #$100
38C0	FFFF		SUB R15, #$100
38C2	FFFF		SUB R15, #$100
38C4	FFFF		SUB R15, #$100
38C6	FFFF		SUB R15, #$100
38C8	FFFF		SUB R15, #$100
38CA	FFFF		SUB R15, #$100
38CC	FFFF		SUB R15, #$100
38CE	FFFF		SUB R15, #$100
38D0	FFFF		SUB R15, #$100
38D2	FFFF		SUB R15, #$100
38D4	FFFF		SUB R15, #$100
38D6	FFFF		SUB R15, #$100
38D8	FFFF		SUB R15, #$100
38DA	FFFF		SUB R15, #$100
38DC	FFFF		SUB R15, #$100
38DE	FFFF		SUB R15, #$100
38E0	FFFF		SUB R15, #$100
38E2	FFFF		SUB R15, #$100
38E4	FFFF		SUB R15, #$100
38E6	FFFF		SUB R15, #$100
38E8	FFFF		SUB R15, #$100
38EA	FFFF		SUB R15, #$100
38EC	FFFF		SUB R15, #$100
38EE	FFFF		SUB R15, #$100
38F0	FFFF		SUB R15, #$100
38F2	FFFF		SUB R15, #$100
38F4	FFFF		SUB R15, #$100
38F6	FFFF		SUB R15, #$100
38F8	FFFF		SUB R15, #$100
38FA	FFFF		SUB R15, #$100
38FC	FFFF		SUB R15, #$100
38FE	FFFF		SUB R15, #$100
3900	FFFF		SUB R15, #$100
3902	FFFF		SUB R15, #$100
3904	FFFF		SUB R15, #$100
3906	FFFF		SUB R15, #$100
3908	FFFF		SUB R15, #$100
390A	FFFF		SUB R15, #$100
390C	FFFF		SUB R15, #$100
390E	FFFF		SUB R15, #$100
3910	FFFF		SUB R15, #$100
3912	FFFF		SUB R15, #$100
3914	FFFF		SUB R15, #$100
3916	FFFF		SUB R15, #$100
3918	FFFF		SUB R15, #$100
391A	FFFF		SUB R15, #$100
391C	FFFF		SUB R15, #$100
391E	FFFF		SUB R15, #$100
3920	FFFF		SUB R15, #$100
3922	FFFF		SUB R15, #$100
3924	FFFF		SUB R15, #$100
3926	FFFF		SUB R15, #$100
3928	FFFF		SUB R15, #$100
392A	FFFF		SUB R15, #$100
392C	FFFF		SUB R15, #$100
392E	FFFF		SUB R15, #$100
3930	FFFF		SUB R15, #$100
3932	FFFF		SUB R15, #$100
3934	FFFF		SUB R15, #$100
3936	FFFF		SUB R15, #$100
3938	FFFF		SUB R15, #$100
393A	FFFF		SUB R15, #$100
393C	FFFF		SUB R15, #$100
393E	FFFF		SUB R15, #$100
3940	FFFF		SUB R15, #$100
3942	FFFF		SUB R15, #$100
3944	FFFF		SUB R15, #$100
3946	FFFF		SUB R15, #$100
3948	FFFF		SUB R15, #$100
394A	FFFF		SUB R15, #$100
394C	FFFF		SUB R15, #$100
394E	FFFF		SUB R15, #$100
3950	FFFF		SUB R15, #$100
3952	FFFF		SUB R15, #$100
3954	FFFF		SUB R15, #$100
3956	FFFF		SUB R15, #$100
3958	FFFF		SUB R15, #$100
395A	FFFF		SUB R15, #$100
395C	FFFF		SUB R15, #$100
395E	FFFF		SUB R15, #$100
3960	FFFF		SUB R15, #$100
3962	FFFF		SUB R15, #$100
3964	FFFF		SUB R15, #$100
3966	FFFF		SUB R15, #$100
3968	FFFF		SUB R15, #$100
396A	FFFF		SUB R15, #$100
396C	FFFF		SUB R15, #$100
396E	FFFF		SUB R15, #$100
3970	FFFF		SUB R15, #$100
3972	FFFF		SUB R15, #$100
3974	FFFF		SUB R15, #$100
3976	FFFF		SUB R15, #$100
3978	FFFF		SUB R15, #$100
397A	FFFF		SUB R15, #$100
397C	FFFF		SUB R15, #$100
397E	FFFF		SUB R15, #$100
3980	FFFF		SUB R15, #$100
3982	FFFF		SUB R15, #$100
3984	FFFF		SUB R15, #$100
3986	FFFF		SUB R15, #$100
3988	FFFF		SUB R15, #$100
398A	FFFF		SUB R15, #$100
398C	FFFF		SUB R15, #$100
398E	FFFF		SUB R15, #$100
3990	FFFF		SUB R15, #$100
3992	FFFF		SUB R15, #$100
3994	FFFF		SUB R15, #$100
3996	FFFF		SUB R15, #$100
3998	FFFF		SUB R15, #$100
399A	FFFF		SUB R15, #$100
399C	FFFF		SUB R15, #$100
399E	FFFF		SUB R15, #$100
39A0	FFFF		SUB R15, #$100
39A2	FFFF		SUB R15, #$100
39A4	FFFF		SUB R15, #$100
39A6	FFFF		SUB R15, #$100
39A8	FFFF		SUB R15, #$100
39AA	FFFF		SUB R15, #$100
39AC	FFFF		SUB R15, #$100
39AE	FFFF		SUB R15, #$100
39B0	FFFF		SUB R15, #$100
39B2	FFFF		SUB R15, #$100
39B4	FFFF		SUB R15, #$100
39B6	FFFF		SUB R15, #$100
39B8	FFFF		SUB R15, #$100
39BA	FFFF		SUB R15, #$100
39BC	FFFF		SUB R15, #$100
39BE	FFFF		SUB R15, #$100
39C0	FFFF		SUB R15, #$100
39C2	FFFF		SUB R15, #$100
39C4	FFFF		SUB R15, #$100
39C6	FFFF		SUB R15, #$100
39C8	FFFF		SUB R15, #$100
39CA	FFFF		SUB R15, #$100
39CC	FFFF		SUB R15, #$100
39CE	FFFF		SUB R15, #$100
39D0	FFFF		SUB R15, #$100
39D2	FFFF		SUB R15, #$100
39D4	FFFF		SUB R15, #$100
39D6	FFFF		SUB R15, #$100
39D8	FFFF		SUB R15, #$100
39DA	FFFF		SUB R15, #$100
39DC	FFFF		SUB R15, #$100
39DE	FFFF		SUB R15, #$100
39E0	FFFF		SUB R15, #$100
39E2	FFFF		SUB R15, #$100
39E4	FFFF		SUB R15, #$100
39E6	FFFF		SUB R15, #$100
39E8	FFFF		SUB R15, #$100
39EA	FFFF		SUB R15, #$100
39EC	FFFF		SUB R15, #$100
39EE	FFFF		SUB R15, #$100
39F0	FFFF		SUB R15, #$100
39F2	FFFF		SUB R15, #$100
39F4	FFFF		SUB R15, #$100
39F6	FFFF		SUB R15, #$100
39F8	FFFF		SUB R15, #$100
39FA	FFFF		SUB R15, #$100
39FC	FFFF		SUB R15, #$100
39FE	FFFF		SUB R15, #$100
3A00	FFFF		SUB R15, #$100
3A02	FFFF		SUB R15, #$100
3A04	FFFF		SUB R15, #$100
3A06	FFFF		SUB R15, #$100
3A08	FFFF		SUB R15, #$100
3A0A	FFFF		SUB R15, #$100
3A0C	FFFF		SUB R15, #$100
3A0E	FFFF		SUB R15, #$100
3A10	FFFF		SUB R15, #$100
3A12	FFFF		SUB R15, #$100
3A14	FFFF		SUB R15, #$100
3A16	FFFF		SUB R15, #$100
3A18	FFFF		SUB R15, #$100
3A1A	FFFF		SUB R15, #$100
3A1C	FFFF		SUB R15, #$100
3A1E	FFFF		SUB R15, #$100
3A20	FFFF		SUB R15, #$100
3A22	FFFF		SUB R15, #$100
3A24	FFFF		SUB R15, #$100
3A26	FFFF		SUB R15, #$100
3A28	FFFF		SUB R15, #$100
3A2A	FFFF		SUB R15, #$100
3A2C	FFFF		SUB R15, #$100
3A2E	FFFF		SUB R15, #$100
3A30	FFFF		SUB R15, #$100
3A32	FFFF		SUB R15, #$100
3A34	FFFF		SUB R15, #$100
3A36	FFFF		SUB R15, #$100
3A38	FFFF		SUB R15, #$100
3A3A	FFFF		SUB R15, #$100
3A3C	FFFF		SUB R15, #$100
3A3E	FFFF		SUB R15, #$100
3A40	FFFF		SUB R15, #$100
3A42	FFFF		SUB R15, #$100
3A44	FFFF		SUB R15, #$100
3A46	FFFF		SUB R15, #$100
3A48	FFFF		SUB R15, #$100
3A4A	FFFF		SUB R15, #$100
3A4C	FFFF		SUB R15, #$100
3A4E	FFFF		SUB R15, #$100
3A50	FFFF		SUB R15, #$100
3A52	FFFF		SUB R15, #$100
3A54	FFFF		SUB R15, #$100
3A56	FFFF		SUB R15, #$100
3A58	FFFF		SUB R15, #$100
3A5A	FFFF		SUB R15, #$100
3A5C	FFFF		SUB R15, #$100
3A5E	FFFF		SUB R15, #$100
3A60	FFFF		SUB R15, #$100
3A62	FFFF		SUB R15, #$100
3A64	FFFF		SUB R15, #$100
3A66	FFFF		SUB R15, #$100
3A68	FFFF		SUB R15, #$100
3A6A	FFFF		SUB R15, #$100
3A6C	FFFF		SUB R15, #$100
3A6E	FFFF		SUB R15, #$100
3A70	FFFF		SUB R15, #$100
3A72	FFFF		SUB R15, #$100
3A74	FFFF		SUB R15, #$100
3A76	FFFF		SUB R15, #$100
3A78	FFFF		SUB R15, #$100
3A7A	FFFF		SUB R15, #$100
3A7C	FFFF		SUB R15, #$100
3A7E	FFFF		SUB R15, #$100
3A80	FFFF		SUB R15, #$100
3A82	FFFF		SUB R15, #$100
3A84	FFFF		SUB R15, #$100
3A86	FFFF		SUB R15, #$100
3A88	FFFF		SUB R15, #$100
3A8A	FFFF		SUB R15, #$100
3A8C	FFFF		SUB R15, #$100
3A8E	FFFF		SUB R15, #$100
3A90	FFFF		SUB R15, #$100
3A92	FFFF		SUB R15, #$100
3A94	FFFF		SUB R15, #$100
3A96	FFFF		SUB R15, #$100
3A98	FFFF		SUB R15, #$100
3A9A	FFFF		SUB R15, #$100
3A9C	FFFF		SUB R15, #$100
3A9E	FFFF		SUB R15, #$100
3AA0	FFFF		SUB R15, #$100
3AA2	FFFF		SUB R15, #$100
3AA4	FFFF		SUB R15, #$100
3AA6	FFFF		SUB R15, #$100
3AA8	FFFF		SUB R15, #$100
3AAA	FFFF		SUB R15, #$100
3AAC	FFFF		SUB R15, #$100
3AAE	FFFF		SUB R15, #$100
3AB0	FFFF		SUB R15, #$100
3AB2	FFFF		SUB R15, #$100
3AB4	FFFF		SUB R15, #$100
3AB6	FFFF		SUB R15, #$100
3AB8	FFFF		SUB R15, #$100
3ABA	FFFF		SUB R15, #$100
3ABC	FFFF		SUB R15, #$100
3ABE	FFFF		SUB R15, #$100
3AC0	FFFF		SUB R15, #$100
3AC2	FFFF		SUB R15, #$100
3AC4	FFFF		SUB R15, #$100
3AC6	FFFF		SUB R15, #$100
3AC8	FFFF		SUB R15, #$100
3ACA	FFFF		SUB R15, #$100
3ACC	FFFF		SUB R15, #$100
3ACE	FFFF		SUB R15, #$100
3AD0	FFFF		SUB R15, #$100
3AD2	FFFF		SUB R15, #$100
3AD4	FFFF		SUB R15, #$100
3AD6	FFFF		SUB R15, #$100
3AD8	FFFF		SUB R15, #$100
3ADA	FFFF		SUB R15, #$100
3ADC	FFFF		SUB R15, #$100
3ADE	FFFF		SUB R15, #$100
3AE0	FFFF		SUB R15, #$100
3AE2	FFFF		SUB R15, #$100
3AE4	FFFF		SUB R15, #$100
3AE6	FFFF		SUB R15, #$100
3AE8	FFFF		SUB R15, #$100
3AEA	FFFF		SUB R15, #$100
3AEC	FFFF		SUB R15, #$100
3AEE	FFFF		SUB R15, #$100
3AF0	FFFF		SUB R15, #$100
3AF2	FFFF		SUB R15, #$100
3AF4	FFFF		SUB R15, #$100
3AF6	FFFF		SUB R15, #$100
3AF8	FFFF		SUB R15, #$100
3AFA	FFFF		SUB R15, #$100
3AFC	FFFF		SUB R15, #$100
3AFE	FFFF		SUB R15, #$100
3B00	FFFF		SUB R15, #$100
3B02	FFFF		SUB R15, #$100
3B04	FFFF		SUB R15, #$100
3B06	FFFF		SUB R15, #$100
3B08	FFFF		SUB R15, #$100
3B0A	FFFF		SUB R15, #$100
3B0C	FFFF		SUB R15, #$100
3B0E	FFFF		SUB R15, #$100
3B10	FFFF		SUB R15, #$100
3B12	FFFF		SUB R15, #$100
3B14	FFFF		SUB R15, #$100
3B16	FFFF		SUB R15, #$100
3B18	FFFF		SUB R15, #$100
3B1A	FFFF		SUB R15, #$100
3B1C	FFFF		SUB R15, #$100
3B1E	FFFF		SUB R15, #$100
3B20	FFFF		SUB R15, #$100
3B22	FFFF		SUB R15, #$100
3B24	FFFF		SUB R15, #$100
3B26	FFFF		SUB R15, #$100
3B28	FFFF		SUB R15, #$100
3B2A	FFFF		SUB R15, #$100
3B2C	FFFF		SUB R15, #$100
3B2E	FFFF		SUB R15, #$100
3B30	FFFF		SUB R15, #$100
3B32	FFFF		SUB R15, #$100
3B34	FFFF		SUB R15, #$100
3B36	FFFF		SUB R15, #$100
3B38	FFFF		SUB R15, #$100
3B3A	FFFF		SUB R15, #$100
3B3C	FFFF		SUB R15, #$100
3B3E	FFFF		SUB R15, #$100
3B40	FFFF		SUB R15, #$100
3B42	FFFF		SUB R15, #$100
3B44	FFFF		SUB R15, #$100
3B46	FFFF		SUB R15, #$100
3B48	FFFF		SUB R15, #$100
3B4A	FFFF		SUB R15, #$100
3B4C	FFFF		SUB R15, #$100
3B4E	FFFF		SUB R15, #$100
3B50	FFFF		SUB R15, #$100
3B52	FFFF		SUB R15, #$100
3B54	FFFF		SUB R15, #$100
3B56	FFFF		SUB R15, #$100
3B58	FFFF		SUB R15, #$100
3B5A	FFFF		SUB R15, #$100
3B5C	FFFF		SUB R15, #$100
3B5E	FFFF		SUB R15, #$100
3B60	FFFF		SUB R15, #$100
3B62	FFFF		SUB R15, #$100
3B64	FFFF		SUB R15, #$100
3B66	FFFF		SUB R15, #$100
3B68	FFFF		SUB R15, #$100
3B6A	FFFF		SUB R15, #$100
3B6C	FFFF		SUB R15, #$100
3B6E	FFFF		SUB R15, #$100
3B70	FFFF		SUB R15, #$100
3B72	FFFF		SUB R15, #$100
3B74	FFFF		SUB R15, #$100
3B76	FFFF		SUB R15, #$100
3B78	FFFF		SUB R15, #$100
3B7A	FFFF		SUB R15, #$100
3B7C	FFFF		SUB R15, #$100
3B7E	FFFF		SUB R15, #$100
3B80	FFFF		SUB R15, #$100
3B82	FFFF		SUB R15, #$100
3B84	FFFF		SUB R15, #$100
3B86	FFFF		SUB R15, #$100
3B88	FFFF		SUB R15, #$100
3B8A	FFFF		SUB R15, #$100
3B8C	FFFF		SUB R15, #$100
3B8E	FFFF		SUB R15, #$100
3B90	FFFF		SUB R15, #$100
3B92	FFFF		SUB R15, #$100
3B94	FFFF		SUB R15, #$100
3B96	FFFF		SUB R15, #$100
3B98	FFFF		SUB R15, #$100
3B9A	FFFF		SUB R15, #$100
3B9C	FFFF		SUB R15, #$100
3B9E	FFFF		SUB R15, #$100
3BA0	FFFF		SUB R15, #$100
3BA2	FFFF		SUB R15, #$100
3BA4	FFFF		SUB R15, #$100
3BA6	FFFF		SUB R15, #$100
3BA8	FFFF		SUB R15, #$100
3BAA	FFFF		SUB R15, #$100
3BAC	FFFF		SUB R15, #$100
3BAE	FFFF		SUB R15, #$100
3BB0	FFFF		SUB R15, #$100
3BB2	FFFF		SUB R15, #$100
3BB4	FFFF		SUB R15, #$100
3BB6	FFFF		SUB R15, #$100
3BB8	FFFF		SUB R15, #$100
3BBA	FFFF		SUB R15, #$100
3BBC	FFFF		SUB R15, #$100
3BBE	FFFF		SUB R15, #$100
3BC0	FFFF		SUB R15, #$100
3BC2	FFFF		SUB R15, #$100
3BC4	FFFF		SUB R15, #$100
3BC6	FFFF		SUB R15, #$100
3BC8	FFFF		SUB R15, #$100
3BCA	FFFF		SUB R15, #$100
3BCC	FFFF		SUB R15, #$100
3BCE	FFFF		SUB R15, #$100
3BD0	FFFF		SUB R15, #$100
3BD2	FFFF		SUB R15, #$100
3BD4	FFFF		SUB R15, #$100
3BD6	FFFF		SUB R15, #$100
3BD8	FFFF		SUB R15, #$100
3BDA	FFFF		SUB R15, #$100
3BDC	FFFF		SUB R15, #$100
3BDE	FFFF		SUB R15, #$100
3BE0	FFFF		SUB R15, #$100
3BE2	FFFF		SUB R15, #$100
3BE4	FFFF		SUB R15, #$100
3BE6	FFFF		SUB R15, #$100
3BE8	FFFF		SUB R15, #$100
3BEA	FFFF		SUB R15, #$100
3BEC	FFFF		SUB R15, #$100
3BEE	FFFF		SUB R15, #$100
3BF0	FFFF		SUB R15, #$100
3BF2	FFFF		SUB R15, #$100
3BF4	FFFF		SUB R15, #$100
3BF6	FFFF		SUB R15, #$100
3BF8	FFFF		SUB R15, #$100
3BFA	FFFF		SUB R15, #$100
3BFC	FFFF		SUB R15, #$100
3BFE	FFFF		SUB R15, #$100
3C00	FFFF		SUB R15, #$100
3C02	FFFF		SUB R15, #$100
3C04	FFFF		SUB R15, #$100
3C06	FFFF		SUB R15, #$100
3C08	FFFF		SUB R15, #$100
3C0A	FFFF		SUB R15, #$100
3C0C	FFFF		SUB R15, #$100
3C0E	FFFF		SUB R15, #$100
3C10	FFFF		SUB R15, #$100
3C12	FFFF		SUB R15, #$100
3C14	FFFF		SUB R15, #$100
3C16	FFFF		SUB R15, #$100
3C18	FFFF		SUB R15, #$100
3C1A	FFFF		SUB R15, #$100
3C1C	FFFF		SUB R15, #$100
3C1E	FFFF		SUB R15, #$100
3C20	FFFF		SUB R15, #$100
3C22	FFFF		SUB R15, #$100
3C24	FFFF		SUB R15, #$100
3C26	FFFF		SUB R15, #$100
3C28	FFFF		SUB R15, #$100
3C2A	FFFF		SUB R15, #$100
3C2C	FFFF		SUB R15, #$100
3C2E	FFFF		SUB R15, #$100
3C30	FFFF		SUB R15, #$100
3C32	FFFF		SUB R15, #$100
3C34	FFFF		SUB R15, #$100
3C36	FFFF		SUB R15, #$100
3C38	FFFF		SUB R15, #$100
3C3A	FFFF		SUB R15, #$100
3C3C	FFFF		SUB R15, #$100
3C3E	FFFF		SUB R15, #$100
3C40	FFFF		SUB R15, #$100
3C42	FFFF		SUB R15, #$100
3C44	FFFF		SUB R15, #$100
3C46	FFFF		SUB R15, #$100
3C48	FFFF		SUB R15, #$100
3C4A	FFFF		SUB R15, #$100
3C4C	FFFF		SUB R15, #$100
3C4E	FFFF		SUB R15, #$100
3C50	FFFF		SUB R15, #$100
3C52	FFFF		SUB R15, #$100
3C54	FFFF		SUB R15, #$100
3C56	FFFF		SUB R15, #$100
3C58	FFFF		SUB R15, #$100
3C5A	FFFF		SUB R15, #$100
3C5C	FFFF		SUB R15, #$100
3C5E	FFFF		SUB R15, #$100
3C60	FFFF		SUB R15, #$100
3C62	FFFF		SUB R15, #$100
3C64	FFFF		SUB R15, #$100
3C66	FFFF		SUB R15, #$100
3C68	FFFF		SUB R15, #$100
3C6A	FFFF		SUB R15, #$100
3C6C	FFFF		SUB R15, #$100
3C6E	FFFF		SUB R15, #$100
3C70	FFFF		SUB R15, #$100
3C72	FFFF		SUB R15, #$100
3C74	FFFF		SUB R15, #$100
3C76	FFFF		SUB R15, #$100
3C78	FFFF		SUB R15, #$100
3C7A	FFFF		SUB R15, #$100
3C7C	FFFF		SUB R15, #$100
3C7E	FFFF		SUB R15, #$100
3C80	FFFF		SUB R15, #$100
3C82	FFFF		SUB R15, #$100
3C84	FFFF		SUB R15, #$100
3C86	FFFF		SUB R15, #$100
3C88	FFFF		SUB R15, #$100
3C8A	FFFF		SUB R15, #$100
3C8C	FFFF		SUB R15, #$100
3C8E	FFFF		SUB R15, #$100
3C90	FFFF		SUB R15, #$100
3C92	FFFF		SUB R15, #$100
3C94	FFFF		SUB R15, #$100
3C96	FFFF		SUB R15, #$100
3C98	FFFF		SUB R15, #$100
3C9A	FFFF		SUB R15, #$100
3C9C	FFFF		SUB R15, #$100
3C9E	FFFF		SUB R15, #$100
3CA0	FFFF		SUB R15, #$100
3CA2	FFFF		SUB R15, #$100
3CA4	FFFF		SUB R15, #$100
3CA6	FFFF		SUB R15, #$100
3CA8	FFFF		SUB R15, #$100
3CAA	FFFF		SUB R15, #$100
3CAC	FFFF		SUB R15, #$100
3CAE	FFFF		SUB R15, #$100
3CB0	FFFF		SUB R15, #$100
3CB2	FFFF		SUB R15, #$100
3CB4	FFFF		SUB R15, #$100
3CB6	FFFF		SUB R15, #$100
3CB8	FFFF		SUB R15, #$100
3CBA	FFFF		SUB R15, #$100
3CBC	FFFF		SUB R15, #$100
3CBE	FFFF		SUB R15, #$100
3CC0	FFFF		SUB R15, #$100
3CC2	FFFF		SUB R15, #$100
3CC4	FFFF		SUB R15, #$100
3CC6	FFFF		SUB R15, #$100
3CC8	FFFF		SUB R15, #$100
3CCA	FFFF		SUB R15, #$100
3CCC	FFFF		SUB R15, #$100
3CCE	FFFF		SUB R15, #$100
3CD0	FFFF		SUB R15, #$100
3CD2	FFFF		SUB R15, #$100
3CD4	FFFF		SUB R15, #$100
3CD6	FFFF		SUB R15, #$100
3CD8	FFFF		SUB R15, #$100
3CDA	FFFF		SUB R15, #$100
3CDC	FFFF		SUB R15, #$100
3CDE	FFFF		SUB R15, #$100
3CE0	FFFF		SUB R15, #$100
3CE2	FFFF		SUB R15, #$100
3CE4	FFFF		SUB R15, #$100
3CE6	FFFF		SUB R15, #$100
3CE8	FFFF		SUB R15, #$100
3CEA	FFFF		SUB R15, #$100
3CEC	FFFF		SUB R15, #$100
3CEE	FFFF		SUB R15, #$100
3CF0	FFFF		SUB R15, #$100
3CF2	FFFF		SUB R15, #$100
3CF4	FFFF		SUB R15, #$100
3CF6	FFFF		SUB R15, #$100
3CF8	FFFF		SUB R15, #$100
3CFA	FFFF		SUB R15, #$100
3CFC	FFFF		SUB R15, #$100
3CFE	FFFF		SUB R15, #$100
3D00	FFFF		SUB R15, #$100
3D02	FFFF		SUB R15, #$100
3D04	FFFF		SUB R15, #$100
3D06	FFFF		SUB R15, #$100
3D08	FFFF		SUB R15, #$100
3D0A	FFFF		SUB R15, #$100
3D0C	FFFF		SUB R15, #$100
3D0E	FFFF		SUB R15, #$100
3D10	FFFF		SUB R15, #$100
3D12	FFFF		SUB R15, #$100
3D14	FFFF		SUB R15, #$100
3D16	FFFF		SUB R15, #$100
3D18	FFFF		SUB R15, #$100
3D1A	FFFF		SUB R15, #$100
3D1C	FFFF		SUB R15, #$100
3D1E	FFFF		SUB R15, #$100
3D20	FFFF		SUB R15, #$100
3D22	FFFF		SUB R15, #$100
3D24	FFFF		SUB R15, #$100
3D26	FFFF		SUB R15, #$100
3D28	FFFF		SUB R15, #$100
3D2A	FFFF		SUB R15, #$100
3D2C	FFFF		SUB R15, #$100
3D2E	FFFF		SUB R15, #$100
3D30	FFFF		SUB R15, #$100
3D32	FFFF		SUB R15, #$100
3D34	FFFF		SUB R15, #$100
3D36	FFFF		SUB R15, #$100
3D38	FFFF		SUB R15, #$100
3D3A	FFFF		SUB R15, #$100
3D3C	FFFF		SUB R15, #$100
3D3E	FFFF		SUB R15, #$100
3D40	FFFF		SUB R15, #$100
3D42	FFFF		SUB R15, #$100
3D44	FFFF		SUB R15, #$100
3D46	FFFF		SUB R15, #$100
3D48	FFFF		SUB R15, #$100
3D4A	FFFF		SUB R15, #$100
3D4C	FFFF		SUB R15, #$100
3D4E	FFFF		SUB R15, #$100
3D50	FFFF		SUB R15, #$100
3D52	FFFF		SUB R15, #$100
3D54	FFFF		SUB R15, #$100
3D56	FFFF		SUB R15, #$100
3D58	FFFF		SUB R15, #$100
3D5A	FFFF		SUB R15, #$100
3D5C	FFFF		SUB R15, #$100
3D5E	FFFF		SUB R15, #$100
3D60	FFFF		SUB R15, #$100
3D62	FFFF		SUB R15, #$100
3D64	FFFF		SUB R15, #$100
3D66	FFFF		SUB R15, #$100
3D68	FFFF		SUB R15, #$100
3D6A	FFFF		SUB R15, #$100
3D6C	FFFF		SUB R15, #$100
3D6E	FFFF		SUB R15, #$100
3D70	FFFF		SUB R15, #$100
3D72	FFFF		SUB R15, #$100
3D74	FFFF		SUB R15, #$100
3D76	FFFF		SUB R15, #$100
3D78	FFFF		SUB R15, #$100
3D7A	FFFF		SUB R15, #$100
3D7C	FFFF		SUB R15, #$100
3D7E	FFFF		SUB R15, #$100
3D80	FFFF		SUB R15, #$100
3D82	FFFF		SUB R15, #$100
3D84	FFFF		SUB R15, #$100
3D86	FFFF		SUB R15, #$100
3D88	FFFF		SUB R15, #$100
3D8A	FFFF		SUB R15, #$100
3D8C	FFFF		SUB R15, #$100
3D8E	FFFF		SUB R15, #$100
3D90	FFFF		SUB R15, #$100
3D92	FFFF		SUB R15, #$100
3D94	FFFF		SUB R15, #$100
3D96	FFFF		SUB R15, #$100
3D98	FFFF		SUB R15, #$100
3D9A	FFFF		SUB R15, #$100
3D9C	FFFF		SUB R15, #$100
3D9E	FFFF		SUB R15, #$100
3DA0	FFFF		SUB R15, #$100
3DA2	FFFF		SUB R15, #$100
3DA4	FFFF		SUB R15, #$100
3DA6	FFFF		SUB R15, #$100
3DA8	FFFF		SUB R15, #$100
3DAA	FFFF		SUB R15, #$100
3DAC	FFFF		SUB R15, #$100
3DAE	FFFF		SUB R15, #$100
3DB0	FFFF		SUB R15, #$100
3DB2	FFFF		SUB R15, #$100
3DB4	FFFF		SUB R15, #$100
3DB6	FFFF		SUB R15, #$100
3DB8	FFFF		SUB R15, #$100
3DBA	FFFF		SUB R15, #$100
3DBC	FFFF		SUB R15, #$100
3DBE	FFFF		SUB R15, #$100
3DC0	FFFF		SUB R15, #$100
3DC2	FFFF		SUB R15, #$100
3DC4	FFFF		SUB R15, #$100
3DC6	FFFF		SUB R15, #$100
3DC8	FFFF		SUB R15, #$100
3DCA	FFFF		SUB R15, #$100
3DCC	FFFF		SUB R15, #$100
3DCE	FFFF		SUB R15, #$100
3DD0	FFFF		SUB R15, #$100
3DD2	FFFF		SUB R15, #$100
3DD4	FFFF		SUB R15, #$100
3DD6	FFFF		SUB R15, #$100
3DD8	FFFF		SUB R15, #$100
3DDA	FFFF		SUB R15, #$100
3DDC	FFFF		SUB R15, #$100
3DDE	FFFF		SUB R15, #$100
3DE0	FFFF		SUB R15, #$100
3DE2	FFFF		SUB R15, #$100
3DE4	FFFF		SUB R15, #$100
3DE6	FFFF		SUB R15, #$100
3DE8	FFFF		SUB R15, #$100
3DEA	FFFF		SUB R15, #$100
3DEC	FFFF		SUB R15, #$100
3DEE	FFFF		SUB R15, #$100
3DF0	FFFF		SUB R15, #$100
3DF2	FFFF		SUB R15, #$100
3DF4	FFFF		SUB R15, #$100
3DF6	FFFF		SUB R15, #$100
3DF8	FFFF		SUB R15, #$100
3DFA	FFFF		SUB R15, #$100
3DFC	FFFF		SUB R15, #$100
3DFE	FFFF		SUB R15, #$100
3E00	FFFF		SUB R15, #$100
3E02	FFFF		SUB R15, #$100
3E04	FFFF		SUB R15, #$100
3E06	FFFF		SUB R15, #$100
3E08	FFFF		SUB R15, #$100
3E0A	FFFF		SUB R15, #$100
3E0C	FFFF		SUB R15, #$100
3E0E	FFFF		SUB R15, #$100
3E10	FFFF		SUB R15, #$100
3E12	FFFF		SUB R15, #$100
3E14	FFFF		SUB R15, #$100
3E16	FFFF		SUB R15, #$100
3E18	FFFF		SUB R15, #$100
3E1A	FFFF		SUB R15, #$100
3E1C	FFFF		SUB R15, #$100
3E1E	FFFF		SUB R15, #$100
3E20	FFFF		SUB R15, #$100
3E22	FFFF		SUB R15, #$100
3E24	FFFF		SUB R15, #$100
3E26	FFFF		SUB R15, #$100
3E28	FFFF		SUB R15, #$100
3E2A	FFFF		SUB R15, #$100
3E2C	FFFF		SUB R15, #$100
3E2E	FFFF		SUB R15, #$100
3E30	FFFF		SUB R15, #$100
3E32	FFFF		SUB R15, #$100
3E34	FFFF		SUB R15, #$100
3E36	FFFF		SUB R15, #$100
3E38	FFFF		SUB R15, #$100
3E3A	FFFF		SUB R15, #$100
3E3C	FFFF		SUB R15, #$100
3E3E	FFFF		SUB R15, #$100
3E40	FFFF		SUB R15, #$100
3E42	FFFF		SUB R15, #$100
3E44	FFFF		SUB R15, #$100
3E46	FFFF		SUB R15, #$100
3E48	FFFF		SUB R15, #$100
3E4A	FFFF		SUB R15, #$100
3E4C	FFFF		SUB R15, #$100
3E4E	FFFF		SUB R15, #$100
3E50	FFFF		SUB R15, #$100
3E52	FFFF		SUB R15, #$100
3E54	FFFF		SUB R15, #$100
3E56	FFFF		SUB R15, #$100
3E58	FFFF		SUB R15, #$100
3E5A	FFFF		SUB R15, #$100
3E5C	FFFF		SUB R15, #$100
3E5E	FFFF		SUB R15, #$100
3E60	FFFF		SUB R15, #$100
3E62	FFFF		SUB R15, #$100
3E64	FFFF		SUB R15, #$100
3E66	FFFF		SUB R15, #$100
3E68	FFFF		SUB R15, #$100
3E6A	FFFF		SUB R15, #$100
3E6C	FFFF		SUB R15, #$100
3E6E	FFFF		SUB R15, #$100
3E70	FFFF		SUB R15, #$100
3E72	FFFF		SUB R15, #$100
3E74	FFFF		SUB R15, #$100
3E76	FFFF		SUB R15, #$100
3E78	FFFF		SUB R15, #$100
3E7A	FFFF		SUB R15, #$100
3E7C	FFFF		SUB R15, #$100
3E7E	FFFF		SUB R15, #$100
3E80	FFFF		SUB R15, #$100
3E82	FFFF		SUB R15, #$100
3E84	FFFF		SUB R15, #$100
3E86	FFFF		SUB R15, #$100
3E88	FFFF		SUB R15, #$100
3E8A	FFFF		SUB R15, #$100
3E8C	FFFF		SUB R15, #$100
3E8E	FFFF		SUB R15, #$100
3E90	FFFF		SUB R15, #$100
3E92	FFFF		SUB R15, #$100
3E94	FFFF		SUB R15, #$100
3E96	FFFF		SUB R15, #$100
3E98	FFFF		SUB R15, #$100
3E9A	FFFF		SUB R15, #$100
3E9C	FFFF		SUB R15, #$100
3E9E	FFFF		SUB R15, #$100
3EA0	FFFF		SUB R15, #$100
3EA2	FFFF		SUB R15, #$100
3EA4	FFFF		SUB R15, #$100
3EA6	FFFF		SUB R15, #$100
3EA8	FFFF		SUB R15, #$100
3EAA	FFFF		SUB R15, #$100
3EAC	FFFF		SUB R15, #$100
3EAE	FFFF		SUB R15, #$100
3EB0	FFFF		SUB R15, #$100
3EB2	FFFF		SUB R15, #$100
3EB4	FFFF		SUB R15, #$100
3EB6	FFFF		SUB R15, #$100
3EB8	FFFF		SUB R15, #$100
3EBA	FFFF		SUB R15, #$100
3EBC	FFFF		SUB R15, #$100
3EBE	FFFF		SUB R15, #$100
3EC0	FFFF		SUB R15, #$100
3EC2	FFFF		SUB R15, #$100
3EC4	FFFF		SUB R15, #$100
3EC6	FFFF		SUB R15, #$100
3EC8	FFFF		SUB R15, #$100
3ECA	FFFF		SUB R15, #$100
3ECC	FFFF		SUB R15, #$100
3ECE	FFFF		SUB R15, #$100
3ED0	FFFF		SUB R15, #$100
3ED2	FFFF		SUB R15, #$100
3ED4	FFFF		SUB R15, #$100
3ED6	FFFF		SUB R15, #$100
3ED8	FFFF		SUB R15, #$100
3EDA	FFFF		SUB R15, #$100
3EDC	FFFF		SUB R15, #$100
3EDE	FFFF		SUB R15, #$100
3EE0	FFFF		SUB R15, #$100
3EE2	FFFF		SUB R15, #$100
3EE4	FFFF		SUB R15, #$100
3EE6	FFFF		SUB R15, #$100
3EE8	FFFF		SUB R15, #$100
3EEA	FFFF		SUB R15, #$100
3EEC	FFFF		SUB R15, #$100
3EEE	FFFF		SUB R15, #$100
3EF0	FFFF		SUB R15, #$100
3EF2	FFFF		SUB R15, #$100
3EF4	FFFF		SUB R15, #$100
3EF6	FFFF		SUB R15, #$100
3EF8	FFFF		SUB R15, #$100
3EFA	FFFF		SUB R15, #$100
3EFC	FFFF		SUB R15, #$100
3EFE	FFFF		SUB R15, #$100
3F00	FFFF		SUB R15, #$100
3F02	FFFF		SUB R15, #$100
3F04	FFFF		SUB R15, #$100
3F06	FFFF		SUB R15, #$100
3F08	FFFF		SUB R15, #$100
3F0A	FFFF		SUB R15, #$100
3F0C	FFFF		SUB R15, #$100
3F0E	FFFF		SUB R15, #$100
3F10	FFFF		SUB R15, #$100
3F12	FFFF		SUB R15, #$100
3F14	FFFF		SUB R15, #$100
3F16	FFFF		SUB R15, #$100
3F18	FFFF		SUB R15, #$100
3F1A	FFFF		SUB R15, #$100
3F1C	FFFF		SUB R15, #$100
3F1E	FFFF		SUB R15, #$100
3F20	FFFF		SUB R15, #$100
3F22	FFFF		SUB R15, #$100
3F24	FFFF		SUB R15, #$100
3F26	FFFF		SUB R15, #$100
3F28	FFFF		SUB R15, #$100
3F2A	FFFF		SUB R15, #$100
3F2C	FFFF		SUB R15, #$100
3F2E	FFFF		SUB R15, #$100
3F30	FFFF		SUB R15, #$100
3F32	FFFF		SUB R15, #$100
3F34	FFFF		SUB R15, #$100
3F36	FFFF		SUB R15, #$100
3F38	FFFF		SUB R15, #$100
3F3A	FFFF		SUB R15, #$100
3F3C	FFFF		SUB R15, #$100
3F3E	FFFF		SUB R15, #$100
3F40	FFFF		SUB R15, #$100
3F42	FFFF		SUB R15, #$100
3F44	FFFF		SUB R15, #$100
3F46	FFFF		SUB R15, #$100
3F48	FFFF		SUB R15, #$100
3F4A	FFFF		SUB R15, #$100
3F4C	FFFF		SUB R15, #$100
3F4E	FFFF		SUB R15, #$100
3F50	FFFF		SUB R15, #$100
3F52	FFFF		SUB R15, #$100
3F54	FFFF		SUB R15, #$100
3F56	FFFF		SUB R15, #$100
3F58	FFFF		SUB R15, #$100
3F5A	FFFF		SUB R15, #$100
3F5C	FFFF		SUB R15, #$100
3F5E	FFFF		SUB R15, #$100
3F60	FFFF		SUB R15, #$100
3F62	FFFF		SUB R15, #$100
3F64	FFFF		SUB R15, #$100
3F66	FFFF		SUB R15, #$100
3F68	FFFF		SUB R15, #$100
3F6A	FFFF		SUB R15, #$100
3F6C	FFFF		SUB R15, #$100
3F6E	FFFF		SUB R15, #$100
3F70	FFFF		SUB R15, #$100
3F72	FFFF		SUB R15, #$100
3F74	FFFF		SUB R15, #$100
3F76	FFFF		SUB R15, #$100
3F78	FFFF		SUB R15, #$100
3F7A	FFFF		SUB R15, #$100
3F7C	FFFF		SUB R15, #$100
3F7E	FFFF		SUB R15, #$100
3F80	FFFF		SUB R15, #$100
3F82	FFFF		SUB R15, #$100
3F84	FFFF		SUB R15, #$100
3F86	FFFF		SUB R15, #$100
3F88	FFFF		SUB R15, #$100
3F8A	FFFF		SUB R15, #$100
3F8C	FFFF		SUB R15, #$100
3F8E	FFFF		SUB R15, #$100
3F90	FFFF		SUB R15, #$100
3F92	FFFF		SUB R15, #$100
3F94	FFFF		SUB R15, #$100
3F96	FFFF		SUB R15, #$100
3F98	FFFF		SUB R15, #$100
3F9A	FFFF		SUB R15, #$100
3F9C	FFFF		SUB R15, #$100
3F9E	FFFF		SUB R15, #$100
3FA0	FFFF		SUB R15, #$100
3FA2	FFFF		SUB R15, #$100
3FA4	FFFF		SUB R15, #$100
3FA6	FFFF		SUB R15, #$100
3FA8	FFFF		SUB R15, #$100
3FAA	FFFF		SUB R15, #$100
3FAC	FFFF		SUB R15, #$100
3FAE	FFFF		SUB R15, #$100
3FB0	FFFF		SUB R15, #$100
3FB2	FFFF		SUB R15, #$100
3FB4	FFFF		SUB R15, #$100
3FB6	FFFF		SUB R15, #$100
3FB8	FFFF		SUB R15, #$100
3FBA	FFFF		SUB R15, #$100
3FBC	FFFF		SUB R15, #$100
3FBE	FFFF		SUB R15, #$100
3FC0	FFFF		SUB R15, #$100
3FC2	FFFF		SUB R15, #$100
3FC4	FFFF		SUB R15, #$100
3FC6	FFFF		SUB R15, #$100
3FC8	FFFF		SUB R15, #$100
3FCA	FFFF		SUB R15, #$100
3FCC	FFFF		SUB R15, #$100
3FCE	FFFF		SUB R15, #$100
3FD0	FFFF		SUB R15, #$100
3FD2	FFFF		SUB R15, #$100
3FD4	FFFF		SUB R15, #$100
3FD6	FFFF		SUB R15, #$100
3FD8	FFFF		SUB R15, #$100
3FDA	FFFF		SUB R15, #$100
3FDC	FFFF		SUB R15, #$100
3FDE	FFFF		SUB R15, #$100
3FE0	FFFF		SUB R15, #$100
3FE2	FFFF		SUB R15, #$100
3FE4	FFFF		SUB R15, #$100
3FE6	FFFF		SUB R15, #$100
3FE8	FFFF		SUB R15, #$100
3FEA	FFFF		SUB R15, #$100
3FEC	FFFF		SUB R15, #$100
3FEE	FFFF		SUB R15, #$100
3FF0	FFFF		SUB R15, #$100
3FF2	FFFF		SUB R15, #$100
3FF4	FFFF		SUB R15, #$100
3FF6	FFFF		SUB R15, #$100
3FF8	FFFF		SUB R15, #$100
3FFA	FFFF		SUB R15, #$100
3FFC	FFFF		SUB R15, #$100
3FFE	FFFF		SUB R15, #$100
4000	FFFF		SUB R15, #$100
4002	FFFF		SUB R15, #$100
4004	FFFF		SUB R15, #$100
4006	FFFF		SUB R15, #$100
4008	FFFF		SUB R15, #$100
400A	FFFF		SUB R15, #$100
400C	FFFF		SUB R15, #$100
400E	FFFF		SUB R15, #$100
4010	FFFF		SUB R15, #$100
4012	FFFF		SUB R15, #$100
4014	FFFF		SUB R15, #$100
4016	FFFF		SUB R15, #$100
4018	FFFF		SUB R15, #$100
401A	FFFF		SUB R15, #$100
401C	FFFF		SUB R15, #$100
401E	FFFF		SUB R15, #$100
4020	FFFF		SUB R15, #$100
4022	FFFF		SUB R15, #$100
4024	FFFF		SUB R15, #$100
4026	FFFF		SUB R15, #$100
4028	FFFF		SUB R15, #$100
402A	FFFF		SUB R15, #$100
402C	FFFF		SUB R15, #$100
402E	FFFF		SUB R15, #$100
4030	FFFF		SUB R15, #$100
4032	FFFF		SUB R15, #$100
4034	FFFF		SUB R15, #$100
4036	FFFF		SUB R15, #$100
4038	FFFF		SUB R15, #$100
403A	FFFF		SUB R15, #$100
403C	FFFF		SUB R15, #$100
403E	FFFF		SUB R15, #$100
4040	FFFF		SUB R15, #$100
4042	FFFF		SUB R15, #$100
4044	FFFF		SUB R15, #$100
4046	FFFF		SUB R15, #$100
4048	FFFF		SUB R15, #$100
404A	FFFF		SUB R15, #$100
404C	FFFF		SUB R15, #$100
404E	FFFF		SUB R15, #$100
4050	FFFF		SUB R15, #$100
4052	FFFF		SUB R15, #$100
4054	FFFF		SUB R15, #$100
4056	FFFF		SUB R15, #$100
4058	FFFF		SUB R15, #$100
405A	FFFF		SUB R15, #$100
405C	FFFF		SUB R15, #$100
405E	FFFF		SUB R15, #$100
4060	FFFF		SUB R15, #$100
4062	FFFF		SUB R15, #$100
4064	FFFF		SUB R15, #$100
4066	FFFF		SUB R15, #$100
4068	FFFF		SUB R15, #$100
406A	FFFF		SUB R15, #$100
406C	FFFF		SUB R15, #$100
406E	FFFF		SUB R15, #$100
4070	FFFF		SUB R15, #$100
4072	FFFF		SUB R15, #$100
4074	FFFF		SUB R15, #$100
4076	FFFF		SUB R15, #$100
4078	FFFF		SUB R15, #$100
407A	FFFF		SUB R15, #$100
407C	FFFF		SUB R15, #$100
407E	FFFF		SUB R15, #$100
4080	FFFF		SUB R15, #$100
4082	FFFF		SUB R15, #$100
4084	FFFF		SUB R15, #$100
4086	FFFF		SUB R15, #$100
4088	FFFF		SUB R15, #$100
408A	FFFF		SUB R15, #$100
408C	FFFF		SUB R15, #$100
408E	FFFF		SUB R15, #$100
4090	FFFF		SUB R15, #$100
4092	FFFF		SUB R15, #$100
4094	FFFF		SUB R15, #$100
4096	FFFF		SUB R15, #$100
4098	FFFF		SUB R15, #$100
409A	FFFF		SUB R15, #$100
409C	FFFF		SUB R15, #$100
409E	FFFF		SUB R15, #$100
40A0	FFFF		SUB R15, #$100
40A2	FFFF		SUB R15, #$100
40A4	FFFF		SUB R15, #$100
40A6	FFFF		SUB R15, #$100
40A8	FFFF		SUB R15, #$100
40AA	FFFF		SUB R15, #$100
40AC	FFFF		SUB R15, #$100
40AE	FFFF		SUB R15, #$100
40B0	FFFF		SUB R15, #$100
40B2	FFFF		SUB R15, #$100
40B4	FFFF		SUB R15, #$100
40B6	FFFF		SUB R15, #$100
40B8	FFFF		SUB R15, #$100
40BA	FFFF		SUB R15, #$100
40BC	FFFF		SUB R15, #$100
40BE	FFFF		SUB R15, #$100
40C0	FFFF		SUB R15, #$100
40C2	FFFF		SUB R15, #$100
40C4	FFFF		SUB R15, #$100
40C6	FFFF		SUB R15, #$100
40C8	FFFF		SUB R15, #$100
40CA	FFFF		SUB R15, #$100
40CC	FFFF		SUB R15, #$100
40CE	FFFF		SUB R15, #$100
40D0	FFFF		SUB R15, #$100
40D2	FFFF		SUB R15, #$100
40D4	FFFF		SUB R15, #$100
40D6	FFFF		SUB R15, #$100
40D8	FFFF		SUB R15, #$100
40DA	FFFF		SUB R15, #$100
40DC	FFFF		SUB R15, #$100
40DE	FFFF		SUB R15, #$100
40E0	FFFF		SUB R15, #$100
40E2	FFFF		SUB R15, #$100
40E4	FFFF		SUB R15, #$100
40E6	FFFF		SUB R15, #$100
40E8	FFFF		SUB R15, #$100
40EA	FFFF		SUB R15, #$100
40EC	FFFF		SUB R15, #$100
40EE	FFFF		SUB R15, #$100
40F0	FFFF		SUB R15, #$100
40F2	FFFF		SUB R15, #$100
40F4	FFFF		SUB R15, #$100
40F6	FFFF		SUB R15, #$100
40F8	FFFF		SUB R15, #$100
40FA	FFFF		SUB R15, #$100
40FC	FFFF		SUB R15, #$100
40FE	FFFF		SUB R15, #$100
4100	FFFF		SUB R15, #$100
4102	FFFF		SUB R15, #$100
4104	FFFF		SUB R15, #$100
4106	FFFF		SUB R15, #$100
4108	FFFF		SUB R15, #$100
410A	FFFF		SUB R15, #$100
410C	FFFF		SUB R15, #$100
410E	FFFF		SUB R15, #$100
4110	FFFF		SUB R15, #$100
4112	FFFF		SUB R15, #$100
4114	FFFF		SUB R15, #$100
4116	FFFF		SUB R15, #$100
4118	FFFF		SUB R15, #$100
411A	FFFF		SUB R15, #$100
411C	FFFF		SUB R15, #$100
411E	FFFF		SUB R15, #$100
4120	FFFF		SUB R15, #$100
4122	FFFF		SUB R15, #$100
4124	FFFF		SUB R15, #$100
4126	FFFF		SUB R15, #$100
4128	FFFF		SUB R15, #$100
412A	FFFF		SUB R15, #$100
412C	FFFF		SUB R15, #$100
412E	FFFF		SUB R15, #$100
4130	FFFF		SUB R15, #$100
4132	FFFF		SUB R15, #$100
4134	FFFF		SUB R15, #$100
4136	FFFF		SUB R15, #$100
4138	FFFF		SUB R15, #$100
413A	FFFF		SUB R15, #$100
413C	FFFF		SUB R15, #$100
413E	FFFF		SUB R15, #$100
4140	FFFF		SUB R15, #$100
4142	FFFF		SUB R15, #$100
4144	FFFF		SUB R15, #$100
4146	FFFF		SUB R15, #$100
4148	FFFF		SUB R15, #$100
414A	FFFF		SUB R15, #$100
414C	FFFF		SUB R15, #$100
414E	FFFF		SUB R15, #$100
4150	FFFF		SUB R15, #$100
4152	FFFF		SUB R15, #$100
4154	FFFF		SUB R15, #$100
4156	FFFF		SUB R15, #$100
4158	FFFF		SUB R15, #$100
415A	FFFF		SUB R15, #$100
415C	FFFF		SUB R15, #$100
415E	FFFF		SUB R15, #$100
4160	FFFF		SUB R15, #$100
4162	FFFF		SUB R15, #$100
4164	FFFF		SUB R15, #$100
4166	FFFF		SUB R15, #$100
4168	FFFF		SUB R15, #$100
416A	FFFF		SUB R15, #$100
416C	FFFF		SUB R15, #$100
416E	FFFF		SUB R15, #$100
4170	FFFF		SUB R15, #$100
4172	FFFF		SUB R15, #$100
4174	FFFF		SUB R15, #$100
4176	FFFF		SUB R15, #$100
4178	FFFF		SUB R15, #$100
417A	FFFF		SUB R15, #$100
417C	FFFF		SUB R15, #$100
417E	FFFF		SUB R15, #$100
4180	FFFF		SUB R15, #$100
4182	FFFF		SUB R15, #$100
4184	FFFF		SUB R15, #$100
4186	FFFF		SUB R15, #$100
4188	FFFF		SUB R15, #$100
418A	FFFF		SUB R15, #$100
418C	FFFF		SUB R15, #$100
418E	FFFF		SUB R15, #$100
4190	FFFF		SUB R15, #$100
4192	FFFF		SUB R15, #$100
4194	FFFF		SUB R15, #$100
4196	FFFF		SUB R15, #$100
4198	FFFF		SUB R15, #$100
419A	FFFF		SUB R15, #$100
419C	FFFF		SUB R15, #$100
419E	FFFF		SUB R15, #$100
41A0	FFFF		SUB R15, #$100
41A2	FFFF		SUB R15, #$100
41A4	FFFF		SUB R15, #$100
41A6	FFFF		SUB R15, #$100
41A8	FFFF		SUB R15, #$100
41AA	FFFF		SUB R15, #$100
41AC	FFFF		SUB R15, #$100
41AE	FFFF		SUB R15, #$100
41B0	FFFF		SUB R15, #$100
41B2	FFFF		SUB R15, #$100
41B4	FFFF		SUB R15, #$100
41B6	FFFF		SUB R15, #$100
41B8	FFFF		SUB R15, #$100
41BA	FFFF		SUB R15, #$100
41BC	FFFF		SUB R15, #$100
41BE	FFFF		SUB R15, #$100
41C0	FFFF		SUB R15, #$100
41C2	FFFF		SUB R15, #$100
41C4	FFFF		SUB R15, #$100
41C6	FFFF		SUB R15, #$100
41C8	FFFF		SUB R15, #$100
41CA	FFFF		SUB R15, #$100
41CC	FFFF		SUB R15, #$100
41CE	FFFF		SUB R15, #$100
41D0	FFFF		SUB R15, #$100
41D2	FFFF		SUB R15, #$100
41D4	FFFF		SUB R15, #$100
41D6	FFFF		SUB R15, #$100
41D8	FFFF		SUB R15, #$100
41DA	FFFF		SUB R15, #$100
41DC	FFFF		SUB R15, #$100
41DE	FFFF		SUB R15, #$100
41E0	FFFF		SUB R15, #$100
41E2	FFFF		SUB R15, #$100
41E4	FFFF		SUB R15, #$100
41E6	FFFF		SUB R15, #$100
41E8	FFFF		SUB R15, #$100
41EA	FFFF		SUB R15, #$100
41EC	FFFF		SUB R15, #$100
41EE	FFFF		SUB R15, #$100
41F0	FFFF		SUB R15, #$100
41F2	FFFF		SUB R15, #$100
41F4	FFFF		SUB R15, #$100
41F6	FFFF		SUB R15, #$100
41F8	FFFF		SUB R15, #$100
41FA	FFFF		SUB R15, #$100
41FC	FFFF		SUB R15, #$100
41FE	FFFF		SUB R15, #$100
4200	FFFF		SUB R15, #$100
4202	FFFF		SUB R15, #$100
4204	FFFF		SUB R15, #$100
4206	FFFF		SUB R15, #$100
4208	FFFF		SUB R15, #$100
420A	FFFF		SUB R15, #$100
420C	FFFF		SUB R15, #$100
420E	FFFF		SUB R15, #$100
4210	FFFF		SUB R15, #$100
4212	FFFF		SUB R15, #$100
4214	FFFF		SUB R15, #$100
4216	FFFF		SUB R15, #$100
4218	FFFF		SUB R15, #$100
421A	FFFF		SUB R15, #$100
421C	FFFF		SUB R15, #$100
421E	FFFF		SUB R15, #$100
4220	FFFF		SUB R15, #$100
4222	FFFF		SUB R15, #$100
4224	FFFF		SUB R15, #$100
4226	FFFF		SUB R15, #$100
4228	FFFF		SUB R15, #$100
422A	FFFF		SUB R15, #$100
422C	FFFF		SUB R15, #$100
422E	FFFF		SUB R15, #$100
4230	FFFF		SUB R15, #$100
4232	FFFF		SUB R15, #$100
4234	FFFF		SUB R15, #$100
4236	FFFF		SUB R15, #$100
4238	FFFF		SUB R15, #$100
423A	FFFF		SUB R15, #$100
423C	FFFF		SUB R15, #$100
423E	FFFF		SUB R15, #$100
4240	FFFF		SUB R15, #$100
4242	FFFF		SUB R15, #$100
4244	FFFF		SUB R15, #$100
4246	FFFF		SUB R15, #$100
4248	FFFF		SUB R15, #$100
424A	FFFF		SUB R15, #$100
424C	FFFF		SUB R15, #$100
424E	FFFF		SUB R15, #$100
4250	FFFF		SUB R15, #$100
4252	FFFF		SUB R15, #$100
4254	FFFF		SUB R15, #$100
4256	FFFF		SUB R15, #$100
4258	FFFF		SUB R15, #$100
425A	FFFF		SUB R15, #$100
425C	FFFF		SUB R15, #$100
425E	FFFF		SUB R15, #$100
4260	FFFF		SUB R15, #$100
4262	FFFF		SUB R15, #$100
4264	FFFF		SUB R15, #$100
4266	FFFF		SUB R15, #$100
4268	FFFF		SUB R15, #$100
426A	FFFF		SUB R15, #$100
426C	FFFF		SUB R15, #$100
426E	FFFF		SUB R15, #$100
4270	FFFF		SUB R15, #$100
4272	FFFF		SUB R15, #$100
4274	FFFF		SUB R15, #$100
4276	FFFF		SUB R15, #$100
4278	FFFF		SUB R15, #$100
427A	FFFF		SUB R15, #$100
427C	FFFF		SUB R15, #$100
427E	FFFF		SUB R15, #$100
4280	FFFF		SUB R15, #$100
4282	FFFF		SUB R15, #$100
4284	FFFF		SUB R15, #$100
4286	FFFF		SUB R15, #$100
4288	FFFF		SUB R15, #$100
428A	FFFF		SUB R15, #$100
428C	FFFF		SUB R15, #$100
428E	FFFF		SUB R15, #$100
4290	FFFF		SUB R15, #$100
4292	FFFF		SUB R15, #$100
4294	FFFF		SUB R15, #$100
4296	FFFF		SUB R15, #$100
4298	FFFF		SUB R15, #$100
429A	FFFF		SUB R15, #$100
429C	FFFF		SUB R15, #$100
429E	FFFF		SUB R15, #$100
42A0	FFFF		SUB R15, #$100
42A2	FFFF		SUB R15, #$100
42A4	FFFF		SUB R15, #$100
42A6	FFFF		SUB R15, #$100
42A8	FFFF		SUB R15, #$100
42AA	FFFF		SUB R15, #$100
42AC	FFFF		SUB R15, #$100
42AE	FFFF		SUB R15, #$100
42B0	FFFF		SUB R15, #$100
42B2	FFFF		SUB R15, #$100
42B4	FFFF		SUB R15, #$100
42B6	FFFF		SUB R15, #$100
42B8	FFFF		SUB R15, #$100
42BA	FFFF		SUB R15, #$100
42BC	FFFF		SUB R15, #$100
42BE	FFFF		SUB R15, #$100
42C0	FFFF		SUB R15, #$100
42C2	FFFF		SUB R15, #$100
42C4	FFFF		SUB R15, #$100
42C6	FFFF		SUB R15, #$100
42C8	FFFF		SUB R15, #$100
42CA	FFFF		SUB R15, #$100
42CC	FFFF		SUB R15, #$100
42CE	FFFF		SUB R15, #$100
42D0	FFFF		SUB R15, #$100
42D2	FFFF		SUB R15, #$100
42D4	FFFF		SUB R15, #$100
42D6	FFFF		SUB R15, #$100
42D8	FFFF		SUB R15, #$100
42DA	FFFF		SUB R15, #$100
42DC	FFFF		SUB R15, #$100
42DE	FFFF		SUB R15, #$100
42E0	FFFF		SUB R15, #$100
42E2	FFFF		SUB R15, #$100
42E4	FFFF		SUB R15, #$100
42E6	FFFF		SUB R15, #$100
42E8	FFFF		SUB R15, #$100
42EA	FFFF		SUB R15, #$100
42EC	FFFF		SUB R15, #$100
42EE	FFFF		SUB R15, #$100
42F0	FFFF		SUB R15, #$100
42F2	FFFF		SUB R15, #$100
42F4	FFFF		SUB R15, #$100
42F6	FFFF		SUB R15, #$100
42F8	FFFF		SUB R15, #$100
42FA	FFFF		SUB R15, #$100
42FC	FFFF		SUB R15, #$100
42FE	FFFF		SUB R15, #$100
4300	FFFF		SUB R15, #$100
4302	FFFF		SUB R15, #$100
4304	FFFF		SUB R15, #$100
4306	FFFF		SUB R15, #$100
4308	FFFF		SUB R15, #$100
430A	FFFF		SUB R15, #$100
430C	FFFF		SUB R15, #$100
430E	FFFF		SUB R15, #$100
4310	FFFF		SUB R15, #$100
4312	FFFF		SUB R15, #$100
4314	FFFF		SUB R15, #$100
4316	FFFF		SUB R15, #$100
4318	FFFF		SUB R15, #$100
431A	FFFF		SUB R15, #$100
431C	FFFF		SUB R15, #$100
431E	FFFF		SUB R15, #$100
4320	FFFF		SUB R15, #$100
4322	FFFF		SUB R15, #$100
4324	FFFF		SUB R15, #$100
4326	FFFF		SUB R15, #$100
4328	FFFF		SUB R15, #$100
432A	FFFF		SUB R15, #$100
432C	FFFF		SUB R15, #$100
432E	FFFF		SUB R15, #$100
4330	FFFF		SUB R15, #$100
4332	FFFF		SUB R15, #$100
4334	FFFF		SUB R15, #$100
4336	FFFF		SUB R15, #$100
4338	FFFF		SUB R15, #$100
433A	FFFF		SUB R15, #$100
433C	FFFF		SUB R15, #$100
433E	FFFF		SUB R15, #$100
4340	FFFF		SUB R15, #$100
4342	FFFF		SUB R15, #$100
4344	FFFF		SUB R15, #$100
4346	FFFF		SUB R15, #$100
4348	FFFF		SUB R15, #$100
434A	FFFF		SUB R15, #$100
434C	FFFF		SUB R15, #$100
434E	FFFF		SUB R15, #$100
4350	FFFF		SUB R15, #$100
4352	FFFF		SUB R15, #$100
4354	FFFF		SUB R15, #$100
4356	FFFF		SUB R15, #$100
4358	FFFF		SUB R15, #$100
435A	FFFF		SUB R15, #$100
435C	FFFF		SUB R15, #$100
435E	FFFF		SUB R15, #$100
4360	FFFF		SUB R15, #$100
4362	FFFF		SUB R15, #$100
4364	FFFF		SUB R15, #$100
4366	FFFF		SUB R15, #$100
4368	FFFF		SUB R15, #$100
436A	FFFF		SUB R15, #$100
436C	FFFF		SUB R15, #$100
436E	FFFF		SUB R15, #$100
4370	FFFF		SUB R15, #$100
4372	FFFF		SUB R15, #$100
4374	FFFF		SUB R15, #$100
4376	FFFF		SUB R15, #$100
4378	FFFF		SUB R15, #$100
437A	FFFF		SUB R15, #$100
437C	FFFF		SUB R15, #$100
437E	FFFF		SUB R15, #$100
4380	FFFF		SUB R15, #$100
4382	FFFF		SUB R15, #$100
4384	FFFF		SUB R15, #$100
4386	FFFF		SUB R15, #$100
4388	FFFF		SUB R15, #$100
438A	FFFF		SUB R15, #$100
438C	FFFF		SUB R15, #$100
438E	FFFF		SUB R15, #$100
4390	FFFF		SUB R15, #$100
4392	FFFF		SUB R15, #$100
4394	FFFF		SUB R15, #$100
4396	FFFF		SUB R15, #$100
4398	FFFF		SUB R15, #$100
439A	FFFF		SUB R15, #$100
439C	FFFF		SUB R15, #$100
439E	FFFF		SUB R15, #$100
43A0	FFFF		SUB R15, #$100
43A2	FFFF		SUB R15, #$100
43A4	FFFF		SUB R15, #$100
43A6	FFFF		SUB R15, #$100
43A8	FFFF		SUB R15, #$100
43AA	FFFF		SUB R15, #$100
43AC	FFFF		SUB R15, #$100
43AE	FFFF		SUB R15, #$100
43B0	FFFF		SUB R15, #$100
43B2	FFFF		SUB R15, #$100
43B4	FFFF		SUB R15, #$100
43B6	FFFF		SUB R15, #$100
43B8	FFFF		SUB R15, #$100
43BA	FFFF		SUB R15, #$100
43BC	FFFF		SUB R15, #$100
43BE	FFFF		SUB R15, #$100
43C0	FFFF		SUB R15, #$100
43C2	FFFF		SUB R15, #$100
43C4	FFFF		SUB R15, #$100
43C6	FFFF		SUB R15, #$100
43C8	FFFF		SUB R15, #$100
43CA	FFFF		SUB R15, #$100
43CC	FFFF		SUB R15, #$100
43CE	FFFF		SUB R15, #$100
43D0	FFFF		SUB R15, #$100
43D2	FFFF		SUB R15, #$100
43D4	FFFF		SUB R15, #$100
43D6	FFFF		SUB R15, #$100
43D8	FFFF		SUB R15, #$100
43DA	FFFF		SUB R15, #$100
43DC	FFFF		SUB R15, #$100
43DE	FFFF		SUB R15, #$100
43E0	FFFF		SUB R15, #$100
43E2	FFFF		SUB R15, #$100
43E4	FFFF		SUB R15, #$100
43E6	FFFF		SUB R15, #$100
43E8	FFFF		SUB R15, #$100
43EA	FFFF		SUB R15, #$100
43EC	FFFF		SUB R15, #$100
43EE	FFFF		SUB R15, #$100
43F0	FFFF		SUB R15, #$100
43F2	FFFF		SUB R15, #$100
43F4	FFFF		SUB R15, #$100
43F6	FFFF		SUB R15, #$100
43F8	FFFF		SUB R15, #$100
43FA	FFFF		SUB R15, #$100
43FC	FFFF		SUB R15, #$100
43FE	FFFF		SUB R15, #$100
4400	FFFF		SUB R15, #$100
4402	FFFF		SUB R15, #$100
4404	FFFF		SUB R15, #$100
4406	FFFF		SUB R15, #$100
4408	FFFF		SUB R15, #$100
440A	FFFF		SUB R15, #$100
440C	FFFF		SUB R15, #$100
440E	FFFF		SUB R15, #$100
4410	FFFF		SUB R15, #$100
4412	FFFF		SUB R15, #$100
4414	FFFF		SUB R15, #$100
4416	FFFF		SUB R15, #$100
4418	FFFF		SUB R15, #$100
441A	FFFF		SUB R15, #$100
441C	FFFF		SUB R15, #$100
441E	FFFF		SUB R15, #$100
4420	FFFF		SUB R15, #$100
4422	FFFF		SUB R15, #$100
4424	FFFF		SUB R15, #$100
4426	FFFF		SUB R15, #$100
4428	FFFF		SUB R15, #$100
442A	FFFF		SUB R15, #$100
442C	FFFF		SUB R15, #$100
442E	FFFF		SUB R15, #$100
4430	FFFF		SUB R15, #$100
4432	FFFF		SUB R15, #$100
4434	FFFF		SUB R15, #$100
4436	FFFF		SUB R15, #$100
4438	FFFF		SUB R15, #$100
443A	FFFF		SUB R15, #$100
443C	FFFF		SUB R15, #$100
443E	FFFF		SUB R15, #$100
4440	FFFF		SUB R15, #$100
4442	FFFF		SUB R15, #$100
4444	FFFF		SUB R15, #$100
4446	FFFF		SUB R15, #$100
4448	FFFF		SUB R15, #$100
444A	FFFF		SUB R15, #$100
444C	FFFF		SUB R15, #$100
444E	FFFF		SUB R15, #$100
4450	FFFF		SUB R15, #$100
4452	FFFF		SUB R15, #$100
4454	FFFF		SUB R15, #$100
4456	FFFF		SUB R15, #$100
4458	FFFF		SUB R15, #$100
445A	FFFF		SUB R15, #$100
445C	FFFF		SUB R15, #$100
445E	FFFF		SUB R15, #$100
4460	FFFF		SUB R15, #$100
4462	FFFF		SUB R15, #$100
4464	FFFF		SUB R15, #$100
4466	FFFF		SUB R15, #$100
4468	FFFF		SUB R15, #$100
446A	FFFF		SUB R15, #$100
446C	FFFF		SUB R15, #$100
446E	FFFF		SUB R15, #$100
4470	FFFF		SUB R15, #$100
4472	FFFF		SUB R15, #$100
4474	FFFF		SUB R15, #$100
4476	FFFF		SUB R15, #$100
4478	FFFF		SUB R15, #$100
447A	FFFF		SUB R15, #$100
447C	FFFF		SUB R15, #$100
447E	FFFF		SUB R15, #$100
4480	FFFF		SUB R15, #$100
4482	FFFF		SUB R15, #$100
4484	FFFF		SUB R15, #$100
4486	FFFF		SUB R15, #$100
4488	FFFF		SUB R15, #$100
448A	FFFF		SUB R15, #$100
448C	FFFF		SUB R15, #$100
448E	FFFF		SUB R15, #$100
4490	FFFF		SUB R15, #$100
4492	FFFF		SUB R15, #$100
4494	FFFF		SUB R15, #$100
4496	FFFF		SUB R15, #$100
4498	FFFF		SUB R15, #$100
449A	FFFF		SUB R15, #$100
449C	FFFF		SUB R15, #$100
449E	FFFF		SUB R15, #$100
44A0	FFFF		SUB R15, #$100
44A2	FFFF		SUB R15, #$100
44A4	FFFF		SUB R15, #$100
44A6	FFFF		SUB R15, #$100
44A8	FFFF		SUB R15, #$100
44AA	FFFF		SUB R15, #$100
44AC	FFFF		SUB R15, #$100
44AE	FFFF		SUB R15, #$100
44B0	FFFF		SUB R15, #$100
44B2	FFFF		SUB R15, #$100
44B4	FFFF		SUB R15, #$100
44B6	FFFF		SUB R15, #$100
44B8	FFFF		SUB R15, #$100
44BA	FFFF		SUB R15, #$100
44BC	FFFF		SUB R15, #$100
44BE	FFFF		SUB R15, #$100
44C0	FFFF		SUB R15, #$100
44C2	FFFF		SUB R15, #$100
44C4	FFFF		SUB R15, #$100
44C6	FFFF		SUB R15, #$100
44C8	FFFF		SUB R15, #$100
44CA	FFFF		SUB R15, #$100
44CC	FFFF		SUB R15, #$100
44CE	FFFF		SUB R15, #$100
44D0	FFFF		SUB R15, #$100
44D2	FFFF		SUB R15, #$100
44D4	FFFF		SUB R15, #$100
44D6	FFFF		SUB R15, #$100
44D8	FFFF		SUB R15, #$100
44DA	FFFF		SUB R15, #$100
44DC	FFFF		SUB R15, #$100
44DE	FFFF		SUB R15, #$100
44E0	FFFF		SUB R15, #$100
44E2	FFFF		SUB R15, #$100
44E4	FFFF		SUB R15, #$100
44E6	FFFF		SUB R15, #$100
44E8	FFFF		SUB R15, #$100
44EA	FFFF		SUB R15, #$100
44EC	FFFF		SUB R15, #$100
44EE	FFFF		SUB R15, #$100
44F0	FFFF		SUB R15, #$100
44F2	FFFF		SUB R15, #$100
44F4	FFFF		SUB R15, #$100
44F6	FFFF		SUB R15, #$100
44F8	FFFF		SUB R15, #$100
44FA	FFFF		SUB R15, #$100
44FC	FFFF		SUB R15, #$100
44FE	FFFF		SUB R15, #$100
4500	FFFF		SUB R15, #$100
4502	FFFF		SUB R15, #$100
4504	FFFF		SUB R15, #$100
4506	FFFF		SUB R15, #$100
4508	FFFF		SUB R15, #$100
450A	FFFF		SUB R15, #$100
450C	FFFF		SUB R15, #$100
450E	FFFF		SUB R15, #$100
4510	FFFF		SUB R15, #$100
4512	FFFF		SUB R15, #$100
4514	FFFF		SUB R15, #$100
4516	FFFF		SUB R15, #$100
4518	FFFF		SUB R15, #$100
451A	FFFF		SUB R15, #$100
451C	FFFF		SUB R15, #$100
451E	FFFF		SUB R15, #$100
4520	FFFF		SUB R15, #$100
4522	FFFF		SUB R15, #$100
4524	FFFF		SUB R15, #$100
4526	FFFF		SUB R15, #$100
4528	FFFF		SUB R15, #$100
452A	FFFF		SUB R15, #$100
452C	FFFF		SUB R15, #$100
452E	FFFF		SUB R15, #$100
4530	FFFF		SUB R15, #$100
4532	FFFF		SUB R15, #$100
4534	FFFF		SUB R15, #$100
4536	FFFF		SUB R15, #$100
4538	FFFF		SUB R15, #$100
453A	FFFF		SUB R15, #$100
453C	FFFF		SUB R15, #$100
453E	FFFF		SUB R15, #$100
4540	FFFF		SUB R15, #$100
4542	FFFF		SUB R15, #$100
4544	FFFF		SUB R15, #$100
4546	FFFF		SUB R15, #$100
4548	FFFF		SUB R15, #$100
454A	FFFF		SUB R15, #$100
454C	FFFF		SUB R15, #$100
454E	FFFF		SUB R15, #$100
4550	FFFF		SUB R15, #$100
4552	FFFF		SUB R15, #$100
4554	FFFF		SUB R15, #$100
4556	FFFF		SUB R15, #$100
4558	FFFF		SUB R15, #$100
455A	FFFF		SUB R15, #$100
455C	FFFF		SUB R15, #$100
455E	FFFF		SUB R15, #$100
4560	FFFF		SUB R15, #$100
4562	FFFF		SUB R15, #$100
4564	FFFF		SUB R15, #$100
4566	FFFF		SUB R15, #$100
4568	FFFF		SUB R15, #$100
456A	FFFF		SUB R15, #$100
456C	FFFF		SUB R15, #$100
456E	FFFF		SUB R15, #$100
4570	FFFF		SUB R15, #$100
4572	FFFF		SUB R15, #$100
4574	FFFF		SUB R15, #$100
4576	FFFF		SUB R15, #$100
4578	FFFF		SUB R15, #$100
457A	FFFF		SUB R15, #$100
457C	FFFF		SUB R15, #$100
457E	FFFF		SUB R15, #$100
4580	FFFF		SUB R15, #$100
4582	FFFF		SUB R15, #$100
4584	FFFF		SUB R15, #$100
4586	FFFF		SUB R15, #$100
4588	FFFF		SUB R15, #$100
458A	FFFF		SUB R15, #$100
458C	FFFF		SUB R15, #$100
458E	FFFF		SUB R15, #$100
4590	FFFF		SUB R15, #$100
4592	FFFF		SUB R15, #$100
4594	FFFF		SUB R15, #$100
4596	FFFF		SUB R15, #$100
4598	FFFF		SUB R15, #$100
459A	FFFF		SUB R15, #$100
459C	FFFF		SUB R15, #$100
459E	FFFF		SUB R15, #$100
45A0	FFFF		SUB R15, #$100
45A2	FFFF		SUB R15, #$100
45A4	FFFF		SUB R15, #$100
45A6	FFFF		SUB R15, #$100
45A8	FFFF		SUB R15, #$100
45AA	FFFF		SUB R15, #$100
45AC	FFFF		SUB R15, #$100
45AE	FFFF		SUB R15, #$100
45B0	FFFF		SUB R15, #$100
45B2	FFFF		SUB R15, #$100
45B4	FFFF		SUB R15, #$100
45B6	FFFF		SUB R15, #$100
45B8	FFFF		SUB R15, #$100
45BA	FFFF		SUB R15, #$100
45BC	FFFF		SUB R15, #$100
45BE	FFFF		SUB R15, #$100
45C0	FFFF		SUB R15, #$100
45C2	FFFF		SUB R15, #$100
45C4	FFFF		SUB R15, #$100
45C6	FFFF		SUB R15, #$100
45C8	FFFF		SUB R15, #$100
45CA	FFFF		SUB R15, #$100
45CC	FFFF		SUB R15, #$100
45CE	FFFF		SUB R15, #$100
45D0	FFFF		SUB R15, #$100
45D2	FFFF		SUB R15, #$100
45D4	FFFF		SUB R15, #$100
45D6	FFFF		SUB R15, #$100
45D8	FFFF		SUB R15, #$100
45DA	FFFF		SUB R15, #$100
45DC	FFFF		SUB R15, #$100
45DE	FFFF		SUB R15, #$100
45E0	FFFF		SUB R15, #$100
45E2	FFFF		SUB R15, #$100
45E4	FFFF		SUB R15, #$100
45E6	FFFF		SUB R15, #$100
45E8	FFFF		SUB R15, #$100
45EA	FFFF		SUB R15, #$100
45EC	FFFF		SUB R15, #$100
45EE	FFFF		SUB R15, #$100
45F0	FFFF		SUB R15, #$100
45F2	FFFF		SUB R15, #$100
45F4	FFFF		SUB R15, #$100
45F6	FFFF		SUB R15, #$100
45F8	FFFF		SUB R15, #$100
45FA	FFFF		SUB R15, #$100
45FC	FFFF		SUB R15, #$100
45FE	FFFF		SUB R15, #$100
4600	FFFF		SUB R15, #$100
4602	FFFF		SUB R15, #$100
4604	FFFF		SUB R15, #$100
4606	FFFF		SUB R15, #$100
4608	FFFF		SUB R15, #$100
460A	FFFF		SUB R15, #$100
460C	FFFF		SUB R15, #$100
460E	FFFF		SUB R15, #$100
4610	FFFF		SUB R15, #$100
4612	FFFF		SUB R15, #$100
4614	FFFF		SUB R15, #$100
4616	FFFF		SUB R15, #$100
4618	FFFF		SUB R15, #$100
461A	FFFF		SUB R15, #$100
461C	FFFF		SUB R15, #$100
461E	FFFF		SUB R15, #$100
4620	FFFF		SUB R15, #$100
4622	FFFF		SUB R15, #$100
4624	FFFF		SUB R15, #$100
4626	FFFF		SUB R15, #$100
4628	FFFF		SUB R15, #$100
462A	FFFF		SUB R15, #$100
462C	FFFF		SUB R15, #$100
462E	FFFF		SUB R15, #$100
4630	FFFF		SUB R15, #$100
4632	FFFF		SUB R15, #$100
4634	FFFF		SUB R15, #$100
4636	FFFF		SUB R15, #$100
4638	FFFF		SUB R15, #$100
463A	FFFF		SUB R15, #$100
463C	FFFF		SUB R15, #$100
463E	FFFF		SUB R15, #$100
4640	FFFF		SUB R15, #$100
4642	FFFF		SUB R15, #$100
4644	FFFF		SUB R15, #$100
4646	FFFF		SUB R15, #$100
4648	FFFF		SUB R15, #$100
464A	FFFF		SUB R15, #$100
464C	FFFF		SUB R15, #$100
464E	FFFF		SUB R15, #$100
4650	FFFF		SUB R15, #$100
4652	FFFF		SUB R15, #$100
4654	FFFF		SUB R15, #$100
4656	FFFF		SUB R15, #$100
4658	FFFF		SUB R15, #$100
465A	FFFF		SUB R15, #$100
465C	FFFF		SUB R15, #$100
465E	FFFF		SUB R15, #$100
4660	FFFF		SUB R15, #$100
4662	FFFF		SUB R15, #$100
4664	FFFF		SUB R15, #$100
4666	FFFF		SUB R15, #$100
4668	FFFF		SUB R15, #$100
466A	FFFF		SUB R15, #$100
466C	FFFF		SUB R15, #$100
466E	FFFF		SUB R15, #$100
4670	FFFF		SUB R15, #$100
4672	FFFF		SUB R15, #$100
4674	FFFF		SUB R15, #$100
4676	FFFF		SUB R15, #$100
4678	FFFF		SUB R15, #$100
467A	FFFF		SUB R15, #$100
467C	FFFF		SUB R15, #$100
467E	FFFF		SUB R15, #$100
4680	FFFF		SUB R15, #$100
4682	FFFF		SUB R15, #$100
4684	FFFF		SUB R15, #$100
4686	FFFF		SUB R15, #$100
4688	FFFF		SUB R15, #$100
468A	FFFF		SUB R15, #$100
468C	FFFF		SUB R15, #$100
468E	FFFF		SUB R15, #$100
4690	FFFF		SUB R15, #$100
4692	FFFF		SUB R15, #$100
4694	FFFF		SUB R15, #$100
4696	FFFF		SUB R15, #$100
4698	FFFF		SUB R15, #$100
469A	FFFF		SUB R15, #$100
469C	FFFF		SUB R15, #$100
469E	FFFF		SUB R15, #$100
46A0	FFFF		SUB R15, #$100
46A2	FFFF		SUB R15, #$100
46A4	FFFF		SUB R15, #$100
46A6	FFFF		SUB R15, #$100
46A8	FFFF		SUB R15, #$100
46AA	FFFF		SUB R15, #$100
46AC	FFFF		SUB R15, #$100
46AE	FFFF		SUB R15, #$100
46B0	FFFF		SUB R15, #$100
46B2	FFFF		SUB R15, #$100
46B4	FFFF		SUB R15, #$100
46B6	FFFF		SUB R15, #$100
46B8	FFFF		SUB R15, #$100
46BA	FFFF		SUB R15, #$100
46BC	FFFF		SUB R15, #$100
46BE	FFFF		SUB R15, #$100
46C0	FFFF		SUB R15, #$100
46C2	FFFF		SUB R15, #$100
46C4	FFFF		SUB R15, #$100
46C6	FFFF		SUB R15, #$100
46C8	FFFF		SUB R15, #$100
46CA	FFFF		SUB R15, #$100
46CC	FFFF		SUB R15, #$100
46CE	FFFF		SUB R15, #$100
46D0	FFFF		SUB R15, #$100
46D2	FFFF		SUB R15, #$100
46D4	FFFF		SUB R15, #$100
46D6	FFFF		SUB R15, #$100
46D8	FFFF		SUB R15, #$100
46DA	FFFF		SUB R15, #$100
46DC	FFFF		SUB R15, #$100
46DE	FFFF		SUB R15, #$100
46E0	FFFF		SUB R15, #$100
46E2	FFFF		SUB R15, #$100
46E4	FFFF		SUB R15, #$100
46E6	FFFF		SUB R15, #$100
46E8	FFFF		SUB R15, #$100
46EA	FFFF		SUB R15, #$100
46EC	FFFF		SUB R15, #$100
46EE	FFFF		SUB R15, #$100
46F0	FFFF		SUB R15, #$100
46F2	FFFF		SUB R15, #$100
46F4	FFFF		SUB R15, #$100
46F6	FFFF		SUB R15, #$100
46F8	FFFF		SUB R15, #$100
46FA	FFFF		SUB R15, #$100
46FC	FFFF		SUB R15, #$100
46FE	FFFF		SUB R15, #$100
4700	FFFF		SUB R15, #$100
4702	FFFF		SUB R15, #$100
4704	FFFF		SUB R15, #$100
4706	FFFF		SUB R15, #$100
4708	FFFF		SUB R15, #$100
470A	FFFF		SUB R15, #$100
470C	FFFF		SUB R15, #$100
470E	FFFF		SUB R15, #$100
4710	FFFF		SUB R15, #$100
4712	FFFF		SUB R15, #$100
4714	FFFF		SUB R15, #$100
4716	FFFF		SUB R15, #$100
4718	FFFF		SUB R15, #$100
471A	FFFF		SUB R15, #$100
471C	FFFF		SUB R15, #$100
471E	FFFF		SUB R15, #$100
4720	FFFF		SUB R15, #$100
4722	FFFF		SUB R15, #$100
4724	FFFF		SUB R15, #$100
4726	FFFF		SUB R15, #$100
4728	FFFF		SUB R15, #$100
472A	FFFF		SUB R15, #$100
472C	FFFF		SUB R15, #$100
472E	FFFF		SUB R15, #$100
4730	FFFF		SUB R15, #$100
4732	FFFF		SUB R15, #$100
4734	FFFF		SUB R15, #$100
4736	FFFF		SUB R15, #$100
4738	FFFF		SUB R15, #$100
473A	FFFF		SUB R15, #$100
473C	FFFF		SUB R15, #$100
473E	FFFF		SUB R15, #$100
4740	FFFF		SUB R15, #$100
4742	FFFF		SUB R15, #$100
4744	FFFF		SUB R15, #$100
4746	FFFF		SUB R15, #$100
4748	FFFF		SUB R15, #$100
474A	FFFF		SUB R15, #$100
474C	FFFF		SUB R15, #$100
474E	FFFF		SUB R15, #$100
4750	FFFF		SUB R15, #$100
4752	FFFF		SUB R15, #$100
4754	FFFF		SUB R15, #$100
4756	FFFF		SUB R15, #$100
4758	FFFF		SUB R15, #$100
475A	FFFF		SUB R15, #$100
475C	FFFF		SUB R15, #$100
475E	FFFF		SUB R15, #$100
4760	FFFF		SUB R15, #$100
4762	FFFF		SUB R15, #$100
4764	FFFF		SUB R15, #$100
4766	FFFF		SUB R15, #$100
4768	FFFF		SUB R15, #$100
476A	FFFF		SUB R15, #$100
476C	FFFF		SUB R15, #$100
476E	FFFF		SUB R15, #$100
4770	FFFF		SUB R15, #$100
4772	FFFF		SUB R15, #$100
4774	FFFF		SUB R15, #$100
4776	FFFF		SUB R15, #$100
4778	FFFF		SUB R15, #$100
477A	FFFF		SUB R15, #$100
477C	FFFF		SUB R15, #$100
477E	FFFF		SUB R15, #$100
4780	FFFF		SUB R15, #$100
4782	FFFF		SUB R15, #$100
4784	FFFF		SUB R15, #$100
4786	FFFF		SUB R15, #$100
4788	FFFF		SUB R15, #$100
478A	FFFF		SUB R15, #$100
478C	FFFF		SUB R15, #$100
478E	FFFF		SUB R15, #$100
4790	FFFF		SUB R15, #$100
4792	FFFF		SUB R15, #$100
4794	FFFF		SUB R15, #$100
4796	FFFF		SUB R15, #$100
4798	FFFF		SUB R15, #$100
479A	FFFF		SUB R15, #$100
479C	FFFF		SUB R15, #$100
479E	FFFF		SUB R15, #$100
47A0	FFFF		SUB R15, #$100
47A2	FFFF		SUB R15, #$100
47A4	FFFF		SUB R15, #$100
47A6	FFFF		SUB R15, #$100
47A8	FFFF		SUB R15, #$100
47AA	FFFF		SUB R15, #$100
47AC	FFFF		SUB R15, #$100
47AE	FFFF		SUB R15, #$100
47B0	FFFF		SUB R15, #$100
47B2	FFFF		SUB R15, #$100
47B4	FFFF		SUB R15, #$100
47B6	FFFF		SUB R15, #$100
47B8	FFFF		SUB R15, #$100
47BA	FFFF		SUB R15, #$100
47BC	FFFF		SUB R15, #$100
47BE	FFFF		SUB R15, #$100
47C0	FFFF		SUB R15, #$100
47C2	FFFF		SUB R15, #$100
47C4	FFFF		SUB R15, #$100
47C6	FFFF		SUB R15, #$100
47C8	FFFF		SUB R15, #$100
47CA	FFFF		SUB R15, #$100
47CC	FFFF		SUB R15, #$100
47CE	FFFF		SUB R15, #$100
47D0	FFFF		SUB R15, #$100
47D2	FFFF		SUB R15, #$100
47D4	FFFF		SUB R15, #$100
47D6	FFFF		SUB R15, #$100
47D8	FFFF		SUB R15, #$100
47DA	FFFF		SUB R15, #$100
47DC	FFFF		SUB R15, #$100
47DE	FFFF		SUB R15, #$100
47E0	FFFF		SUB R15, #$100
47E2	FFFF		SUB R15, #$100
47E4	FFFF		SUB R15, #$100
47E6	FFFF		SUB R15, #$100
47E8	FFFF		SUB R15, #$100
47EA	FFFF		SUB R15, #$100
47EC	FFFF		SUB R15, #$100
47EE	FFFF		SUB R15, #$100
47F0	FFFF		SUB R15, #$100
47F2	FFFF		SUB R15, #$100
47F4	FFFF		SUB R15, #$100
47F6	FFFF		SUB R15, #$100
47F8	FFFF		SUB R15, #$100
47FA	FFFF		SUB R15, #$100
47FC	FFFF		SUB R15, #$100
47FE	FFFF		SUB R15, #$100
4800	FFFF		SUB R15, #$100
4802	FFFF		SUB R15, #$100
4804	FFFF		SUB R15, #$100
4806	FFFF		SUB R15, #$100
4808	FFFF		SUB R15, #$100
480A	FFFF		SUB R15, #$100
480C	FFFF		SUB R15, #$100
480E	FFFF		SUB R15, #$100
4810	FFFF		SUB R15, #$100
4812	FFFF		SUB R15, #$100
4814	FFFF		SUB R15, #$100
4816	FFFF		SUB R15, #$100
4818	FFFF		SUB R15, #$100
481A	FFFF		SUB R15, #$100
481C	FFFF		SUB R15, #$100
481E	FFFF		SUB R15, #$100
4820	FFFF		SUB R15, #$100
4822	FFFF		SUB R15, #$100
4824	FFFF		SUB R15, #$100
4826	FFFF		SUB R15, #$100
4828	FFFF		SUB R15, #$100
482A	FFFF		SUB R15, #$100
482C	FFFF		SUB R15, #$100
482E	FFFF		SUB R15, #$100
4830	FFFF		SUB R15, #$100
4832	FFFF		SUB R15, #$100
4834	FFFF		SUB R15, #$100
4836	FFFF		SUB R15, #$100
4838	FFFF		SUB R15, #$100
483A	FFFF		SUB R15, #$100
483C	FFFF		SUB R15, #$100
483E	FFFF		SUB R15, #$100
4840	FFFF		SUB R15, #$100
4842	FFFF		SUB R15, #$100
4844	FFFF		SUB R15, #$100
4846	FFFF		SUB R15, #$100
4848	FFFF		SUB R15, #$100
484A	FFFF		SUB R15, #$100
484C	FFFF		SUB R15, #$100
484E	FFFF		SUB R15, #$100
4850	FFFF		SUB R15, #$100
4852	FFFF		SUB R15, #$100
4854	FFFF		SUB R15, #$100
4856	FFFF		SUB R15, #$100
4858	FFFF		SUB R15, #$100
485A	FFFF		SUB R15, #$100
485C	FFFF		SUB R15, #$100
485E	FFFF		SUB R15, #$100
4860	FFFF		SUB R15, #$100
4862	FFFF		SUB R15, #$100
4864	FFFF		SUB R15, #$100
4866	FFFF		SUB R15, #$100
4868	FFFF		SUB R15, #$100
486A	FFFF		SUB R15, #$100
486C	FFFF		SUB R15, #$100
486E	FFFF		SUB R15, #$100
4870	FFFF		SUB R15, #$100
4872	FFFF		SUB R15, #$100
4874	FFFF		SUB R15, #$100
4876	FFFF		SUB R15, #$100
4878	FFFF		SUB R15, #$100
487A	FFFF		SUB R15, #$100
487C	FFFF		SUB R15, #$100
487E	FFFF		SUB R15, #$100
4880	FFFF		SUB R15, #$100
4882	FFFF		SUB R15, #$100
4884	FFFF		SUB R15, #$100
4886	FFFF		SUB R15, #$100
4888	FFFF		SUB R15, #$100
488A	FFFF		SUB R15, #$100
488C	FFFF		SUB R15, #$100
488E	FFFF		SUB R15, #$100
4890	FFFF		SUB R15, #$100
4892	FFFF		SUB R15, #$100
4894	FFFF		SUB R15, #$100
4896	FFFF		SUB R15, #$100
4898	FFFF		SUB R15, #$100
489A	FFFF		SUB R15, #$100
489C	FFFF		SUB R15, #$100
489E	FFFF		SUB R15, #$100
48A0	FFFF		SUB R15, #$100
48A2	FFFF		SUB R15, #$100
48A4	FFFF		SUB R15, #$100
48A6	FFFF		SUB R15, #$100
48A8	FFFF		SUB R15, #$100
48AA	FFFF		SUB R15, #$100
48AC	FFFF		SUB R15, #$100
48AE	FFFF		SUB R15, #$100
48B0	FFFF		SUB R15, #$100
48B2	FFFF		SUB R15, #$100
48B4	FFFF		SUB R15, #$100
48B6	FFFF		SUB R15, #$100
48B8	FFFF		SUB R15, #$100
48BA	FFFF		SUB R15, #$100
48BC	FFFF		SUB R15, #$100
48BE	FFFF		SUB R15, #$100
48C0	FFFF		SUB R15, #$100
48C2	FFFF		SUB R15, #$100
48C4	FFFF		SUB R15, #$100
48C6	FFFF		SUB R15, #$100
48C8	FFFF		SUB R15, #$100
48CA	FFFF		SUB R15, #$100
48CC	FFFF		SUB R15, #$100
48CE	FFFF		SUB R15, #$100
48D0	FFFF		SUB R15, #$100
48D2	FFFF		SUB R15, #$100
48D4	FFFF		SUB R15, #$100
48D6	FFFF		SUB R15, #$100
48D8	FFFF		SUB R15, #$100
48DA	FFFF		SUB R15, #$100
48DC	FFFF		SUB R15, #$100
48DE	FFFF		SUB R15, #$100
48E0	FFFF		SUB R15, #$100
48E2	FFFF		SUB R15, #$100
48E4	FFFF		SUB R15, #$100
48E6	FFFF		SUB R15, #$100
48E8	FFFF		SUB R15, #$100
48EA	FFFF		SUB R15, #$100
48EC	FFFF		SUB R15, #$100
48EE	FFFF		SUB R15, #$100
48F0	FFFF		SUB R15, #$100
48F2	FFFF		SUB R15, #$100
48F4	FFFF		SUB R15, #$100
48F6	FFFF		SUB R15, #$100
48F8	FFFF		SUB R15, #$100
48FA	FFFF		SUB R15, #$100
48FC	FFFF		SUB R15, #$100
48FE	FFFF		SUB R15, #$100
4900	FFFF		SUB R15, #$100
4902	FFFF		SUB R15, #$100
4904	FFFF		SUB R15, #$100
4906	FFFF		SUB R15, #$100
4908	FFFF		SUB R15, #$100
490A	FFFF		SUB R15, #$100
490C	FFFF		SUB R15, #$100
490E	FFFF		SUB R15, #$100
4910	FFFF		SUB R15, #$100
4912	FFFF		SUB R15, #$100
4914	FFFF		SUB R15, #$100
4916	FFFF		SUB R15, #$100
4918	FFFF		SUB R15, #$100
491A	FFFF		SUB R15, #$100
491C	FFFF		SUB R15, #$100
491E	FFFF		SUB R15, #$100
4920	FFFF		SUB R15, #$100
4922	FFFF		SUB R15, #$100
4924	FFFF		SUB R15, #$100
4926	FFFF		SUB R15, #$100
4928	FFFF		SUB R15, #$100
492A	FFFF		SUB R15, #$100
492C	FFFF		SUB R15, #$100
492E	FFFF		SUB R15, #$100
4930	FFFF		SUB R15, #$100
4932	FFFF		SUB R15, #$100
4934	FFFF		SUB R15, #$100
4936	FFFF		SUB R15, #$100
4938	FFFF		SUB R15, #$100
493A	FFFF		SUB R15, #$100
493C	FFFF		SUB R15, #$100
493E	FFFF		SUB R15, #$100
4940	FFFF		SUB R15, #$100
4942	FFFF		SUB R15, #$100
4944	FFFF		SUB R15, #$100
4946	FFFF		SUB R15, #$100
4948	FFFF		SUB R15, #$100
494A	FFFF		SUB R15, #$100
494C	FFFF		SUB R15, #$100
494E	FFFF		SUB R15, #$100
4950	FFFF		SUB R15, #$100
4952	FFFF		SUB R15, #$100
4954	FFFF		SUB R15, #$100
4956	FFFF		SUB R15, #$100
4958	FFFF		SUB R15, #$100
495A	FFFF		SUB R15, #$100
495C	FFFF		SUB R15, #$100
495E	FFFF		SUB R15, #$100
4960	FFFF		SUB R15, #$100
4962	FFFF		SUB R15, #$100
4964	FFFF		SUB R15, #$100
4966	FFFF		SUB R15, #$100
4968	FFFF		SUB R15, #$100
496A	FFFF		SUB R15, #$100
496C	FFFF		SUB R15, #$100
496E	FFFF		SUB R15, #$100
4970	FFFF		SUB R15, #$100
4972	FFFF		SUB R15, #$100
4974	FFFF		SUB R15, #$100
4976	FFFF		SUB R15, #$100
4978	FFFF		SUB R15, #$100
497A	FFFF		SUB R15, #$100
497C	FFFF		SUB R15, #$100
497E	FFFF		SUB R15, #$100
4980	FFFF		SUB R15, #$100
4982	FFFF		SUB R15, #$100
4984	FFFF		SUB R15, #$100
4986	FFFF		SUB R15, #$100
4988	FFFF		SUB R15, #$100
498A	FFFF		SUB R15, #$100
498C	FFFF		SUB R15, #$100
498E	FFFF		SUB R15, #$100
4990	FFFF		SUB R15, #$100
4992	FFFF		SUB R15, #$100
4994	FFFF		SUB R15, #$100
4996	FFFF		SUB R15, #$100
4998	FFFF		SUB R15, #$100
499A	FFFF		SUB R15, #$100
499C	FFFF		SUB R15, #$100
499E	FFFF		SUB R15, #$100
49A0	FFFF		SUB R15, #$100
49A2	FFFF		SUB R15, #$100
49A4	FFFF		SUB R15, #$100
49A6	FFFF		SUB R15, #$100
49A8	FFFF		SUB R15, #$100
49AA	FFFF		SUB R15, #$100
49AC	FFFF		SUB R15, #$100
49AE	FFFF		SUB R15, #$100
49B0	FFFF		SUB R15, #$100
49B2	FFFF		SUB R15, #$100
49B4	FFFF		SUB R15, #$100
49B6	FFFF		SUB R15, #$100
49B8	FFFF		SUB R15, #$100
49BA	FFFF		SUB R15, #$100
49BC	FFFF		SUB R15, #$100
49BE	FFFF		SUB R15, #$100
49C0	FFFF		SUB R15, #$100
49C2	FFFF		SUB R15, #$100
49C4	FFFF		SUB R15, #$100
49C6	FFFF		SUB R15, #$100
49C8	FFFF		SUB R15, #$100
49CA	FFFF		SUB R15, #$100
49CC	FFFF		SUB R15, #$100
49CE	FFFF		SUB R15, #$100
49D0	FFFF		SUB R15, #$100
49D2	FFFF		SUB R15, #$100
49D4	FFFF		SUB R15, #$100
49D6	FFFF		SUB R15, #$100
49D8	FFFF		SUB R15, #$100
49DA	FFFF		SUB R15, #$100
49DC	FFFF		SUB R15, #$100
49DE	FFFF		SUB R15, #$100
49E0	FFFF		SUB R15, #$100
49E2	FFFF		SUB R15, #$100
49E4	FFFF		SUB R15, #$100
49E6	FFFF		SUB R15, #$100
49E8	FFFF		SUB R15, #$100
49EA	FFFF		SUB R15, #$100
49EC	FFFF		SUB R15, #$100
49EE	FFFF		SUB R15, #$100
49F0	FFFF		SUB R15, #$100
49F2	FFFF		SUB R15, #$100
49F4	FFFF		SUB R15, #$100
49F6	FFFF		SUB R15, #$100
49F8	FFFF		SUB R15, #$100
49FA	FFFF		SUB R15, #$100
49FC	FFFF		SUB R15, #$100
49FE	FFFF		SUB R15, #$100
4A00	FFFF		SUB R15, #$100
4A02	FFFF		SUB R15, #$100
4A04	FFFF		SUB R15, #$100
4A06	FFFF		SUB R15, #$100
4A08	FFFF		SUB R15, #$100
4A0A	FFFF		SUB R15, #$100
4A0C	FFFF		SUB R15, #$100
4A0E	FFFF		SUB R15, #$100
4A10	FFFF		SUB R15, #$100
4A12	FFFF		SUB R15, #$100
4A14	FFFF		SUB R15, #$100
4A16	FFFF		SUB R15, #$100
4A18	FFFF		SUB R15, #$100
4A1A	FFFF		SUB R15, #$100
4A1C	FFFF		SUB R15, #$100
4A1E	FFFF		SUB R15, #$100
4A20	FFFF		SUB R15, #$100
4A22	FFFF		SUB R15, #$100
4A24	FFFF		SUB R15, #$100
4A26	FFFF		SUB R15, #$100
4A28	FFFF		SUB R15, #$100
4A2A	FFFF		SUB R15, #$100
4A2C	FFFF		SUB R15, #$100
4A2E	FFFF		SUB R15, #$100
4A30	FFFF		SUB R15, #$100
4A32	FFFF		SUB R15, #$100
4A34	FFFF		SUB R15, #$100
4A36	FFFF		SUB R15, #$100
4A38	FFFF		SUB R15, #$100
4A3A	FFFF		SUB R15, #$100
4A3C	FFFF		SUB R15, #$100
4A3E	FFFF		SUB R15, #$100
4A40	FFFF		SUB R15, #$100
4A42	FFFF		SUB R15, #$100
4A44	FFFF		SUB R15, #$100
4A46	FFFF		SUB R15, #$100
4A48	FFFF		SUB R15, #$100
4A4A	FFFF		SUB R15, #$100
4A4C	FFFF		SUB R15, #$100
4A4E	FFFF		SUB R15, #$100
4A50	FFFF		SUB R15, #$100
4A52	FFFF		SUB R15, #$100
4A54	FFFF		SUB R15, #$100
4A56	FFFF		SUB R15, #$100
4A58	FFFF		SUB R15, #$100
4A5A	FFFF		SUB R15, #$100
4A5C	FFFF		SUB R15, #$100
4A5E	FFFF		SUB R15, #$100
4A60	FFFF		SUB R15, #$100
4A62	FFFF		SUB R15, #$100
4A64	FFFF		SUB R15, #$100
4A66	FFFF		SUB R15, #$100
4A68	FFFF		SUB R15, #$100
4A6A	FFFF		SUB R15, #$100
4A6C	FFFF		SUB R15, #$100
4A6E	FFFF		SUB R15, #$100
4A70	FFFF		SUB R15, #$100
4A72	FFFF		SUB R15, #$100
4A74	FFFF		SUB R15, #$100
4A76	FFFF		SUB R15, #$100
4A78	FFFF		SUB R15, #$100
4A7A	FFFF		SUB R15, #$100
4A7C	FFFF		SUB R15, #$100
4A7E	FFFF		SUB R15, #$100
4A80	FFFF		SUB R15, #$100
4A82	FFFF		SUB R15, #$100
4A84	FFFF		SUB R15, #$100
4A86	FFFF		SUB R15, #$100
4A88	FFFF		SUB R15, #$100
4A8A	FFFF		SUB R15, #$100
4A8C	FFFF		SUB R15, #$100
4A8E	FFFF		SUB R15, #$100
4A90	FFFF		SUB R15, #$100
4A92	FFFF		SUB R15, #$100
4A94	FFFF		SUB R15, #$100
4A96	FFFF		SUB R15, #$100
4A98	FFFF		SUB R15, #$100
4A9A	FFFF		SUB R15, #$100
4A9C	FFFF		SUB R15, #$100
4A9E	FFFF		SUB R15, #$100
4AA0	FFFF		SUB R15, #$100
4AA2	FFFF		SUB R15, #$100
4AA4	FFFF		SUB R15, #$100
4AA6	FFFF		SUB R15, #$100
4AA8	FFFF		SUB R15, #$100
4AAA	FFFF		SUB R15, #$100
4AAC	FFFF		SUB R15, #$100
4AAE	FFFF		SUB R15, #$100
4AB0	FFFF		SUB R15, #$100
4AB2	FFFF		SUB R15, #$100
4AB4	FFFF		SUB R15, #$100
4AB6	FFFF		SUB R15, #$100
4AB8	FFFF		SUB R15, #$100
4ABA	FFFF		SUB R15, #$100
4ABC	FFFF		SUB R15, #$100
4ABE	FFFF		SUB R15, #$100
4AC0	FFFF		SUB R15, #$100
4AC2	FFFF		SUB R15, #$100
4AC4	FFFF		SUB R15, #$100
4AC6	FFFF		SUB R15, #$100
4AC8	FFFF		SUB R15, #$100
4ACA	FFFF		SUB R15, #$100
4ACC	FFFF		SUB R15, #$100
4ACE	FFFF		SUB R15, #$100
4AD0	FFFF		SUB R15, #$100
4AD2	FFFF		SUB R15, #$100
4AD4	FFFF		SUB R15, #$100
4AD6	FFFF		SUB R15, #$100
4AD8	FFFF		SUB R15, #$100
4ADA	FFFF		SUB R15, #$100
4ADC	FFFF		SUB R15, #$100
4ADE	FFFF		SUB R15, #$100
4AE0	FFFF		SUB R15, #$100
4AE2	FFFF		SUB R15, #$100
4AE4	FFFF		SUB R15, #$100
4AE6	FFFF		SUB R15, #$100
4AE8	FFFF		SUB R15, #$100
4AEA	FFFF		SUB R15, #$100
4AEC	FFFF		SUB R15, #$100
4AEE	FFFF		SUB R15, #$100
4AF0	FFFF		SUB R15, #$100
4AF2	FFFF		SUB R15, #$100
4AF4	FFFF		SUB R15, #$100
4AF6	FFFF		SUB R15, #$100
4AF8	FFFF		SUB R15, #$100
4AFA	FFFF		SUB R15, #$100
4AFC	FFFF		SUB R15, #$100
4AFE	FFFF		SUB R15, #$100
4B00	FFFF		SUB R15, #$100
4B02	FFFF		SUB R15, #$100
4B04	FFFF		SUB R15, #$100
4B06	FFFF		SUB R15, #$100
4B08	FFFF		SUB R15, #$100
4B0A	FFFF		SUB R15, #$100
4B0C	FFFF		SUB R15, #$100
4B0E	FFFF		SUB R15, #$100
4B10	FFFF		SUB R15, #$100
4B12	FFFF		SUB R15, #$100
4B14	FFFF		SUB R15, #$100
4B16	FFFF		SUB R15, #$100
4B18	FFFF		SUB R15, #$100
4B1A	FFFF		SUB R15, #$100
4B1C	FFFF		SUB R15, #$100
4B1E	FFFF		SUB R15, #$100
4B20	FFFF		SUB R15, #$100
4B22	FFFF		SUB R15, #$100
4B24	FFFF		SUB R15, #$100
4B26	FFFF		SUB R15, #$100
4B28	FFFF		SUB R15, #$100
4B2A	FFFF		SUB R15, #$100
4B2C	FFFF		SUB R15, #$100
4B2E	FFFF		SUB R15, #$100
4B30	FFFF		SUB R15, #$100
4B32	FFFF		SUB R15, #$100
4B34	FFFF		SUB R15, #$100
4B36	FFFF		SUB R15, #$100
4B38	FFFF		SUB R15, #$100
4B3A	FFFF		SUB R15, #$100
4B3C	FFFF		SUB R15, #$100
4B3E	FFFF		SUB R15, #$100
4B40	FFFF		SUB R15, #$100
4B42	FFFF		SUB R15, #$100
4B44	FFFF		SUB R15, #$100
4B46	FFFF		SUB R15, #$100
4B48	FFFF		SUB R15, #$100
4B4A	FFFF		SUB R15, #$100
4B4C	FFFF		SUB R15, #$100
4B4E	FFFF		SUB R15, #$100
4B50	FFFF		SUB R15, #$100
4B52	FFFF		SUB R15, #$100
4B54	FFFF		SUB R15, #$100
4B56	FFFF		SUB R15, #$100
4B58	FFFF		SUB R15, #$100
4B5A	FFFF		SUB R15, #$100
4B5C	FFFF		SUB R15, #$100
4B5E	FFFF		SUB R15, #$100
4B60	FFFF		SUB R15, #$100
4B62	FFFF		SUB R15, #$100
4B64	FFFF		SUB R15, #$100
4B66	FFFF		SUB R15, #$100
4B68	FFFF		SUB R15, #$100
4B6A	FFFF		SUB R15, #$100
4B6C	FFFF		SUB R15, #$100
4B6E	FFFF		SUB R15, #$100
4B70	FFFF		SUB R15, #$100
4B72	FFFF		SUB R15, #$100
4B74	FFFF		SUB R15, #$100
4B76	FFFF		SUB R15, #$100
4B78	FFFF		SUB R15, #$100
4B7A	FFFF		SUB R15, #$100
4B7C	FFFF		SUB R15, #$100
4B7E	FFFF		SUB R15, #$100
4B80	FFFF		SUB R15, #$100
4B82	FFFF		SUB R15, #$100
4B84	FFFF		SUB R15, #$100
4B86	FFFF		SUB R15, #$100
4B88	FFFF		SUB R15, #$100
4B8A	FFFF		SUB R15, #$100
4B8C	FFFF		SUB R15, #$100
4B8E	FFFF		SUB R15, #$100
4B90	FFFF		SUB R15, #$100
4B92	FFFF		SUB R15, #$100
4B94	FFFF		SUB R15, #$100
4B96	FFFF		SUB R15, #$100
4B98	FFFF		SUB R15, #$100
4B9A	FFFF		SUB R15, #$100
4B9C	FFFF		SUB R15, #$100
4B9E	FFFF		SUB R15, #$100
4BA0	FFFF		SUB R15, #$100
4BA2	FFFF		SUB R15, #$100
4BA4	FFFF		SUB R15, #$100
4BA6	FFFF		SUB R15, #$100
4BA8	FFFF		SUB R15, #$100
4BAA	FFFF		SUB R15, #$100
4BAC	FFFF		SUB R15, #$100
4BAE	FFFF		SUB R15, #$100
4BB0	FFFF		SUB R15, #$100
4BB2	FFFF		SUB R15, #$100
4BB4	FFFF		SUB R15, #$100
4BB6	FFFF		SUB R15, #$100
4BB8	FFFF		SUB R15, #$100
4BBA	FFFF		SUB R15, #$100
4BBC	FFFF		SUB R15, #$100
4BBE	FFFF		SUB R15, #$100
4BC0	FFFF		SUB R15, #$100
4BC2	FFFF		SUB R15, #$100
4BC4	FFFF		SUB R15, #$100
4BC6	FFFF		SUB R15, #$100
4BC8	FFFF		SUB R15, #$100
4BCA	FFFF		SUB R15, #$100
4BCC	FFFF		SUB R15, #$100
4BCE	FFFF		SUB R15, #$100
4BD0	FFFF		SUB R15, #$100
4BD2	FFFF		SUB R15, #$100
4BD4	FFFF		SUB R15, #$100
4BD6	FFFF		SUB R15, #$100
4BD8	FFFF		SUB R15, #$100
4BDA	FFFF		SUB R15, #$100
4BDC	FFFF		SUB R15, #$100
4BDE	FFFF		SUB R15, #$100
4BE0	FFFF		SUB R15, #$100
4BE2	FFFF		SUB R15, #$100
4BE4	FFFF		SUB R15, #$100
4BE6	FFFF		SUB R15, #$100
4BE8	FFFF		SUB R15, #$100
4BEA	FFFF		SUB R15, #$100
4BEC	FFFF		SUB R15, #$100
4BEE	FFFF		SUB R15, #$100
4BF0	FFFF		SUB R15, #$100
4BF2	FFFF		SUB R15, #$100
4BF4	FFFF		SUB R15, #$100
4BF6	FFFF		SUB R15, #$100
4BF8	FFFF		SUB R15, #$100
4BFA	FFFF		SUB R15, #$100
4BFC	FFFF		SUB R15, #$100
4BFE	FFFF		SUB R15, #$100
4C00	FFFF		SUB R15, #$100
4C02	FFFF		SUB R15, #$100
4C04	FFFF		SUB R15, #$100
4C06	FFFF		SUB R15, #$100
4C08	FFFF		SUB R15, #$100
4C0A	FFFF		SUB R15, #$100
4C0C	FFFF		SUB R15, #$100
4C0E	FFFF		SUB R15, #$100
4C10	FFFF		SUB R15, #$100
4C12	FFFF		SUB R15, #$100
4C14	FFFF		SUB R15, #$100
4C16	FFFF		SUB R15, #$100
4C18	FFFF		SUB R15, #$100
4C1A	FFFF		SUB R15, #$100
4C1C	FFFF		SUB R15, #$100
4C1E	FFFF		SUB R15, #$100
4C20	FFFF		SUB R15, #$100
4C22	FFFF		SUB R15, #$100
4C24	FFFF		SUB R15, #$100
4C26	FFFF		SUB R15, #$100
4C28	FFFF		SUB R15, #$100
4C2A	FFFF		SUB R15, #$100
4C2C	FFFF		SUB R15, #$100
4C2E	FFFF		SUB R15, #$100
4C30	FFFF		SUB R15, #$100
4C32	FFFF		SUB R15, #$100
4C34	FFFF		SUB R15, #$100
4C36	FFFF		SUB R15, #$100
4C38	FFFF		SUB R15, #$100
4C3A	FFFF		SUB R15, #$100
4C3C	FFFF		SUB R15, #$100
4C3E	FFFF		SUB R15, #$100
4C40	FFFF		SUB R15, #$100
4C42	FFFF		SUB R15, #$100
4C44	FFFF		SUB R15, #$100
4C46	FFFF		SUB R15, #$100
4C48	FFFF		SUB R15, #$100
4C4A	FFFF		SUB R15, #$100
4C4C	FFFF		SUB R15, #$100
4C4E	FFFF		SUB R15, #$100
4C50	FFFF		SUB R15, #$100
4C52	FFFF		SUB R15, #$100
4C54	FFFF		SUB R15, #$100
4C56	FFFF		SUB R15, #$100
4C58	FFFF		SUB R15, #$100
4C5A	FFFF		SUB R15, #$100
4C5C	FFFF		SUB R15, #$100
4C5E	FFFF		SUB R15, #$100
4C60	FFFF		SUB R15, #$100
4C62	FFFF		SUB R15, #$100
4C64	FFFF		SUB R15, #$100
4C66	FFFF		SUB R15, #$100
4C68	FFFF		SUB R15, #$100
4C6A	FFFF		SUB R15, #$100
4C6C	FFFF		SUB R15, #$100
4C6E	FFFF		SUB R15, #$100
4C70	FFFF		SUB R15, #$100
4C72	FFFF		SUB R15, #$100
4C74	FFFF		SUB R15, #$100
4C76	FFFF		SUB R15, #$100
4C78	FFFF		SUB R15, #$100
4C7A	FFFF		SUB R15, #$100
4C7C	FFFF		SUB R15, #$100
4C7E	FFFF		SUB R15, #$100
4C80	FFFF		SUB R15, #$100
4C82	FFFF		SUB R15, #$100
4C84	FFFF		SUB R15, #$100
4C86	FFFF		SUB R15, #$100
4C88	FFFF		SUB R15, #$100
4C8A	FFFF		SUB R15, #$100
4C8C	FFFF		SUB R15, #$100
4C8E	FFFF		SUB R15, #$100
4C90	FFFF		SUB R15, #$100
4C92	FFFF		SUB R15, #$100
4C94	FFFF		SUB R15, #$100
4C96	FFFF		SUB R15, #$100
4C98	FFFF		SUB R15, #$100
4C9A	FFFF		SUB R15, #$100
4C9C	FFFF		SUB R15, #$100
4C9E	FFFF		SUB R15, #$100
4CA0	FFFF		SUB R15, #$100
4CA2	FFFF		SUB R15, #$100
4CA4	FFFF		SUB R15, #$100
4CA6	FFFF		SUB R15, #$100
4CA8	FFFF		SUB R15, #$100
4CAA	FFFF		SUB R15, #$100
4CAC	FFFF		SUB R15, #$100
4CAE	FFFF		SUB R15, #$100
4CB0	FFFF		SUB R15, #$100
4CB2	FFFF		SUB R15, #$100
4CB4	FFFF		SUB R15, #$100
4CB6	FFFF		SUB R15, #$100
4CB8	FFFF		SUB R15, #$100
4CBA	FFFF		SUB R15, #$100
4CBC	FFFF		SUB R15, #$100
4CBE	FFFF		SUB R15, #$100
4CC0	FFFF		SUB R15, #$100
4CC2	FFFF		SUB R15, #$100
4CC4	FFFF		SUB R15, #$100
4CC6	FFFF		SUB R15, #$100
4CC8	FFFF		SUB R15, #$100
4CCA	FFFF		SUB R15, #$100
4CCC	FFFF		SUB R15, #$100
4CCE	FFFF		SUB R15, #$100
4CD0	FFFF		SUB R15, #$100
4CD2	FFFF		SUB R15, #$100
4CD4	FFFF		SUB R15, #$100
4CD6	FFFF		SUB R15, #$100
4CD8	FFFF		SUB R15, #$100
4CDA	FFFF		SUB R15, #$100
4CDC	FFFF		SUB R15, #$100
4CDE	FFFF		SUB R15, #$100
4CE0	FFFF		SUB R15, #$100
4CE2	FFFF		SUB R15, #$100
4CE4	FFFF		SUB R15, #$100
4CE6	FFFF		SUB R15, #$100
4CE8	FFFF		SUB R15, #$100
4CEA	FFFF		SUB R15, #$100
4CEC	FFFF		SUB R15, #$100
4CEE	FFFF		SUB R15, #$100
4CF0	FFFF		SUB R15, #$100
4CF2	FFFF		SUB R15, #$100
4CF4	FFFF		SUB R15, #$100
4CF6	FFFF		SUB R15, #$100
4CF8	FFFF		SUB R15, #$100
4CFA	FFFF		SUB R15, #$100
4CFC	FFFF		SUB R15, #$100
4CFE	FFFF		SUB R15, #$100
4D00	FFFF		SUB R15, #$100
4D02	FFFF		SUB R15, #$100
4D04	FFFF		SUB R15, #$100
4D06	FFFF		SUB R15, #$100
4D08	FFFF		SUB R15, #$100
4D0A	FFFF		SUB R15, #$100
4D0C	FFFF		SUB R15, #$100
4D0E	FFFF		SUB R15, #$100
4D10	FFFF		SUB R15, #$100
4D12	FFFF		SUB R15, #$100
4D14	FFFF		SUB R15, #$100
4D16	FFFF		SUB R15, #$100
4D18	FFFF		SUB R15, #$100
4D1A	FFFF		SUB R15, #$100
4D1C	FFFF		SUB R15, #$100
4D1E	FFFF		SUB R15, #$100
4D20	FFFF		SUB R15, #$100
4D22	FFFF		SUB R15, #$100
4D24	FFFF		SUB R15, #$100
4D26	FFFF		SUB R15, #$100
4D28	FFFF		SUB R15, #$100
4D2A	FFFF		SUB R15, #$100
4D2C	FFFF		SUB R15, #$100
4D2E	FFFF		SUB R15, #$100
4D30	FFFF		SUB R15, #$100
4D32	FFFF		SUB R15, #$100
4D34	FFFF		SUB R15, #$100
4D36	FFFF		SUB R15, #$100
4D38	FFFF		SUB R15, #$100
4D3A	FFFF		SUB R15, #$100
4D3C	FFFF		SUB R15, #$100
4D3E	FFFF		SUB R15, #$100
4D40	FFFF		SUB R15, #$100
4D42	FFFF		SUB R15, #$100
4D44	FFFF		SUB R15, #$100
4D46	FFFF		SUB R15, #$100
4D48	FFFF		SUB R15, #$100
4D4A	FFFF		SUB R15, #$100
4D4C	FFFF		SUB R15, #$100
4D4E	FFFF		SUB R15, #$100
4D50	FFFF		SUB R15, #$100
4D52	FFFF		SUB R15, #$100
4D54	FFFF		SUB R15, #$100
4D56	FFFF		SUB R15, #$100
4D58	FFFF		SUB R15, #$100
4D5A	FFFF		SUB R15, #$100
4D5C	FFFF		SUB R15, #$100
4D5E	FFFF		SUB R15, #$100
4D60	FFFF		SUB R15, #$100
4D62	FFFF		SUB R15, #$100
4D64	FFFF		SUB R15, #$100
4D66	FFFF		SUB R15, #$100
4D68	FFFF		SUB R15, #$100
4D6A	FFFF		SUB R15, #$100
4D6C	FFFF		SUB R15, #$100
4D6E	FFFF		SUB R15, #$100
4D70	FFFF		SUB R15, #$100
4D72	FFFF		SUB R15, #$100
4D74	FFFF		SUB R15, #$100
4D76	FFFF		SUB R15, #$100
4D78	FFFF		SUB R15, #$100
4D7A	FFFF		SUB R15, #$100
4D7C	FFFF		SUB R15, #$100
4D7E	FFFF		SUB R15, #$100
4D80	FFFF		SUB R15, #$100
4D82	FFFF		SUB R15, #$100
4D84	FFFF		SUB R15, #$100
4D86	FFFF		SUB R15, #$100
4D88	FFFF		SUB R15, #$100
4D8A	FFFF		SUB R15, #$100
4D8C	FFFF		SUB R15, #$100
4D8E	FFFF		SUB R15, #$100
4D90	FFFF		SUB R15, #$100
4D92	FFFF		SUB R15, #$100
4D94	FFFF		SUB R15, #$100
4D96	FFFF		SUB R15, #$100
4D98	FFFF		SUB R15, #$100
4D9A	FFFF		SUB R15, #$100
4D9C	FFFF		SUB R15, #$100
4D9E	FFFF		SUB R15, #$100
4DA0	FFFF		SUB R15, #$100
4DA2	FFFF		SUB R15, #$100
4DA4	FFFF		SUB R15, #$100
4DA6	FFFF		SUB R15, #$100
4DA8	FFFF		SUB R15, #$100
4DAA	FFFF		SUB R15, #$100
4DAC	FFFF		SUB R15, #$100
4DAE	FFFF		SUB R15, #$100
4DB0	FFFF		SUB R15, #$100
4DB2	FFFF		SUB R15, #$100
4DB4	FFFF		SUB R15, #$100
4DB6	FFFF		SUB R15, #$100
4DB8	FFFF		SUB R15, #$100
4DBA	FFFF		SUB R15, #$100
4DBC	FFFF		SUB R15, #$100
4DBE	FFFF		SUB R15, #$100
4DC0	FFFF		SUB R15, #$100
4DC2	FFFF		SUB R15, #$100
4DC4	FFFF		SUB R15, #$100
4DC6	FFFF		SUB R15, #$100
4DC8	FFFF		SUB R15, #$100
4DCA	FFFF		SUB R15, #$100
4DCC	FFFF		SUB R15, #$100
4DCE	FFFF		SUB R15, #$100
4DD0	FFFF		SUB R15, #$100
4DD2	FFFF		SUB R15, #$100
4DD4	FFFF		SUB R15, #$100
4DD6	FFFF		SUB R15, #$100
4DD8	FFFF		SUB R15, #$100
4DDA	FFFF		SUB R15, #$100
4DDC	FFFF		SUB R15, #$100
4DDE	FFFF		SUB R15, #$100
4DE0	FFFF		SUB R15, #$100
4DE2	FFFF		SUB R15, #$100
4DE4	FFFF		SUB R15, #$100
4DE6	FFFF		SUB R15, #$100
4DE8	FFFF		SUB R15, #$100
4DEA	FFFF		SUB R15, #$100
4DEC	FFFF		SUB R15, #$100
4DEE	FFFF		SUB R15, #$100
4DF0	FFFF		SUB R15, #$100
4DF2	FFFF		SUB R15, #$100
4DF4	FFFF		SUB R15, #$100
4DF6	FFFF		SUB R15, #$100
4DF8	FFFF		SUB R15, #$100
4DFA	FFFF		SUB R15, #$100
4DFC	FFFF		SUB R15, #$100
4DFE	FFFF		SUB R15, #$100
4E00	FFFF		SUB R15, #$100
4E02	FFFF		SUB R15, #$100
4E04	FFFF		SUB R15, #$100
4E06	FFFF		SUB R15, #$100
4E08	FFFF		SUB R15, #$100
4E0A	FFFF		SUB R15, #$100
4E0C	FFFF		SUB R15, #$100
4E0E	FFFF		SUB R15, #$100
4E10	FFFF		SUB R15, #$100
4E12	FFFF		SUB R15, #$100
4E14	FFFF		SUB R15, #$100
4E16	FFFF		SUB R15, #$100
4E18	FFFF		SUB R15, #$100
4E1A	FFFF		SUB R15, #$100
4E1C	FFFF		SUB R15, #$100
4E1E	FFFF		SUB R15, #$100
4E20	FFFF		SUB R15, #$100
4E22	FFFF		SUB R15, #$100
4E24	FFFF		SUB R15, #$100
4E26	FFFF		SUB R15, #$100
4E28	FFFF		SUB R15, #$100
4E2A	FFFF		SUB R15, #$100
4E2C	FFFF		SUB R15, #$100
4E2E	FFFF		SUB R15, #$100
4E30	FFFF		SUB R15, #$100
4E32	FFFF		SUB R15, #$100
4E34	FFFF		SUB R15, #$100
4E36	FFFF		SUB R15, #$100
4E38	FFFF		SUB R15, #$100
4E3A	FFFF		SUB R15, #$100
4E3C	FFFF		SUB R15, #$100
4E3E	FFFF		SUB R15, #$100
4E40	FFFF		SUB R15, #$100
4E42	FFFF		SUB R15, #$100
4E44	FFFF		SUB R15, #$100
4E46	FFFF		SUB R15, #$100
4E48	FFFF		SUB R15, #$100
4E4A	FFFF		SUB R15, #$100
4E4C	FFFF		SUB R15, #$100
4E4E	FFFF		SUB R15, #$100
4E50	FFFF		SUB R15, #$100
4E52	FFFF		SUB R15, #$100
4E54	FFFF		SUB R15, #$100
4E56	FFFF		SUB R15, #$100
4E58	FFFF		SUB R15, #$100
4E5A	FFFF		SUB R15, #$100
4E5C	FFFF		SUB R15, #$100
4E5E	FFFF		SUB R15, #$100
4E60	FFFF		SUB R15, #$100
4E62	FFFF		SUB R15, #$100
4E64	FFFF		SUB R15, #$100
4E66	FFFF		SUB R15, #$100
4E68	FFFF		SUB R15, #$100
4E6A	FFFF		SUB R15, #$100
4E6C	FFFF		SUB R15, #$100
4E6E	FFFF		SUB R15, #$100
4E70	FFFF		SUB R15, #$100
4E72	FFFF		SUB R15, #$100
4E74	FFFF		SUB R15, #$100
4E76	FFFF		SUB R15, #$100
4E78	FFFF		SUB R15, #$100
4E7A	FFFF		SUB R15, #$100
4E7C	FFFF		SUB R15, #$100
4E7E	FFFF		SUB R15, #$100
4E80	FFFF		SUB R15, #$100
4E82	FFFF		SUB R15, #$100
4E84	FFFF		SUB R15, #$100
4E86	FFFF		SUB R15, #$100
4E88	FFFF		SUB R15, #$100
4E8A	FFFF		SUB R15, #$100
4E8C	FFFF		SUB R15, #$100
4E8E	FFFF		SUB R15, #$100
4E90	FFFF		SUB R15, #$100
4E92	FFFF		SUB R15, #$100
4E94	FFFF		SUB R15, #$100
4E96	FFFF		SUB R15, #$100
4E98	FFFF		SUB R15, #$100
4E9A	FFFF		SUB R15, #$100
4E9C	FFFF		SUB R15, #$100
4E9E	FFFF		SUB R15, #$100
4EA0	FFFF		SUB R15, #$100
4EA2	FFFF		SUB R15, #$100
4EA4	FFFF		SUB R15, #$100
4EA6	FFFF		SUB R15, #$100
4EA8	FFFF		SUB R15, #$100
4EAA	FFFF		SUB R15, #$100
4EAC	FFFF		SUB R15, #$100
4EAE	FFFF		SUB R15, #$100
4EB0	FFFF		SUB R15, #$100
4EB2	FFFF		SUB R15, #$100
4EB4	FFFF		SUB R15, #$100
4EB6	FFFF		SUB R15, #$100
4EB8	FFFF		SUB R15, #$100
4EBA	FFFF		SUB R15, #$100
4EBC	FFFF		SUB R15, #$100
4EBE	FFFF		SUB R15, #$100
4EC0	FFFF		SUB R15, #$100
4EC2	FFFF		SUB R15, #$100
4EC4	FFFF		SUB R15, #$100
4EC6	FFFF		SUB R15, #$100
4EC8	FFFF		SUB R15, #$100
4ECA	FFFF		SUB R15, #$100
4ECC	FFFF		SUB R15, #$100
4ECE	FFFF		SUB R15, #$100
4ED0	FFFF		SUB R15, #$100
4ED2	FFFF		SUB R15, #$100
4ED4	FFFF		SUB R15, #$100
4ED6	FFFF		SUB R15, #$100
4ED8	FFFF		SUB R15, #$100
4EDA	FFFF		SUB R15, #$100
4EDC	FFFF		SUB R15, #$100
4EDE	FFFF		SUB R15, #$100
4EE0	FFFF		SUB R15, #$100
4EE2	FFFF		SUB R15, #$100
4EE4	FFFF		SUB R15, #$100
4EE6	FFFF		SUB R15, #$100
4EE8	FFFF		SUB R15, #$100
4EEA	FFFF		SUB R15, #$100
4EEC	FFFF		SUB R15, #$100
4EEE	FFFF		SUB R15, #$100
4EF0	FFFF		SUB R15, #$100
4EF2	FFFF		SUB R15, #$100
4EF4	FFFF		SUB R15, #$100
4EF6	FFFF		SUB R15, #$100
4EF8	FFFF		SUB R15, #$100
4EFA	FFFF		SUB R15, #$100
4EFC	FFFF		SUB R15, #$100
4EFE	FFFF		SUB R15, #$100
4F00	FFFF		SUB R15, #$100
4F02	FFFF		SUB R15, #$100
4F04	FFFF		SUB R15, #$100
4F06	FFFF		SUB R15, #$100
4F08	FFFF		SUB R15, #$100
4F0A	FFFF		SUB R15, #$100
4F0C	FFFF		SUB R15, #$100
4F0E	FFFF		SUB R15, #$100
4F10	FFFF		SUB R15, #$100
4F12	FFFF		SUB R15, #$100
4F14	FFFF		SUB R15, #$100
4F16	FFFF		SUB R15, #$100
4F18	FFFF		SUB R15, #$100
4F1A	FFFF		SUB R15, #$100
4F1C	FFFF		SUB R15, #$100
4F1E	FFFF		SUB R15, #$100
4F20	FFFF		SUB R15, #$100
4F22	FFFF		SUB R15, #$100
4F24	FFFF		SUB R15, #$100
4F26	FFFF		SUB R15, #$100
4F28	FFFF		SUB R15, #$100
4F2A	FFFF		SUB R15, #$100
4F2C	FFFF		SUB R15, #$100
4F2E	FFFF		SUB R15, #$100
4F30	FFFF		SUB R15, #$100
4F32	FFFF		SUB R15, #$100
4F34	FFFF		SUB R15, #$100
4F36	FFFF		SUB R15, #$100
4F38	FFFF		SUB R15, #$100
4F3A	FFFF		SUB R15, #$100
4F3C	FFFF		SUB R15, #$100
4F3E	FFFF		SUB R15, #$100
4F40	FFFF		SUB R15, #$100
4F42	FFFF		SUB R15, #$100
4F44	FFFF		SUB R15, #$100
4F46	FFFF		SUB R15, #$100
4F48	FFFF		SUB R15, #$100
4F4A	FFFF		SUB R15, #$100
4F4C	FFFF		SUB R15, #$100
4F4E	FFFF		SUB R15, #$100
4F50	FFFF		SUB R15, #$100
4F52	FFFF		SUB R15, #$100
4F54	FFFF		SUB R15, #$100
4F56	FFFF		SUB R15, #$100
4F58	FFFF		SUB R15, #$100
4F5A	FFFF		SUB R15, #$100
4F5C	FFFF		SUB R15, #$100
4F5E	FFFF		SUB R15, #$100
4F60	FFFF		SUB R15, #$100
4F62	FFFF		SUB R15, #$100
4F64	FFFF		SUB R15, #$100
4F66	FFFF		SUB R15, #$100
4F68	FFFF		SUB R15, #$100
4F6A	FFFF		SUB R15, #$100
4F6C	FFFF		SUB R15, #$100
4F6E	FFFF		SUB R15, #$100
4F70	FFFF		SUB R15, #$100
4F72	FFFF		SUB R15, #$100
4F74	FFFF		SUB R15, #$100
4F76	FFFF		SUB R15, #$100
4F78	FFFF		SUB R15, #$100
4F7A	FFFF		SUB R15, #$100
4F7C	FFFF		SUB R15, #$100
4F7E	FFFF		SUB R15, #$100
4F80	FFFF		SUB R15, #$100
4F82	FFFF		SUB R15, #$100
4F84	FFFF		SUB R15, #$100
4F86	FFFF		SUB R15, #$100
4F88	FFFF		SUB R15, #$100
4F8A	FFFF		SUB R15, #$100
4F8C	FFFF		SUB R15, #$100
4F8E	FFFF		SUB R15, #$100
4F90	FFFF		SUB R15, #$100
4F92	FFFF		SUB R15, #$100
4F94	FFFF		SUB R15, #$100
4F96	FFFF		SUB R15, #$100
4F98	FFFF		SUB R15, #$100
4F9A	FFFF		SUB R15, #$100
4F9C	FFFF		SUB R15, #$100
4F9E	FFFF		SUB R15, #$100
4FA0	FFFF		SUB R15, #$100
4FA2	FFFF		SUB R15, #$100
4FA4	FFFF		SUB R15, #$100
4FA6	FFFF		SUB R15, #$100
4FA8	FFFF		SUB R15, #$100
4FAA	FFFF		SUB R15, #$100
4FAC	FFFF		SUB R15, #$100
4FAE	FFFF		SUB R15, #$100
4FB0	FFFF		SUB R15, #$100
4FB2	FFFF		SUB R15, #$100
4FB4	FFFF		SUB R15, #$100
4FB6	FFFF		SUB R15, #$100
4FB8	FFFF		SUB R15, #$100
4FBA	FFFF		SUB R15, #$100
4FBC	FFFF		SUB R15, #$100
4FBE	FFFF		SUB R15, #$100
4FC0	FFFF		SUB R15, #$100
4FC2	FFFF		SUB R15, #$100
4FC4	FFFF		SUB R15, #$100
4FC6	FFFF		SUB R15, #$100
4FC8	FFFF		SUB R15, #$100
4FCA	FFFF		SUB R15, #$100
4FCC	FFFF		SUB R15, #$100
4FCE	FFFF		SUB R15, #$100
4FD0	FFFF		SUB R15, #$100
4FD2	FFFF		SUB R15, #$100
4FD4	FFFF		SUB R15, #$100
4FD6	FFFF		SUB R15, #$100
4FD8	FFFF		SUB R15, #$100
4FDA	FFFF		SUB R15, #$100
4FDC	FFFF		SUB R15, #$100
4FDE	FFFF		SUB R15, #$100
4FE0	FFFF		SUB R15, #$100
4FE2	FFFF		SUB R15, #$100
4FE4	FFFF		SUB R15, #$100
4FE6	FFFF		SUB R15, #$100
4FE8	FFFF		SUB R15, #$100
4FEA	FFFF		SUB R15, #$100
4FEC	FFFF		SUB R15, #$100
4FEE	FFFF		SUB R15, #$100
4FF0	FFFF		SUB R15, #$100
4FF2	FFFF		SUB R15, #$100
4FF4	FFFF		SUB R15, #$100
4FF6	FFFF		SUB R15, #$100
4FF8	FFFF		SUB R15, #$100
4FFA	FFFF		SUB R15, #$100
4FFC	FFFF		SUB R15, #$100
4FFE	FFFF		SUB R15, #$100
5000	A00F		BRA $5012		; $10(R0)

5002	815B		LBI R1, #$5B
5004	011D		MLH R1, R1
5006	8100		LBI R1, #$00
5008	0014		RET R1

500A	815E		LBI R1, #$5E
500C	011D		MLH R1, R1
500E	81E0		LBI R1, #$E0
5010	0014		RET R1

5012	32FD		MOVE $1FA, R2
5014	3356		MOVE $AC, R3
5016	2174		MOVE R1, $E8
5018	3162		MOVE $C4, R1
501A	2177		MOVE R1, $EE
501C	316A		MOVE $D4, R1
501E	8158		LBI R1, #$58
5020	011D		MLH R1, R1
5022	81C4		LBI R1, #$C4
5024	3160		MOVE $C0, R1
5026	8158		LBI R1, #$58
5028	011D		MLH R1, R1
502A	81E4		LBI R1, #$E4
502C	3164		MOVE $C8, R1
502E	1108		CTRL $1, #$08
5030	1452		CTRL $4, #$52
5032	8110		LBI R1, #$10
5034	2452		MOVE R4, $A4
5036	C417		SBSH R4, R1
5038	A003		BRA $503E		; $04(R0)

503A	1054		CTRL $0, #$54
503C	A001		BRA $5040		; $02(R0)

503E	1044		CTRL $0, #$44
5040	054C		MHL R5, R4
5042	9540		CLR R5, #$40
5044	045D		MLH R4, R5
5046	3452		MOVE $A4, R4
5048	A30B		ADD R3, #$0C
504A	2453		MOVE R4, $A6
504C	5438		MOVE (R3), R4
504E	F30B		SUB R3, #$0C
5050	6430		MOVB R4, (R3)+
5052	6530		MOVB R5, (R3)+
5054	6735		MOVB R7, (R3)--
5056	94F0		CLR R4, #$F0
5058	28FA		MOVE R8, $1F4
505A	098C		MHL R9, R8
505C	C903		SZ R9
505E	A003		BRA $5064		; $04(R0)

5060	C80B		SNZ R8
5062	A03D		BRA $50A2		; $3E(R0)

5064	2A53		MOVE R10, $A6
5066	8A80		LBI R10, #$80
5068	0B44		MOVE R11, R4
506A	C9A6		SBC R9, R10
506C	A01F		BRA $508E		; $20(R0)

506E	FB00		SUB R11, #$01
5070	CB0C		SNS R11
5072	A02D		BRA $50A2		; $2E(R0)

5074	E0AC		SHR R10
5076	CA03		SZ R10
5078	F00F		BRA $506A		; -> -$10(R0)

507A	8A80		LBI R10, #$80
507C	C8A6		SBC R8, R10
507E	A015		BRA $5096		; $16(R0)

5080	FB00		SUB R11, #$01
5082	CB0C		SNS R11
5084	A01B		BRA $50A2		; $1C(R0)

5086	E0AC		SHR R10
5088	CA03		SZ R10
508A	F00F		BRA $507C		; -> -$10(R0)

508C	A013		BRA $50A2		; $14(R0)

508E	FB00		SUB R11, #$01
5090	CB04		SS R11
5092	F01F		BRA $5074		; -> -$20(R0)

5094	A005		BRA $509C		; $06(R0)

5096	FB00		SUB R11, #$01
5098	CB04		SS R11
509A	F015		BRA $5086		; -> -$16(R0)

509C	21FB		MOVE R1, $1F6
509E	3174		MOVE $E8, R1
50A0	2076		JMP ($00EC)

50A2	0448		ADD R4, R4
50A4	0448		ADD R4, R4
50A6	0448		ADD R4, R4
50A8	0048		ADD R0, R4
50AA	8151		LBI R1, #$51
50AC	011D		MLH R1, R1
50AE	812A		LBI R1, #$2A
50B0	0014		RET R1

50B2	8151		LBI R1, #$51
50B4	011D		MLH R1, R1
50B6	81EA		LBI R1, #$EA
50B8	0014		RET R1

50BA	8158		LBI R1, #$58
50BC	011D		MLH R1, R1
50BE	815C		LBI R1, #$5C
50C0	0014		RET R1

50C2	8158		LBI R1, #$58
50C4	011D		MLH R1, R1
50C6	815C		LBI R1, #$5C
50C8	0014		RET R1

50CA	8152		LBI R1, #$52
50CC	011D		MLH R1, R1
50CE	8124		LBI R1, #$24
50D0	0014		RET R1

50D2	8156		LBI R1, #$56
50D4	011D		MLH R1, R1
50D6	81B6		LBI R1, #$B6
50D8	0014		RET R1

50DA	8157		LBI R1, #$57
50DC	011D		MLH R1, R1
50DE	8112		LBI R1, #$12
50E0	0014		RET R1

50E2	8157		LBI R1, #$57
50E4	011D		MLH R1, R1
50E6	8126		LBI R1, #$26
50E8	0014		RET R1

50EA	8157		LBI R1, #$57
50EC	011D		MLH R1, R1
50EE	8148		LBI R1, #$48
50F0	0014		RET R1

50F2	8157		LBI R1, #$57
50F4	011D		MLH R1, R1
50F6	8150		LBI R1, #$50
50F8	0014		RET R1

50FA	8157		LBI R1, #$57
50FC	011D		MLH R1, R1
50FE	815E		LBI R1, #$5E
5100	0014		RET R1

5102	8157		LBI R1, #$57
5104	011D		MLH R1, R1
5106	817A		LBI R1, #$7A
5108	0014		RET R1

510A	8157		LBI R1, #$57
510C	011D		MLH R1, R1
510E	81A2		LBI R1, #$A2
5110	0014		RET R1

5112	8157		LBI R1, #$57
5114	011D		MLH R1, R1
5116	81C2		LBI R1, #$C2
5118	0014		RET R1

511A	8157		LBI R1, #$57
511C	011D		MLH R1, R1
511E	81E2		LBI R1, #$E2
5120	0014		RET R1

5122	8158		LBI R1, #$58
5124	011D		MLH R1, R1
5126	815C		LBI R1, #$5C
5128	0014		RET R1

512A	D431		MOVE R4, (R3)+
512C	6430		MOVB R4, (R3)+
512E	94F8		CLR R4, #$F8
5130	6638		MOVB R6, (R3)
5132	96F0		CLR R6, #$F0
5134	0448		ADD R4, R4
5136	0048		ADD R0, R4
5138	A021		BRA $515C		; $22(R0)

513A	A011		BRA $514E		; $12(R0)

513C	A05D		BRA $519C		; $5E(R0)

513E	A01F		BRA $5160		; $20(R0)

5140	A005		BRA $5148		; $06(R0)

5142	A099		BRA $51DE		; $9A(R0)

5144	A097		BRA $51DE		; $98(R0)

5146	A095		BRA $51DE		; $96(R0)

5148	0203		INC2 R2, R0
514A	2058		JMP ($00B0)

514C	A08D		BRA $51DC		; $8E(R0)

514E	1064		CTRL $0, #$64
5150	2452		MOVE R4, $A4
5152	054C		MHL R5, R4
5154	9510		CLR R5, #$10
5156	045D		MLH R4, R5
5158	3452		MOVE $A4, R4
515A	A07F		BRA $51DC		; $80(R0)

515C	1074		CTRL $0, #$74
515E	A071		BRA $51D2		; $72(R0)

5160	1074		CTRL $0, #$74
5162	8410		LBI R4, #$10
5164	0469		SUB R4, R6
5166	8506		LBI R5, #$06
5168	055D		MLH R5, R5
516A	853E		LBI R5, #$3E
516C	F53F		SUB R5, #$40
516E	F600		SUB R6, #$01
5170	C604		SS R6
5172	F007		BRA $516C		; -> -$08(R0)

5174	0654		MOVE R6, R5
5176	F63F		SUB R6, #$40
5178	F400		SUB R4, #$01
517A	C40B		SNZ R4
517C	A00D		BRA $518C		; $0E(R0)

517E	8720		LBI R7, #$20
5180	D165		MOVE R1, (R6)-
5182	5155		MOVE (R5)-, R1
5184	F700		SUB R7, #$01
5186	C703		SZ R7
5188	F009		BRA $5180		; -> -$0A(R0)

518A	F013		BRA $5178		; -> -$14(R0)

518C	8600		LBI R6, #$00
518E	066D		MLH R6, R6
5190	8720		LBI R7, #$20
5192	5655		MOVE (R5)-, R6
5194	F700		SUB R7, #$01
5196	C703		SZ R7
5198	F007		BRA $5192		; -> -$08(R0)

519A	A035		BRA $51D2		; $36(R0)

519C	1074		CTRL $0, #$74
519E	810F		LBI R1, #$0F
51A0	8502		LBI R5, #$02
51A2	055D		MLH R5, R5
51A4	8500		LBI R5, #$00
51A6	8402		LBI R4, #$02
51A8	044D		MLH R4, R4
51AA	8440		LBI R4, #$40
51AC	C61A		SNE R6, R1
51AE	A015		BRA $51C6		; $16(R0)

51B0	8720		LBI R7, #$20
51B2	D141		MOVE R1, (R4)+
51B4	5151		MOVE (R5)+, R1
51B6	F700		SUB R7, #$01
51B8	C703		SZ R7
51BA	F009		BRA $51B2		; -> -$0A(R0)

51BC	A600		ADD R6, #$01
51BE	810F		LBI R1, #$0F
51C0	C612		SE R6, R1
51C2	F013		BRA $51B0		; -> -$14(R0)

51C4	8720		LBI R7, #$20
51C6	8400		LBI R4, #$00
51C8	044D		MLH R4, R4
51CA	5451		MOVE (R5)+, R4
51CC	F700		SUB R7, #$01
51CE	C703		SZ R7
51D0	F00B		BRA $51C6		; -> -$0C(R0)

51D2	2452		MOVE R4, $A4
51D4	054C		MHL R5, R4
51D6	B510		SET R5, #$10
51D8	045D		MLH R4, R5
51DA	3452		MOVE $A4, R4
51DC	A03D		BRA $521C		; $3E(R0)

51DE	841B		LBI R4, #$1B
51E0	044D		MLH R4, R4
51E2	841D		LBI R4, #$1D
51E4	A308		ADD R3, #$09
51E6	5438		MOVE (R3), R4
51E8	F017		BRA $51D2		; -> -$18(R0)

51EA	2452		MOVE R4, $A4
51EC	054C		MHL R5, R4
51EE	B502		SET R5, #$02
51F0	045D		MLH R4, R5
51F2	3452		MOVE $A4, R4
51F4	0203		INC2 R2, R0
51F6	205B		JMP ($00B6)

51F8	A302		ADD R3, #$03
51FA	6436		MOVB R4, (R3)---
51FC	8110		LBI R1, #$10
51FE	C41E		SNBC R4, R1
5200	A019		BRA $521C		; $1A(R0)

5202	A30B		ADD R3, #$0C
5204	D438		MOVE R4, (R3)
5206	F30B		SUB R3, #$0C
5208	C403		SZ R4
520A	A009		BRA $5216		; $0A(R0)

520C	A309		ADD R3, #$0A
520E	D438		MOVE R4, (R3)
5210	F309		SUB R3, #$0A
5212	3474		MOVE $E8, R4
5214	2076		JMP ($00EC)

5216	0203		INC2 R2, R0
5218	205A		JMP ($00B4)

521A	0000		HALT
521C	8158		LBI R1, #$58
521E	011D		MLH R1, R1
5220	8168		LBI R1, #$68
5222	0014		RET R1

5224	A301		ADD R3, #$02
5226	6435		MOVB R4, (R3)--
5228	8101		LBI R1, #$01
522A	C41A		SNE R4, R1
522C	A00B		BRA $523A		; $0C(R0)

522E	A30B		ADD R3, #$0C
5230	811B		LBI R1, #$1B
5232	011D		MLH R1, R1
5234	811D		LBI R1, #$1D
5236	5138		MOVE (R3), R1
5238	A0D5		BRA $5310		; $D6(R0)

523A	2452		MOVE R4, $A4
523C	8108		LBI R1, #$08
523E	C41E		SNBC R4, R1
5240	A00D		BRA $5250		; $0E(R0)

5242	9408		CLR R4, #$08
5244	3452		MOVE $A4, R4
5246	8159		LBI R1, #$59
5248	011D		MLH R1, R1
524A	81F4		LBI R1, #$F4
524C	0203		INC2 R2, R0
524E	0014		RET R1

5250	A300		ADD R3, #$01
5252	6432		MOVB R4, (R3)+++
5254	8180		LBI R1, #$80
5256	C41A		SNE R4, R1
5258	A003		BRA $525E		; $04(R0)

525A	F303		SUB R3, #$04
525C	A0B9		BRA $5318		; $BA(R0)

525E	2452		MOVE R4, $A4
5260	8120		LBI R1, #$20
5262	C417		SBSH R4, R1
5264	A02F		BRA $5296		; $30(R0)

5266	2450		MOVE R4, $A0
5268	B480		SET R4, #$80
526A	044D		MLH R4, R4
526C	8400		LBI R4, #$00
526E	3450		MOVE $A0, R4
5270	8152		LBI R1, #$52
5272	011D		MLH R1, R1
5274	8196		LBI R1, #$96
5276	24FC		MOVE R4, $1F8
5278	A41F		ADD R4, #$20
527A	5148		MOVE (R4), R1
527C	A405		ADD R4, #$06
527E	5348		MOVE (R4), R3
5280	A419		ADD R4, #$1A
5282	2552		MOVE R5, $A4
5284	5548		MOVE (R4), R5
5286	B504		SET R5, #$04
5288	3552		MOVE $A4, R5
528A	815A		LBI R1, #$5A
528C	011D		MLH R1, R1
528E	8146		LBI R1, #$46
5290	0203		INC2 R2, R0
5292	0014		RET R1

5294	2053		JMP ($00A6)

5296	2452		MOVE R4, $A4
5298	054C		MHL R5, R4
529A	9580		CLR R5, #$80
529C	045D		MLH R4, R5
529E	3452		MOVE $A4, R4
52A0	D434		MOVE R4, (R3)~
52A2	2E53		MOVE R14, $A6
52A4	6648		MOVB R6, (R4)
52A6	C603		SZ R6
52A8	A003		BRA $52AE		; $04(R0)

52AA	8780		LBI R7, #$80
52AC	A001		BRA $52B0		; $02(R0)

52AE	8700		LBI R7, #$00
52B0	0864		MOVE R8, R6
52B2	7748		MOVB (R4), R7
52B4	8928		LBI R9, #$28
52B6	099D		MLH R9, R9
52B8	8980		LBI R9, #$80
52BA	2C52		MOVE R12, $A4
52BC	8108		LBI R1, #$08
52BE	CC1F		SNBSH R12, R1
52C0	A04B		BRA $530E		; $4C(R0)

52C2	2A50		MOVE R10, $A0
52C4	8103		LBI R1, #$03
52C6	0BAC		MHL R11, R10
52C8	CB16		SBC R11, R1
52CA	A027		BRA $52F4		; $28(R0)

52CC	81FF		LBI R1, #$FF
52CE	F900		SUB R9, #$01
52D0	C917		SBSH R9, R1
52D2	F019		BRA $52BA		; -> -$1A(R0)

52D4	2C52		MOVE R12, $A4
52D6	8101		LBI R1, #$01
52D8	CC1D		SNBS R12, R1
52DA	A00F		BRA $52EC		; $10(R0)

52DC	AE00		ADD R14, #$01
52DE	8102		LBI R1, #$02
52E0	CE12		SE R14, R1
52E2	A007		BRA $52EC		; $08(R0)

52E4	2C51		MOVE R12, $A2
52E6	BC02		SET R12, #$02
52E8	3C51		MOVE $A2, R12
52EA	A021		BRA $530E		; $22(R0)

52EC	067D		MLH R6, R7
52EE	0784		MOVE R7, R8
52F0	086C		MHL R8, R6
52F2	F041		BRA $52B2		; -> -$42(R0)

52F4	7648		MOVB (R4), R6
52F6	2153		MOVE R1, $A6
52F8	3150		MOVE $A0, R1
52FA	8101		LBI R1, #$01
52FC	CB16		SBC R11, R1
52FE	F05B		BRA $52A4		; -> -$5C(R0)

5300	81DD		LBI R1, #$DD
5302	CA12		SE R10, R1
5304	A005		BRA $530C		; $06(R0)

5306	0203		INC2 R2, R0
5308	2060		JMP ($00C0)

530A	F067		BRA $52A4		; -> -$68(R0)

530C	7A38		MOVB (R3), R10
530E	F302		SUB R3, #$03
5310	8158		LBI R1, #$58
5312	011D		MLH R1, R1
5314	8168		LBI R1, #$68
5316	0014		RET R1

5318	2452		MOVE R4, $A4
531A	054C		MHL R5, R4
531C	B404		SET R4, #$04
531E	9403		CLR R4, #$03
5320	9580		CLR R5, #$80
5322	045D		MLH R4, R5
5324	3452		MOVE $A4, R4
5326	2D53		MOVE R13, $A6
5328	A302		ADD R3, #$03
532A	6430		MOVB R4, (R3)+
532C	8C05		LBI R12, #$05
532E	0CCD		MLH R12, R12
5330	8C80		LBI R12, #$80
5332	5C38		MOVE (R3), R12
5334	8180		LBI R1, #$80
5336	2F52		MOVE R15, $A4
5338	CF16		SBC R15, R1
533A	A003		BRA $5340		; $04(R0)

533C	94C0		CLR R4, #$C0
533E	A001		BRA $5342		; $02(R0)

5340	9480		CLR R4, #$80
5342	05C4		MOVE R5, R12
5344	0548		ADD R5, R4
5346	6658		MOVB R6, (R5)
5348	C603		SZ R6
534A	A003		BRA $5350		; $04(R0)

534C	8780		LBI R7, #$80
534E	A001		BRA $5352		; $02(R0)

5350	8700		LBI R7, #$00
5352	0864		MOVE R8, R6
5354	7758		MOVB (R5), R7
5356	8940		LBI R9, #$40
5358	099D		MLH R9, R9
535A	8900		LBI R9, #$00
535C	2A50		MOVE R10, $A0
535E	8103		LBI R1, #$03
5360	0BAC		MHL R11, R10
5362	CB16		SBC R11, R1
5364	A00F		BRA $5376		; $10(R0)

5366	81FF		LBI R1, #$FF
5368	F900		SUB R9, #$01
536A	C917		SBSH R9, R1
536C	F011		BRA $535C		; -> -$12(R0)

536E	067D		MLH R6, R7
5370	0784		MOVE R7, R8
5372	086C		MHL R8, R6
5374	F021		BRA $5354		; -> -$22(R0)

5376	7658		MOVB (R5), R6
5378	8601		LBI R6, #$01
537A	2753		MOVE R7, $A6
537C	3750		MOVE $A0, R7
537E	CB66		SBC R11, R6
5380	A005		BRA $5388		; $06(R0)

5382	0668		ADD R6, R6
5384	A701		ADD R7, #$02
5386	F009		BRA $537E		; -> -$0A(R0)

5388	0078		ADD R0, R7
538A	A00D		BRA $539A		; $0E(R0)

538C	A00D		BRA $539C		; $0E(R0)

538E	F05B		BRA $5334		; -> -$5C(R0)

5390	F05D		BRA $5334		; -> -$5E(R0)

5392	F05F		BRA $5334		; -> -$60(R0)

5394	F061		BRA $5334		; -> -$62(R0)

5396	F063		BRA $5334		; -> -$64(R0)

5398	F065		BRA $5334		; -> -$66(R0)

539A	F067		BRA $5334		; -> -$68(R0)

539C	81AA		LBI R1, #$AA
539E	CA1A		SNE R10, R1
53A0	F06D		BRA $5334		; -> -$6E(R0)

53A2	81B0		LBI R1, #$B0
53A4	CA11		SLT R10, R1
53A6	A0D1		BRA $547A		; $D2(R0)

53A8	81E9		LBI R1, #$E9
53AA	C1A2		SE R1, R10
53AC	A00F		BRA $53BE		; $10(R0)

53AE	8180		LBI R1, #$80
53B0	2F52		MOVE R15, $A4
53B2	CF16		SBC R15, R1
53B4	A003		BRA $53BA		; $04(R0)

53B6	8A3C		LBI R10, #$3C
53B8	A017		BRA $53D2		; $18(R0)

53BA	8A27		LBI R10, #$27
53BC	A013		BRA $53D2		; $14(R0)

53BE	81E8		LBI R1, #$E8
53C0	C1A2		SE R1, R10
53C2	A00D		BRA $53D2		; $0E(R0)

53C4	8180		LBI R1, #$80
53C6	2F52		MOVE R15, $A4
53C8	CF16		SBC R15, R1
53CA	A003		BRA $53D0		; $04(R0)

53CC	8A25		LBI R10, #$25
53CE	A001		BRA $53D2		; $02(R0)

53D0	8A53		LBI R10, #$53
53D2	6F58		MOVB R15, (R5)
53D4	2751		MOVE R7, $A2
53D6	8101		LBI R1, #$01
53D8	C71F		SNBSH R7, R1
53DA	A031		BRA $540E		; $32(R0)

53DC	277F		MOVE R7, $FE
53DE	A7FF		ADD R7, #$100
53E0	8800		LBI R8, #$00
53E2	088D		MLH R8, R8
53E4	880E		LBI R8, #$0E
53E6	4180		PUTB $1, (R8)+
53E8	4188		PUTB $1, (R8)
53EA	F000		BRA $53EB		; -> -$01(R0)

53EC	018E		GETB R8, $1
53EE	C80C		SNS R8
53F0	A039		BRA $542C		; $3A(R0)

53F2	C8A2		SE R8, R10
53F4	A00D		BRA $5404		; $0E(R0)

53F6	0004		NOP
53F8	018E		GETB R8, $1
53FA	C8F2		SE R8, R15
53FC	A009		BRA $5408		; $0A(R0)

53FE	0004		NOP
5400	01AE		GETB R10, $1
5402	A059		BRA $545E		; $5A(R0)

5404	018E		GETB R8, $1
5406	F000		BRA $5407		; -> -$01(R0)

5408	018E		GETB R8, $1
540A	0004		NOP
540C	F021		BRA $53EC		; -> -$22(R0)

540E	277F		MOVE R7, $FE
5410	A7FF		ADD R7, #$100
5412	6870		MOVB R8, (R7)+
5414	C80C		SNS R8
5416	A013		BRA $542C		; $14(R0)

5418	C8A2		SE R8, R10
541A	A009		BRA $5426		; $0A(R0)

541C	6870		MOVB R8, (R7)+
541E	C8F2		SE R8, R15
5420	A005		BRA $5428		; $06(R0)

5422	6A78		MOVB R10, (R7)
5424	A037		BRA $545E		; $38(R0)

5426	A700		ADD R7, #$01
5428	A700		ADD R7, #$01
542A	F019		BRA $5412		; -> -$1A(R0)

542C	811B		LBI R1, #$1B
542E	C1A0		SLE R1, R10
5430	A01B		BRA $544E		; $1C(R0)

5432	8132		LBI R1, #$32
5434	C1A2		SE R1, R10
5436	A025		BRA $545E		; $26(R0)

5438	8134		LBI R1, #$34
543A	C1FA		SNE R1, R15
543C	A00B		BRA $544A		; $0C(R0)

543E	811B		LBI R1, #$1B
5440	C1F8		SGT R1, R15
5442	A019		BRA $545E		; $1A(R0)

5444	8100		LBI R1, #$00
5446	C1FA		SNE R1, R15
5448	A013		BRA $545E		; $14(R0)

544A	8A80		LBI R10, #$80
544C	A00D		BRA $545C		; $0E(R0)

544E	8100		LBI R1, #$00
5450	CA1A		SNE R10, R1
5452	A009		BRA $545E		; $0A(R0)

5454	8132		LBI R1, #$32
5456	C1F2		SE R1, R15
5458	A003		BRA $545E		; $04(R0)

545A	8F80		LBI R15, #$80
545C	0AF8		ADD R10, R15
545E	7A58		MOVB (R5), R10
5460	A400		ADD R4, #$01
5462	2A52		MOVE R10, $A4
5464	8180		LBI R1, #$80
5466	CA15		SBS R10, R1
5468	A007		BRA $5472		; $08(R0)

546A	2167		MOVE R1, $CE
546C	6A18		MOVB R10, (R1)
546E	9A80		CLR R10, #$80
5470	7A18		MOVB (R1), R10
5472	8153		LBI R1, #$53
5474	011D		MLH R1, R1
5476	8134		LBI R1, #$34
5478	0014		RET R1

547A	08A4		MOVE R8, R10
547C	81D6		LBI R1, #$D6
547E	CA18		SGT R10, R1
5480	A057		BRA $54DA		; $58(R0)

5482	F8D6		SUB R8, #$D7
5484	0888		ADD R8, R8
5486	0088		ADD R0, R8
5488	F017		BRA $5472		; -> -$18(R0)

548A	F019		BRA $5472		; -> -$1A(R0)

548C	F01B		BRA $5472		; -> -$1C(R0)

548E	F01D		BRA $5472		; -> -$1E(R0)

5490	F01F		BRA $5472		; -> -$20(R0)

5492	F021		BRA $5472		; -> -$22(R0)

5494	A057		BRA $54EE		; $58(R0)

5496	F025		BRA $5472		; -> -$26(R0)

5498	F027		BRA $5472		; -> -$28(R0)

549A	F029		BRA $5472		; -> -$2A(R0)

549C	F02B		BRA $5472		; -> -$2C(R0)

549E	A041		BRA $54E2		; $42(R0)

54A0	A043		BRA $54E6		; $44(R0)

54A2	F031		BRA $5472		; -> -$32(R0)

54A4	F033		BRA $5472		; -> -$34(R0)

54A6	F035		BRA $5472		; -> -$36(R0)

54A8	F037		BRA $5472		; -> -$38(R0)

54AA	A04B		BRA $54F8		; $4C(R0)

54AC	A049		BRA $54F8		; $4A(R0)

54AE	F03D		BRA $5472		; -> -$3E(R0)

54B0	F03F		BRA $5472		; -> -$40(R0)

54B2	F041		BRA $5472		; -> -$42(R0)

54B4	F043		BRA $5472		; -> -$44(R0)

54B6	F045		BRA $5472		; -> -$46(R0)

54B8	A0E3		BRA $559E		; $E4(R0)

54BA	A043		BRA $5500		; $44(R0)

54BC	A041		BRA $5500		; $42(R0)

54BE	A03F		BRA $5500		; $40(R0)

54C0	A03D		BRA $5500		; $3E(R0)

54C2	A03B		BRA $5500		; $3C(R0)

54C4	A039		BRA $5500		; $3A(R0)

54C6	A037		BRA $5500		; $38(R0)

54C8	A035		BRA $5500		; $36(R0)

54CA	A033		BRA $5500		; $34(R0)

54CC	A031		BRA $5500		; $32(R0)

54CE	F06F		BRA $5460		; -> -$70(R0)

54D0	A021		BRA $54F4		; $22(R0)

54D2	A045		BRA $551A		; $46(R0)

54D4	A053		BRA $552A		; $54(R0)

54D6	A065		BRA $553E		; $66(R0)

54D8	A0A1		BRA $557C		; $A2(R0)

54DA	8155		LBI R1, #$55
54DC	011D		MLH R1, R1
54DE	81C4		LBI R1, #$C4
54E0	0014		RET R1

54E2	8A4C		LBI R10, #$4C
54E4	F087		BRA $545E		; -> -$88(R0)

54E6	8120		LBI R1, #$20
54E8	A303		ADD R3, #$04
54EA	7137		MOVB (R3)----, R1
54EC	A023		BRA $5512		; $24(R0)

54EE	0203		INC2 R2, R0
54F0	2060		JMP ($00C0)

54F2	F081		BRA $5472		; -> -$82(R0)

54F4	F400		SUB R4, #$01
54F6	F085		BRA $5472		; -> -$86(R0)

54F8	8153		LBI R1, #$53
54FA	011D		MLH R1, R1
54FC	81A8		LBI R1, #$A8
54FE	0014		RET R1

5500	8180		LBI R1, #$80
5502	2F52		MOVE R15, $A4
5504	CF16		SBC R15, R1
5506	A0B3		BRA $55BC		; $B4(R0)

5508	9AF0		CLR R10, #$F0
550A	F300		SUB R3, #$01
550C	7438		MOVB (R3), R4
550E	A304		ADD R3, #$05
5510	7A38		MOVB (R3), R10
5512	8156		LBI R1, #$56
5514	011D		MLH R1, R1
5516	81A4		LBI R1, #$A4
5518	0014		RET R1

551A	A304		ADD R3, #$05
551C	6838		MOVB R8, (R3)
551E	F304		SUB R3, #$05
5520	8180		LBI R1, #$80
5522	C81A		SNE R8, R1
5524	A095		BRA $55BC		; $96(R0)

5526	8840		LBI R8, #$40
5528	A00D		BRA $5538		; $0E(R0)

552A	A304		ADD R3, #$05
552C	6838		MOVB R8, (R3)
552E	F304		SUB R3, #$05
5530	8180		LBI R1, #$80
5532	C81A		SNE R8, R1
5534	A085		BRA $55BC		; $86(R0)

5536	8880		LBI R8, #$80
5538	A303		ADD R3, #$04
553A	7837		MOVB (R3)----, R8
553C	F02B		BRA $5512		; -> -$2C(R0)

553E	8180		LBI R1, #$80
5540	2F52		MOVE R15, $A4
5542	CF16		SBC R15, R1
5544	A007		BRA $554E		; $08(R0)

5546	8705		LBI R7, #$05
5548	077D		MLH R7, R7
554A	87BE		LBI R7, #$BE
554C	A005		BRA $5554		; $06(R0)

554E	8705		LBI R7, #$05
5550	077D		MLH R7, R7
5552	87FE		LBI R7, #$FE
5554	D878		MOVE R8, (R7)
5556	C803		SZ R8
5558	A061		BRA $55BC		; $62(R0)

555A	8180		LBI R1, #$80
555C	2F52		MOVE R15, $A4
555E	CF16		SBC R15, R1
5560	A003		BRA $5566		; $04(R0)

5562	883F		LBI R8, #$3F
5564	A001		BRA $5568		; $02(R0)

5566	887F		LBI R8, #$7F
5568	C48A		SNE R4, R8
556A	A04F		BRA $55BC		; $50(R0)

556C	6970		MOVB R9, (R7)+
556E	7975		MOVB (R7)--, R9
5570	F800		SUB R8, #$01
5572	C489		SGE R4, R8
5574	F009		BRA $556C		; -> -$0A(R0)

5576	A700		ADD R7, #$01
5578	7D78		MOVB (R7), R13
557A	A03F		BRA $55BC		; $40(R0)

557C	8180		LBI R1, #$80
557E	2F52		MOVE R15, $A4
5580	CF16		SBC R15, R1
5582	A003		BRA $5588		; $04(R0)

5584	873F		LBI R7, #$3F
5586	A001		BRA $558A		; $02(R0)

5588	877F		LBI R7, #$7F
558A	C47A		SNE R4, R7
558C	A00B		BRA $559A		; $0C(R0)

558E	A500		ADD R5, #$01
5590	6854		MOVB R8, (R5)-
5592	7850		MOVB (R5)+, R8
5594	F700		SUB R7, #$01
5596	C479		SGE R4, R7
5598	F00B		BRA $558E		; -> -$0C(R0)

559A	7D58		MOVB (R5), R13
559C	A01D		BRA $55BC		; $1E(R0)

559E	8180		LBI R1, #$80
55A0	2F52		MOVE R15, $A4
55A2	CF16		SBC R15, R1
55A4	A003		BRA $55AA		; $04(R0)

55A6	8740		LBI R7, #$40
55A8	A009		BRA $55B4		; $0A(R0)

55AA	8780		LBI R7, #$80
55AC	2F67		MOVE R15, $CE
55AE	61F8		MOVB R1, (R15)
55B0	B180		SET R1, #$80
55B2	71F8		MOVB (R15), R1
55B4	7D50		MOVB (R5)+, R13
55B6	F700		SUB R7, #$01
55B8	C479		SGE R4, R7
55BA	F007		BRA $55B4		; -> -$08(R0)

55BC	8153		LBI R1, #$53
55BE	011D		MLH R1, R1
55C0	8134		LBI R1, #$34
55C2	0014		RET R1

55C4	8180		LBI R1, #$80
55C6	2F52		MOVE R15, $A4
55C8	CF16		SBC R15, R1
55CA	A001		BRA $55CE		; $02(R0)

55CC	A009		BRA $55D8		; $0A(R0)

55CE	81CB		LBI R1, #$CB
55D0	CA18		SGT R10, R1
55D2	A0C7		BRA $569C		; $C8(R0)

55D4	1034		CTRL $0, #$34
55D6	1104		CTRL $1, #$04
55D8	A305		ADD R3, #$06
55DA	D738		MOVE R7, (R3)
55DC	F305		SUB R3, #$06
55DE	C703		SZ R7
55E0	A005		BRA $55E8		; $06(R0)

55E2	087C		MHL R8, R7
55E4	C80B		SNZ R8
55E6	A0AF		BRA $5698		; $B0(R0)

55E8	8800		LBI R8, #$00
55EA	088D		MLH R8, R8
55EC	880E		LBI R8, #$0E
55EE	4180		PUTB $1, (R8)+
55F0	4188		PUTB $1, (R8)
55F2	F000		BRA $55F3		; -> -$01(R0)

55F4	018E		GETB R8, $1
55F6	C80C		SNS R8
55F8	A09D		BRA $5698		; $9E(R0)

55FA	C8A2		SE R8, R10
55FC	A051		BRA $5650		; $52(R0)

55FE	018E		GETB R8, $1
5600	C80B		SNZ R8
5602	A067		BRA $566C		; $68(R0)

5604	0004		NOP
5606	019E		GETB R9, $1
5608	099D		MLH R9, R9
560A	0004		NOP
560C	019E		GETB R9, $1
560E	8A00		LBI R10, #$00
5610	0AAD		MLH R10, R10
5612	8A12		LBI R10, #$12
5614	41A0		PUTB $1, (R10)+
5616	41A8		PUTB $1, (R10)
5618	F000		BRA $5619		; -> -$01(R0)

561A	01AE		GETB R10, $1
561C	8180		LBI R1, #$80
561E	2F52		MOVE R15, $A4
5620	CF16		SBC R15, R1
5622	A007		BRA $562C		; $08(R0)

5624	8105		LBI R1, #$05
5626	011D		MLH R1, R1
5628	81C0		LBI R1, #$C0
562A	A005		BRA $5632		; $06(R0)

562C	8106		LBI R1, #$06
562E	011D		MLH R1, R1
5630	8100		LBI R1, #$00
5632	C51A		SNE R5, R1
5634	05C4		MOVE R5, R12
5636	7A50		MOVB (R5)+, R10
5638	A400		ADD R4, #$01
563A	8180		LBI R1, #$80
563C	2F52		MOVE R15, $A4
563E	CF16		SBC R15, R1
5640	A003		BRA $5646		; $04(R0)

5642	94C0		CLR R4, #$C0
5644	A001		BRA $5648		; $02(R0)

5646	9480		CLR R4, #$80
5648	F800		SUB R8, #$01
564A	C803		SZ R8
564C	F033		BRA $561A		; -> -$34(R0)

564E	A047		BRA $5698		; $48(R0)

5650	2F52		MOVE R15, $A4
5652	8180		LBI R1, #$80
5654	CF16		SBC R15, R1
5656	A003		BRA $565C		; $04(R0)

5658	A705		ADD R7, #$06
565A	A001		BRA $565E		; $02(R0)

565C	A702		ADD R7, #$03
565E	8800		LBI R8, #$00
5660	088D		MLH R8, R8
5662	880E		LBI R8, #$0E
5664	4180		PUTB $1, (R8)+
5666	4188		PUTB $1, (R8)
5668	0004		NOP
566A	F077		BRA $55F4		; -> -$78(R0)

566C	018E		GETB R8, $1
566E	088D		MLH R8, R8
5670	0004		NOP
5672	018E		GETB R8, $1
5674	F000		BRA $5675		; -> -$01(R0)

5676	019E		GETB R9, $1
5678	099D		MLH R9, R9
567A	0004		NOP
567C	019E		GETB R9, $1
567E	6A98		MOVB R10, (R9)
5680	8105		LBI R1, #$05
5682	011D		MLH R1, R1
5684	81C0		LBI R1, #$C0
5686	C51A		SNE R5, R1
5688	05C4		MOVE R5, R12
568A	6B80		MOVB R11, (R8)+
568C	7B50		MOVB (R5)+, R11
568E	A400		ADD R4, #$01
5690	94C0		CLR R4, #$C0
5692	FA00		SUB R10, #$01
5694	CA03		SZ R10
5696	F017		BRA $5680		; -> -$18(R0)

5698	1108		CTRL $1, #$08
569A	1054		CTRL $0, #$54
569C	8153		LBI R1, #$53
569E	011D		MLH R1, R1
56A0	8134		LBI R1, #$34
56A2	0014		RET R1

56A4	2E52		MOVE R14, $A4
56A6	9E04		CLR R14, #$04
56A8	3E52		MOVE $A4, R14
56AA	8180		LBI R1, #$80
56AC	CE1E		SNBC R14, R1
56AE	A003		BRA $56B4		; $04(R0)

56B0	F300		SUB R3, #$01
56B2	7438		MOVB (R3), R4
56B4	A081		BRA $5738		; $82(R0)

56B6	055E		GETB R5, $5
56B8	C50C		SNS R5
56BA	A083		BRA $5740		; $84(R0)

56BC	C70B		SNZ R7
56BE	A007		BRA $56C8		; $08(R0)

56C0	2852		MOVE R8, $A4
56C2	B808		SET R8, #$08
56C4	3852		MOVE $A4, R8
56C6	A005		BRA $56CE		; $06(R0)

56C8	2452		MOVE R4, $A4
56CA	9408		CLR R4, #$08
56CC	3452		MOVE $A4, R4
56CE	2463		MOVE R4, $C6
56D0	054C		MHL R5, R4
56D2	C50B		SNZ R5
56D4	A069		BRA $5740		; $6A(R0)

56D6	0203		INC2 R2, R0
56D8	2063		JMP ($00C6)

56DA	8180		LBI R1, #$80
56DC	2452		MOVE R4, $A4
56DE	C416		SBC R4, R1
56E0	A055		BRA $5738		; $56(R0)

56E2	A30B		ADD R3, #$0C
56E4	D738		MOVE R7, (R3)
56E6	F309		SUB R3, #$0A
56E8	C70B		SNZ R7
56EA	A003		BRA $56F0		; $04(R0)

56EC	F301		SUB R3, #$02
56EE	A047		BRA $5738		; $48(R0)

56F0	6731		MOVB R7, (R3)++
56F2	8102		LBI R1, #$02
56F4	C712		SE R7, R1
56F6	A015		BRA $570E		; $16(R0)

56F8	2453		MOVE R4, $A6
56FA	D531		MOVE R5, (R3)+
56FC	D637		MOVE R6, (R3)--
56FE	C60C		SNS R6
5700	A035		BRA $5738		; $36(R0)

5702	C60B		SNZ R6
5704	A031		BRA $5738		; $32(R0)

5706	7450		MOVB (R5)+, R4
5708	F600		SUB R6, #$01
570A	C603		SZ R6
570C	F007		BRA $5706		; -> -$08(R0)

570E	F301		SUB R3, #$02
5710	A025		BRA $5738		; $26(R0)

5712	065E		GETB R5, $6
5714	C50C		SNS R5
5716	A027		BRA $5740		; $28(R0)

5718	246D		MOVE R4, $DA
571A	054C		MHL R5, R4
571C	C50B		SNZ R5
571E	A01F		BRA $5740		; $20(R0)

5720	0203		INC2 R2, R0
5722	206D		JMP ($00DA)

5724	A011		BRA $5738		; $12(R0)

5726	075E		GETB R5, $7
5728	C50C		SNS R5
572A	A013		BRA $5740		; $14(R0)

572C	246E		MOVE R4, $DC
572E	054C		MHL R5, R4
5730	C50B		SNZ R5
5732	A00B		BRA $5740		; $0C(R0)

5734	0203		INC2 R2, R0
5736	206E		JMP ($00DC)

5738	8158		LBI R1, #$58
573A	011D		MLH R1, R1
573C	8168		LBI R1, #$68
573E	0014		RET R1

5740	8158		LBI R1, #$58
5742	011D		MLH R1, R1
5744	815C		LBI R1, #$5C
5746	0014		RET R1

5748	085E		GETB R5, $8
574A	C50C		SNS R5
574C	F00D		BRA $5740		; -> -$0E(R0)

574E	F017		BRA $5738		; -> -$18(R0)

5750	246F		MOVE R4, $DE
5752	054C		MHL R5, R4
5754	C50B		SNZ R5
5756	F00B		BRA $574C		; -> -$0C(R0)

5758	0203		INC2 R2, R0
575A	206F		JMP ($00DE)

575C	A013		BRA $5772		; $14(R0)

575E	2470		MOVE R4, $E0
5760	054C		MHL R5, R4
5762	C50B		SNZ R5
5764	A053		BRA $57BA		; $54(R0)

5766	3474		MOVE $E8, R4
5768	8457		LBI R4, #$57
576A	044D		MLH R4, R4
576C	8472		LBI R4, #$72
576E	3477		MOVE $EE, R4
5770	2076		JMP ($00EC)

5772	8158		LBI R1, #$58
5774	011D		MLH R1, R1
5776	8168		LBI R1, #$68
5778	0014		RET R1

577A	1F04		CTRL $F, #$04
577C	215D		MOVE R1, $BA
577E	3174		MOVE $E8, R1
5780	8157		LBI R1, #$57
5782	011D		MLH R1, R1
5784	818A		LBI R1, #$8A
5786	3177		MOVE $EE, R1
5788	2076		JMP ($00EC)

578A	A0B7		BRA $5844		; $B8(R0)

578C	2471		MOVE R4, $E2
578E	054C		MHL R5, R4
5790	C50B		SNZ R5
5792	A0C7		BRA $585C		; $C8(R0)

5794	3474		MOVE $E8, R4
5796	8457		LBI R4, #$57
5798	044D		MLH R4, R4
579A	84A0		LBI R4, #$A0
579C	3477		MOVE $EE, R4
579E	2076		JMP ($00EC)

57A0	F02F		BRA $5772		; -> -$30(R0)

57A2	1F02		CTRL $F, #$02
57A4	215D		MOVE R1, $BA
57A6	3174		MOVE $E8, R1
57A8	8157		LBI R1, #$57
57AA	011D		MLH R1, R1
57AC	81B2		LBI R1, #$B2
57AE	3177		MOVE $EE, R1
57B0	2076		JMP ($00EC)

57B2	A08F		BRA $5844		; $90(R0)

57B4	2472		MOVE R4, $E4
57B6	054C		MHL R5, R4
57B8	C50B		SNZ R5
57BA	A09F		BRA $585C		; $A0(R0)

57BC	0203		INC2 R2, R0
57BE	2072		JMP ($00E4)

57C0	F04F		BRA $5772		; -> -$50(R0)

57C2	1F01		CTRL $F, #$01
57C4	215D		MOVE R1, $BA
57C6	3174		MOVE $E8, R1
57C8	8157		LBI R1, #$57
57CA	011D		MLH R1, R1
57CC	81D2		LBI R1, #$D2
57CE	3177		MOVE $EE, R1
57D0	2076		JMP ($00EC)

57D2	A06F		BRA $5844		; $70(R0)

57D4	2473		MOVE R4, $E6
57D6	054C		MHL R5, R4
57D8	C50B		SNZ R5
57DA	A07F		BRA $585C		; $80(R0)

57DC	0203		INC2 R2, R0
57DE	2073		JMP ($00E6)

57E0	F06F		BRA $5772		; -> -$70(R0)

57E2	1F40		CTRL $F, #$40
57E4	215D		MOVE R1, $BA
57E6	3174		MOVE $E8, R1
57E8	8157		LBI R1, #$57
57EA	011D		MLH R1, R1
57EC	81F2		LBI R1, #$F2
57EE	3177		MOVE $EE, R1
57F0	2076		JMP ($00EC)

57F2	A04F		BRA $5844		; $50(R0)

57F4	2465		MOVE R4, $CA
57F6	054C		MHL R5, R4
57F8	C50B		SNZ R5
57FA	A05F		BRA $585C		; $60(R0)

57FC	0203		INC2 R2, R0
57FE	2065		JMP ($00CA)

5800	8180		LBI R1, #$80
5802	2452		MOVE R4, $A4
5804	C416		SBC R4, R1
5806	A05F		BRA $5868		; $60(R0)

5808	A30B		ADD R3, #$0C
580A	D438		MOVE R4, (R3)
580C	F30B		SUB R3, #$0C
580E	C403		SZ R4
5810	A055		BRA $5868		; $56(R0)

5812	A301		ADD R3, #$02
5814	6431		MOVB R4, (R3)++
5816	0448		ADD R4, R4
5818	0048		ADD R0, R4
581A	A04B		BRA $5868		; $4C(R0)

581C	A049		BRA $5868		; $4A(R0)

581E	A00F		BRA $5830		; $10(R0)

5820	A00D		BRA $5830		; $0E(R0)

5822	A043		BRA $5868		; $44(R0)

5824	A009		BRA $5830		; $0A(R0)

5826	A007		BRA $5830		; $08(R0)

5828	A03D		BRA $5868		; $3E(R0)

582A	A03B		BRA $5868		; $3C(R0)

582C	A039		BRA $5868		; $3A(R0)

582E	A037		BRA $5868		; $38(R0)

5830	2453		MOVE R4, $A6
5832	D531		MOVE R5, (R3)+
5834	D637		MOVE R6, (R3)--
5836	F301		SUB R3, #$02
5838	F600		SUB R6, #$01
583A	81FF		LBI R1, #$FF
583C	C61F		SNBSH R6, R1
583E	A027		BRA $5868		; $28(R0)

5840	7450		MOVB (R5)+, R4
5842	F00B		BRA $5838		; -> -$0C(R0)

5844	2451		MOVE R4, $A2
5846	0544		MOVE R5, R4
5848	95A0		CLR R5, #$A0
584A	3551		MOVE $A2, R5
584C	8180		LBI R1, #$80
584E	C416		SBC R4, R1
5850	A001		BRA $5854		; $02(R0)

5852	A007		BRA $585C		; $08(R0)

5854	861C		LBI R6, #$1C
5856	066D		MLH R6, R6
5858	861F		LBI R6, #$1F
585A	A005		BRA $5862		; $06(R0)

585C	861C		LBI R6, #$1C
585E	066D		MLH R6, R6
5860	861E		LBI R6, #$1E
5862	A30B		ADD R3, #$0C
5864	5638		MOVE (R3), R6
5866	F30B		SUB R3, #$0C
5868	2453		MOVE R4, $A6
586A	3450		MOVE $A0, R4
586C	1452		CTRL $4, #$52
586E	2162		MOVE R1, $C4
5870	3174		MOVE $E8, R1
5872	216A		MOVE R1, $D4
5874	3177		MOVE $EE, R1
5876	2452		MOVE R4, $A4
5878	054C		MHL R5, R4
587A	9540		CLR R5, #$40
587C	045D		MLH R4, R5
587E	3452		MOVE $A4, R4
5880	8110		LBI R1, #$10
5882	C417		SBSH R4, R1
5884	A031		BRA $58B8		; $32(R0)

5886	1074		CTRL $0, #$74
5888	8120		LBI R1, #$20
588A	C417		SBSH R4, R1
588C	A029		BRA $58B8		; $2A(R0)

588E	2550		MOVE R5, $A0
5890	B580		SET R5, #$80
5892	055D		MLH R5, R5
5894	8500		LBI R5, #$00
5896	3550		MOVE $A0, R5
5898	8158		LBI R1, #$58
589A	011D		MLH R1, R1
589C	81B8		LBI R1, #$B8
589E	25FC		MOVE R5, $1F8
58A0	A51F		ADD R5, #$20
58A2	5158		MOVE (R5), R1
58A4	A51F		ADD R5, #$20
58A6	5458		MOVE (R5), R4
58A8	B404		SET R4, #$04
58AA	3452		MOVE $A4, R4
58AC	815A		LBI R1, #$5A
58AE	011D		MLH R1, R1
58B0	8146		LBI R1, #$46
58B2	0203		INC2 R2, R0
58B4	0014		RET R1

58B6	2053		JMP ($00A6)

58B8	2356		MOVE R3, $AC
58BA	8140		LBI R1, #$40
58BC	2452		MOVE R4, $A4
58BE	C41E		SNBC R4, R1
58C0	20FD		JMP ($01FA)

58C2	2076		JMP ($00EC)

58C4	21FC		MOVE R1, $1F8
58C6	5211		MOVE (R1)+, R2
58C8	5311		MOVE (R1)+, R3
58CA	5411		MOVE (R1)+, R4
58CC	5511		MOVE (R1)+, R5
58CE	5611		MOVE (R1)+, R6
58D0	5711		MOVE (R1)+, R7
58D2	5811		MOVE (R1)+, R8
58D4	5911		MOVE (R1)+, R9
58D6	5A11		MOVE (R1)+, R10
58D8	5B11		MOVE (R1)+, R11
58DA	5C11		MOVE (R1)+, R12
58DC	5D11		MOVE (R1)+, R13
58DE	5E11		MOVE (R1)+, R14
58E0	5F18		MOVE (R1), R15
58E2	A011		BRA $58F6		; $12(R0)

58E4	2453		MOVE R4, $A6
58E6	3450		MOVE $A0, R4
58E8	2452		MOVE R4, $A4
58EA	3439		MOVE $72, R4
58EC	9407		CLR R4, #$07
58EE	3452		MOVE $A4, R4
58F0	2451		MOVE R4, $A2
58F2	B401		SET R4, #$01
58F4	3451		MOVE $A2, R4
58F6	24FC		MOVE R4, $1F8
58F8	A45D		ADD R4, #$5E
58FA	8105		LBI R1, #$05
58FC	011D		MLH R1, R1
58FE	8100		LBI R1, #$00
5900	5148		MOVE (R4), R1
5902	A40B		ADD R4, #$0C
5904	058E		GETB R8, $5
5906	C804		SS R8
5908	A011		BRA $591C		; $12(R0)

590A	861C		LBI R6, #$1C
590C	066D		MLH R6, R6
590E	861E		LBI R6, #$1E
5910	5648		MOVE (R4), R6
5912	23FC		MOVE R3, $1F8
5914	A35D		ADD R3, #$5E
5916	0203		INC2 R2, R0
5918	205A		JMP ($00B4)

591A	A081		BRA $599E		; $82(R0)

591C	2151		MOVE R1, $A2
591E	B104		SET R1, #$04
5920	3151		MOVE $A2, R1
5922	8159		LBI R1, #$59
5924	011D		MLH R1, R1
5926	81F4		LBI R1, #$F4
5928	0203		INC2 R2, R0
592A	0014		RET R1

592C	25FC		MOVE R5, $1F8
592E	A55D		ADD R5, #$5E
5930	8105		LBI R1, #$05
5932	011D		MLH R1, R1
5934	8100		LBI R1, #$00
5936	5151		MOVE (R5)+, R1
5938	8102		LBI R1, #$02
593A	011D		MLH R1, R1
593C	8100		LBI R1, #$00
593E	5151		MOVE (R5)+, R1
5940	8102		LBI R1, #$02
5942	011D		MLH R1, R1
5944	8100		LBI R1, #$00
5946	0614		MOVE R6, R1
5948	0754		MOVE R7, R5
594A	5151		MOVE (R5)+, R1
594C	011D		MLH R1, R1
594E	8140		LBI R1, #$40
5950	5151		MOVE (R5)+, R1
5952	8101		LBI R1, #$01
5954	5151		MOVE (R5)+, R1
5956	8100		LBI R1, #$00
5958	011D		MLH R1, R1
595A	5151		MOVE (R5)+, R1
595C	5158		MOVE (R5), R1
595E	8810		LBI R8, #$10
5960	21FC		MOVE R1, $1F8
5962	A151		ADD R1, #$52
5964	5611		MOVE (R1)+, R6
5966	5711		MOVE (R1)+, R7
5968	5511		MOVE (R1)+, R5
596A	5818		MOVE (R1), R8
596C	23FC		MOVE R3, $1F8
596E	A35D		ADD R3, #$5E
5970	0203		INC2 R2, R0
5972	2063		JMP ($00C6)

5974	1074		CTRL $0, #$74
5976	21FC		MOVE R1, $1F8
5978	A151		ADD R1, #$52
597A	D611		MOVE R6, (R1)+
597C	D711		MOVE R7, (R1)+
597E	D511		MOVE R5, (R1)+
5980	D818		MOVE R8, (R1)
5982	D958		MOVE R9, (R5)
5984	C903		SZ R9
5986	F075		BRA $5912		; -> -$76(R0)

5988	F800		SUB R8, #$01
598A	C80B		SNZ R8
598C	A005		BRA $5994		; $06(R0)

598E	A63F		ADD R6, #$40
5990	5678		MOVE (R7), R6
5992	F033		BRA $5960		; -> -$34(R0)

5994	8159		LBI R1, #$59
5996	011D		MLH R1, R1
5998	81F4		LBI R1, #$F4
599A	0203		INC2 R2, R0
599C	0014		RET R1

599E	1452		CTRL $4, #$52
59A0	2452		MOVE R4, $A4
59A2	054C		MHL R5, R4
59A4	9540		CLR R5, #$40
59A6	045D		MLH R4, R5
59A8	3452		MOVE $A4, R4
59AA	2451		MOVE R4, $A2
59AC	8101		LBI R1, #$01
59AE	C416		SBC R4, R1
59B0	A029		BRA $59DC		; $2A(R0)

59B2	2452		MOVE R4, $A4
59B4	054C		MHL R5, R4
59B6	9520		CLR R5, #$20
59B8	045D		MLH R4, R5
59BA	3452		MOVE $A4, R4
59BC	21FC		MOVE R1, $1F8
59BE	D211		MOVE R2, (R1)+
59C0	D311		MOVE R3, (R1)+
59C2	D411		MOVE R4, (R1)+
59C4	D511		MOVE R5, (R1)+
59C6	D611		MOVE R6, (R1)+
59C8	D711		MOVE R7, (R1)+
59CA	D811		MOVE R8, (R1)+
59CC	D911		MOVE R9, (R1)+
59CE	DA11		MOVE R10, (R1)+
59D0	DB11		MOVE R11, (R1)+
59D2	DC11		MOVE R12, (R1)+
59D4	DD11		MOVE R13, (R1)+
59D6	DE11		MOVE R14, (R1)+
59D8	DF18		MOVE R15, (R1)
59DA	0024		RET R2

59DC	9401		CLR R4, #$01
59DE	3451		MOVE $A2, R4
59E0	2450		MOVE R4, $A0
59E2	054C		MHL R5, R4
59E4	B580		SET R5, #$80
59E6	045D		MLH R4, R5
59E8	3450		MOVE $A0, R4
59EA	2439		MOVE R4, $72
59EC	3452		MOVE $A4, R4
59EE	2453		MOVE R4, $A6
59F0	3439		MOVE $72, R4
59F2	0000		HALT
59F4	33FF		MOVE $1FE, R3
59F6	24FC		MOVE R4, $1F8
59F8	A481		ADD R4, #$82
59FA	8505		LBI R5, #$05
59FC	055D		MLH R5, R5
59FE	8500		LBI R5, #$00
5A00	5541		MOVE (R4)+, R5
5A02	2651		MOVE R6, $A2
5A04	8104		LBI R1, #$04
5A06	C616		SBC R6, R1
5A08	A00B		BRA $5A16		; $0C(R0)

5A0A	8501		LBI R5, #$01
5A0C	055D		MLH R5, R5
5A0E	8500		LBI R5, #$00
5A10	5541		MOVE (R4)+, R5
5A12	055D		MLH R5, R5
5A14	A003		BRA $5A1A		; $04(R0)

5A16	055D		MLH R5, R5
5A18	5541		MOVE (R4)+, R5
5A1A	5541		MOVE (R4)+, R5
5A1C	5541		MOVE (R4)+, R5
5A1E	5541		MOVE (R4)+, R5
5A20	5541		MOVE (R4)+, R5
5A22	5548		MOVE (R4), R5
5A24	9604		CLR R6, #$04
5A26	3651		MOVE $A2, R6
5A28	23FC		MOVE R3, $1F8
5A2A	A381		ADD R3, #$82
5A2C	325F		MOVE $BE, R2
5A2E	0203		INC2 R2, R0
5A30	2063		JMP ($00C6)

5A32	23FF		MOVE R3, $1FE
5A34	1452		CTRL $4, #$52
5A36	225F		MOVE R2, $BE
5A38	2452		MOVE R4, $A4
5A3A	054C		MHL R5, R4
5A3C	9540		CLR R5, #$40
5A3E	045D		MLH R4, R5
5A40	3452		MOVE $A4, R4
5A42	1074		CTRL $0, #$74
5A44	0024		RET R2

5A46	2452		MOVE R4, $A4
5A48	8180		LBI R1, #$80
5A4A	C416		SBC R4, R1
5A4C	A027		BRA $5A76		; $28(R0)

5A4E	8505		LBI R5, #$05
5A50	055D		MLH R5, R5
5A52	85C0		LBI R5, #$C0
5A54	8100		LBI R1, #$00
5A56	011D		MLH R1, R1
5A58	8108		LBI R1, #$08
5A5A	5151		MOVE (R5)+, R1
5A5C	810F		LBI R1, #$0F
5A5E	011D		MLH R1, R1
5A60	810C		LBI R1, #$0C
5A62	5151		MOVE (R5)+, R1
5A64	8104		LBI R1, #$04
5A66	011D		MLH R1, R1
5A68	8100		LBI R1, #$00
5A6A	5151		MOVE (R5)+, R1
5A6C	011D		MLH R1, R1
5A6E	5151		MOVE (R5)+, R1
5A70	5151		MOVE (R5)+, R1
5A72	5151		MOVE (R5)+, R1
5A74	5158		MOVE (R5), R1
5A76	0024		RET R2

5A78	0000		HALT
5A7A	0000		HALT
5A7C	0000		HALT
5A7E	0000		HALT
5A80	0000		HALT
5A82	0000		HALT
5A84	0000		HALT
5A86	0000		HALT
5A88	0000		HALT
5A8A	0000		HALT
5A8C	0000		HALT
5A8E	0000		HALT
5A90	0000		HALT
5A92	0000		HALT
5A94	0000		HALT
5A96	0000		HALT
5A98	0000		HALT
5A9A	0000		HALT
5A9C	0000		HALT
5A9E	0000		HALT
5AA0	0000		HALT
5AA2	0000		HALT
5AA4	0000		HALT
5AA6	0000		HALT
5AA8	0000		HALT
5AAA	0000		HALT
5AAC	0000		HALT
5AAE	0000		HALT
5AB0	0000		HALT
5AB2	0000		HALT
5AB4	0000		HALT
5AB6	0000		HALT
5AB8	0000		HALT
5ABA	0000		HALT
5ABC	0000		HALT
5ABE	0000		HALT
5AC0	0000		HALT
5AC2	0000		HALT
5AC4	0000		HALT
5AC6	0000		HALT
5AC8	0000		HALT
5ACA	0000		HALT
5ACC	0000		HALT
5ACE	0000		HALT
5AD0	0000		HALT
5AD2	0000		HALT
5AD4	0000		HALT
5AD6	0000		HALT
5AD8	0000		HALT
5ADA	0000		HALT
5ADC	0000		HALT
5ADE	0000		HALT
5AE0	0000		HALT
5AE2	0000		HALT
5AE4	0000		HALT
5AE6	0000		HALT
5AE8	0000		HALT
5AEA	0000		HALT
5AEC	0000		HALT
5AEE	0000		HALT
5AF0	0000		HALT
5AF2	0000		HALT
5AF4	0000		HALT
5AF6	0000		HALT
5AF8	0000		HALT
5AFA	0000		HALT
5AFC	0000		HALT
5AFE	0000		HALT
5B00	0100		DEC2 R1, R0
5B02	3178		MOVE $F0, R1
5B04	2552		MOVE R5, $A4
5B06	2350		MOVE R3, $A0
5B08	8240		LBI R2, #$40
5B0A	E42F		STAT R2, $4
5B0C	8104		LBI R1, #$04
5B0E	C517		SBSH R5, R1
5B10	A007		BRA $5B1A		; $08(R0)

5B12	815D		LBI R1, #$5D
5B14	011D		MLH R1, R1
5B16	81C6		LBI R1, #$C6
5B18	0014		RET R1

5B1A	8180		LBI R1, #$80
5B1C	C317		SBSH R3, R1
5B1E	A007		BRA $5B28		; $08(R0)

5B20	815C		LBI R1, #$5C
5B22	011D		MLH R1, R1
5B24	81DE		LBI R1, #$DE
5B26	0014		RET R1

5B28	84F0		LBI R4, #$F0
5B2A	0425		AND R4, R2
5B2C	8190		LBI R1, #$90
5B2E	C412		SE R4, R1
5B30	A037		BRA $5B6A		; $38(R0)

5B32	8101		LBI R1, #$01
5B34	C215		SBS R2, R1
5B36	A007		BRA $5B40		; $08(R0)

5B38	815C		LBI R1, #$5C
5B3A	011D		MLH R1, R1
5B3C	8140		LBI R1, #$40
5B3E	0014		RET R1

5B40	8192		LBI R1, #$92
5B42	C21A		SNE R2, R1
5B44	A023		BRA $5B6A		; $24(R0)

5B46	8102		LBI R1, #$02
5B48	8696		LBI R6, #$96
5B4A	C51F		SNBSH R5, R1
5B4C	C262		SE R2, R6
5B4E	A007		BRA $5B58		; $08(R0)

5B50	815D		LBI R1, #$5D
5B52	011D		MLH R1, R1
5B54	8194		LBI R1, #$94
5B56	0014		RET R1

5B58	8101		LBI R1, #$01
5B5A	8690		LBI R6, #$90
5B5C	C51F		SNBSH R5, R1
5B5E	C262		SE R2, R6
5B60	A007		BRA $5B6A		; $08(R0)

5B62	815D		LBI R1, #$5D
5B64	011D		MLH R1, R1
5B66	8180		LBI R1, #$80
5B68	0014		RET R1

5B6A	8107		LBI R1, #$07
5B6C	C516		SBC R5, R1
5B6E	A039		BRA $5BAA		; $3A(R0)

5B70	8190		LBI R1, #$90
5B72	C412		SE R4, R1
5B74	A083		BRA $5BFA		; $84(R0)

5B76	015C		MHL R1, R5
5B78	B180		SET R1, #$80
5B7A	051D		MLH R5, R1
5B7C	8180		LBI R1, #$80
5B7E	C515		SBS R5, R1
5B80	A077		BRA $5BFA		; $78(R0)

5B82	2667		MOVE R6, $CE
5B84	6468		MOVB R4, (R6)
5B86	8180		LBI R1, #$80
5B88	C416		SBC R4, R1
5B8A	A005		BRA $5B92		; $06(R0)

5B8C	B480		SET R4, #$80
5B8E	7468		MOVB (R6), R4
5B90	A067		BRA $5BFA		; $68(R0)

5B92	24FE		MOVE R4, $1FC
5B94	014C		MHL R1, R4
5B96	8D0A		LBI R13, #$0A
5B98	C1DA		SNE R1, R13
5B9A	A05D		BRA $5BFA		; $5E(R0)

5B9C	04DD		MLH R4, R13
5B9E	34FE		MOVE $1FC, R4
5BA0	2182		MOVE R1, $104
5BA2	31E5		MOVE $1CA, R1
5BA4	21E6		MOVE R1, $1CC
5BA6	3182		MOVE $104, R1
5BA8	A04F		BRA $5BFA		; $50(R0)

5BAA	8101		LBI R1, #$01
5BAC	8676		LBI R6, #$76
5BAE	C516		SBC R5, R1
5BB0	C262		SE R2, R6
5BB2	A00D		BRA $5BC2		; $0E(R0)

5BB4	8606		LBI R6, #$06
5BB6	C56E		SNBC R5, R6
5BB8	A007		BRA $5BC2		; $08(R0)

5BBA	815D		LBI R1, #$5D
5BBC	011D		MLH R1, R1
5BBE	8166		LBI R1, #$66
5BC0	0014		RET R1

5BC2	063C		MHL R6, R3
5BC4	8102		LBI R1, #$02
5BC6	C616		SBC R6, R1
5BC8	B601		SET R6, #$01
5BCA	B602		SET R6, #$02
5BCC	036D		MLH R3, R6
5BCE	81EF		LBI R1, #$EF
5BD0	C31A		SNE R3, R1
5BD2	A025		BRA $5BFA		; $26(R0)

5BD4	267F		MOVE R6, $FE
5BD6	0628		ADD R6, R2
5BD8	2D51		MOVE R13, $A2
5BDA	8D01		LBI R13, #$01
5BDC	CDD7		SBSH R13, R13
5BDE	A007		BRA $5BE8		; $08(R0)

5BE0	8300		LBI R3, #$00
5BE2	6D68		MOVB R13, (R6)
5BE4	03D6		OR R3, R13
5BE6	A00F		BRA $5BF8		; $10(R0)

5BE8	8400		LBI R4, #$00
5BEA	044D		MLH R4, R4
5BEC	846C		LBI R4, #$6C
5BEE	1108		CTRL $1, #$08
5BF0	4140		PUTB $1, (R4)+
5BF2	4148		PUTB $1, (R4)
5BF4	F000		BRA $5BF5		; -> -$01(R0)

5BF6	013E		GETB R3, $1
5BF8	3350		MOVE $A0, R3
5BFA	8102		LBI R1, #$02
5BFC	C317		SBSH R3, R1
5BFE	A019		BRA $5C1A		; $1A(R0)

5C00	84FA		LBI R4, #$FA
5C02	8102		LBI R1, #$02
5C04	C516		SBC R5, R1
5C06	84F7		LBI R4, #$F7
5C08	C349		SGE R3, R4
5C0A	C30B		SNZ R3
5C0C	A001		BRA $5C10		; $02(R0)

5C0E	A009		BRA $5C1A		; $0A(R0)

5C10	1450		CTRL $4, #$50
5C12	8419		LBI R4, #$19
5C14	F400		SUB R4, #$01
5C16	C403		SZ R4
5C18	F005		BRA $5C14		; -> -$06(R0)

5C1A	1034		CTRL $0, #$34
5C1C	1412		CTRL $4, #$12
5C1E	3552		MOVE $A4, R5
5C20	8120		LBI R1, #$20
5C22	C516		SBC R5, R1
5C24	A00D		BRA $5C34		; $0E(R0)

5C26	8110		LBI R1, #$10
5C28	C517		SBSH R5, R1
5C2A	A003		BRA $5C30		; $04(R0)

5C2C	1054		CTRL $0, #$54
5C2E	2078		JMP ($00F0)

5C30	1044		CTRL $0, #$44
5C32	2078		JMP ($00F0)

5C34	2451		MOVE R4, $A2
5C36	014C		MHL R1, R4
5C38	B180		SET R1, #$80
5C3A	041D		MLH R4, R1
5C3C	3451		MOVE $A2, R4
5C3E	2076		JMP ($00EC)

5C40	8197		LBI R1, #$97
5C42	C21A		SNE R2, R1
5C44	A013		BRA $5C5A		; $14(R0)

5C46	8610		LBI R6, #$10
5C48	8440		LBI R4, #$40
5C4A	C547		SBSH R5, R4
5C4C	C567		SBSH R5, R6
5C4E	A001		BRA $5C52		; $02(R0)

5C50	A007		BRA $5C5A		; $08(R0)

5C52	015C		MHL R1, R5
5C54	B120		SET R1, #$20
5C56	051D		MLH R5, R1
5C58	F05F		BRA $5BFA		; -> -$60(R0)

5C5A	2D53		MOVE R13, $A6
5C5C	8100		LBI R1, #$00
5C5E	011D		MLH R1, R1
5C60	3153		MOVE $A6, R1
5C62	013C		MHL R1, R3
5C64	B180		SET R1, #$80
5C66	031D		MLH R3, R1
5C68	3350		MOVE $A0, R3
5C6A	26FC		MOVE R6, $1F8
5C6C	A61F		ADD R6, #$20
5C6E	2453		MOVE R4, $A6
5C70	D141		MOVE R1, (R4)+
5C72	5161		MOVE (R6)+, R1
5C74	8120		LBI R1, #$20
5C76	C412		SE R4, R1
5C78	F009		BRA $5C70		; -> -$0A(R0)

5C7A	8101		LBI R1, #$01
5C7C	C516		SBC R5, R1
5C7E	A00B		BRA $5C8C		; $0C(R0)

5C80	5561		MOVE (R6)+, R5
5C82	5D61		MOVE (R6)+, R13
5C84	E11F		STAT R1, $1
5C86	011D		MLH R1, R1
5C88	E11F		STAT R1, $1
5C8A	5168		MOVE (R6), R1
5C8C	8D40		LBI R13, #$40
5C8E	8180		LBI R1, #$80
5C90	C516		SBC R5, R1
5C92	A039		BRA $5CCE		; $3A(R0)

5C94	8605		LBI R6, #$05
5C96	066D		MLH R6, R6
5C98	86C0		LBI R6, #$C0
5C9A	2453		MOVE R4, $A6
5C9C	8408		LBI R4, #$08
5C9E	5461		MOVE (R6)+, R4
5CA0	840F		LBI R4, #$0F
5CA2	044D		MLH R4, R4
5CA4	840C		LBI R4, #$0C
5CA6	5461		MOVE (R6)+, R4
5CA8	8404		LBI R4, #$04
5CAA	044D		MLH R4, R4
5CAC	8400		LBI R4, #$00
5CAE	5461		MOVE (R6)+, R4
5CB0	C5D7		SBSH R5, R13
5CB2	A00F		BRA $5CC4		; $10(R0)

5CB4	8409		LBI R4, #$09
5CB6	044D		MLH R4, R4
5CB8	8425		LBI R4, #$25
5CBA	5461		MOVE (R6)+, R4
5CBC	840F		LBI R4, #$0F
5CBE	044D		MLH R4, R4
5CC0	8400		LBI R4, #$00
5CC2	5461		MOVE (R6)+, R4
5CC4	2453		MOVE R4, $A6
5CC6	5461		MOVE (R6)+, R4
5CC8	81CE		LBI R1, #$CE
5CCA	C618		SGT R6, R1
5CCC	F009		BRA $5CC4		; -> -$0A(R0)

5CCE	C5DF		SNBSH R5, R13
5CD0	1FDF		CTRL $F, #$DF
5CD2	9520		CLR R5, #$20
5CD4	1054		CTRL $0, #$54
5CD6	2D53		MOVE R13, $A6
5CD8	3D00		MOVE $00, R13
5CDA	1412		CTRL $4, #$12
5CDC	2078		JMP ($00F0)

5CDE	8191		LBI R1, #$91
5CE0	8668		LBI R6, #$68
5CE2	C21D		SNBS R2, R1
5CE4	C266		SBC R2, R6
5CE6	A029		BRA $5D12		; $2A(R0)

5CE8	013C		MHL R1, R3
5CEA	9180		CLR R1, #$80
5CEC	031D		MLH R3, R1
5CEE	3350		MOVE $A0, R3
5CF0	26FC		MOVE R6, $1F8
5CF2	A61F		ADD R6, #$20
5CF4	2453		MOVE R4, $A6
5CF6	D161		MOVE R1, (R6)+
5CF8	5141		MOVE (R4)+, R1
5CFA	8120		LBI R1, #$20
5CFC	C412		SE R4, R1
5CFE	F009		BRA $5CF6		; -> -$0A(R0)

5D00	8101		LBI R1, #$01
5D02	C515		SBS R5, R1
5D04	D568		MOVE R5, (R6)
5D06	015C		MHL R1, R5
5D08	9120		CLR R1, #$20
5D0A	051D		MLH R5, R1
5D0C	0D03		INC2 R13, R0
5D0E	A01B		BRA $5D2C		; $1C(R0)

5D10	A0AB		BRA $5DBE		; $AC(R0)

5D12	8136		LBI R1, #$36
5D14	C21A		SNE R2, R1
5D16	A02B		BRA $5D44		; $2C(R0)

5D18	8116		LBI R1, #$16
5D1A	C21A		SNE R2, R1
5D1C	A0A7		BRA $5DC6		; $A8(R0)

5D1E	8112		LBI R1, #$12
5D20	C212		SE R2, R1
5D22	A003		BRA $5D28		; $04(R0)

5D24	2464		MOVE R4, $C8
5D26	3400		MOVE $00, R4
5D28	1412		CTRL $4, #$12
5D2A	2078		JMP ($00F0)

5D2C	8180		LBI R1, #$80
5D2E	C516		SBC R5, R1
5D30	00D4		RET R13

5D32	8605		LBI R6, #$05
5D34	066D		MLH R6, R6
5D36	86C0		LBI R6, #$C0
5D38	2453		MOVE R4, $A6
5D3A	5461		MOVE (R6)+, R4
5D3C	81CE		LBI R1, #$CE
5D3E	C618		SGT R6, R1
5D40	F007		BRA $5D3A		; -> -$08(R0)

5D42	00D4		RET R13

5D44	26FC		MOVE R6, $1F8
5D46	24FC		MOVE R4, $1F8
5D48	A41F		ADD R4, #$20
5D4A	8D10		LBI R13, #$10
5D4C	D141		MOVE R1, (R4)+
5D4E	5161		MOVE (R6)+, R1
5D50	FD00		SUB R13, #$01
5D52	CD03		SZ R13
5D54	F009		BRA $5D4C		; -> -$0A(R0)

5D56	0D03		INC2 R13, R0
5D58	F02D		BRA $5D2C		; -> -$2E(R0)

5D5A	840A		LBI R4, #$0A
5D5C	044D		MLH R4, R4
5D5E	84A0		LBI R4, #$A0
5D60	3400		MOVE $00, R4
5D62	1412		CTRL $4, #$12
5D64	2078		JMP ($00F0)

5D66	26FC		MOVE R6, $1F8
5D68	2453		MOVE R4, $A6
5D6A	D161		MOVE R1, (R6)+
5D6C	5141		MOVE (R4)+, R1
5D6E	8120		LBI R1, #$20
5D70	C412		SE R4, R1
5D72	F009		BRA $5D6A		; -> -$0A(R0)

5D74	A61F		ADD R6, #$20
5D76	D568		MOVE R5, (R6)
5D78	015C		MHL R1, R5
5D7A	9120		CLR R1, #$20
5D7C	051D		MLH R5, R1
5D7E	A03D		BRA $5DBE		; $3E(R0)

5D80	5EF8		MOVE (R15), R14
5D82	015C		MHL R1, R5
5D84	9101		CLR R1, #$01
5D86	051D		MLH R5, R1
5D88	2453		MOVE R4, $A6
5D8A	3400		MOVE $00, R4
5D8C	1054		CTRL $0, #$54
5D8E	1402		CTRL $4, #$02
5D90	3F00		MOVE $00, R15
5D92	A029		BRA $5DBE		; $2A(R0)

5D94	26FC		MOVE R6, $1F8
5D96	2453		MOVE R4, $A6
5D98	D141		MOVE R1, (R4)+
5D9A	5161		MOVE (R6)+, R1
5D9C	8120		LBI R1, #$20
5D9E	C412		SE R4, R1
5DA0	F009		BRA $5D98		; -> -$0A(R0)

5DA2	245C		MOVE R4, $B8
5DA4	3400		MOVE $00, R4
5DA6	1FDF		CTRL $F, #$DF
5DA8	9526		CLR R5, #$26
5DAA	8140		LBI R1, #$40
5DAC	C516		SBC R5, R1
5DAE	B520		SET R5, #$20
5DB0	8101		LBI R1, #$01
5DB2	C517		SBSH R5, R1
5DB4	A007		BRA $5DBE		; $08(R0)

5DB6	5EF8		MOVE (R15), R14
5DB8	015C		MHL R1, R5
5DBA	9101		CLR R1, #$01
5DBC	051D		MLH R5, R1
5DBE	815B		LBI R1, #$5B
5DC0	011D		MLH R1, R1
5DC2	81FA		LBI R1, #$FA
5DC4	0014		RET R1

5DC6	8116		LBI R1, #$16
5DC8	C212		SE R2, R1
5DCA	F00D		BRA $5DBE		; -> -$0E(R0)

5DCC	0D03		INC2 R13, R0
5DCE	F0A3		BRA $5D2C		; -> -$A4(R0)

5DD0	8114		LBI R1, #$14
5DD2	051D		MLH R5, R1
5DD4	8500		LBI R5, #$00
5DD6	3552		MOVE $A4, R5
5DD8	1FDF		CTRL $F, #$DF
5DDA	2453		MOVE R4, $A6
5DDC	3437		MOVE $6E, R4
5DDE	343B		MOVE $76, R4
5DE0	3439		MOVE $72, R4
5DE2	343A		MOVE $74, R4
5DE4	2454		MOVE R4, $A8
5DE6	3438		MOVE $70, R4
5DE8	840A		LBI R4, #$0A
5DEA	044D		MLH R4, R4
5DEC	84A0		LBI R4, #$A0
5DEE	3402		MOVE $04, R4
5DF0	2466		MOVE R4, $CC
5DF2	A401		ADD R4, #$02
5DF4	3400		MOVE $00, R4
5DF6	1412		CTRL $4, #$12
5DF8	2078		JMP ($00F0)

5DFA	0000		HALT
5DFC	0000		HALT
5DFE	0000		HALT
5E00	0000		HALT
5E02	0000		HALT
5E04	0000		HALT
5E06	0000		HALT
5E08	0000		HALT
5E0A	0000		HALT
5E0C	0000		HALT
5E0E	0000		HALT
5E10	0000		HALT
5E12	0000		HALT
5E14	0000		HALT
5E16	0000		HALT
5E18	0000		HALT
5E1A	0000		HALT
5E1C	0000		HALT
5E1E	0000		HALT
5E20	0000		HALT
5E22	0000		HALT
5E24	0000		HALT
5E26	0000		HALT
5E28	0000		HALT
5E2A	0000		HALT
5E2C	0000		HALT
5E2E	0000		HALT
5E30	0000		HALT
5E32	0000		HALT
5E34	0000		HALT
5E36	0000		HALT
5E38	0000		HALT
5E3A	0000		HALT
5E3C	0000		HALT
5E3E	0000		HALT
5E40	0000		HALT
5E42	0000		HALT
5E44	0000		HALT
5E46	0000		HALT
5E48	0000		HALT
5E4A	0000		HALT
5E4C	0000		HALT
5E4E	0000		HALT
5E50	0000		HALT
5E52	0000		HALT
5E54	0000		HALT
5E56	0000		HALT
5E58	0000		HALT
5E5A	0000		HALT
5E5C	0000		HALT
5E5E	0000		HALT
5E60	0000		HALT
5E62	0000		HALT
5E64	0000		HALT
5E66	0000		HALT
5E68	0000		HALT
5E6A	0000		HALT
5E6C	0000		HALT
5E6E	0000		HALT
5E70	0000		HALT
5E72	0000		HALT
5E74	0000		HALT
5E76	0000		HALT
5E78	0000		HALT
5E7A	0000		HALT
5E7C	0000		HALT
5E7E	0000		HALT
5E80	0000		HALT
5E82	0000		HALT
5E84	0000		HALT
5E86	0000		HALT
5E88	0000		HALT
5E8A	0000		HALT
5E8C	0000		HALT
5E8E	0000		HALT
5E90	0000		HALT
5E92	0000		HALT
5E94	0000		HALT
5E96	0000		HALT
5E98	0000		HALT
5E9A	0000		HALT
5E9C	0000		HALT
5E9E	0000		HALT
5EA0	0000		HALT
5EA2	0000		HALT
5EA4	0000		HALT
5EA6	0000		HALT
5EA8	0000		HALT
5EAA	0000		HALT
5EAC	0000		HALT
5EAE	0000		HALT
5EB0	0000		HALT
5EB2	0000		HALT
5EB4	0000		HALT
5EB6	0000		HALT
5EB8	0000		HALT
5EBA	0000		HALT
5EBC	0000		HALT
5EBE	0000		HALT
5EC0	0000		HALT
5EC2	0000		HALT
5EC4	0000		HALT
5EC6	0000		HALT
5EC8	0000		HALT
5ECA	0000		HALT
5ECC	0000		HALT
5ECE	0000		HALT
5ED0	0000		HALT
5ED2	0000		HALT
5ED4	0000		HALT
5ED6	0000		HALT
5ED8	0000		HALT
5EDA	0000		HALT
5EDC	0000		HALT
5EDE	0000		HALT
5EE0	0433		INC2 R4, R3
5EE2	D541		MOVE R5, (R4)+
5EE4	D641		MOVE R6, (R4)+
5EE6	8120		LBI R1, #$20
5EE8	C516		SBC R5, R1
5EEA	0364		MOVE R3, R6
5EEC	DC41		MOVE R12, (R4)+
5EEE	0FCC		MHL R15, R12
5EF0	81FF		LBI R1, #$FF
5EF2	0C17		XOR R12, R1
5EF4	0F17		XOR R15, R1
5EF6	0CFD		MLH R12, R15
5EF8	AC00		ADD R12, #$01
5EFA	8B80		LBI R11, #$80
5EFC	89FF		LBI R9, #$FF
5EFE	099D		MLH R9, R9
5F00	F407		SUB R4, #$08
5F02	8E1C		LBI R14, #$1C
5F04	0EED		MLH R14, R14
5F06	8E1F		LBI R14, #$1F
5F08	DF48		MOVE R15, (R4)
5F0A	1108		CTRL $1, #$08
5F0C	8108		LBI R1, #$08
5F0E	CF1A		SNE R15, R1
5F10	A00F		BRA $5F22		; $10(R0)

5F12	1104		CTRL $1, #$04
5F14	8104		LBI R1, #$04
5F16	CF1A		SNE R15, R1
5F18	A007		BRA $5F22		; $08(R0)

5F1A	1102		CTRL $1, #$02
5F1C	8102		LBI R1, #$02
5F1E	CF12		SE R15, R1
5F20	A047		BRA $5F6A		; $48(R0)

5F22	A407		ADD R4, #$08
5F24	4140		PUTB $1, (R4)+
5F26	4140		PUTB $1, (R4)+
5F28	8E1B		LBI R14, #$1B
5F2A	0EED		MLH R14, R14
5F2C	8E1D		LBI R14, #$1D
5F2E	0F5C		MHL R15, R5
5F30	8102		LBI R1, #$02
5F32	CF1A		SNE R15, R1
5F34	A03B		BRA $5F72		; $3C(R0)

5F36	8101		LBI R1, #$01
5F38	CF12		SE R15, R1
5F3A	A02D		BRA $5F6A		; $2E(R0)

5F3C	8140		LBI R1, #$40
5F3E	01AE		GETB R10, $1
5F40	C515		SBS R5, R1
5F42	7A60		MOVB (R6)+, R10
5F44	AC00		ADD R12, #$01
5F46	0803		INC2 R8, R0
5F48	A049		BRA $5F94		; $4A(R0)

5F4A	CCBF		SNBSH R12, R11
5F4C	F011		BRA $5F3C		; -> -$12(R0)

5F4E	8120		LBI R1, #$20
5F50	C516		SBC R5, R1
5F52	F073		BRA $5EE0		; -> -$74(R0)

5F54	8108		LBI R1, #$08
5F56	C516		SBC R5, R1
5F58	0024		RET R2

5F5A	0F9C		MHL R15, R9
5F5C	CF0B		SNZ R15
5F5E	C903		SZ R9
5F60	A001		BRA $5F64		; $02(R0)

5F62	0024		RET R2

5F64	8E1B		LBI R14, #$1B
5F66	0EED		MLH R14, R14
5F68	8E22		LBI R14, #$22
5F6A	0434		MOVE R4, R3
5F6C	A40B		ADD R4, #$0C
5F6E	5E48		MOVE (R4), R14
5F70	0024		RET R2

5F72	F409		SUB R4, #$0A
5F74	DF48		MOVE R15, (R4)
5F76	1188		CTRL $1, #$88
5F78	8108		LBI R1, #$08
5F7A	CF1A		SNE R15, R1
5F7C	A009		BRA $5F88		; $0A(R0)

5F7E	1184		CTRL $1, #$84
5F80	8104		LBI R1, #$04
5F82	CF1A		SNE R15, R1
5F84	A001		BRA $5F88		; $02(R0)

5F86	1182		CTRL $1, #$82
5F88	4160		PUTB $1, (R6)+
5F8A	AC00		ADD R12, #$01
5F8C	CCBF		SNBSH R12, R11
5F8E	F007		BRA $5F88		; -> -$08(R0)

5F90	1100		CTRL $1, #$00
5F92	0024		RET R2

5F94	0E9C		MHL R14, R9
5F96	0EA7		XOR R14, R10
5F98	01E4		MOVE R1, R14
5F9A	0FE4		MOVE R15, R14
5F9C	E0FF		SWAP R15
5F9E	0EF7		XOR R14, R15
5FA0	9E0F		CLR R14, #$0F
5FA2	0E97		XOR R14, R9
5FA4	0914		MOVE R9, R1
5FA6	9FF0		CLR R15, #$F0
5FA8	09F7		XOR R9, R15
5FAA	E01E		ROR3 R1
5FAC	0F14		MOVE R15, R1
5FAE	9FE0		CLR R15, #$E0
5FB0	0EF7		XOR R14, R15
5FB2	911F		CLR R1, #$1F
5FB4	0917		XOR R9, R1
5FB6	E0FF		SWAP R15
5FB8	01F4		MOVE R1, R15
5FBA	9F1F		CLR R15, #$1F
5FBC	09F7		XOR R9, R15
5FBE	91FE		CLR R1, #$FE
5FC0	0E17		XOR R14, R1
5FC2	09ED		MLH R9, R14
5FC4	0084		RET R8

5FC6	0000		HALT
5FC8	0000		HALT
5FCA	0000		HALT
5FCC	0000		HALT
5FCE	0000		HALT
5FD0	0000		HALT
5FD2	0000		HALT
5FD4	0000		HALT
5FD6	0000		HALT
5FD8	0000		HALT
5FDA	0000		HALT
5FDC	0000		HALT
5FDE	0000		HALT
5FE0	0000		HALT
5FE2	0000		HALT
5FE4	0000		HALT
5FE6	0000		HALT
5FE8	0000		HALT
5FEA	0000		HALT
5FEC	0000		HALT
5FEE	0000		HALT
5FF0	0000		HALT
5FF2	0000		HALT
5FF4	0000		HALT
5FF6	0000		HALT
5FF8	0000		HALT
5FFA	0000		HALT
5FFC	0000		HALT
5FFE	0000		HALT
6000	A007		BRA $600A		; $08(R0)

6002	8168		LBI R1, #$68
6004	011D		MLH R1, R1
6006	8100		LBI R1, #$00
6008	0014		RET R1

600A	8164		LBI R1, #$64
600C	011D		MLH R1, R1
600E	81EA		LBI R1, #$EA
6010	3120		MOVE $40, R1
6012	2152		MOVE R1, $A4
6014	051C		MHL R5, R1
6016	B540		SET R5, #$40
6018	015D		MLH R1, R5
601A	3152		MOVE $A4, R1
601C	2953		MOVE R9, $A6
601E	B905		SET R9, #$05
6020	3929		MOVE $52, R9
6022	0533		INC2 R5, R3
6024	6E53		MOVB R14, (R5)++++
6026	05AE		GETB R10, $5
6028	CE03		SZ R14
602A	A055		BRA $6082		; $56(R0)

602C	8100		LBI R1, #$00
602E	011D		MLH R1, R1
6030	8184		LBI R1, #$84
6032	5151		MOVE (R5)+, R1
6034	2153		MOVE R1, $A6
6036	5151		MOVE (R5)+, R1
6038	8140		LBI R1, #$40
603A	7155		MOVB (R5)--, R1
603C	8110		LBI R1, #$10
603E	CA16		SBC R10, R1
6040	A00D		BRA $6050		; $0E(R0)

6042	8101		LBI R1, #$01
6044	CA15		SBS R10, R1
6046	A063		BRA $60AC		; $64(R0)

6048	8164		LBI R1, #$64
604A	011D		MLH R1, R1
604C	817C		LBI R1, #$7C
604E	0014		RET R1

6050	1F10		CTRL $F, #$10
6052	891C		LBI R9, #$1C
6054	099D		MLH R9, R9
6056	891E		LBI R9, #$1E
6058	CA04		SS R10
605A	A007		BRA $6064		; $08(R0)

605C	8164		LBI R1, #$64
605E	011D		MLH R1, R1
6060	81AA		LBI R1, #$AA
6062	0014		RET R1

6064	8110		LBI R1, #$10
6066	CA15		SBS R10, R1
6068	A00D		BRA $6078		; $0E(R0)

606A	874E		LBI R7, #$4E
606C	8162		LBI R1, #$62
606E	011D		MLH R1, R1
6070	818A		LBI R1, #$8A
6072	0503		INC2 R5, R0
6074	0014		RET R1

6076	05AE		GETB R10, $5
6078	8101		LBI R1, #$01
607A	CA15		SBS R10, R1
607C	A02D		BRA $60AC		; $2E(R0)

607E	8B06		LBI R11, #$06
6080	A0AD		BRA $6130		; $AE(R0)

6082	8101		LBI R1, #$01
6084	CE1A		SNE R14, R1
6086	F037		BRA $6050		; -> -$38(R0)

6088	0E34		MOVE R14, R3
608A	AE05		ADD R14, #$06
608C	DEE8		MOVE R14, (R14)
608E	8164		LBI R1, #$64
6090	011D		MLH R1, R1
6092	818A		LBI R1, #$8A
6094	0503		INC2 R5, R0
6096	0014		RET R1

6098	CE0B		SNZ R14
609A	A033		BRA $60D0		; $34(R0)

609C	8184		LBI R1, #$84
609E	CE18		SGT R14, R1
60A0	A00D		BRA $60B0		; $0E(R0)

60A2	891E		LBI R9, #$1E
60A4	8164		LBI R1, #$64
60A6	011D		MLH R1, R1
60A8	81A6		LBI R1, #$A6
60AA	0014		RET R1

60AC	8EFF		LBI R14, #$FF
60AE	A0ED		BRA $619E		; $EE(R0)

60B0	0C34		MOVE R12, R3
60B2	AC03		ADD R12, #$04
60B4	DCC8		MOVE R12, (R12)
60B6	8801		LBI R8, #$01
60B8	0133		INC2 R1, R3
60BA	6118		MOVB R1, (R1)
60BC	C10C		SNS R1
60BE	A029		BRA $60EA		; $2A(R0)

60C0	0CE8		ADD R12, R14
60C2	FC00		SUB R12, #$01
60C4	6AC4		MOVB R10, (R12)-
60C6	CA03		SZ R10
60C8	A00D		BRA $60D8		; $0E(R0)

60CA	FE00		SUB R14, #$01
60CC	CE03		SZ R14
60CE	F00B		BRA $60C4		; -> -$0C(R0)

60D0	8163		LBI R1, #$63
60D2	011D		MLH R1, R1
60D4	814C		LBI R1, #$4C
60D6	0014		RET R1

60D8	0C34		MOVE R12, R3
60DA	AC03		ADD R12, #$04
60DC	DCC8		MOVE R12, (R12)
60DE	6AC0		MOVB R10, (R12)+
60E0	CA03		SZ R10
60E2	A003		BRA $60E8		; $04(R0)

60E4	A800		ADD R8, #$01
60E6	F009		BRA $60DE		; -> -$0A(R0)

60E8	FC00		SUB R12, #$01
60EA	04E4		MOVE R4, R14
60EC	3822		MOVE $44, R8
60EE	3423		MOVE $46, R4
60F0	2F7D		MOVE R15, $FA
60F2	05AE		GETB R10, $5
60F4	8101		LBI R1, #$01
60F6	CA1D		SNBS R10, R1
60F8	A063		BRA $615E		; $64(R0)

60FA	CF89		SGE R15, R8
60FC	A04D		BRA $614C		; $4E(R0)

60FE	CF40		SLE R15, R4
6100	A063		BRA $6166		; $64(R0)

6102	0AF2		INC R10, R15
6104	0A89		SUB R10, R8
6106	0B42		INC R11, R4
6108	0BF9		SUB R11, R15
610A	CAB1		SLT R10, R11
610C	A009		BRA $6118		; $0A(R0)

610E	891C		LBI R9, #$1C
6110	217C		MOVE R1, $F8
6112	8B0A		LBI R11, #$0A
6114	0B19		SUB R11, R1
6116	A01D		BRA $6136		; $1E(R0)

6118	8185		LBI R1, #$85
611A	CF19		SGE R15, R1
611C	A011		BRA $6130		; $12(R0)

611E	2B7C		MOVE R11, $F8
6120	8102		LBI R1, #$02
6122	CB10		SLE R11, R1
6124	A053		BRA $617A		; $54(R0)

6126	8914		LBI R9, #$14
6128	3929		MOVE $52, R9
612A	2953		MOVE R9, $A6
612C	8903		LBI R9, #$03
612E	A017		BRA $6148		; $18(R0)

6130	8914		LBI R9, #$14
6132	0AB4		MOVE R10, R11
6134	2B7C		MOVE R11, $F8
6136	3929		MOVE $52, R9
6138	2953		MOVE R9, $A6
613A	870A		LBI R7, #$0A
613C	F700		SUB R7, #$01
613E	09A8		ADD R9, R10
6140	C703		SZ R7
6142	F007		BRA $613C		; -> -$08(R0)

6144	A902		ADD R9, #$03
6146	09B9		SUB R9, R11
6148	392E		MOVE $5C, R9
614A	A077		BRA $61C4		; $78(R0)

614C	0AF2		INC R10, R15
614E	0A89		SUB R10, R8
6150	CA03		SZ R10
6152	A009		BRA $615E		; $0A(R0)

6154	217C		MOVE R1, $F8
6156	C10B		SNZ R1
6158	A003		BRA $615E		; $04(R0)

615A	8A01		LBI R10, #$01
615C	F04F		BRA $610E		; -> -$50(R0)

615E	8104		LBI R1, #$04
6160	3129		MOVE $52, R1
6162	3C2C		MOVE $58, R12
6164	A05D		BRA $61C4		; $5E(R0)

6166	0AF1		DEC R10, R15
6168	0A49		SUB R10, R4
616A	CA03		SZ R10
616C	A00B		BRA $617A		; $0C(R0)

616E	8109		LBI R1, #$09
6170	2B7C		MOVE R11, $F8
6172	CB11		SLT R11, R1
6174	A003		BRA $617A		; $04(R0)

6176	8B01		LBI R11, #$01
6178	F061		BRA $6118		; -> -$62(R0)

617A	2B7C		MOVE R11, $F8
617C	2F7D		MOVE R15, $FA
617E	8703		LBI R7, #$03
6180	FB00		SUB R11, #$01
6182	810A		LBI R1, #$0A
6184	CB19		SGE R11, R1
6186	A003		BRA $618C		; $04(R0)

6188	8B09		LBI R11, #$09
618A	FF00		SUB R15, #$01
618C	F700		SUB R7, #$01
618E	C703		SZ R7
6190	F011		BRA $6180		; -> -$12(R0)

6192	3B7C		MOVE $F8, R11
6194	3F7D		MOVE $FA, R15
6196	0CE8		ADD R12, R14
6198	0C89		SUB R12, R8
619A	3C2C		MOVE $58, R12
619C	A01F		BRA $61BE		; $20(R0)

619E	1F10		CTRL $F, #$10
61A0	8110		LBI R1, #$10
61A2	CA15		SBS R10, R1
61A4	A005		BRA $61AC		; $06(R0)

61A6	874E		LBI R7, #$4E
61A8	0503		INC2 R5, R0
61AA	A0DD		BRA $628A		; $DE(R0)

61AC	8164		LBI R1, #$64
61AE	011D		MLH R1, R1
61B0	818A		LBI R1, #$8A
61B2	0503		INC2 R5, R0
61B4	0014		RET R1

61B6	2153		MOVE R1, $A6
61B8	317D		MOVE $FA, R1
61BA	8104		LBI R1, #$04
61BC	317C		MOVE $F8, R1
61BE	2929		MOVE R9, $52
61C0	B90C		SET R9, #$0C
61C2	3929		MOVE $52, R9
61C4	15A0		CTRL $5, #$A0
61C6	2129		MOVE R1, $52
61C8	9101		CLR R1, #$01
61CA	B104		SET R1, #$04
61CC	3129		MOVE $52, R1
61CE	217E		MOVE R1, $FC
61D0	B104		SET R1, #$04
61D2	317E		MOVE $FC, R1
61D4	15A1		CTRL $5, #$A1
61D6	15C1		CTRL $5, #$C1
61D8	8710		LBI R7, #$10
61DA	05BE		GETB R11, $5
61DC	8102		LBI R1, #$02
61DE	CB1D		SNBS R11, R1
61E0	8714		LBI R7, #$14
61E2	0503		INC2 R5, R0
61E4	A0A3		BRA $628A		; $A4(R0)

61E6	8105		LBI R1, #$05
61E8	3148		MOVE $90, R1
61EA	05BE		GETB R11, $5
61EC	8102		LBI R1, #$02
61EE	CB15		SBS R11, R1
61F0	A0A3		BRA $6296		; $A4(R0)

61F2	8701		LBI R7, #$01
61F4	2129		MOVE R1, $52
61F6	B101		SET R1, #$01
61F8	3129		MOVE $52, R1
61FA	0503		INC2 R5, R0
61FC	A08B		BRA $628A		; $8C(R0)

61FE	8702		LBI R7, #$02
6200	2129		MOVE R1, $52
6202	9101		CLR R1, #$01
6204	3129		MOVE $52, R1
6206	0503		INC2 R5, R0
6208	A0B1		BRA $62BC		; $B2(R0)

620A	8701		LBI R7, #$01
620C	2129		MOVE R1, $52
620E	B101		SET R1, #$01
6210	3129		MOVE $52, R1
6212	0503		INC2 R5, R0
6214	A073		BRA $628A		; $74(R0)

6216	8703		LBI R7, #$03
6218	2129		MOVE R1, $52
621A	9101		CLR R1, #$01
621C	3129		MOVE $52, R1
621E	0503		INC2 R5, R0
6220	A099		BRA $62BC		; $9A(R0)

6222	8705		LBI R7, #$05
6224	0503		INC2 R5, R0
6226	A093		BRA $62BC		; $94(R0)

6228	8703		LBI R7, #$03
622A	0503		INC2 R5, R0
622C	A08D		BRA $62BC		; $8E(R0)

622E	8701		LBI R7, #$01
6230	2129		MOVE R1, $52
6232	B101		SET R1, #$01
6234	3129		MOVE $52, R1
6236	15D4		CTRL $5, #$D4
6238	0503		INC2 R5, R0
623A	A051		BRA $628E		; $52(R0)

623C	8701		LBI R7, #$01
623E	2129		MOVE R1, $52
6240	9105		CLR R1, #$05
6242	3129		MOVE $52, R1
6244	1554		CTRL $5, #$54
6246	15D4		CTRL $5, #$D4
6248	0503		INC2 R5, R0
624A	A041		BRA $628E		; $42(R0)

624C	8701		LBI R7, #$01
624E	8106		LBI R1, #$06
6250	3148		MOVE $90, R1
6252	0503		INC2 R5, R0
6254	A033		BRA $628A		; $34(R0)

6256	8703		LBI R7, #$03
6258	0503		INC2 R5, R0
625A	A05F		BRA $62BC		; $60(R0)

625C	8701		LBI R7, #$01
625E	0503		INC2 R5, R0
6260	A027		BRA $628A		; $28(R0)

6262	8701		LBI R7, #$01
6264	2129		MOVE R1, $52
6266	B101		SET R1, #$01
6268	3129		MOVE $52, R1
626A	1554		CTRL $5, #$54
626C	15D4		CTRL $5, #$D4
626E	0503		INC2 R5, R0
6270	A01B		BRA $628E		; $1C(R0)

6272	8702		LBI R7, #$02
6274	2129		MOVE R1, $52
6276	9101		CLR R1, #$01
6278	3129		MOVE $52, R1
627A	0503		INC2 R5, R0
627C	A03D		BRA $62BC		; $3E(R0)

627E	8105		LBI R1, #$05
6280	3148		MOVE $90, R1
6282	8702		LBI R7, #$02
6284	0503		INC2 R5, R0
6286	A033		BRA $62BC		; $34(R0)

6288	F007		BRA $6282		; -> -$08(R0)

628A	15D4		CTRL $5, #$D4
628C	1552		CTRL $5, #$52
628E	8164		LBI R1, #$64
6290	011D		MLH R1, R1
6292	81BE		LBI R1, #$BE
6294	0014		RET R1

6296	8704		LBI R7, #$04
6298	0503		INC2 R5, R0
629A	A01F		BRA $62BC		; $20(R0)

629C	8705		LBI R7, #$05
629E	0503		INC2 R5, R0
62A0	A019		BRA $62BC		; $1A(R0)

62A2	8705		LBI R7, #$05
62A4	0503		INC2 R5, R0
62A6	A013		BRA $62BC		; $14(R0)

62A8	8704		LBI R7, #$04
62AA	0503		INC2 R5, R0
62AC	A00D		BRA $62BC		; $0E(R0)

62AE	2129		MOVE R1, $52
62B0	9104		CLR R1, #$04
62B2	3129		MOVE $52, R1
62B4	8701		LBI R7, #$01
62B6	0503		INC2 R5, R0
62B8	F02F		BRA $628A		; -> -$30(R0)

62BA	F007		BRA $62B4		; -> -$08(R0)

62BC	1554		CTRL $5, #$54
62BE	F031		BRA $628E		; -> -$32(R0)

62C0	2929		MOVE R9, $52
62C2	B904		SET R9, #$04
62C4	3929		MOVE $52, R9
62C6	05BE		GETB R11, $5
62C8	8102		LBI R1, #$02
62CA	CB15		SBS R11, R1
62CC	A00F		BRA $62DE		; $10(R0)

62CE	8707		LBI R7, #$07
62D0	0503		INC2 R5, R0
62D2	F017		BRA $62BC		; -> -$18(R0)

62D4	8704		LBI R7, #$04
62D6	0503		INC2 R5, R0
62D8	F01D		BRA $62BC		; -> -$1E(R0)

62DA	8714		LBI R7, #$14
62DC	A00D		BRA $62EC		; $0E(R0)

62DE	8704		LBI R7, #$04
62E0	0503		INC2 R5, R0
62E2	F027		BRA $62BC		; -> -$28(R0)

62E4	8702		LBI R7, #$02
62E6	0503		INC2 R5, R0
62E8	F05F		BRA $628A		; -> -$60(R0)

62EA	8710		LBI R7, #$10
62EC	2929		MOVE R9, $52
62EE	B901		SET R9, #$01
62F0	3929		MOVE $52, R9
62F2	0503		INC2 R5, R0
62F4	F06B		BRA $628A		; -> -$6C(R0)

62F6	8110		LBI R1, #$10
62F8	C916		SBC R9, R1
62FA	A02F		BRA $632C		; $30(R0)

62FC	8108		LBI R1, #$08
62FE	C915		SBS R9, R1
6300	A049		BRA $634C		; $4A(R0)

6302	CE0C		SNS R14
6304	A045		BRA $634C		; $46(R0)

6306	2F7D		MOVE R15, $FA
6308	2B7C		MOVE R11, $F8
630A	2929		MOVE R9, $52
630C	8180		LBI R1, #$80
630E	C916		SBC R9, R1
6310	A039		BRA $634C		; $3A(R0)

6312	8703		LBI R7, #$03
6314	AB00		ADD R11, #$01
6316	810A		LBI R1, #$0A
6318	CB19		SGE R11, R1
631A	A003		BRA $6320		; $04(R0)

631C	8B00		LBI R11, #$00
631E	AF00		ADD R15, #$01
6320	F700		SUB R7, #$01
6322	C703		SZ R7
6324	F011		BRA $6314		; -> -$12(R0)

6326	3F7D		MOVE $FA, R15
6328	3B7C		MOVE $F8, R11
632A	A01F		BRA $634C		; $20(R0)

632C	8118		LBI R1, #$18
632E	0917		XOR R9, R1
6330	3929		MOVE $52, R9
6332	0533		INC2 R5, R3
6334	6558		MOVB R5, (R5)
6336	8101		LBI R1, #$01
6338	C518		SGT R5, R1
633A	A007		BRA $6344		; $08(R0)

633C	8160		LBI R1, #$60
633E	011D		MLH R1, R1
6340	81F0		LBI R1, #$F0
6342	0014		RET R1

6344	8160		LBI R1, #$60
6346	011D		MLH R1, R1
6348	81AC		LBI R1, #$AC
634A	0014		RET R1

634C	1551		CTRL $5, #$51
634E	1520		CTRL $5, #$20
6350	0434		MOVE R4, R3
6352	A407		ADD R4, #$08
6354	D448		MOVE R4, (R4)
6356	0744		MOVE R7, R4
6358	E07F		SWAP R7
635A	970F		CLR R7, #$0F
635C	2929		MOVE R9, $52
635E	C70B		SNZ R7
6360	A083		BRA $63E6		; $84(R0)

6362	8120		LBI R1, #$20
6364	C915		SBS R9, R1
6366	A005		BRA $636E		; $06(R0)

6368	F703		SUB R7, #$04
636A	9922		CLR R9, #$22
636C	3929		MOVE $52, R9
636E	1590		CTRL $5, #$90
6370	0503		INC2 R5, R0
6372	A085		BRA $63FA		; $86(R0)

6374	05AE		GETB R10, $5
6376	9AF3		CLR R10, #$F3
6378	05BE		GETB R11, $5
637A	9BF3		CLR R11, #$F3
637C	00B8		ADD R0, R11
637E	8608		LBI R6, #$08
6380	A011		BRA $6394		; $12(R0)

6382	8604		LBI R6, #$04
6384	A005		BRA $638C		; $06(R0)

6386	8604		LBI R6, #$04
6388	A009		BRA $6394		; $0A(R0)

638A	8608		LBI R6, #$08
638C	CA6D		SNBS R10, R6
638E	A007		BRA $6398		; $08(R0)

6390	06A4		MOVE R6, R10
6392	A009		BRA $639E		; $0A(R0)

6394	CA6D		SNBS R10, R6
6396	F007		BRA $6390		; -> -$08(R0)

6398	06B4		MOVE R6, R11
639A	0503		INC2 R5, R0
639C	A01F		BRA $63BE		; $20(R0)

639E	0503		INC2 R5, R0
63A0	A009		BRA $63AC		; $0A(R0)

63A2	0503		INC2 R5, R0
63A4	A017		BRA $63BE		; $18(R0)

63A6	0503		INC2 R5, R0
63A8	A025		BRA $63D0		; $26(R0)

63AA	F00D		BRA $639E		; -> -$0E(R0)

63AC	0068		ADD R0, R6
63AE	1593		CTRL $5, #$93
63B0	0054		RET R5

63B2	1597		CTRL $5, #$97
63B4	0054		RET R5

63B6	159B		CTRL $5, #$9B
63B8	0054		RET R5

63BA	159F		CTRL $5, #$9F
63BC	0054		RET R5

63BE	0068		ADD R0, R6
63C0	8604		LBI R6, #$04
63C2	0054		RET R5

63C4	860C		LBI R6, #$0C
63C6	0054		RET R5

63C8	8600		LBI R6, #$00
63CA	0054		RET R5

63CC	8608		LBI R6, #$08
63CE	0054		RET R5

63D0	212F		MOVE R1, $5E
63D2	A100		ADD R1, #$01
63D4	312F		MOVE $5E, R1
63D6	011C		MHL R1, R1
63D8	C10C		SNS R1
63DA	A037		BRA $6414		; $38(R0)

63DC	05AE		GETB R10, $5
63DE	9AF3		CLR R10, #$F3
63E0	CA62		SE R10, R6
63E2	F013		BRA $63D0		; -> -$14(R0)

63E4	A013		BRA $63FA		; $14(R0)

63E6	8120		LBI R1, #$20
63E8	C915		SBS R9, R1
63EA	A003		BRA $63F0		; $04(R0)

63EC	870C		LBI R7, #$0C
63EE	F085		BRA $636A		; -> -$86(R0)

63F0	8102		LBI R1, #$02
63F2	C915		SBS R9, R1
63F4	A085		BRA $647C		; $86(R0)

63F6	8710		LBI R7, #$10
63F8	F08B		BRA $636E		; -> -$8C(R0)

63FA	2153		MOVE R1, $A6
63FC	312F		MOVE $5E, R1
63FE	F700		SUB R7, #$01
6400	C70B		SNZ R7
6402	A015		BRA $641A		; $16(R0)

6404	2929		MOVE R9, $52
6406	8102		LBI R1, #$02
6408	C915		SBS R9, R1
640A	0054		RET R5

640C	CD0B		SNZ R13
640E	A007		BRA $6418		; $08(R0)

6410	FD00		SUB R13, #$01
6412	0054		RET R5

6414	891D		LBI R9, #$1D
6416	A08D		BRA $64A6		; $8E(R0)

6418	15A0		CTRL $5, #$A0
641A	9AF3		CLR R10, #$F3
641C	00A8		ADD R0, R10
641E	159F		CTRL $5, #$9F
6420	A009		BRA $642C		; $0A(R0)

6422	159B		CTRL $5, #$9B
6424	A005		BRA $642C		; $06(R0)

6426	1597		CTRL $5, #$97
6428	A001		BRA $642C		; $02(R0)

642A	1593		CTRL $5, #$93
642C	1064		CTRL $0, #$64
642E	8BBA		LBI R11, #$BA
6430	FB00		SUB R11, #$01
6432	CB03		SZ R11
6434	F005		BRA $6430		; -> -$06(R0)

6436	06A4		MOVE R6, R10
6438	0503		INC2 R5, R0
643A	F08F		BRA $63AC		; -> -$90(R0)

643C	2929		MOVE R9, $52
643E	B901		SET R9, #$01
6440	3929		MOVE $52, R9
6442	8730		LBI R7, #$30
6444	1554		CTRL $5, #$54
6446	0503		INC2 R5, R0
6448	A073		BRA $64BE		; $74(R0)

644A	1510		CTRL $5, #$10
644C	2B52		MOVE R11, $A4
644E	8110		LBI R1, #$10
6450	CB1F		SNBSH R11, R1
6452	1074		CTRL $0, #$74
6454	2929		MOVE R9, $52
6456	8102		LBI R1, #$02
6458	C915		SBS R9, R1
645A	A01F		BRA $647C		; $20(R0)

645C	8128		LBI R1, #$28
645E	0917		XOR R9, R1
6460	3929		MOVE $52, R9
6462	8108		LBI R1, #$08
6464	C915		SBS R9, R1
6466	A007		BRA $6470		; $08(R0)

6468	8161		LBI R1, #$61
646A	011D		MLH R1, R1
646C	817A		LBI R1, #$7A
646E	0014		RET R1

6470	2C2C		MOVE R12, $58
6472	AC00		ADD R12, #$01
6474	8161		LBI R1, #$61
6476	011D		MLH R1, R1
6478	8162		LBI R1, #$62
647A	0014		RET R1

647C	0503		INC2 R5, R0
647E	A009		BRA $648A		; $0A(R0)

6480	8902		LBI R9, #$02
6482	CA96		SBC R10, R9
6484	A029		BRA $64B0		; $2A(R0)

6486	891B		LBI R9, #$1B
6488	A01B		BRA $64A6		; $1C(R0)

648A	05AE		GETB R10, $5
648C	891C		LBI R9, #$1C
648E	099D		MLH R9, R9
6490	891E		LBI R9, #$1E
6492	CA0C		SNS R10
6494	A013		BRA $64AA		; $14(R0)

6496	891F		LBI R9, #$1F
6498	8110		LBI R1, #$10
649A	CA15		SBS R10, R1
649C	0054		RET R5

649E	8101		LBI R1, #$01
64A0	CA15		SBS R10, R1
64A2	A001		BRA $64A6		; $02(R0)

64A4	891C		LBI R9, #$1C
64A6	8120		LBI R1, #$20
64A8	091D		MLH R9, R1
64AA	0B34		MOVE R11, R3
64AC	AB0B		ADD R11, #$0C
64AE	59B8		MOVE (R11), R9
64B0	1551		CTRL $5, #$51
64B2	1521		CTRL $5, #$21
64B4	1500		CTRL $5, #$00
64B6	1560		CTRL $5, #$60
64B8	1558		CTRL $5, #$58
64BA	1541		CTRL $5, #$41
64BC	0024		RET R2

64BE	2153		MOVE R1, $A6
64C0	312F		MOVE $5E, R1
64C2	15D1		CTRL $5, #$D1
64C4	212F		MOVE R1, $5E
64C6	A100		ADD R1, #$01
64C8	312F		MOVE $5E, R1
64CA	011C		MHL R1, R1
64CC	8B30		LBI R11, #$30
64CE	C1BA		SNE R1, R11
64D0	A013		BRA $64E6		; $14(R0)

64D2	2929		MOVE R9, $52
64D4	8140		LBI R1, #$40
64D6	C915		SBS R9, R1
64D8	F015		BRA $64C4		; -> -$16(R0)

64DA	9940		CLR R9, #$40
64DC	3929		MOVE $52, R9
64DE	F700		SUB R7, #$01
64E0	C703		SZ R7
64E2	F025		BRA $64BE		; -> -$26(R0)

64E4	0054		RET R5

64E6	8923		LBI R9, #$23
64E8	F043		BRA $64A6		; -> -$44(R0)

64EA	287E		MOVE R8, $FC
64EC	05BE		GETB R11, $5
64EE	8110		LBI R1, #$10
64F0	CB15		SBS R11, R1
64F2	A015		BRA $650A		; $16(R0)

64F4	811C		LBI R1, #$1C
64F6	3109		MOVE $12, R1
64F8	8164		LBI R1, #$64
64FA	011D		MLH R1, R1
64FC	81A6		LBI R1, #$A6
64FE	3100		MOVE $00, R1
6500	1560		CTRL $5, #$60
6502	1558		CTRL $5, #$58
6504	1522		CTRL $5, #$22
6506	1542		CTRL $5, #$42
6508	F01F		BRA $64EA		; -> -$20(R0)

650A	8120		LBI R1, #$20
650C	CB1D		SNBS R11, R1
650E	A02F		BRA $6540		; $30(R0)

6510	8101		LBI R1, #$01
6512	CB16		SBC R11, R1
6514	A00D		BRA $6524		; $0E(R0)

6516	8120		LBI R1, #$20
6518	3109		MOVE $12, R1
651A	8164		LBI R1, #$64
651C	011D		MLH R1, R1
651E	81A6		LBI R1, #$A6
6520	3100		MOVE $00, R1
6522	1F10		CTRL $F, #$10
6524	B940		SET R9, #$40
6526	8501		LBI R5, #$01
6528	2107		MOVE R1, $0E
652A	C152		SE R1, R5
652C	A00B		BRA $653A		; $0C(R0)

652E	8101		LBI R1, #$01
6530	C915		SBS R9, R1
6532	A00D		BRA $6542		; $0E(R0)

6534	387E		MOVE $FC, R8
6536	1552		CTRL $5, #$52
6538	F04F		BRA $64EA		; -> -$50(R0)

653A	8104		LBI R1, #$04
653C	C815		SBS R8, R1
653E	F00B		BRA $6534		; -> -$0C(R0)

6540	A0CD		BRA $6610		; $CE(R0)

6542	C855		SBS R8, R5
6544	A009		BRA $6550		; $0A(R0)

6546	8162		LBI R1, #$62
6548	011D		MLH R1, R1
654A	81C0		LBI R1, #$C0
654C	3105		MOVE $0A, R1
654E	9801		CLR R8, #$01
6550	8104		LBI R1, #$04
6552	C916		SBC R9, R1
6554	A007		BRA $655E		; $08(R0)

6556	8110		LBI R1, #$10
6558	C815		SBS R8, R1
655A	A021		BRA $657E		; $22(R0)

655C	9810		CLR R8, #$10
655E	2153		MOVE R1, $A6
6560	314F		MOVE $9E, R1
6562	314E		MOVE $9C, R1
6564	8108		LBI R1, #$08
6566	C915		SBS R9, R1
6568	A02D		BRA $6598		; $2E(R0)

656A	81C0		LBI R1, #$C0
656C	CB1D		SNBS R11, R1
656E	A03D		BRA $65AE		; $3E(R0)

6570	8140		LBI R1, #$40
6572	CB16		SBC R11, R1
6574	A033		BRA $65AA		; $34(R0)

6576	8180		LBI R1, #$80
6578	CB16		SBC R11, R1
657A	A035		BRA $65B2		; $36(R0)

657C	A037		BRA $65B6		; $38(R0)

657E	274E		MOVE R7, $9C
6580	A700		ADD R7, #$01
6582	374E		MOVE $9C, R7
6584	812D		LBI R1, #$2D
6586	C719		SGE R7, R1
6588	F025		BRA $6564		; -> -$26(R0)

658A	8122		LBI R1, #$22
658C	3109		MOVE $12, R1
658E	8164		LBI R1, #$64
6590	011D		MLH R1, R1
6592	81A6		LBI R1, #$A6
6594	3100		MOVE $00, R1
6596	F063		BRA $6534		; -> -$64(R0)

6598	81C0		LBI R1, #$C0
659A	CB1D		SNBS R11, R1
659C	A017		BRA $65B6		; $18(R0)

659E	8140		LBI R1, #$40
65A0	CB16		SBC R11, R1
65A2	A00D		BRA $65B2		; $0E(R0)

65A4	8180		LBI R1, #$80
65A6	CB15		SBS R11, R1
65A8	A003		BRA $65AE		; $04(R0)

65AA	15A3		CTRL $5, #$A3
65AC	F079		BRA $6534		; -> -$7A(R0)

65AE	15A7		CTRL $5, #$A7
65B0	F07D		BRA $6534		; -> -$7E(R0)

65B2	15AF		CTRL $5, #$AF
65B4	F081		BRA $6534		; -> -$82(R0)

65B6	15AB		CTRL $5, #$AB
65B8	F085		BRA $6534		; -> -$86(R0)

65BA	8120		LBI R1, #$20
65BC	C81D		SNBS R8, R1
65BE	A019		BRA $65DA		; $1A(R0)

65C0	8140		LBI R1, #$40
65C2	C81D		SNBS R8, R1
65C4	A021		BRA $65E8		; $22(R0)

65C6	8180		LBI R1, #$80
65C8	C815		SBS R8, R1
65CA	A0ED		BRA $66BA		; $EE(R0)

65CC	8120		LBI R1, #$20
65CE	CA1D		SNBS R10, R1
65D0	A021		BRA $65F4		; $22(R0)

65D2	8140		LBI R1, #$40
65D4	CA1D		SNBS R10, R1
65D6	A029		BRA $6602		; $2A(R0)

65D8	A0DF		BRA $66BA		; $E0(R0)

65DA	8140		LBI R1, #$40
65DC	CA1D		SNBS R10, R1
65DE	A013		BRA $65F4		; $14(R0)

65E0	8180		LBI R1, #$80
65E2	CA1D		SNBS R10, R1
65E4	A01B		BRA $6602		; $1C(R0)

65E6	A0D1		BRA $66BA		; $D2(R0)

65E8	8120		LBI R1, #$20
65EA	CA1D		SNBS R10, R1
65EC	A013		BRA $6602		; $14(R0)

65EE	8180		LBI R1, #$80
65F0	CA15		SBS R10, R1
65F2	A0C5		BRA $66BA		; $C6(R0)

65F4	A600		ADD R6, #$01
65F6	810A		LBI R1, #$0A
65F8	C619		SGE R6, R1
65FA	A0BD		BRA $66BA		; $BE(R0)

65FC	8600		LBI R6, #$00
65FE	A400		ADD R4, #$01
6600	A0B7		BRA $66BA		; $B8(R0)

6602	F600		SUB R6, #$01
6604	810A		LBI R1, #$0A
6606	C619		SGE R6, R1
6608	A0AF		BRA $66BA		; $B0(R0)

660A	8609		LBI R6, #$09
660C	F400		SUB R4, #$01
660E	A0A9		BRA $66BA		; $AA(R0)

6610	05AE		GETB R10, $5
6612	8110		LBI R1, #$10
6614	CA1D		SNBS R10, R1
6616	A0B5		BRA $66CE		; $B6(R0)

6618	81E0		LBI R1, #$E0
661A	CA1E		SNBC R10, R1
661C	A0ED		BRA $670C		; $EE(R0)

661E	B810		SET R8, #$10
6620	247D		MOVE R4, $FA
6622	267C		MOVE R6, $F8
6624	8101		LBI R1, #$01
6626	CA1D		SNBS R10, R1
6628	08AD		MLH R8, R10
662A	8181		LBI R1, #$81
662C	CA15		SBS R10, R1
662E	A00F		BRA $6640		; $10(R0)

6630	1560		CTRL $5, #$60
6632	1558		CTRL $5, #$58
6634	8108		LBI R1, #$08
6636	C916		SBC R9, R1
6638	A0A5		BRA $66E0		; $A6(R0)

663A	8400		LBI R4, #$00
663C	8607		LBI R6, #$07
663E	A079		BRA $66BA		; $7A(R0)

6640	C403		SZ R4
6642	A00B		BRA $6650		; $0C(R0)

6644	8104		LBI R1, #$04
6646	C610		SLE R6, R1
6648	A005		BRA $6650		; $06(R0)

664A	8108		LBI R1, #$08
664C	C916		SBC R9, R1
664E	A0A3		BRA $66F4		; $A4(R0)

6650	8104		LBI R1, #$04
6652	C916		SBC R9, R1
6654	F09B		BRA $65BA		; -> -$9C(R0)

6656	254F		MOVE R5, $9E
6658	A500		ADD R5, #$01
665A	354F		MOVE $9E, R5
665C	2148		MOVE R1, $90
665E	C511		SLT R5, R1
6660	A077		BRA $66DA		; $78(R0)

6662	8108		LBI R1, #$08
6664	C915		SBS R9, R1
6666	A025		BRA $668E		; $26(R0)

6668	F600		SUB R6, #$01
666A	810A		LBI R1, #$0A
666C	C619		SGE R6, R1
666E	A003		BRA $6674		; $04(R0)

6670	8609		LBI R6, #$09
6672	F400		SUB R4, #$01
6674	8120		LBI R1, #$20
6676	C81D		SNBS R8, R1
6678	A039		BRA $66B4		; $3A(R0)

667A	8140		LBI R1, #$40
667C	C81D		SNBS R8, R1
667E	A02B		BRA $66AC		; $2C(R0)

6680	8180		LBI R1, #$80
6682	C815		SBS R8, R1
6684	A033		BRA $66BA		; $34(R0)

6686	8140		LBI R1, #$40
6688	CA15		SBS R10, R1
668A	A071		BRA $66FE		; $72(R0)

668C	A02B		BRA $66BA		; $2C(R0)

668E	A600		ADD R6, #$01
6690	810A		LBI R1, #$0A
6692	C619		SGE R6, R1
6694	A003		BRA $669A		; $04(R0)

6696	8600		LBI R6, #$00
6698	A400		ADD R4, #$01
669A	8120		LBI R1, #$20
669C	C81D		SNBS R8, R1
669E	F019		BRA $6686		; -> -$1A(R0)

66A0	8140		LBI R1, #$40
66A2	C81D		SNBS R8, R1
66A4	A00D		BRA $66B4		; $0E(R0)

66A6	8180		LBI R1, #$80
66A8	C815		SBS R8, R1
66AA	A00D		BRA $66BA		; $0E(R0)

66AC	8120		LBI R1, #$20
66AE	CA15		SBS R10, R1
66B0	A04B		BRA $66FE		; $4C(R0)

66B2	A005		BRA $66BA		; $06(R0)

66B4	8180		LBI R1, #$80
66B6	CA15		SBS R10, R1
66B8	A043		BRA $66FE		; $44(R0)

66BA	8110		LBI R1, #$10
66BC	C915		SBS R9, R1
66BE	A04D		BRA $670E		; $4E(R0)

66C0	0EE1		DEC R14, R14
66C2	CE03		SZ R14
66C4	A04F		BRA $6716		; $50(R0)

66C6	01EC		MHL R1, R14
66C8	C103		SZ R1
66CA	A049		BRA $6716		; $4A(R0)

66CC	A069		BRA $6738		; $6A(R0)

66CE	851F		LBI R5, #$1F
66D0	8101		LBI R1, #$01
66D2	CA1D		SNBS R10, R1
66D4	851C		LBI R5, #$1C
66D6	3509		MOVE $12, R5
66D8	A027		BRA $6702		; $28(R0)

66DA	8124		LBI R1, #$24
66DC	3109		MOVE $12, R1
66DE	A021		BRA $6702		; $22(R0)

66E0	8180		LBI R1, #$80
66E2	C916		SBC R9, R1
66E4	A00F		BRA $66F6		; $10(R0)

66E6	8400		LBI R4, #$00
66E8	8607		LBI R6, #$07
66EA	210E		MOVE R1, $1C
66EC	C104		SS R1
66EE	F035		BRA $66BA		; -> -$36(R0)

66F0	B980		SET R9, #$80
66F2	8E0D		LBI R14, #$0D
66F4	A01F		BRA $6716		; $20(R0)

66F6	FE00		SUB R14, #$01
66F8	CE03		SZ R14
66FA	A019		BRA $6716		; $1A(R0)

66FC	A039		BRA $6738		; $3A(R0)

66FE	8121		LBI R1, #$21
6700	3109		MOVE $12, R1
6702	8164		LBI R1, #$64
6704	011D		MLH R1, R1
6706	81A6		LBI R1, #$A6
6708	3100		MOVE $00, R1
670A	A02D		BRA $673A		; $2E(R0)

670C	A07F		BRA $678E		; $80(R0)

670E	8108		LBI R1, #$08
6710	C915		SBS R9, R1
6712	A011		BRA $6726		; $12(R0)

6714	C430		SLE R4, R3
6716	A06B		BRA $6784		; $6C(R0)

6718	C420		SLE R4, R2
671A	A029		BRA $6746		; $2A(R0)

671C	C422		SE R4, R2
671E	A063		BRA $6784		; $64(R0)

6720	C603		SZ R6
6722	A021		BRA $6746		; $22(R0)

6724	A011		BRA $6738		; $12(R0)

6726	C429		SGE R4, R2
6728	A059		BRA $6784		; $5A(R0)

672A	C439		SGE R4, R3
672C	A011		BRA $6740		; $12(R0)

672E	C432		SE R4, R3
6730	A051		BRA $6784		; $52(R0)

6732	8109		LBI R1, #$09
6734	C612		SE R6, R1
6736	A007		BRA $6740		; $08(R0)

6738	B801		SET R8, #$01
673A	1560		CTRL $5, #$60
673C	1558		CTRL $5, #$58
673E	A043		BRA $6784		; $44(R0)

6740	C60B		SNZ R6
6742	A00B		BRA $6750		; $0C(R0)

6744	A055		BRA $679C		; $56(R0)

6746	8109		LBI R1, #$09
6748	C612		SE R6, R1
674A	A04F		BRA $679C		; $50(R0)

674C	6DC4		MOVB R13, (R12)-
674E	A007		BRA $6758		; $08(R0)

6750	8101		LBI R1, #$01
6752	CA1D		SNBS R10, R1
6754	F01B		BRA $673A		; -> -$1C(R0)

6756	6DC0		MOVB R13, (R12)+
6758	8120		LBI R1, #$20
675A	C916		SBC R9, R1
675C	A00F		BRA $676E		; $10(R0)

675E	8180		LBI R1, #$80
6760	CD19		SGE R13, R1
6762	A015		BRA $677A		; $16(R0)

6764	B902		SET R9, #$02
6766	8103		LBI R1, #$03
6768	310D		MOVE $1A, R1
676A	9D80		CLR R13, #$80
676C	A00B		BRA $677A		; $0C(R0)

676E	8180		LBI R1, #$80
6770	CD19		SGE R13, R1
6772	A003		BRA $6778		; $04(R0)

6774	8D32		LBI R13, #$32
6776	A001		BRA $677A		; $02(R0)

6778	8D00		LBI R13, #$00
677A	15D8		CTRL $5, #$D8
677C	8100		LBI R1, #$00
677E	011D		MLH R1, R1
6780	815B		LBI R1, #$5B
6782	4518		PUTB $5, (R1)
6784	9A1F		CLR R10, #$1F
6786	98E4		CLR R8, #$E4
6788	08A6		OR R8, R10
678A	347D		MOVE $FA, R4
678C	367C		MOVE $F8, R6
678E	9804		CLR R8, #$04
6790	387E		MOVE $FC, R8
6792	1522		CTRL $5, #$22
6794	8164		LBI R1, #$64
6796	011D		MLH R1, R1
6798	81EA		LBI R1, #$EA
679A	0014		RET R1

679C	8167		LBI R1, #$67
679E	011D		MLH R1, R1
67A0	81AC		LBI R1, #$AC
67A2	0168		ADD R1, R6
67A4	0168		ADD R1, R6
67A6	0168		ADD R1, R6
67A8	0168		ADD R1, R6
67AA	0014		RET R1

67AC	1560		CTRL $5, #$60
67AE	F02B		BRA $6784		; -> -$2C(R0)

67B0	15EC		CTRL $5, #$EC
67B2	F02F		BRA $6784		; -> -$30(R0)

67B4	156C		CTRL $5, #$6C
67B6	F033		BRA $6784		; -> -$34(R0)

67B8	15E4		CTRL $5, #$E4
67BA	F037		BRA $6784		; -> -$38(R0)

67BC	1564		CTRL $5, #$64
67BE	F03B		BRA $6784		; -> -$3C(R0)

67C0	15E8		CTRL $5, #$E8
67C2	F03F		BRA $6784		; -> -$40(R0)

67C4	1568		CTRL $5, #$68
67C6	F043		BRA $6784		; -> -$44(R0)

67C8	15E0		CTRL $5, #$E0
67CA	F047		BRA $6784		; -> -$48(R0)

67CC	1560		CTRL $5, #$60
67CE	F04B		BRA $6784		; -> -$4C(R0)

67D0	1560		CTRL $5, #$60
67D2	F04F		BRA $6784		; -> -$50(R0)

67D4	0000		HALT
67D6	0000		HALT
67D8	0000		HALT
67DA	0000		HALT
67DC	0000		HALT
67DE	0000		HALT
67E0	0000		HALT
67E2	0000		HALT
67E4	0000		HALT
67E6	0000		HALT
67E8	0000		HALT
67EA	0000		HALT
67EC	0000		HALT
67EE	0000		HALT
67F0	0000		HALT
67F2	0000		HALT
67F4	0000		HALT
67F6	0000		HALT
67F8	0000		HALT
67FA	0000		HALT
67FC	0000		HALT
67FE	0000		HALT
6800	3249		MOVE $92, R2
6802	8505		LBI R5, #$05
6804	351B		MOVE $36, R5
6806	2552		MOVE R5, $A4
6808	015C		MHL R1, R5
680A	B140		SET R1, #$40
680C	051D		MLH R5, R1
680E	3552		MOVE $A4, R5
6810	2653		MOVE R6, $A6
6812	6538		MOVB R5, (R3)
6814	F50D		SUB R5, #$0E
6816	C503		SZ R5
6818	A093		BRA $68AE		; $94(R0)

681A	0434		MOVE R4, R3
681C	A401		ADD R4, #$02
681E	6548		MOVB R5, (R4)
6820	870B		LBI R7, #$0B
6822	C570		SLE R5, R7
6824	A087		BRA $68AE		; $88(R0)

6826	8100		LBI R1, #$00
6828	C51A		SNE R5, R1
682A	A015		BRA $6842		; $16(R0)

682C	A407		ADD R4, #$08
682E	DF48		MOVE R15, (R4)
6830	01FC		MHL R1, R15
6832	01F6		OR R1, R15
6834	C10B		SNZ R1
6836	A075		BRA $68AE		; $76(R0)

6838	D7F8		MOVE R7, (R15)
683A	371C		MOVE $38, R7
683C	F401		SUB R4, #$02
683E	D748		MOVE R7, (R4)
6840	371D		MOVE $3A, R7
6842	E05F		SWAP R5
6844	E05D		ROR R5
6846	8268		LBI R2, #$68
6848	022D		MLH R2, R2
684A	82BA		LBI R2, #$BA
684C	0058		ADD R0, R5
684E	816A		LBI R1, #$6A
6850	011D		MLH R1, R1
6852	812A		LBI R1, #$2A
6854	0014		RET R1

6856	816A		LBI R1, #$6A
6858	011D		MLH R1, R1
685A	8164		LBI R1, #$64
685C	0014		RET R1

685E	816A		LBI R1, #$6A
6860	011D		MLH R1, R1
6862	81D2		LBI R1, #$D2
6864	0014		RET R1

6866	816A		LBI R1, #$6A
6868	011D		MLH R1, R1
686A	81D2		LBI R1, #$D2
686C	0014		RET R1

686E	816B		LBI R1, #$6B
6870	011D		MLH R1, R1
6872	8168		LBI R1, #$68
6874	0014		RET R1

6876	816C		LBI R1, #$6C
6878	011D		MLH R1, R1
687A	8188		LBI R1, #$88
687C	0014		RET R1

687E	816C		LBI R1, #$6C
6880	011D		MLH R1, R1
6882	81A6		LBI R1, #$A6
6884	0014		RET R1

6886	816E		LBI R1, #$6E
6888	011D		MLH R1, R1
688A	8114		LBI R1, #$14
688C	0014		RET R1

688E	816E		LBI R1, #$6E
6890	011D		MLH R1, R1
6892	8136		LBI R1, #$36
6894	0014		RET R1

6896	816F		LBI R1, #$6F
6898	011D		MLH R1, R1
689A	810A		LBI R1, #$0A
689C	0014		RET R1

689E	816B		LBI R1, #$6B
68A0	011D		MLH R1, R1
68A2	81D8		LBI R1, #$D8
68A4	0014		RET R1

68A6	816F		LBI R1, #$6F
68A8	011D		MLH R1, R1
68AA	8198		LBI R1, #$98
68AC	0014		RET R1

68AE	2249		MOVE R2, $92
68B0	817E		LBI R1, #$7E
68B2	011D		MLH R1, R1
68B4	8136		LBI R1, #$36
68B6	0603		INC2 R6, R0
68B8	0014		RET R1

68BA	0433		INC2 R4, R3
68BC	6548		MOVB R5, (R4)
68BE	8100		LBI R1, #$00
68C0	C51A		SNE R5, R1
68C2	A017		BRA $68DC		; $18(R0)

68C4	8105		LBI R1, #$05
68C6	C15A		SNE R1, R5
68C8	A013		BRA $68DE		; $14(R0)

68CA	8106		LBI R1, #$06
68CC	C15A		SNE R1, R5
68CE	A00D		BRA $68DE		; $0E(R0)

68D0	0434		MOVE R4, R3
68D2	A401		ADD R4, #$02
68D4	6548		MOVB R5, (R4)
68D6	04F4		MOVE R4, R15
68D8	A405		ADD R4, #$06
68DA	5548		MOVE (R4), R5
68DC	2049		JMP ($0092)

68DE	811D		LBI R1, #$1D
68E0	C162		SE R1, R6
68E2	F013		BRA $68D0		; -> -$14(R0)

68E4	076C		MHL R7, R6
68E6	811C		LBI R1, #$1C
68E8	C172		SE R1, R7
68EA	F01B		BRA $68D0		; -> -$1C(R0)

68EC	2653		MOVE R6, $A6
68EE	04F4		MOVE R4, R15
68F0	A401		ADD R4, #$02
68F2	D548		MOVE R5, (R4)
68F4	F501		SUB R5, #$02
68F6	8180		LBI R1, #$80
68F8	C51F		SNBSH R5, R1
68FA	A08F		BRA $698C		; $90(R0)

68FC	F502		SUB R5, #$03
68FE	8180		LBI R1, #$80
6900	C51F		SNBSH R5, R1
6902	A0C7		BRA $69CC		; $C8(R0)

6904	D548		MOVE R5, (R4)
6906	F500		SUB R5, #$01
6908	E05D		ROR R5
690A	9580		CLR R5, #$80
690C	075C		MHL R7, R5
690E	E07D		ROR R7
6910	977F		CLR R7, #$7F
6912	0576		OR R5, R7
6914	075C		MHL R7, R5
6916	E07D		ROR R7
6918	9780		CLR R7, #$80
691A	057D		MLH R5, R7
691C	351D		MOVE $3A, R5
691E	D5F8		MOVE R5, (R15)
6920	0434		MOVE R4, R3
6922	A407		ADD R4, #$08
6924	5548		MOVE (R4), R5
6926	816B		LBI R1, #$6B
6928	011D		MLH R1, R1
692A	8168		LBI R1, #$68
692C	0203		INC2 R2, R0
692E	0014		RET R1

6930	016C		MHL R1, R6
6932	0166		OR R1, R6
6934	C103		SZ R1
6936	A0DB		BRA $6A14		; $DC(R0)

6938	251D		MOVE R5, $3A
693A	F500		SUB R5, #$01
693C	0434		MOVE R4, R3
693E	A407		ADD R4, #$08
6940	5548		MOVE (R4), R5
6942	A405		ADD R4, #$06
6944	8500		LBI R5, #$00
6946	055D		MLH R5, R5
6948	8501		LBI R5, #$01
694A	5548		MOVE (R4), R5
694C	816C		LBI R1, #$6C
694E	011D		MLH R1, R1
6950	81DA		LBI R1, #$DA
6952	0203		INC2 R2, R0
6954	0014		RET R1

6956	016C		MHL R1, R6
6958	0166		OR R1, R6
695A	C103		SZ R1
695C	A0B5		BRA $6A14		; $B6(R0)

695E	861C		LBI R6, #$1C
6960	066D		MLH R6, R6
6962	861D		LBI R6, #$1D
6964	0434		MOVE R4, R3
6966	A40B		ADD R4, #$0C
6968	5641		MOVE (R4)+, R6
696A	271C		MOVE R7, $38
696C	D5F8		MOVE R5, (R15)
696E	0579		SUB R5, R7
6970	075C		MHL R7, R5
6972	055D		MLH R5, R5
6974	057C		MHL R5, R7
6976	0759		SUB R7, R5
6978	055C		MHL R5, R5
697A	057D		MLH R5, R7
697C	5548		MOVE (R4), R5
697E	015C		MHL R1, R5
6980	0156		OR R1, R5
6982	C103		SZ R1
6984	F0B5		BRA $68D0		; -> -$B6(R0)

6986	F405		SUB R4, #$06
6988	5548		MOVE (R4), R5
698A	F0BB		BRA $68D0		; -> -$BC(R0)

698C	2746		MOVE R7, $8C
698E	017C		MHL R1, R7
6990	0176		OR R1, R7
6992	C10B		SNZ R1
6994	A035		BRA $69CC		; $36(R0)

6996	251D		MOVE R5, $3A
6998	F501		SUB R5, #$02
699A	8180		LBI R1, #$80
699C	C51F		SNBSH R5, R1
699E	A025		BRA $69C6		; $26(R0)

69A0	D5F8		MOVE R5, (R15)
69A2	F500		SUB R5, #$01
69A4	015C		MHL R1, R5
69A6	0156		OR R1, R5
69A8	C10B		SNZ R1
69AA	A075		BRA $6A22		; $76(R0)

69AC	0434		MOVE R4, R3
69AE	A407		ADD R4, #$08
69B0	5548		MOVE (R4), R5
69B2	816B		LBI R1, #$6B
69B4	011D		MLH R1, R1
69B6	8168		LBI R1, #$68
69B8	0203		INC2 R2, R0
69BA	0014		RET R1

69BC	016C		MHL R1, R6
69BE	0166		OR R1, R6
69C0	C103		SZ R1
69C2	A04F		BRA $6A14		; $50(R0)

69C4	F08D		BRA $6938		; -> -$8E(R0)

69C6	D5F8		MOVE R5, (R15)
69C8	F500		SUB R5, #$01
69CA	A001		BRA $69CE		; $02(R0)

69CC	D5F8		MOVE R5, (R15)
69CE	015C		MHL R1, R5
69D0	0156		OR R1, R5
69D2	C10B		SNZ R1
69D4	A04B		BRA $6A22		; $4C(R0)

69D6	0434		MOVE R4, R3
69D8	A407		ADD R4, #$08
69DA	5548		MOVE (R4), R5
69DC	816B		LBI R1, #$6B
69DE	011D		MLH R1, R1
69E0	8168		LBI R1, #$68
69E2	0203		INC2 R2, R0
69E4	0014		RET R1

69E6	016C		MHL R1, R6
69E8	0166		OR R1, R6
69EA	C103		SZ R1
69EC	A025		BRA $6A14		; $26(R0)

69EE	0434		MOVE R4, R3
69F0	A403		ADD R4, #$04
69F2	D448		MOVE R4, (R4)
69F4	85FF		LBI R5, #$FF
69F6	7548		MOVB (R4), R5
69F8	816F		LBI R1, #$6F
69FA	011D		MLH R1, R1
69FC	81AA		LBI R1, #$AA
69FE	0203		INC2 R2, R0
6A00	0014		RET R1

6A02	016C		MHL R1, R6
6A04	0166		OR R1, R6
6A06	C103		SZ R1
6A08	A009		BRA $6A14		; $0A(R0)

6A0A	251D		MOVE R5, $3A
6A0C	0434		MOVE R4, R3
6A0E	A407		ADD R4, #$08
6A10	5548		MOVE (R4), R5
6A12	F0B5		BRA $695E		; -> -$B6(R0)

6A14	811D		LBI R1, #$1D
6A16	C162		SE R1, R6
6A18	F0B5		BRA $6964		; -> -$B6(R0)

6A1A	076C		MHL R7, R6
6A1C	811C		LBI R1, #$1C
6A1E	C172		SE R1, R7
6A20	F0BD		BRA $6964		; -> -$BE(R0)

6A22	861B		LBI R6, #$1B
6A24	066D		MLH R6, R6
6A26	861E		LBI R6, #$1E
6A28	F0C5		BRA $6964		; -> -$C6(R0)

6A2A	1EFF		CTRL $E, #$FF
6A2C	0E5E		GETB R5, $E
6A2E	8540		LBI R5, #$40
6A30	EE5F		STAT R5, $E
6A32	3547		MOVE $8E, R5
6A34	9593		CLR R5, #$93
6A36	8104		LBI R1, #$04
6A38	C152		SE R1, R5
6A3A	A01D		BRA $6A5A		; $1E(R0)

6A3C	0434		MOVE R4, R3
6A3E	A405		ADD R4, #$06
6A40	8502		LBI R5, #$02
6A42	055D		MLH R5, R5
6A44	8500		LBI R5, #$00
6A46	5548		MOVE (R4), R5
6A48	A401		ADD R4, #$02
6A4A	8500		LBI R5, #$00
6A4C	055D		MLH R5, R5
6A4E	8508		LBI R5, #$08
6A50	5548		MOVE (R4), R5
6A52	A401		ADD R4, #$02
6A54	85E0		LBI R5, #$E0
6A56	7548		MOVB (R4), R5
6A58	0024		RET R2

6A5A	3048		MOVE $90, R0
6A5C	817F		LBI R1, #$7F
6A5E	011D		MLH R1, R1
6A60	81CC		LBI R1, #$CC
6A62	0014		RET R1

6A64	324A		MOVE $94, R2
6A66	04F4		MOVE R4, R15
6A68	A405		ADD R4, #$06
6A6A	D548		MOVE R5, (R4)
6A6C	8101		LBI R1, #$01
6A6E	C15A		SNE R1, R5
6A70	A017		BRA $6A8A		; $18(R0)

6A72	8109		LBI R1, #$09
6A74	C15A		SNE R1, R5
6A76	A011		BRA $6A8A		; $12(R0)

6A78	8108		LBI R1, #$08
6A7A	C15A		SNE R1, R5
6A7C	A00B		BRA $6A8A		; $0C(R0)

6A7E	810A		LBI R1, #$0A
6A80	C15A		SNE R1, R5
6A82	A005		BRA $6A8A		; $06(R0)

6A84	8104		LBI R1, #$04
6A86	C152		SE R1, R5
6A88	A029		BRA $6AB4		; $2A(R0)

6A8A	F401		SUB R4, #$02
6A8C	D548		MOVE R5, (R4)
6A8E	C50B		SNZ R5
6A90	A027		BRA $6ABA		; $28(R0)

6A92	C50C		SNS R5
6A94	A02F		BRA $6AC6		; $30(R0)

6A96	8170		LBI R1, #$70
6A98	011D		MLH R1, R1
6A9A	81EA		LBI R1, #$EA
6A9C	0203		INC2 R2, R0
6A9E	0014		RET R1

6AA0	204A		JMP ($0094)

6AA2	04F4		MOVE R4, R15
6AA4	A401		ADD R4, #$02
6AA6	D548		MOVE R5, (R4)
6AA8	0734		MOVE R7, R3
6AAA	A707		ADD R7, #$08
6AAC	5578		MOVE (R7), R5
6AAE	A500		ADD R5, #$01
6AB0	5548		MOVE (R4), R5
6AB2	204A		JMP ($0094)

6AB4	224A		MOVE R2, $94
6AB6	0603		INC2 R6, R0
6AB8	A07B		BRA $6B36		; $7C(R0)

6ABA	224A		MOVE R2, $94
6ABC	817E		LBI R1, #$7E
6ABE	011D		MLH R1, R1
6AC0	8150		LBI R1, #$50
6AC2	0603		INC2 R6, R0
6AC4	0014		RET R1

6AC6	224A		MOVE R2, $94
6AC8	817E		LBI R1, #$7E
6ACA	011D		MLH R1, R1
6ACC	815A		LBI R1, #$5A
6ACE	0603		INC2 R6, R0
6AD0	0014		RET R1

6AD2	324A		MOVE $94, R2
6AD4	04F4		MOVE R4, R15
6AD6	A405		ADD R4, #$06
6AD8	D548		MOVE R5, (R4)
6ADA	8102		LBI R1, #$02
6ADC	C15A		SNE R1, R5
6ADE	A01D		BRA $6AFE		; $1E(R0)

6AE0	8101		LBI R1, #$01
6AE2	C15A		SNE R1, R5
6AE4	A017		BRA $6AFE		; $18(R0)

6AE6	8109		LBI R1, #$09
6AE8	C15A		SNE R1, R5
6AEA	A011		BRA $6AFE		; $12(R0)

6AEC	8108		LBI R1, #$08
6AEE	C15A		SNE R1, R5
6AF0	A00B		BRA $6AFE		; $0C(R0)

6AF2	810B		LBI R1, #$0B
6AF4	C15A		SNE R1, R5
6AF6	A005		BRA $6AFE		; $06(R0)

6AF8	8104		LBI R1, #$04
6AFA	C152		SE R1, R5
6AFC	A033		BRA $6B32		; $34(R0)

6AFE	F401		SUB R4, #$02
6B00	D548		MOVE R5, (R4)
6B02	C50B		SNZ R5
6B04	A02B		BRA $6B32		; $2C(R0)

6B06	C50C		SNS R5
6B08	A051		BRA $6B5C		; $52(R0)

6B0A	8518		LBI R5, #$18
6B0C	3540		MOVE $80, R5
6B0E	8171		LBI R1, #$71
6B10	011D		MLH R1, R1
6B12	817E		LBI R1, #$7E
6B14	0203		INC2 R2, R0
6B16	0014		RET R1

6B18	204A		JMP ($0094)

6B1A	04F4		MOVE R4, R15
6B1C	A401		ADD R4, #$02
6B1E	D548		MOVE R5, (R4)
6B20	A500		ADD R5, #$01
6B22	5548		MOVE (R4), R5
6B24	0434		MOVE R4, R3
6B26	A401		ADD R4, #$02
6B28	6548		MOVB R5, (R4)
6B2A	8102		LBI R1, #$02
6B2C	C512		SE R5, R1
6B2E	A00D		BRA $6B3E		; $0E(R0)

6B30	204A		JMP ($0094)

6B32	224A		MOVE R2, $94
6B34	0603		INC2 R6, R0
6B36	817E		LBI R1, #$7E
6B38	011D		MLH R1, R1
6B3A	8136		LBI R1, #$36
6B3C	0014		RET R1

6B3E	8542		LBI R5, #$42
6B40	3540		MOVE $80, R5
6B42	8171		LBI R1, #$71
6B44	011D		MLH R1, R1
6B46	817E		LBI R1, #$7E
6B48	0203		INC2 R2, R0
6B4A	0014		RET R1

6B4C	204A		JMP ($0094)

6B4E	817A		LBI R1, #$7A
6B50	011D		MLH R1, R1
6B52	8192		LBI R1, #$92
6B54	0203		INC2 R2, R0
6B56	0014		RET R1

6B58	204A		JMP ($0094)

6B5A	204A		JMP ($0094)

6B5C	224A		MOVE R2, $94
6B5E	817E		LBI R1, #$7E
6B60	011D		MLH R1, R1
6B62	815A		LBI R1, #$5A
6B64	0603		INC2 R6, R0
6B66	0014		RET R1

6B68	324A		MOVE $94, R2
6B6A	8540		LBI R5, #$40
6B6C	EE5F		STAT R5, $E
6B6E	8110		LBI R1, #$10
6B70	C516		SBC R5, R1
6B72	A003		BRA $6B78		; $04(R0)

6B74	2553		MOVE R5, $A6
6B76	55F8		MOVE (R15), R5
6B78	8500		LBI R5, #$00
6B7A	055D		MLH R5, R5
6B7C	8507		LBI R5, #$07
6B7E	3543		MOVE $86, R5
6B80	0434		MOVE R4, R3
6B82	A407		ADD R4, #$08
6B84	D748		MOVE R7, (R4)
6B86	017C		MHL R1, R7
6B88	0176		OR R1, R7
6B8A	C10B		SNZ R1
6B8C	A0E7		BRA $6C76		; $E8(R0)

6B8E	017C		MHL R1, R7
6B90	913F		CLR R1, #$3F
6B92	C103		SZ R1
6B94	A0DF		BRA $6C76		; $E0(R0)

6B96	D5F8		MOVE R5, (R15)
6B98	015C		MHL R1, R5
6B9A	0156		OR R1, R5
6B9C	C10B		SNZ R1
6B9E	0574		MOVE R5, R7
6BA0	0579		SUB R5, R7
6BA2	075C		MHL R7, R5
6BA4	055D		MLH R5, R5
6BA6	057C		MHL R5, R7
6BA8	0759		SUB R7, R5
6BAA	055C		MHL R5, R5
6BAC	057D		MLH R5, R7
6BAE	8180		LBI R1, #$80
6BB0	C51F		SNBSH R5, R1
6BB2	A025		BRA $6BDA		; $26(R0)

6BB4	2743		MOVE R7, $86
6BB6	F700		SUB R7, #$01
6BB8	C70B		SNZ R7
6BBA	A0BF		BRA $6C7C		; $C0(R0)

6BBC	3743		MOVE $86, R7
6BBE	55F8		MOVE (R15), R5
6BC0	8173		LBI R1, #$73
6BC2	011D		MLH R1, R1
6BC4	8152		LBI R1, #$52
6BC6	0203		INC2 R2, R0
6BC8	0014		RET R1

6BCA	A085		BRA $6C52		; $86(R0)

6BCC	D5F8		MOVE R5, (R15)
6BCE	F500		SUB R5, #$01
6BD0	8180		LBI R1, #$80
6BD2	C517		SBSH R5, R1
6BD4	F017		BRA $6BBE		; -> -$18(R0)

6BD6	A031		BRA $6C0A		; $32(R0)

6BD8	324A		MOVE $94, R2
6BDA	04F4		MOVE R4, R15
6BDC	A403		ADD R4, #$04
6BDE	D5F8		MOVE R5, (R15)
6BE0	015C		MHL R1, R5
6BE2	0156		OR R1, R5
6BE4	C103		SZ R1
6BE6	A01B		BRA $6C04		; $1C(R0)

6BE8	5548		MOVE (R4), R5
6BEA	2743		MOVE R7, $86
6BEC	F700		SUB R7, #$01
6BEE	C70B		SNZ R7
6BF0	A089		BRA $6C7C		; $8A(R0)

6BF2	3743		MOVE $86, R7
6BF4	817A		LBI R1, #$7A
6BF6	011D		MLH R1, R1
6BF8	8192		LBI R1, #$92
6BFA	0203		INC2 R2, R0
6BFC	0014		RET R1

6BFE	A051		BRA $6C52		; $52(R0)

6C00	04F4		MOVE R4, R15
6C02	A403		ADD R4, #$04
6C04	D548		MOVE R5, (R4)
6C06	C50C		SNS R5
6C08	A03B		BRA $6C46		; $3C(R0)

6C0A	8172		LBI R1, #$72
6C0C	011D		MLH R1, R1
6C0E	8198		LBI R1, #$98
6C10	0203		INC2 R2, R0
6C12	0014		RET R1

6C14	A03B		BRA $6C52		; $3C(R0)

6C16	0433		INC2 R4, R3
6C18	6548		MOVB R5, (R4)
6C1A	810A		LBI R1, #$0A
6C1C	C15A		SNE R1, R5
6C1E	204A		JMP ($0094)

6C20	D5F8		MOVE R5, (R15)
6C22	0434		MOVE R4, R3
6C24	A407		ADD R4, #$08
6C26	D148		MOVE R1, (R4)
6C28	0519		SUB R5, R1
6C2A	015C		MHL R1, R5
6C2C	055D		MLH R5, R5
6C2E	051C		MHL R5, R1
6C30	0159		SUB R1, R5
6C32	055C		MHL R5, R5
6C34	051D		MLH R5, R1
6C36	8180		LBI R1, #$80
6C38	C51F		SNBSH R5, R1
6C3A	F061		BRA $6BDA		; -> -$62(R0)

6C3C	015C		MHL R1, R5
6C3E	0156		OR R1, R5
6C40	C10B		SNZ R1
6C42	204A		JMP ($0094)

6C44	F091		BRA $6BB4		; -> -$92(R0)

6C46	224A		MOVE R2, $94
6C48	817E		LBI R1, #$7E
6C4A	011D		MLH R1, R1
6C4C	815A		LBI R1, #$5A
6C4E	0603		INC2 R6, R0
6C50	0014		RET R1

6C52	871D		LBI R7, #$1D
6C54	C672		SE R6, R7
6C56	204A		JMP ($0094)

6C58	086C		MHL R8, R6
6C5A	871C		LBI R7, #$1C
6C5C	C872		SE R8, R7
6C5E	204A		JMP ($0094)

6C60	2653		MOVE R6, $A6
6C62	0434		MOVE R4, R3
6C64	A40B		ADD R4, #$0C
6C66	5648		MOVE (R4), R6
6C68	8174		LBI R1, #$74
6C6A	011D		MLH R1, R1
6C6C	814E		LBI R1, #$4E
6C6E	0203		INC2 R2, R0
6C70	0014		RET R1

6C72	204A		JMP ($0094)

6C74	F06B		BRA $6C0A		; -> -$6C(R0)

6C76	224A		MOVE R2, $94
6C78	0603		INC2 R6, R0
6C7A	A0C5		BRA $6D42		; $C6(R0)

6C7C	224A		MOVE R2, $94
6C7E	817E		LBI R1, #$7E
6C80	011D		MLH R1, R1
6C82	8164		LBI R1, #$64
6C84	0603		INC2 R6, R0
6C86	0014		RET R1

6C88	04F4		MOVE R4, R15
6C8A	A405		ADD R4, #$06
6C8C	D548		MOVE R5, (R4)
6C8E	8104		LBI R1, #$04
6C90	C51A		SNE R5, R1
6C92	A011		BRA $6CA6		; $12(R0)

6C94	8105		LBI R1, #$05
6C96	C51A		SNE R5, R1
6C98	A00B		BRA $6CA6		; $0C(R0)

6C9A	810A		LBI R1, #$0A
6C9C	C15A		SNE R1, R5
6C9E	A005		BRA $6CA6		; $06(R0)

6CA0	8106		LBI R1, #$06
6CA2	C512		SE R5, R1
6CA4	A099		BRA $6D40		; $9A(R0)

6CA6	324A		MOVE $94, R2
6CA8	0434		MOVE R4, R3
6CAA	A40D		ADD R4, #$0E
6CAC	D548		MOVE R5, (R4)
6CAE	015C		MHL R1, R5
6CB0	0156		OR R1, R5
6CB2	C10B		SNZ R1
6CB4	A089		BRA $6D40		; $8A(R0)

6CB6	8180		LBI R1, #$80
6CB8	C51F		SNBSH R5, R1
6CBA	A083		BRA $6D40		; $84(R0)

6CBC	F405		SUB R4, #$06
6CBE	D548		MOVE R5, (R4)
6CC0	015C		MHL R1, R5
6CC2	0156		OR R1, R5
6CC4	C10B		SNZ R1
6CC6	A077		BRA $6D40		; $78(R0)

6CC8	055C		MHL R5, R5
6CCA	953F		CLR R5, #$3F
6CCC	C503		SZ R5
6CCE	A06F		BRA $6D40		; $70(R0)

6CD0	0433		INC2 R4, R3
6CD2	6548		MOVB R5, (R4)
6CD4	8106		LBI R1, #$06
6CD6	C15A		SNE R1, R5
6CD8	A0B7		BRA $6D92		; $B8(R0)

6CDA	324A		MOVE $94, R2
6CDC	2553		MOVE R5, $A6
6CDE	3546		MOVE $8C, R5
6CE0	1413		CTRL $4, #$13
6CE2	8170		LBI R1, #$70
6CE4	011D		MLH R1, R1
6CE6	8110		LBI R1, #$10
6CE8	0203		INC2 R2, R0
6CEA	0014		RET R1

6CEC	A05B		BRA $6D4A		; $5C(R0)

6CEE	0434		MOVE R4, R3
6CF0	A40D		ADD R4, #$0E
6CF2	D548		MOVE R5, (R4)
6CF4	2746		MOVE R7, $8C
6CF6	0579		SUB R5, R7
6CF8	075C		MHL R7, R5
6CFA	055D		MLH R5, R5
6CFC	057C		MHL R5, R7
6CFE	0759		SUB R7, R5
6D00	055C		MHL R5, R5
6D02	057D		MLH R5, R7
6D04	015C		MHL R1, R5
6D06	0156		OR R1, R5
6D08	C103		SZ R1
6D0A	F02B		BRA $6CE0		; -> -$2C(R0)

6D0C	817A		LBI R1, #$7A
6D0E	011D		MLH R1, R1
6D10	8192		LBI R1, #$92
6D12	0203		INC2 R2, R0
6D14	0014		RET R1

6D16	A031		BRA $6D4A		; $32(R0)

6D18	0434		MOVE R4, R3
6D1A	A403		ADD R4, #$04
6D1C	D448		MOVE R4, (R4)
6D1E	85FF		LBI R5, #$FF
6D20	7548		MOVB (R4), R5
6D22	04F4		MOVE R4, R15
6D24	A403		ADD R4, #$04
6D26	5548		MOVE (R4), R5
6D28	8174		LBI R1, #$74
6D2A	011D		MLH R1, R1
6D2C	8162		LBI R1, #$62
6D2E	0203		INC2 R2, R0
6D30	0014		RET R1

6D32	8171		LBI R1, #$71
6D34	011D		MLH R1, R1
6D36	817E		LBI R1, #$7E
6D38	0203		INC2 R2, R0
6D3A	0014		RET R1

6D3C	A00B		BRA $6D4A		; $0C(R0)

6D3E	204A		JMP ($0094)

6D40	0603		INC2 R6, R0
6D42	817E		LBI R1, #$7E
6D44	011D		MLH R1, R1
6D46	8136		LBI R1, #$36
6D48	0014		RET R1

6D4A	0564		MOVE R5, R6
6D4C	871C		LBI R7, #$1C
6D4E	077D		MLH R7, R7
6D50	871D		LBI R7, #$1D
6D52	0579		SUB R5, R7
6D54	075C		MHL R7, R5
6D56	055D		MLH R5, R5
6D58	057C		MHL R5, R7
6D5A	0759		SUB R7, R5
6D5C	055C		MHL R5, R5
6D5E	057D		MLH R5, R7
6D60	015C		MHL R1, R5
6D62	0156		OR R1, R5
6D64	C10B		SNZ R1
6D66	A009		BRA $6D72		; $0A(R0)

6D68	2546		MOVE R5, $8C
6D6A	0434		MOVE R4, R3
6D6C	A40D		ADD R4, #$0E
6D6E	5548		MOVE (R4), R5
6D70	204A		JMP ($0094)

6D72	8174		LBI R1, #$74
6D74	011D		MLH R1, R1
6D76	8120		LBI R1, #$20
6D78	0203		INC2 R2, R0
6D7A	0014		RET R1

6D7C	0004		NOP
6D7E	1E7F		CTRL $E, #$7F
6D80	8C1F		LBI R12, #$1F
6D82	0CCD		MLH R12, R12
6D84	8C0E		LBI R12, #$0E
6D86	FC00		SUB R12, #$01
6D88	8180		LBI R1, #$80
6D8A	CC17		SBSH R12, R1
6D8C	F007		BRA $6D86		; -> -$08(R0)

6D8E	1EFF		CTRL $E, #$FF
6D90	204A		JMP ($0094)

6D92	8540		LBI R5, #$40
6D94	EE5F		STAT R5, $E
6D96	3547		MOVE $8E, R5
6D98	8115		LBI R1, #$15
6D9A	C152		SE R1, R5
6D9C	A069		BRA $6E08		; $6A(R0)

6D9E	04F4		MOVE R4, R15
6DA0	8500		LBI R5, #$00
6DA2	055D		MLH R5, R5
6DA4	8501		LBI R5, #$01
6DA6	5548		MOVE (R4), R5
6DA8	351C		MOVE $38, R5
6DAA	2553		MOVE R5, $A6
6DAC	A403		ADD R4, #$04
6DAE	5548		MOVE (R4), R5
6DB0	8174		LBI R1, #$74
6DB2	011D		MLH R1, R1
6DB4	8120		LBI R1, #$20
6DB6	0203		INC2 R2, R0
6DB8	0014		RET R1

6DBA	A03F		BRA $6DFC		; $40(R0)

6DBC	8179		LBI R1, #$79
6DBE	011D		MLH R1, R1
6DC0	812E		LBI R1, #$2E
6DC2	0203		INC2 R2, R0
6DC4	0014		RET R1

6DC6	A033		BRA $6DFC		; $34(R0)

6DC8	817C		LBI R1, #$7C
6DCA	011D		MLH R1, R1
6DCC	81A4		LBI R1, #$A4
6DCE	0203		INC2 R2, R0
6DD0	0014		RET R1

6DD2	A027		BRA $6DFC		; $28(R0)

6DD4	8800		LBI R8, #$00
6DD6	088D		MLH R8, R8
6DD8	8801		LBI R8, #$01
6DDA	1413		CTRL $4, #$13
6DDC	817C		LBI R1, #$7C
6DDE	011D		MLH R1, R1
6DE0	81CC		LBI R1, #$CC
6DE2	0203		INC2 R2, R0
6DE4	0014		RET R1

6DE6	A013		BRA $6DFC		; $14(R0)

6DE8	2553		MOVE R5, $A6
6DEA	3546		MOVE $8C, R5
6DEC	826C		LBI R2, #$6C
6DEE	022D		MLH R2, R2
6DF0	82EC		LBI R2, #$EC
6DF2	324B		MOVE $96, R2
6DF4	8170		LBI R1, #$70
6DF6	011D		MLH R1, R1
6DF8	81AE		LBI R1, #$AE
6DFA	0014		RET R1

6DFC	817A		LBI R1, #$7A
6DFE	011D		MLH R1, R1
6E00	81B2		LBI R1, #$B2
6E02	0203		INC2 R2, R0
6E04	0014		RET R1

6E06	204A		JMP ($0094)

6E08	224A		MOVE R2, $94
6E0A	817D		LBI R1, #$7D
6E0C	011D		MLH R1, R1
6E0E	81AC		LBI R1, #$AC
6E10	0603		INC2 R6, R0
6E12	0014		RET R1

6E14	324A		MOVE $94, R2
6E16	8174		LBI R1, #$74
6E18	011D		MLH R1, R1
6E1A	8120		LBI R1, #$20
6E1C	0203		INC2 R2, R0
6E1E	0014		RET R1

6E20	A011		BRA $6E34		; $12(R0)

6E22	8174		LBI R1, #$74
6E24	011D		MLH R1, R1
6E26	814E		LBI R1, #$4E
6E28	0203		INC2 R2, R0
6E2A	0014		RET R1

6E2C	A005		BRA $6E34		; $06(R0)

6E2E	2553		MOVE R5, $A6
6E30	55F8		MOVE (R15), R5
6E32	204A		JMP ($0094)

6E34	204A		JMP ($0094)

6E36	324A		MOVE $94, R2
6E38	04F4		MOVE R4, R15
6E3A	A405		ADD R4, #$06
6E3C	D548		MOVE R5, (R4)
6E3E	8101		LBI R1, #$01
6E40	C15A		SNE R1, R5
6E42	A017		BRA $6E5C		; $18(R0)

6E44	8104		LBI R1, #$04
6E46	C15A		SNE R1, R5
6E48	A011		BRA $6E5C		; $12(R0)

6E4A	8108		LBI R1, #$08
6E4C	C15A		SNE R1, R5
6E4E	A00B		BRA $6E5C		; $0C(R0)

6E50	810A		LBI R1, #$0A
6E52	C15A		SNE R1, R5
6E54	A005		BRA $6E5C		; $06(R0)

6E56	810B		LBI R1, #$0B
6E58	C152		SE R1, R5
6E5A	A0A7		BRA $6F04		; $A8(R0)

6E5C	D5F8		MOVE R5, (R15)
6E5E	015C		MHL R1, R5
6E60	0156		OR R1, R5
6E62	C10B		SNZ R1
6E64	A09D		BRA $6F04		; $9E(R0)

6E66	04F4		MOVE R4, R15
6E68	A403		ADD R4, #$04
6E6A	D548		MOVE R5, (R4)
6E6C	8100		LBI R1, #$00
6E6E	C15A		SNE R1, R5
6E70	A079		BRA $6EEC		; $7A(R0)

6E72	81FF		LBI R1, #$FF
6E74	C15A		SNE R1, R5
6E76	A07F		BRA $6EF8		; $80(R0)

6E78	04F3		INC2 R4, R15
6E7A	D548		MOVE R5, (R4)
6E7C	F500		SUB R5, #$01
6E7E	0434		MOVE R4, R3
6E80	A407		ADD R4, #$08
6E82	5548		MOVE (R4), R5
6E84	850A		LBI R5, #$0A
6E86	3542		MOVE $84, R5
6E88	8179		LBI R1, #$79
6E8A	011D		MLH R1, R1
6E8C	812E		LBI R1, #$2E
6E8E	0203		INC2 R2, R0
6E90	0014		RET R1

6E92	204A		JMP ($0094)

6E94	8174		LBI R1, #$74
6E96	011D		MLH R1, R1
6E98	81EC		LBI R1, #$EC
6E9A	0203		INC2 R2, R0
6E9C	0014		RET R1

6E9E	204A		JMP ($0094)

6EA0	2540		MOVE R5, $80
6EA2	8118		LBI R1, #$18
6EA4	C51A		SNE R5, R1
6EA6	A02B		BRA $6ED4		; $2C(R0)

6EA8	8142		LBI R1, #$42
6EAA	C51A		SNE R5, R1
6EAC	A025		BRA $6ED4		; $26(R0)

6EAE	8124		LBI R1, #$24
6EB0	C51A		SNE R5, R1
6EB2	A01F		BRA $6ED4		; $20(R0)

6EB4	817A		LBI R1, #$7A
6EB6	011D		MLH R1, R1
6EB8	8192		LBI R1, #$92
6EBA	0203		INC2 R2, R0
6EBC	0014		RET R1

6EBE	204A		JMP ($0094)

6EC0	2542		MOVE R5, $84
6EC2	F500		SUB R5, #$01
6EC4	C503		SZ R5
6EC6	F041		BRA $6E86		; -> -$42(R0)

6EC8	224A		MOVE R2, $94
6ECA	817D		LBI R1, #$7D
6ECC	011D		MLH R1, R1
6ECE	81FE		LBI R1, #$FE
6ED0	0603		INC2 R6, R0
6ED2	0014		RET R1

6ED4	04F4		MOVE R4, R15
6ED6	A401		ADD R4, #$02
6ED8	D548		MOVE R5, (R4)
6EDA	A500		ADD R5, #$01
6EDC	5548		MOVE (R4), R5
6EDE	2540		MOVE R5, $80
6EE0	8118		LBI R1, #$18
6EE2	C51A		SNE R5, R1
6EE4	204A		JMP ($0094)

6EE6	8142		LBI R1, #$42
6EE8	C512		SE R5, R1
6EEA	F073		BRA $6E78		; -> -$74(R0)

6EEC	224A		MOVE R2, $94
6EEE	817E		LBI R1, #$7E
6EF0	011D		MLH R1, R1
6EF2	8150		LBI R1, #$50
6EF4	0603		INC2 R6, R0
6EF6	0014		RET R1

6EF8	224A		MOVE R2, $94
6EFA	817E		LBI R1, #$7E
6EFC	011D		MLH R1, R1
6EFE	815A		LBI R1, #$5A
6F00	0603		INC2 R6, R0
6F02	0014		RET R1

6F04	224A		MOVE R2, $94
6F06	0603		INC2 R6, R0
6F08	A079		BRA $6F84		; $7A(R0)

6F0A	324A		MOVE $94, R2
6F0C	04F4		MOVE R4, R15
6F0E	A405		ADD R4, #$06
6F10	D548		MOVE R5, (R4)
6F12	8101		LBI R1, #$01
6F14	C15A		SNE R1, R5
6F16	A017		BRA $6F30		; $18(R0)

6F18	8102		LBI R1, #$02
6F1A	C15A		SNE R1, R5
6F1C	A011		BRA $6F30		; $12(R0)

6F1E	8103		LBI R1, #$03
6F20	C15A		SNE R1, R5
6F22	A00B		BRA $6F30		; $0C(R0)

6F24	8108		LBI R1, #$08
6F26	C15A		SNE R1, R5
6F28	A005		BRA $6F30		; $06(R0)

6F2A	8109		LBI R1, #$09
6F2C	C152		SE R1, R5
6F2E	A04F		BRA $6F80		; $50(R0)

6F30	D5F8		MOVE R5, (R15)
6F32	015C		MHL R1, R5
6F34	0156		OR R1, R5
6F36	C10B		SNZ R1
6F38	A045		BRA $6F80		; $46(R0)

6F3A	04F4		MOVE R4, R15
6F3C	A401		ADD R4, #$02
6F3E	D548		MOVE R5, (R4)
6F40	F501		SUB R5, #$02
6F42	8180		LBI R1, #$80
6F44	C51F		SNBSH R5, R1
6F46	A043		BRA $6F8C		; $44(R0)

6F48	817A		LBI R1, #$7A
6F4A	011D		MLH R1, R1
6F4C	8192		LBI R1, #$92
6F4E	0203		INC2 R2, R0
6F50	0014		RET R1

6F52	204A		JMP ($0094)

6F54	04F4		MOVE R4, R15
6F56	A401		ADD R4, #$02
6F58	D548		MOVE R5, (R4)
6F5A	F500		SUB R5, #$01
6F5C	5548		MOVE (R4), R5
6F5E	2545		MOVE R5, $8A
6F60	8181		LBI R1, #$81
6F62	C152		SE R1, R5
6F64	204A		JMP ($0094)

6F66	8179		LBI R1, #$79
6F68	011D		MLH R1, R1
6F6A	812E		LBI R1, #$2E
6F6C	0203		INC2 R2, R0
6F6E	0014		RET R1

6F70	204A		JMP ($0094)

6F72	8174		LBI R1, #$74
6F74	011D		MLH R1, R1
6F76	81EC		LBI R1, #$EC
6F78	0203		INC2 R2, R0
6F7A	0014		RET R1

6F7C	204A		JMP ($0094)

6F7E	204A		JMP ($0094)

6F80	224A		MOVE R2, $94
6F82	0603		INC2 R6, R0
6F84	817E		LBI R1, #$7E
6F86	011D		MLH R1, R1
6F88	8136		LBI R1, #$36
6F8A	0014		RET R1

6F8C	224A		MOVE R2, $94
6F8E	817E		LBI R1, #$7E
6F90	011D		MLH R1, R1
6F92	8146		LBI R1, #$46
6F94	0603		INC2 R6, R0
6F96	0014		RET R1

6F98	04F4		MOVE R4, R15
6F9A	A405		ADD R4, #$06
6F9C	D548		MOVE R5, (R4)
6F9E	810A		LBI R1, #$0A
6FA0	C15A		SNE R1, R5
6FA2	A005		BRA $6FAA		; $06(R0)

6FA4	8104		LBI R1, #$04
6FA6	C152		SE R1, R5
6FA8	A055		BRA $7000		; $56(R0)

6FAA	324A		MOVE $94, R2
6FAC	04F4		MOVE R4, R15
6FAE	A403		ADD R4, #$04
6FB0	D548		MOVE R5, (R4)
6FB2	C50C		SNS R5
6FB4	A04D		BRA $7004		; $4E(R0)

6FB6	817A		LBI R1, #$7A
6FB8	011D		MLH R1, R1
6FBA	8192		LBI R1, #$92
6FBC	0203		INC2 R2, R0
6FBE	0014		RET R1

6FC0	204A		JMP ($0094)

6FC2	8581		LBI R5, #$81
6FC4	3540		MOVE $80, R5
6FC6	04F4		MOVE R4, R15
6FC8	A401		ADD R4, #$02
6FCA	2553		MOVE R5, $A6
6FCC	5548		MOVE (R4), R5
6FCE	D5F8		MOVE R5, (R15)
6FD0	0434		MOVE R4, R3
6FD2	A403		ADD R4, #$04
6FD4	D448		MOVE R4, (R4)
6FD6	A401		ADD R4, #$02
6FD8	7544		MOVB (R4)-, R5
6FDA	055C		MHL R5, R5
6FDC	7544		MOVB (R4)-, R5
6FDE	6548		MOVB R5, (R4)
6FE0	04F4		MOVE R4, R15
6FE2	A403		ADD R4, #$04
6FE4	5548		MOVE (R4), R5
6FE6	8171		LBI R1, #$71
6FE8	011D		MLH R1, R1
6FEA	817E		LBI R1, #$7E
6FEC	0203		INC2 R2, R0
6FEE	0014		RET R1

6FF0	204A		JMP ($0094)

6FF2	04F4		MOVE R4, R15
6FF4	A401		ADD R4, #$02
6FF6	8500		LBI R5, #$00
6FF8	055D		MLH R5, R5
6FFA	8501		LBI R5, #$01
6FFC	5548		MOVE (R4), R5
6FFE	204A		JMP ($0094)

7000	0603		INC2 R6, R0
7002	F07F		BRA $6F84		; -> -$80(R0)

7004	224A		MOVE R2, $94
7006	817E		LBI R1, #$7E
7008	011D		MLH R1, R1
700A	815A		LBI R1, #$5A
700C	0603		INC2 R6, R0
700E	0014		RET R1

7010	324B		MOVE $96, R2
7012	817A		LBI R1, #$7A
7014	011D		MLH R1, R1
7016	8192		LBI R1, #$92
7018	0203		INC2 R2, R0
701A	0014		RET R1

701C	A0C7		BRA $70E6		; $C8(R0)

701E	04F4		MOVE R4, R15
7020	A403		ADD R4, #$04
7022	8500		LBI R5, #$00
7024	5548		MOVE (R4), R5
7026	0434		MOVE R4, R3
7028	A403		ADD R4, #$04
702A	D448		MOVE R4, (R4)
702C	7548		MOVB (R4), R5
702E	8174		LBI R1, #$74
7030	011D		MLH R1, R1
7032	8162		LBI R1, #$62
7034	0203		INC2 R2, R0
7036	0014		RET R1

7038	8171		LBI R1, #$71
703A	011D		MLH R1, R1
703C	817E		LBI R1, #$7E
703E	0203		INC2 R2, R0
7040	0014		RET R1

7042	A0A1		BRA $70E6		; $A2(R0)

7044	1E3F		CTRL $E, #$3F
7046	817C		LBI R1, #$7C
7048	011D		MLH R1, R1
704A	81A4		LBI R1, #$A4
704C	0203		INC2 R2, R0
704E	0014		RET R1

7050	A093		BRA $70E6		; $94(R0)

7052	04F4		MOVE R4, R15
7054	A401		ADD R4, #$02
7056	D548		MOVE R5, (R4)
7058	0734		MOVE R7, R3
705A	A707		ADD R7, #$08
705C	D778		MOVE R7, (R7)
705E	0174		MOVE R1, R7
7060	0718		ADD R7, R1
7062	017C		MHL R1, R7
7064	011A		ADDH R1, R1
7066	071D		MLH R7, R1
7068	0759		SUB R7, R5
706A	057C		MHL R5, R7
706C	077D		MLH R7, R7
706E	075C		MHL R7, R5
7070	0579		SUB R5, R7
7072	077C		MHL R7, R7
7074	075D		MLH R7, R5
7076	017C		MHL R1, R7
7078	0176		OR R1, R7
707A	C10B		SNZ R1
707C	A023		BRA $70A2		; $24(R0)

707E	D548		MOVE R5, (R4)
7080	A500		ADD R5, #$01
7082	5548		MOVE (R4), R5
7084	8518		LBI R5, #$18
7086	3540		MOVE $80, R5
7088	8179		LBI R1, #$79
708A	011D		MLH R1, R1
708C	815C		LBI R1, #$5C
708E	0203		INC2 R2, R0
7090	0014		RET R1

7092	A051		BRA $70E6		; $52(R0)

7094	8176		LBI R1, #$76
7096	011D		MLH R1, R1
7098	818C		LBI R1, #$8C
709A	0203		INC2 R2, R0
709C	0014		RET R1

709E	A045		BRA $70E6		; $46(R0)

70A0	F04F		BRA $7052		; -> -$50(R0)

70A2	D5F8		MOVE R5, (R15)
70A4	A500		ADD R5, #$01
70A6	55F8		MOVE (R15), R5
70A8	2546		MOVE R5, $8C
70AA	A500		ADD R5, #$01
70AC	3546		MOVE $8C, R5
70AE	04F4		MOVE R4, R15
70B0	A401		ADD R4, #$02
70B2	2553		MOVE R5, $A6
70B4	5548		MOVE (R4), R5
70B6	8581		LBI R5, #$81
70B8	3540		MOVE $80, R5
70BA	8179		LBI R1, #$79
70BC	011D		MLH R1, R1
70BE	815C		LBI R1, #$5C
70C0	0203		INC2 R2, R0
70C2	0014		RET R1

70C4	A01F		BRA $70E6		; $20(R0)

70C6	8176		LBI R1, #$76
70C8	011D		MLH R1, R1
70CA	818C		LBI R1, #$8C
70CC	0203		INC2 R2, R0
70CE	0014		RET R1

70D0	A013		BRA $70E6		; $14(R0)

70D2	1EF3		CTRL $E, #$F3
70D4	8C1F		LBI R12, #$1F
70D6	0CCD		MLH R12, R12
70D8	FC00		SUB R12, #$01
70DA	8180		LBI R1, #$80
70DC	CC17		SBSH R12, R1
70DE	F007		BRA $70D8		; -> -$08(R0)

70E0	1EFF		CTRL $E, #$FF
70E2	224B		MOVE R2, $96
70E4	0023		INC2 R0, R2
70E6	1EFF		CTRL $E, #$FF
70E8	204B		JMP ($0096)

70EA	324C		MOVE $98, R2
70EC	850A		LBI R5, #$0A
70EE	3542		MOVE $84, R5
70F0	8179		LBI R1, #$79
70F2	011D		MLH R1, R1
70F4	812E		LBI R1, #$2E
70F6	0203		INC2 R2, R0
70F8	0014		RET R1

70FA	204C		JMP ($0098)

70FC	8174		LBI R1, #$74
70FE	011D		MLH R1, R1
7100	81F8		LBI R1, #$F8
7102	0203		INC2 R2, R0
7104	0014		RET R1

7106	204C		JMP ($0098)

7108	2540		MOVE R5, $80
710A	8118		LBI R1, #$18
710C	C15A		SNE R1, R5
710E	A031		BRA $7142		; $32(R0)

7110	8181		LBI R1, #$81
7112	C15A		SNE R1, R5
7114	A02B		BRA $7142		; $2C(R0)

7116	8142		LBI R1, #$42
7118	C15A		SNE R1, R5
711A	A033		BRA $7150		; $34(R0)

711C	8124		LBI R1, #$24
711E	C15A		SNE R1, R5
7120	A04F		BRA $7172		; $50(R0)

7122	817A		LBI R1, #$7A
7124	011D		MLH R1, R1
7126	8192		LBI R1, #$92
7128	0203		INC2 R2, R0
712A	0014		RET R1

712C	204C		JMP ($0098)

712E	2542		MOVE R5, $84
7130	F500		SUB R5, #$01
7132	C503		SZ R5
7134	F047		BRA $70EE		; -> -$48(R0)

7136	224C		MOVE R2, $98
7138	817D		LBI R1, #$7D
713A	011D		MLH R1, R1
713C	81FE		LBI R1, #$FE
713E	0603		INC2 R6, R0
7140	0014		RET R1

7142	2541		MOVE R5, $82
7144	015C		MHL R1, R5
7146	0156		OR R1, R5
7148	C103		SZ R1
714A	F029		BRA $7122		; -> -$2A(R0)

714C	224C		MOVE R2, $98
714E	0023		INC2 R0, R2
7150	2541		MOVE R5, $82
7152	015C		MHL R1, R5
7154	0156		OR R1, R5
7156	C103		SZ R1
7158	F037		BRA $7122		; -> -$38(R0)

715A	817A		LBI R1, #$7A
715C	011D		MLH R1, R1
715E	8192		LBI R1, #$92
7160	0203		INC2 R2, R0
7162	0014		RET R1

7164	204C		JMP ($0098)

7166	224C		MOVE R2, $98
7168	817E		LBI R1, #$7E
716A	011D		MLH R1, R1
716C	8150		LBI R1, #$50
716E	0603		INC2 R6, R0
7170	0014		RET R1

7172	04F4		MOVE R4, R15
7174	A401		ADD R4, #$02
7176	D548		MOVE R5, (R4)
7178	A500		ADD R5, #$01
717A	5548		MOVE (R4), R5
717C	F091		BRA $70EC		; -> -$92(R0)

717E	324C		MOVE $98, R2
7180	850A		LBI R5, #$0A
7182	3542		MOVE $84, R5
7184	8176		LBI R1, #$76
7186	011D		MLH R1, R1
7188	815E		LBI R1, #$5E
718A	0203		INC2 R2, R0
718C	0014		RET R1

718E	A0D7		BRA $7268		; $D8(R0)

7190	1EFF		CTRL $E, #$FF
7192	817A		LBI R1, #$7A
7194	011D		MLH R1, R1
7196	8192		LBI R1, #$92
7198	0203		INC2 R2, R0
719A	0014		RET R1

719C	204C		JMP ($0098)

719E	8179		LBI R1, #$79
71A0	011D		MLH R1, R1
71A2	812E		LBI R1, #$2E
71A4	0203		INC2 R2, R0
71A6	0014		RET R1

71A8	204C		JMP ($0098)

71AA	8174		LBI R1, #$74
71AC	011D		MLH R1, R1
71AE	81EC		LBI R1, #$EC
71B0	0203		INC2 R2, R0
71B2	0014		RET R1

71B4	204C		JMP ($0098)

71B6	2540		MOVE R5, $80
71B8	055C		MHL R5, R5
71BA	3540		MOVE $80, R5
71BC	2541		MOVE R5, $82
71BE	015C		MHL R1, R5
71C0	0156		OR R1, R5
71C2	C103		SZ R1
71C4	A003		BRA $71CA		; $04(R0)

71C6	224C		MOVE R2, $98
71C8	0023		INC2 R0, R2
71CA	817A		LBI R1, #$7A
71CC	011D		MLH R1, R1
71CE	8192		LBI R1, #$92
71D0	0203		INC2 R2, R0
71D2	0014		RET R1

71D4	204C		JMP ($0098)

71D6	2542		MOVE R5, $84
71D8	F500		SUB R5, #$01
71DA	C503		SZ R5
71DC	F05B		BRA $7182		; -> -$5C(R0)

71DE	2540		MOVE R5, $80
71E0	8181		LBI R1, #$81
71E2	C15A		SNE R1, R5
71E4	A05D		BRA $7244		; $5E(R0)

71E6	8524		LBI R5, #$24
71E8	3540		MOVE $80, R5
71EA	850A		LBI R5, #$0A
71EC	3542		MOVE $84, R5
71EE	8176		LBI R1, #$76
71F0	011D		MLH R1, R1
71F2	815E		LBI R1, #$5E
71F4	0203		INC2 R2, R0
71F6	0014		RET R1

71F8	A067		BRA $7262		; $68(R0)

71FA	817A		LBI R1, #$7A
71FC	011D		MLH R1, R1
71FE	8192		LBI R1, #$92
7200	0203		INC2 R2, R0
7202	0014		RET R1

7204	204C		JMP ($0098)

7206	2540		MOVE R5, $80
7208	055C		MHL R5, R5
720A	3540		MOVE $80, R5
720C	8179		LBI R1, #$79
720E	011D		MLH R1, R1
7210	812E		LBI R1, #$2E
7212	0203		INC2 R2, R0
7214	0014		RET R1

7216	204C		JMP ($0098)

7218	8174		LBI R1, #$74
721A	011D		MLH R1, R1
721C	81EC		LBI R1, #$EC
721E	0203		INC2 R2, R0
7220	0014		RET R1

7222	204C		JMP ($0098)

7224	2540		MOVE R5, $80
7226	8124		LBI R1, #$24
7228	C15A		SNE R1, R5
722A	A023		BRA $7250		; $24(R0)

722C	8524		LBI R5, #$24
722E	3540		MOVE $80, R5
7230	817A		LBI R1, #$7A
7232	011D		MLH R1, R1
7234	8192		LBI R1, #$92
7236	0203		INC2 R2, R0
7238	0014		RET R1

723A	204C		JMP ($0098)

723C	2542		MOVE R5, $84
723E	F500		SUB R5, #$01
7240	C503		SZ R5
7242	F057		BRA $71EC		; -> -$58(R0)

7244	224C		MOVE R2, $98
7246	817D		LBI R1, #$7D
7248	011D		MLH R1, R1
724A	81FE		LBI R1, #$FE
724C	0603		INC2 R6, R0
724E	0014		RET R1

7250	04F4		MOVE R4, R15
7252	A401		ADD R4, #$02
7254	D548		MOVE R5, (R4)
7256	A500		ADD R5, #$01
7258	5548		MOVE (R4), R5
725A	2540		MOVE R5, $80
725C	055C		MHL R5, R5
725E	3540		MOVE $80, R5
7260	F0E1		BRA $7180		; -> -$E2(R0)

7262	2540		MOVE R5, $80
7264	055C		MHL R5, R5
7266	3540		MOVE $80, R5
7268	851C		LBI R5, #$1C
726A	055D		MLH R5, R5
726C	851B		LBI R5, #$1B
726E	0164		MOVE R1, R6
7270	0519		SUB R5, R1
7272	015C		MHL R1, R5
7274	055D		MLH R5, R5
7276	051C		MHL R5, R1
7278	0159		SUB R1, R5
727A	055C		MHL R5, R5
727C	051D		MLH R5, R1
727E	015C		MHL R1, R5
7280	0156		OR R1, R5
7282	C103		SZ R1
7284	204C		JMP ($0098)

7286	2540		MOVE R5, $80
7288	8142		LBI R1, #$42
728A	C152		SE R1, R5
728C	204C		JMP ($0098)

728E	2653		MOVE R6, $A6
7290	0434		MOVE R4, R3
7292	A40B		ADD R4, #$0C
7294	5648		MOVE (R4), R6
7296	F0D1		BRA $71C6		; -> -$D2(R0)

7298	324C		MOVE $98, R2
729A	850A		LBI R5, #$0A
729C	3542		MOVE $84, R5
729E	8179		LBI R1, #$79
72A0	011D		MLH R1, R1
72A2	812E		LBI R1, #$2E
72A4	0203		INC2 R2, R0
72A6	0014		RET R1

72A8	A0A3		BRA $734E		; $A4(R0)

72AA	8500		LBI R5, #$00
72AC	8174		LBI R1, #$74
72AE	011D		MLH R1, R1
72B0	8186		LBI R1, #$86
72B2	0203		INC2 R2, R0
72B4	0014		RET R1

72B6	A095		BRA $734E		; $96(R0)

72B8	A039		BRA $72F4		; $3A(R0)

72BA	8174		LBI R1, #$74
72BC	011D		MLH R1, R1
72BE	81F0		LBI R1, #$F0
72C0	0203		INC2 R2, R0
72C2	0014		RET R1

72C4	A087		BRA $734E		; $88(R0)

72C6	2541		MOVE R5, $82
72C8	015C		MHL R1, R5
72CA	0156		OR R1, R5
72CC	C103		SZ R1
72CE	A045		BRA $7316		; $46(R0)

72D0	0434		MOVE R4, R3
72D2	A403		ADD R4, #$04
72D4	D448		MOVE R4, (R4)
72D6	6741		MOVB R7, (R4)++
72D8	6544		MOVB R5, (R4)-
72DA	6148		MOVB R1, (R4)
72DC	051D		MLH R5, R1
72DE	55F8		MOVE (R15), R5
72E0	8500		LBI R5, #$00
72E2	055D		MLH R5, R5
72E4	8501		LBI R5, #$01
72E6	04F4		MOVE R4, R15
72E8	A401		ADD R4, #$02
72EA	5548		MOVE (R4), R5
72EC	A401		ADD R4, #$02
72EE	5748		MOVE (R4), R7
72F0	224C		MOVE R2, $98
72F2	0023		INC2 R0, R2
72F4	1EFF		CTRL $E, #$FF
72F6	817A		LBI R1, #$7A
72F8	011D		MLH R1, R1
72FA	8192		LBI R1, #$92
72FC	0203		INC2 R2, R0
72FE	0014		RET R1

7300	A04B		BRA $734E		; $4C(R0)

7302	2542		MOVE R5, $84
7304	F500		SUB R5, #$01
7306	C503		SZ R5
7308	F06D		BRA $729C		; -> -$6E(R0)

730A	224C		MOVE R2, $98
730C	817D		LBI R1, #$7D
730E	011D		MLH R1, R1
7310	81FE		LBI R1, #$FE
7312	0603		INC2 R6, R0
7314	0014		RET R1

7316	817A		LBI R1, #$7A
7318	011D		MLH R1, R1
731A	8192		LBI R1, #$92
731C	0203		INC2 R2, R0
731E	0014		RET R1

7320	A02B		BRA $734E		; $2C(R0)

7322	2542		MOVE R5, $84
7324	F500		SUB R5, #$01
7326	3542		MOVE $84, R5
7328	C50B		SNZ R5
732A	F021		BRA $730A		; -> -$22(R0)

732C	2553		MOVE R5, $A6
732E	04F4		MOVE R4, R15
7330	A401		ADD R4, #$02
7332	5548		MOVE (R4), R5
7334	8179		LBI R1, #$79
7336	011D		MLH R1, R1
7338	812E		LBI R1, #$2E
733A	0203		INC2 R2, R0
733C	0014		RET R1

733E	A00D		BRA $734E		; $0E(R0)

7340	8174		LBI R1, #$74
7342	011D		MLH R1, R1
7344	81F8		LBI R1, #$F8
7346	0203		INC2 R2, R0
7348	0014		RET R1

734A	A001		BRA $734E		; $02(R0)

734C	F087		BRA $72C6		; -> -$88(R0)

734E	1EFF		CTRL $E, #$FF
7350	204C		JMP ($0098)

7352	324C		MOVE $98, R2
7354	850A		LBI R5, #$0A
7356	3542		MOVE $84, R5
7358	817A		LBI R1, #$7A
735A	011D		MLH R1, R1
735C	81D2		LBI R1, #$D2
735E	0203		INC2 R2, R0
7360	0014		RET R1

7362	A08F		BRA $73F4		; $90(R0)

7364	85FF		LBI R5, #$FF
7366	8174		LBI R1, #$74
7368	011D		MLH R1, R1
736A	8186		LBI R1, #$86
736C	0203		INC2 R2, R0
736E	0014		RET R1

7370	A045		BRA $73B8		; $46(R0)

7372	A015		BRA $738A		; $16(R0)

7374	0203		INC2 R2, R0
7376	A09F		BRA $7418		; $A0(R0)

7378	8540		LBI R5, #$40
737A	EE5F		STAT R5, $E
737C	3547		MOVE $8E, R5
737E	9502		CLR R5, #$02
7380	8115		LBI R1, #$15
7382	C152		SE R1, R5
7384	A083		BRA $740A		; $84(R0)

7386	224C		MOVE R2, $98
7388	0023		INC2 R0, R2
738A	0203		INC2 R2, R0
738C	A089		BRA $7418		; $8A(R0)

738E	2542		MOVE R5, $84
7390	F500		SUB R5, #$01
7392	3542		MOVE $84, R5
7394	C50B		SNZ R5
7396	A061		BRA $73FA		; $62(R0)

7398	8179		LBI R1, #$79
739A	011D		MLH R1, R1
739C	812E		LBI R1, #$2E
739E	0203		INC2 R2, R0
73A0	0014		RET R1

73A2	A04F		BRA $73F4		; $50(R0)

73A4	8500		LBI R5, #$00
73A6	817B		LBI R1, #$7B
73A8	011D		MLH R1, R1
73AA	810A		LBI R1, #$0A
73AC	0203		INC2 R2, R0
73AE	0014		RET R1

73B0	A041		BRA $73F4		; $42(R0)

73B2	0004		NOP
73B4	1EFF		CTRL $E, #$FF
73B6	F05F		BRA $7358		; -> -$60(R0)

73B8	871B		LBI R7, #$1B
73BA	077D		MLH R7, R7
73BC	871F		LBI R7, #$1F
73BE	0564		MOVE R5, R6
73C0	0579		SUB R5, R7
73C2	075C		MHL R7, R5
73C4	055D		MLH R5, R5
73C6	057C		MHL R5, R7
73C8	0759		SUB R7, R5
73CA	055C		MHL R5, R5
73CC	057D		MLH R5, R7
73CE	015C		MHL R1, R5
73D0	0156		OR R1, R5
73D2	C103		SZ R1
73D4	A01D		BRA $73F4		; $1E(R0)

73D6	1EFF		CTRL $E, #$FF
73D8	8C0F		LBI R12, #$0F
73DA	0CCD		MLH R12, R12
73DC	8C87		LBI R12, #$87
73DE	8540		LBI R5, #$40
73E0	EE5F		STAT R5, $E
73E2	3547		MOVE $8E, R5
73E4	9502		CLR R5, #$02
73E6	8115		LBI R1, #$15
73E8	C152		SE R1, R5
73EA	A01D		BRA $740A		; $1E(R0)

73EC	FC00		SUB R12, #$01
73EE	8180		LBI R1, #$80
73F0	CC17		SBSH R12, R1
73F2	F015		BRA $73DE		; -> -$16(R0)

73F4	0203		INC2 R2, R0
73F6	A01F		BRA $7418		; $20(R0)

73F8	204C		JMP ($0098)

73FA	0203		INC2 R2, R0
73FC	A019		BRA $7418		; $1A(R0)

73FE	224C		MOVE R2, $98
7400	817D		LBI R1, #$7D
7402	011D		MLH R1, R1
7404	81FE		LBI R1, #$FE
7406	0603		INC2 R6, R0
7408	0014		RET R1

740A	9502		CLR R5, #$02
740C	224C		MOVE R2, $98
740E	817D		LBI R1, #$7D
7410	011D		MLH R1, R1
7412	81AC		LBI R1, #$AC
7414	0603		INC2 R6, R0
7416	0014		RET R1

7418	817A		LBI R1, #$7A
741A	011D		MLH R1, R1
741C	81B2		LBI R1, #$B2
741E	0014		RET R1

7420	324C		MOVE $98, R2
7422	817A		LBI R1, #$7A
7424	011D		MLH R1, R1
7426	81D2		LBI R1, #$D2
7428	0203		INC2 R2, R0
742A	0014		RET R1

742C	A019		BRA $7448		; $1A(R0)

742E	8800		LBI R8, #$00
7430	088D		MLH R8, R8
7432	8890		LBI R8, #$90
7434	817C		LBI R1, #$7C
7436	011D		MLH R1, R1
7438	81CC		LBI R1, #$CC
743A	0203		INC2 R2, R0
743C	0014		RET R1

743E	A007		BRA $7448		; $08(R0)

7440	0203		INC2 R2, R0
7442	F02B		BRA $7418		; -> -$2C(R0)

7444	224C		MOVE R2, $98
7446	0023		INC2 R0, R2
7448	0203		INC2 R2, R0
744A	F033		BRA $7418		; -> -$34(R0)

744C	204C		JMP ($0098)

744E	324C		MOVE $98, R2
7450	8179		LBI R1, #$79
7452	011D		MLH R1, R1
7454	812E		LBI R1, #$2E
7456	0203		INC2 R2, R0
7458	0014		RET R1

745A	F013		BRA $7448		; -> -$14(R0)

745C	2853		MOVE R8, $A6
745E	8801		LBI R8, #$01
7460	F02D		BRA $7434		; -> -$2E(R0)

7462	0434		MOVE R4, R3
7464	A407		ADD R4, #$08
7466	D548		MOVE R5, (R4)
7468	F403		SUB R4, #$04
746A	D448		MOVE R4, (R4)
746C	A403		ADD R4, #$04
746E	7544		MOVB (R4)-, R5
7470	055C		MHL R5, R5
7472	7544		MOVB (R4)-, R5
7474	D5F8		MOVE R5, (R15)
7476	7544		MOVB (R4)-, R5
7478	055C		MHL R5, R5
747A	7548		MOVB (R4), R5
747C	04F4		MOVE R4, R15
747E	A401		ADD R4, #$02
7480	2553		MOVE R5, $A6
7482	5548		MOVE (R4), R5
7484	0024		RET R2

7486	324D		MOVE $9A, R2
7488	2753		MOVE R7, $A6
748A	057D		MLH R5, R7
748C	351E		MOVE $3C, R5
748E	0433		INC2 R4, R3
7490	D548		MOVE R5, (R4)
7492	957F		CLR R5, #$7F
7494	C503		SZ R5
7496	A009		BRA $74A2		; $0A(R0)

7498	2552		MOVE R5, $A4
749A	055C		MHL R5, R5
749C	957F		CLR R5, #$7F
749E	C503		SZ R5
74A0	A03D		BRA $74E0		; $3E(R0)

74A2	251E		MOVE R5, $3C
74A4	817B		LBI R1, #$7B
74A6	011D		MLH R1, R1
74A8	810A		LBI R1, #$0A
74AA	0203		INC2 R2, R0
74AC	0014		RET R1

74AE	204D		JMP ($009A)

74B0	A023		BRA $74D6		; $24(R0)

74B2	2545		MOVE R5, $8A
74B4	8181		LBI R1, #$81
74B6	C15A		SNE R1, R5
74B8	A01F		BRA $74DA		; $20(R0)

74BA	8118		LBI R1, #$18
74BC	C152		SE R1, R5
74BE	A015		BRA $74D6		; $16(R0)

74C0	251E		MOVE R5, $3C
74C2	015C		MHL R1, R5
74C4	C10B		SNZ R1
74C6	A005		BRA $74CE		; $06(R0)

74C8	850A		LBI R5, #$0A
74CA	3542		MOVE $84, R5
74CC	F03F		BRA $748E		; -> -$40(R0)

74CE	251E		MOVE R5, $3C
74D0	A5FF		ADD R5, #$100
74D2	351E		MOVE $3C, R5
74D4	F047		BRA $748E		; -> -$48(R0)

74D6	224D		MOVE R2, $9A
74D8	0023		INC2 R0, R2
74DA	224D		MOVE R2, $9A
74DC	A203		ADD R2, #$04
74DE	0024		RET R2

74E0	224D		MOVE R2, $9A
74E2	817E		LBI R1, #$7E
74E4	011D		MLH R1, R1
74E6	81AC		LBI R1, #$AC
74E8	0603		INC2 R6, R0
74EA	0014		RET R1

74EC	85A5		LBI R5, #$A5
74EE	A009		BRA $74FA		; $0A(R0)

74F0	324D		MOVE $9A, R2
74F2	8500		LBI R5, #$00
74F4	3523		MOVE $46, R5
74F6	A013		BRA $750C		; $14(R0)

74F8	8500		LBI R5, #$00
74FA	3523		MOVE $46, R5
74FC	324D		MOVE $9A, R2
74FE	8500		LBI R5, #$00
7500	8178		LBI R1, #$78
7502	011D		MLH R1, R1
7504	8112		LBI R1, #$12
7506	0203		INC2 R2, R0
7508	0014		RET R1

750A	204D		JMP ($009A)

750C	224D		MOVE R2, $9A
750E	3222		MOVE $44, R2
7510	8575		LBI R5, #$75
7512	055D		MLH R5, R5
7514	85F6		LBI R5, #$F6
7516	3520		MOVE $40, R5
7518	0434		MOVE R4, R3
751A	A403		ADD R4, #$04
751C	D448		MOVE R4, (R4)
751E	8502		LBI R5, #$02
7520	055D		MLH R5, R5
7522	8500		LBI R5, #$00
7524	352C		MOVE $58, R5
7526	8510		LBI R5, #$10
7528	055D		MLH R5, R5
752A	8550		LBI R5, #$50
752C	3527		MOVE $4E, R5
752E	8500		LBI R5, #$00
7530	055D		MLH R5, R5
7532	851B		LBI R5, #$1B
7534	352D		MOVE $5A, R5
7536	8535		LBI R5, #$35
7538	3529		MOVE $52, R5
753A	85E7		LBI R5, #$E7
753C	3524		MOVE $48, R5
753E	8580		LBI R5, #$80
7540	352E		MOVE $5C, R5
7542	8BFF		LBI R11, #$FF
7544	0BBD		MLH R11, R11
7546	8BFF		LBI R11, #$FF
7548	8275		LBI R2, #$75
754A	022D		MLH R2, R2
754C	829E		LBI R2, #$9E
754E	2553		MOVE R5, $A6
7550	352B		MOVE $56, R5
7552	8522		LBI R5, #$22
7554	2D53		MOVE R13, $A6
7556	8D0B		LBI R13, #$0B
7558	4ED8		PUTB $E, (R13)
755A	8D02		LBI R13, #$02
755C	0E5E		GETB R5, $E
755E	1E3E		CTRL $E, #$3E
7560	8C75		LBI R12, #$75
7562	0CCD		MLH R12, R12
7564	8C30		LBI R12, #$30
7566	252B		MOVE R5, $56
7568	C503		SZ R5
756A	A05B		BRA $75C8		; $5C(R0)

756C	8540		LBI R5, #$40
756E	EE5F		STAT R5, $E
7570	0754		MOVE R7, R5
7572	9502		CLR R5, #$02
7574	8135		LBI R1, #$35
7576	C152		SE R1, R5
7578	A013		BRA $758E		; $14(R0)

757A	FC00		SUB R12, #$01
757C	8180		LBI R1, #$80
757E	CC17		SBSH R12, R1
7580	F01B		BRA $7566		; -> -$1C(R0)

7582	224D		MOVE R2, $9A
7584	817E		LBI R1, #$7E
7586	011D		MLH R1, R1
7588	8140		LBI R1, #$40
758A	0703		INC2 R7, R0
758C	0014		RET R1

758E	1EFF		CTRL $E, #$FF
7590	3747		MOVE $8E, R7
7592	224D		MOVE R2, $9A
7594	817D		LBI R1, #$7D
7596	011D		MLH R1, R1
7598	81AC		LBI R1, #$AC
759A	0603		INC2 R6, R0
759C	0014		RET R1

759E	2740		MOVE R7, $80
75A0	0A7D		MLH R10, R7
75A2	3A40		MOVE $80, R10
75A4	0203		INC2 R2, R0
75A6	F041		BRA $7566		; -> -$42(R0)

75A8	272C		MOVE R7, $58
75AA	F700		SUB R7, #$01
75AC	372C		MOVE $58, R7
75AE	8180		LBI R1, #$80
75B0	C71F		SNBSH R7, R1
75B2	A007		BRA $75BC		; $08(R0)

75B4	2723		MOVE R7, $46
75B6	C70B		SNZ R7
75B8	7A40		MOVB (R4)+, R10
75BA	F017		BRA $75A4		; -> -$18(R0)

75BC	0203		INC2 R2, R0
75BE	F059		BRA $7566		; -> -$5A(R0)

75C0	1EFF		CTRL $E, #$FF
75C2	3B41		MOVE $82, R11
75C4	224D		MOVE R2, $9A
75C6	0023		INC2 R0, R2
75C8	2553		MOVE R5, $A6
75CA	352B		MOVE $56, R5
75CC	8540		LBI R5, #$40
75CE	EE5F		STAT R5, $E
75D0	3547		MOVE $8E, R5
75D2	9502		CLR R5, #$02
75D4	8135		LBI R1, #$35
75D6	C152		SE R1, R5
75D8	A00B		BRA $75E6		; $0C(R0)

75DA	2A2A		MOVE R10, $54
75DC	05A4		MOVE R5, R10
75DE	817D		LBI R1, #$7D
75E0	011D		MLH R1, R1
75E2	817A		LBI R1, #$7A
75E4	0014		RET R1

75E6	1EFF		CTRL $E, #$FF
75E8	224D		MOVE R2, $9A
75EA	9502		CLR R5, #$02
75EC	817D		LBI R1, #$7D
75EE	011D		MLH R1, R1
75F0	81AC		LBI R1, #$AC
75F2	0603		INC2 R6, R0
75F4	0014		RET R1

75F6	8540		LBI R5, #$40
75F8	EE5F		STAT R5, $E
75FA	950A		CLR R5, #$0A
75FC	C592		SE R5, R9
75FE	A04F		BRA $7650		; $50(R0)

7600	8A80		LBI R10, #$80
7602	EEAF		STAT R10, $E
7604	CA0B		SNZ R10
7606	A01B		BRA $7624		; $1C(R0)

7608	F700		SUB R7, #$01
760A	C7EF		SNBSH R7, R14
760C	A01F		BRA $762E		; $20(R0)

760E	0E5E		GETB R5, $E
7610	F01B		BRA $75F6		; -> -$1C(R0)

7612	8540		LBI R5, #$40
7614	EE5F		STAT R5, $E
7616	950A		CLR R5, #$0A
7618	C592		SE R5, R9
761A	A033		BRA $7650		; $34(R0)

761C	8A80		LBI R10, #$80
761E	EEAF		STAT R10, $E
7620	CA4A		SNE R10, R4
7622	A015		BRA $763A		; $16(R0)

7624	F700		SUB R7, #$01
7626	C7EF		SNBSH R7, R14
7628	A003		BRA $762E		; $04(R0)

762A	0E5E		GETB R5, $E
762C	F01B		BRA $7612		; -> -$1C(R0)

762E	3202		MOVE $04, R2
7630	817E		LBI R1, #$7E
7632	011D		MLH R1, R1
7634	812C		LBI R1, #$2C
7636	0603		INC2 R6, R0
7638	0014		RET R1

763A	4ED8		PUTB $E, (R13)
763C	0E5E		GETB R5, $E
763E	0004		NOP
7640	8A80		LBI R10, #$80
7642	EEAF		STAT R10, $E
7644	8BFF		LBI R11, #$FF
7646	F700		SUB R7, #$01
7648	8180		LBI R1, #$80
764A	C71F		SNBSH R7, R1
764C	F01F		BRA $762E		; -> -$20(R0)

764E	F013		BRA $763C		; -> -$14(R0)

7650	3547		MOVE $8E, R5
7652	3202		MOVE $04, R2
7654	817E		LBI R1, #$7E
7656	011D		MLH R1, R1
7658	8108		LBI R1, #$08
765A	0603		INC2 R6, R0
765C	0014		RET R1

765E	324D		MOVE $9A, R2
7660	8177		LBI R1, #$77
7662	011D		MLH R1, R1
7664	81DA		LBI R1, #$DA
7666	0203		INC2 R2, R0
7668	0014		RET R1

766A	8179		LBI R1, #$79
766C	011D		MLH R1, R1
766E	812E		LBI R1, #$2E
7670	0203		INC2 R2, R0
7672	0014		RET R1

7674	A011		BRA $7688		; $12(R0)

7676	85A5		LBI R5, #$A5
7678	8178		LBI R1, #$78
767A	011D		MLH R1, R1
767C	8112		LBI R1, #$12
767E	0203		INC2 R2, R0
7680	0014		RET R1

7682	A003		BRA $7688		; $04(R0)

7684	224D		MOVE R2, $9A
7686	A003		BRA $768C		; $04(R0)

7688	1EFF		CTRL $E, #$FF
768A	204D		JMP ($009A)

768C	8577		LBI R5, #$77
768E	055D		MLH R5, R5
7690	8530		LBI R5, #$30
7692	3520		MOVE $40, R5
7694	8577		LBI R5, #$77
7696	055D		MLH R5, R5
7698	8554		LBI R5, #$54
769A	3522		MOVE $44, R5
769C	8577		LBI R5, #$77
769E	055D		MLH R5, R5
76A0	8544		LBI R5, #$44
76A2	3523		MOVE $46, R5
76A4	0434		MOVE R4, R3
76A6	A403		ADD R4, #$04
76A8	D548		MOVE R5, (R4)
76AA	3524		MOVE $48, R5
76AC	8501		LBI R5, #$01
76AE	055D		MLH R5, R5
76B0	85FF		LBI R5, #$FF
76B2	352C		MOVE $58, R5
76B4	8580		LBI R5, #$80
76B6	3529		MOVE $52, R5
76B8	8502		LBI R5, #$02
76BA	352A		MOVE $54, R5
76BC	853D		LBI R5, #$3D
76BE	3528		MOVE $50, R5
76C0	2553		MOVE R5, $A6
76C2	854A		LBI R5, #$4A
76C4	352D		MOVE $5A, R5
76C6	2553		MOVE R5, $A6
76C8	3525		MOVE $4A, R5
76CA	8507		LBI R5, #$07
76CC	352E		MOVE $5C, R5
76CE	0E5E		GETB R5, $E
76D0	8540		LBI R5, #$40
76D2	EE5F		STAT R5, $E
76D4	813D		LBI R1, #$3D
76D6	C512		SE R5, R1
76D8	A041		BRA $771C		; $42(R0)

76DA	2553		MOVE R5, $A6
76DC	854A		LBI R5, #$4A
76DE	4E58		PUTB $E, (R5)
76E0	0434		MOVE R4, R3
76E2	A401		ADD R4, #$02
76E4	6548		MOVB R5, (R4)
76E6	8105		LBI R1, #$05
76E8	C51A		SNE R5, R1
76EA	A03D		BRA $772A		; $3E(R0)

76EC	8106		LBI R1, #$06
76EE	C51A		SNE R5, R1
76F0	A037		BRA $772A		; $38(R0)

76F2	1E0A		CTRL $E, #$0A
76F4	8C2E		LBI R12, #$2E
76F6	0CCD		MLH R12, R12
76F8	8CE0		LBI R12, #$E0
76FA	2853		MOVE R8, $A6
76FC	8540		LBI R5, #$40
76FE	EE5F		STAT R5, $E
7700	C803		SZ R8
7702	A029		BRA $772E		; $2A(R0)

7704	813D		LBI R1, #$3D
7706	C152		SE R1, R5
7708	A011		BRA $771C		; $12(R0)

770A	FC00		SUB R12, #$01
770C	8180		LBI R1, #$80
770E	CC17		SBSH R12, R1
7710	F015		BRA $76FC		; -> -$16(R0)

7712	817E		LBI R1, #$7E
7714	011D		MLH R1, R1
7716	8140		LBI R1, #$40
7718	0703		INC2 R7, R0
771A	0014		RET R1

771C	1EFF		CTRL $E, #$FF
771E	3547		MOVE $8E, R5
7720	817D		LBI R1, #$7D
7722	011D		MLH R1, R1
7724	81AC		LBI R1, #$AC
7726	0603		INC2 R6, R0
7728	0014		RET R1

772A	1E02		CTRL $E, #$02
772C	F039		BRA $76F4		; -> -$3A(R0)

772E	0023		INC2 R0, R2
7730	8740		LBI R7, #$40
7732	EE7F		STAT R7, $E
7734	C872		SE R8, R7
7736	A00F		BRA $7748		; $10(R0)

7738	05AD		MLH R5, R10
773A	0558		ADD R5, R5
773C	4ED8		PUTB $E, (R13)
773E	FE00		SUB R14, #$01
7740	CE0B		SNZ R14
7742	0024		RET R2

7744	0E7E		GETB R7, $E
7746	F017		BRA $7730		; -> -$18(R0)

7748	3747		MOVE $8E, R7
774A	817E		LBI R1, #$7E
774C	011D		MLH R1, R1
774E	811A		LBI R1, #$1A
7750	0603		INC2 R6, R0
7752	0014		RET R1

7754	8E08		LBI R14, #$08
7756	0203		INC2 R2, R0
7758	0034		RET R3

775A	85E7		LBI R5, #$E7
775C	8E08		LBI R14, #$08
775E	0203		INC2 R2, R0
7760	0034		RET R3

7762	2540		MOVE R5, $80
7764	8E08		LBI R14, #$08
7766	0203		INC2 R2, R0
7768	0034		RET R3

776A	6540		MOVB R5, (R4)+
776C	8E08		LBI R14, #$08
776E	0E7E		GETB R7, $E
7770	8740		LBI R7, #$40
7772	EE7F		STAT R7, $E
7774	C872		SE R8, R7
7776	F02F		BRA $7748		; -> -$30(R0)

7778	05AD		MLH R5, R10
777A	0558		ADD R5, R5
777C	4ED8		PUTB $E, (R13)
777E	FE00		SUB R14, #$01
7780	CE03		SZ R14
7782	F015		BRA $776E		; -> -$16(R0)

7784	FC00		SUB R12, #$01
7786	CC97		SBSH R12, R9
7788	F01F		BRA $776A		; -> -$20(R0)

778A	2741		MOVE R7, $82
778C	057C		MHL R5, R7
778E	8E08		LBI R14, #$08
7790	0E7E		GETB R7, $E
7792	8740		LBI R7, #$40
7794	EE7F		STAT R7, $E
7796	C872		SE R8, R7
7798	F051		BRA $7748		; -> -$52(R0)

779A	05AD		MLH R5, R10
779C	0558		ADD R5, R5
779E	4ED8		PUTB $E, (R13)
77A0	FE00		SUB R14, #$01
77A2	CE03		SZ R14
77A4	F015		BRA $7790		; -> -$16(R0)

77A6	2541		MOVE R5, $82
77A8	8E08		LBI R14, #$08
77AA	0203		INC2 R2, R0
77AC	0034		RET R3

77AE	8E08		LBI R14, #$08
77B0	0203		INC2 R2, R0
77B2	0034		RET R3

77B4	8E08		LBI R14, #$08
77B6	0203		INC2 R2, R0
77B8	0034		RET R3

77BA	2403		MOVE R4, $06
77BC	A401		ADD R4, #$02
77BE	6548		MOVB R5, (R4)
77C0	8105		LBI R1, #$05
77C2	0E7E		GETB R7, $E
77C4	87FF		LBI R7, #$FF
77C6	3708		MOVE $10, R7
77C8	C51A		SNE R5, R1
77CA	A009		BRA $77D6		; $0A(R0)

77CC	8106		LBI R1, #$06
77CE	C15A		SNE R1, R5
77D0	A003		BRA $77D6		; $04(R0)

77D2	1EFF		CTRL $E, #$FF
77D4	0000		HALT
77D6	1E13		CTRL $E, #$13
77D8	0000		HALT
77DA	324E		MOVE $9C, R2
77DC	2B53		MOVE R11, $A6
77DE	FB00		SUB R11, #$01
77E0	0434		MOVE R4, R3
77E2	A403		ADD R4, #$04
77E4	D448		MOVE R4, (R4)
77E6	8C02		LBI R12, #$02
77E8	0CCD		MLH R12, R12
77EA	8C00		LBI R12, #$00
77EC	FC00		SUB R12, #$01
77EE	2540		MOVE R5, $80
77F0	817D		LBI R1, #$7D
77F2	011D		MLH R1, R1
77F4	817A		LBI R1, #$7A
77F6	0203		INC2 R2, R0
77F8	0014		RET R1

77FA	6540		MOVB R5, (R4)+
77FC	817D		LBI R1, #$7D
77FE	011D		MLH R1, R1
7800	817A		LBI R1, #$7A
7802	0203		INC2 R2, R0
7804	0014		RET R1

7806	FC00		SUB R12, #$01
7808	8180		LBI R1, #$80
780A	CC17		SBSH R12, R1
780C	F013		BRA $77FA		; -> -$14(R0)

780E	3B41		MOVE $82, R11
7810	204E		JMP ($009C)

7812	324E		MOVE $9C, R2
7814	351E		MOVE $3C, R5
7816	2542		MOVE R5, $84
7818	810A		LBI R1, #$0A
781A	051D		MLH R5, R1
781C	3542		MOVE $84, R5
781E	2553		MOVE R5, $A6
7820	351F		MOVE $3E, R5
7822	2543		MOVE R5, $86
7824	8107		LBI R1, #$07
7826	051D		MLH R5, R1
7828	3543		MOVE $86, R5
782A	251E		MOVE R5, $3C
782C	817B		LBI R1, #$7B
782E	011D		MLH R1, R1
7830	810A		LBI R1, #$0A
7832	0203		INC2 R2, R0
7834	0014		RET R1

7836	A091		BRA $78CA		; $92(R0)

7838	A0B5		BRA $78F0		; $B6(R0)

783A	2544		MOVE R5, $88
783C	04F4		MOVE R4, R15
783E	A401		ADD R4, #$02
7840	D748		MOVE R7, (R4)
7842	0579		SUB R5, R7
7844	075C		MHL R7, R5
7846	055D		MLH R5, R5
7848	057C		MHL R5, R7
784A	0759		SUB R7, R5
784C	055C		MHL R5, R5
784E	057D		MLH R5, R7
7850	015C		MHL R1, R5
7852	0156		OR R1, R5
7854	C103		SZ R1
7856	A003		BRA $785C		; $04(R0)

7858	224E		MOVE R2, $9C
785A	0023		INC2 R0, R2
785C	817A		LBI R1, #$7A
785E	011D		MLH R1, R1
7860	81B2		LBI R1, #$B2
7862	0203		INC2 R2, R0
7864	0014		RET R1

7866	2743		MOVE R7, $86
7868	F7FF		SUB R7, #$100
786A	3743		MOVE $86, R7
786C	077C		MHL R7, R7
786E	C70B		SNZ R7
7870	A05B		BRA $78CE		; $5C(R0)

7872	2744		MOVE R7, $88
7874	017C		MHL R1, R7
7876	0176		OR R1, R7
7878	C10B		SNZ R1
787A	A021		BRA $789E		; $22(R0)

787C	8180		LBI R1, #$80
787E	C51F		SNBSH R5, R1
7880	A013		BRA $7896		; $14(R0)

7882	0203		INC2 R2, R0
7884	A09F		BRA $7926		; $A0(R0)

7886	A041		BRA $78CA		; $42(R0)

7888	2745		MOVE R7, $8A
788A	8118		LBI R1, #$18
788C	C172		SE R1, R7
788E	A06F		BRA $7900		; $70(R0)

7890	0203		INC2 R2, R0
7892	A091		BRA $7926		; $92(R0)

7894	A033		BRA $78CA		; $34(R0)

7896	0203		INC2 R2, R0
7898	A093		BRA $792E		; $94(R0)

789A	A02D		BRA $78CA		; $2E(R0)

789C	F073		BRA $782A		; -> -$74(R0)

789E	2745		MOVE R7, $8A
78A0	8181		LBI R1, #$81
78A2	C172		SE R1, R7
78A4	A049		BRA $78F0		; $4A(R0)

78A6	A500		ADD R5, #$01
78A8	8180		LBI R1, #$80
78AA	C517		SBSH R5, R1
78AC	F017		BRA $7896		; -> -$18(R0)

78AE	0203		INC2 R2, R0
78B0	A073		BRA $7926		; $74(R0)

78B2	A015		BRA $78CA		; $16(R0)

78B4	251F		MOVE R5, $3E
78B6	A500		ADD R5, #$01
78B8	351F		MOVE $3E, R5
78BA	8102		LBI R1, #$02
78BC	C15A		SNE R1, R5
78BE	A023		BRA $78E4		; $24(R0)

78C0	2543		MOVE R5, $86
78C2	055C		MHL R5, R5
78C4	C50B		SNZ R5
78C6	A00F		BRA $78D8		; $10(R0)

78C8	F039		BRA $7890		; -> -$3A(R0)

78CA	1EFF		CTRL $E, #$FF
78CC	204E		JMP ($009C)

78CE	2544		MOVE R5, $88
78D0	015C		MHL R1, R5
78D2	0156		OR R1, R5
78D4	C10B		SNZ R1
78D6	F029		BRA $78AE		; -> -$2A(R0)

78D8	224E		MOVE R2, $9C
78DA	817E		LBI R1, #$7E
78DC	011D		MLH R1, R1
78DE	8164		LBI R1, #$64
78E0	0603		INC2 R6, R0
78E2	0014		RET R1

78E4	224E		MOVE R2, $9C
78E6	817E		LBI R1, #$7E
78E8	011D		MLH R1, R1
78EA	8146		LBI R1, #$46
78EC	0603		INC2 R6, R0
78EE	0014		RET R1

78F0	817A		LBI R1, #$7A
78F2	011D		MLH R1, R1
78F4	81B2		LBI R1, #$B2
78F6	0203		INC2 R2, R0
78F8	0014		RET R1

78FA	0203		INC2 R2, R0
78FC	A027		BRA $7926		; $28(R0)

78FE	F035		BRA $78CA		; -> -$36(R0)

7900	2542		MOVE R5, $84
7902	F5FF		SUB R5, #$100
7904	3542		MOVE $84, R5
7906	055C		MHL R5, R5
7908	C50B		SNZ R5
790A	A00D		BRA $791A		; $0E(R0)

790C	0203		INC2 R2, R0
790E	A01D		BRA $792E		; $1E(R0)

7910	F047		BRA $78CA		; -> -$48(R0)

7912	8178		LBI R1, #$78
7914	011D		MLH R1, R1
7916	8122		LBI R1, #$22
7918	0014		RET R1

791A	224E		MOVE R2, $9C
791C	817D		LBI R1, #$7D
791E	011D		MLH R1, R1
7920	81FE		LBI R1, #$FE
7922	0603		INC2 R6, R0
7924	0014		RET R1

7926	817A		LBI R1, #$7A
7928	011D		MLH R1, R1
792A	8192		LBI R1, #$92
792C	0014		RET R1

792E	8540		LBI R5, #$40
7930	EE5F		STAT R5, $E
7932	3547		MOVE $8E, R5
7934	9503		CLR R5, #$03
7936	8114		LBI R1, #$14
7938	C152		SE R1, R5
793A	A011		BRA $794E		; $12(R0)

793C	1E3F		CTRL $E, #$3F
793E	8C0F		LBI R12, #$0F
7940	0CCD		MLH R12, R12
7942	8C36		LBI R12, #$36
7944	FC00		SUB R12, #$01
7946	8180		LBI R1, #$80
7948	CC17		SBSH R12, R1
794A	F007		BRA $7944		; -> -$08(R0)

794C	0023		INC2 R0, R2
794E	B501		SET R5, #$01
7950	9502		CLR R5, #$02
7952	817D		LBI R1, #$7D
7954	011D		MLH R1, R1
7956	81AC		LBI R1, #$AC
7958	0603		INC2 R6, R0
795A	0014		RET R1

795C	8577		LBI R5, #$77
795E	055D		MLH R5, R5
7960	8530		LBI R5, #$30
7962	3520		MOVE $40, R5
7964	8579		LBI R5, #$79
7966	055D		MLH R5, R5
7968	85F4		LBI R5, #$F4
796A	3522		MOVE $44, R5
796C	8577		LBI R5, #$77
796E	055D		MLH R5, R5
7970	8544		LBI R5, #$44
7972	3523		MOVE $46, R5
7974	8500		LBI R5, #$00
7976	055D		MLH R5, R5
7978	85F8		LBI R5, #$F8
797A	352C		MOVE $58, R5
797C	8580		LBI R5, #$80
797E	3529		MOVE $52, R5
7980	04F4		MOVE R4, R15
7982	A401		ADD R4, #$02
7984	D548		MOVE R5, (R4)
7986	352B		MOVE $56, R5
7988	853D		LBI R5, #$3D
798A	3528		MOVE $50, R5
798C	8502		LBI R5, #$02
798E	352A		MOVE $54, R5
7990	8500		LBI R5, #$00
7992	055D		MLH R5, R5
7994	854A		LBI R5, #$4A
7996	352D		MOVE $5A, R5
7998	8500		LBI R5, #$00
799A	055D		MLH R5, R5
799C	85AA		LBI R5, #$AA
799E	3525		MOVE $4A, R5
79A0	8507		LBI R5, #$07
79A2	352E		MOVE $5C, R5
79A4	0E5E		GETB R5, $E
79A6	8540		LBI R5, #$40
79A8	EE5F		STAT R5, $E
79AA	813D		LBI R1, #$3D
79AC	C512		SE R5, R1
79AE	A033		BRA $79E4		; $34(R0)

79B0	8500		LBI R5, #$00
79B2	055D		MLH R5, R5
79B4	854A		LBI R5, #$4A
79B6	4E58		PUTB $E, (R5)
79B8	1064		CTRL $0, #$64
79BA	1E22		CTRL $E, #$22
79BC	8C2E		LBI R12, #$2E
79BE	0CCD		MLH R12, R12
79C0	8CE0		LBI R12, #$E0
79C2	2853		MOVE R8, $A6
79C4	8540		LBI R5, #$40
79C6	EE5F		STAT R5, $E
79C8	C803		SZ R8
79CA	A025		BRA $79F2		; $26(R0)

79CC	813D		LBI R1, #$3D
79CE	C152		SE R1, R5
79D0	A011		BRA $79E4		; $12(R0)

79D2	FC00		SUB R12, #$01
79D4	8180		LBI R1, #$80
79D6	CC17		SBSH R12, R1
79D8	F015		BRA $79C4		; -> -$16(R0)

79DA	817E		LBI R1, #$7E
79DC	011D		MLH R1, R1
79DE	8140		LBI R1, #$40
79E0	0703		INC2 R7, R0
79E2	0014		RET R1

79E4	1EFF		CTRL $E, #$FF
79E6	3547		MOVE $8E, R5
79E8	817D		LBI R1, #$7D
79EA	011D		MLH R1, R1
79EC	81AC		LBI R1, #$AC
79EE	0603		INC2 R6, R0
79F0	0014		RET R1

79F2	0023		INC2 R0, R2
79F4	8555		LBI R5, #$55
79F6	8E08		LBI R14, #$08
79F8	0E7E		GETB R7, $E
79FA	8740		LBI R7, #$40
79FC	EE7F		STAT R7, $E
79FE	C872		SE R8, R7
7A00	A083		BRA $7A86		; $84(R0)

7A02	05AD		MLH R5, R10
7A04	0558		ADD R5, R5
7A06	4ED8		PUTB $E, (R13)
7A08	FE00		SUB R14, #$01
7A0A	CE03		SZ R14
7A0C	F015		BRA $79F8		; -> -$16(R0)

7A0E	FC00		SUB R12, #$01
7A10	CC97		SBSH R12, R9
7A12	F01F		BRA $79F4		; -> -$20(R0)

7A14	8E08		LBI R14, #$08
7A16	0203		INC2 R2, R0
7A18	0034		RET R3

7A1A	8E08		LBI R14, #$08
7A1C	0203		INC2 R2, R0
7A1E	0034		RET R3

7A20	85E7		LBI R5, #$E7
7A22	8E08		LBI R14, #$08
7A24	0203		INC2 R2, R0
7A26	0034		RET R3

7A28	2540		MOVE R5, $80
7A2A	8E08		LBI R14, #$08
7A2C	0203		INC2 R2, R0
7A2E	0034		RET R3

7A30	05BC		MHL R5, R11
7A32	8E08		LBI R14, #$08
7A34	0203		INC2 R2, R0
7A36	0034		RET R3

7A38	05B4		MOVE R5, R11
7A3A	8E08		LBI R14, #$08
7A3C	0203		INC2 R2, R0
7A3E	0034		RET R3

7A40	8C1D		LBI R12, #$1D
7A42	8E08		LBI R14, #$08
7A44	0E7E		GETB R7, $E
7A46	8740		LBI R7, #$40
7A48	EE7F		STAT R7, $E
7A4A	C872		SE R8, R7
7A4C	A037		BRA $7A86		; $38(R0)

7A4E	05AD		MLH R5, R10
7A50	0558		ADD R5, R5
7A52	4ED8		PUTB $E, (R13)
7A54	FE00		SUB R14, #$01
7A56	CE03		SZ R14
7A58	F015		BRA $7A44		; -> -$16(R0)

7A5A	FC00		SUB R12, #$01
7A5C	CC03		SZ R12
7A5E	F01D		BRA $7A42		; -> -$1E(R0)

7A60	2540		MOVE R5, $80
7A62	8E08		LBI R14, #$08
7A64	0203		INC2 R2, R0
7A66	0034		RET R3

7A68	85E7		LBI R5, #$E7
7A6A	8E08		LBI R14, #$08
7A6C	0203		INC2 R2, R0
7A6E	0034		RET R3

7A70	8E08		LBI R14, #$08
7A72	0203		INC2 R2, R0
7A74	0034		RET R3

7A76	8E08		LBI R14, #$08
7A78	0203		INC2 R2, R0
7A7A	0034		RET R3

7A7C	0E1E		GETB R1, $E
7A7E	87FF		LBI R7, #$FF
7A80	3708		MOVE $10, R7
7A82	1E13		CTRL $E, #$13
7A84	0000		HALT
7A86	3747		MOVE $8E, R7
7A88	817E		LBI R1, #$7E
7A8A	011D		MLH R1, R1
7A8C	811A		LBI R1, #$1A
7A8E	0603		INC2 R6, R0
7A90	0014		RET R1

7A92	324F		MOVE $9E, R2
7A94	0203		INC2 R2, R0
7A96	A039		BRA $7AD2		; $3A(R0)

7A98	A011		BRA $7AAC		; $12(R0)

7A9A	85FF		LBI R5, #$FF
7A9C	0203		INC2 R2, R0
7A9E	A069		BRA $7B0A		; $6A(R0)

7AA0	A009		BRA $7AAC		; $0A(R0)

7AA2	0004		NOP
7AA4	0203		INC2 R2, R0
7AA6	A009		BRA $7AB2		; $0A(R0)

7AA8	224F		MOVE R2, $9E
7AAA	0023		INC2 R0, R2
7AAC	0203		INC2 R2, R0
7AAE	A001		BRA $7AB2		; $02(R0)

7AB0	204F		JMP ($009E)

7AB2	8C09		LBI R12, #$09
7AB4	0CCD		MLH R12, R12
7AB6	8C51		LBI R12, #$51
7AB8	FC00		SUB R12, #$01
7ABA	8180		LBI R1, #$80
7ABC	CC17		SBSH R12, R1
7ABE	F007		BRA $7AB8		; -> -$08(R0)

7AC0	1EFF		CTRL $E, #$FF
7AC2	8C1F		LBI R12, #$1F
7AC4	0CCD		MLH R12, R12
7AC6	8C0E		LBI R12, #$0E
7AC8	FC00		SUB R12, #$01
7ACA	8180		LBI R1, #$80
7ACC	CC17		SBSH R12, R1
7ACE	F007		BRA $7AC8		; -> -$08(R0)

7AD0	0024		RET R2

7AD2	8C1F		LBI R12, #$1F
7AD4	0CCD		MLH R12, R12
7AD6	FC00		SUB R12, #$01
7AD8	8180		LBI R1, #$80
7ADA	CC17		SBSH R12, R1
7ADC	F007		BRA $7AD6		; -> -$08(R0)

7ADE	8540		LBI R5, #$40
7AE0	EE5F		STAT R5, $E
7AE2	3547		MOVE $8E, R5
7AE4	9503		CLR R5, #$03
7AE6	8114		LBI R1, #$14
7AE8	C152		SE R1, R5
7AEA	A00F		BRA $7AFC		; $10(R0)

7AEC	1E7F		CTRL $E, #$7F
7AEE	8C0F		LBI R12, #$0F
7AF0	0CCD		MLH R12, R12
7AF2	FC00		SUB R12, #$01
7AF4	8180		LBI R1, #$80
7AF6	CC17		SBSH R12, R1
7AF8	F007		BRA $7AF2		; -> -$08(R0)

7AFA	0023		INC2 R0, R2
7AFC	B501		SET R5, #$01
7AFE	9502		CLR R5, #$02
7B00	0603		INC2 R6, R0
7B02	817D		LBI R1, #$7D
7B04	011D		MLH R1, R1
7B06	81AC		LBI R1, #$AC
7B08	0014		RET R1

7B0A	3222		MOVE $44, R2
7B0C	3528		MOVE $50, R5
7B0E	0E5E		GETB R5, $E
7B10	8540		LBI R5, #$40
7B12	EE5F		STAT R5, $E
7B14	3547		MOVE $8E, R5
7B16	9502		CLR R5, #$02
7B18	8135		LBI R1, #$35
7B1A	C512		SE R5, R1
7B1C	A07B		BRA $7B9A		; $7C(R0)

7B1E	8575		LBI R5, #$75
7B20	055D		MLH R5, R5
7B22	85F6		LBI R5, #$F6
7B24	3520		MOVE $40, R5
7B26	827B		LBI R2, #$7B
7B28	022D		MLH R2, R2
7B2A	82A6		LBI R2, #$A6
7B2C	2553		MOVE R5, $A6
7B2E	352B		MOVE $56, R5
7B30	8510		LBI R5, #$10
7B32	055D		MLH R5, R5
7B34	8550		LBI R5, #$50
7B36	3527		MOVE $4E, R5
7B38	8500		LBI R5, #$00
7B3A	055D		MLH R5, R5
7B3C	851B		LBI R5, #$1B
7B3E	352D		MOVE $5A, R5
7B40	8535		LBI R5, #$35
7B42	3529		MOVE $52, R5
7B44	85E7		LBI R5, #$E7
7B46	3524		MOVE $48, R5
7B48	8580		LBI R5, #$80
7B4A	352E		MOVE $5C, R5
7B4C	8522		LBI R5, #$22
7B4E	8D00		LBI R13, #$00
7B50	0DDD		MLH R13, R13
7B52	8D0B		LBI R13, #$0B
7B54	4ED8		PUTB $E, (R13)
7B56	8D02		LBI R13, #$02
7B58	2128		MOVE R1, $50
7B5A	C10C		SNS R1
7B5C	A0D7		BRA $7C36		; $D8(R0)

7B5E	1064		CTRL $0, #$64
7B60	0E5E		GETB R5, $E
7B62	1E1E		CTRL $E, #$1E
7B64	8C01		LBI R12, #$01
7B66	0CCD		MLH R12, R12
7B68	8C38		LBI R12, #$38
7B6A	8800		LBI R8, #$00
7B6C	252B		MOVE R5, $56
7B6E	C503		SZ R5
7B70	A0CB		BRA $7C3E		; $CC(R0)

7B72	8540		LBI R5, #$40
7B74	EE5F		STAT R5, $E
7B76	0754		MOVE R7, R5
7B78	950A		CLR R5, #$0A
7B7A	8135		LBI R1, #$35
7B7C	C152		SE R1, R5
7B7E	A01B		BRA $7B9C		; $1C(R0)

7B80	F800		SUB R8, #$01
7B82	C803		SZ R8
7B84	F019		BRA $7B6C		; -> -$1A(R0)

7B86	FC00		SUB R12, #$01
7B88	8180		LBI R1, #$80
7B8A	CC17		SBSH R12, R1
7B8C	F021		BRA $7B6C		; -> -$22(R0)

7B8E	2222		MOVE R2, $44
7B90	817E		LBI R1, #$7E
7B92	011D		MLH R1, R1
7B94	8140		LBI R1, #$40
7B96	0703		INC2 R7, R0
7B98	0014		RET R1

7B9A	A08B		BRA $7C28		; $8C(R0)

7B9C	1EFF		CTRL $E, #$FF
7B9E	3747		MOVE $8E, R7
7BA0	2222		MOVE R2, $44
7BA2	0603		INC2 R6, R0
7BA4	F0A3		BRA $7B02		; -> -$A4(R0)

7BA6	3A45		MOVE $8A, R10
7BA8	0203		INC2 R2, R0
7BAA	F03F		BRA $7B6C		; -> -$40(R0)

7BAC	3A44		MOVE $88, R10
7BAE	0203		INC2 R2, R0
7BB0	F045		BRA $7B6C		; -> -$46(R0)

7BB2	2144		MOVE R1, $88
7BB4	0A1D		MLH R10, R1
7BB6	3A44		MOVE $88, R10
7BB8	2528		MOVE R5, $50
7BBA	C50B		SNZ R5
7BBC	A033		BRA $7BF2		; $34(R0)

7BBE	C50C		SNS R5
7BC0	A02F		BRA $7BF2		; $30(R0)

7BC2	240F		MOVE R4, $1E
7BC4	A401		ADD R4, #$02
7BC6	D148		MOVE R1, (R4)
7BC8	0A19		SUB R10, R1
7BCA	01AC		MHL R1, R10
7BCC	0AAD		MLH R10, R10
7BCE	0A1C		MHL R10, R1
7BD0	01A9		SUB R1, R10
7BD2	0AAC		MHL R10, R10
7BD4	0A1D		MLH R10, R1
7BD6	01AC		MHL R1, R10
7BD8	01A6		OR R1, R10
7BDA	C10B		SNZ R1
7BDC	A005		BRA $7BE4		; $06(R0)

7BDE	8500		LBI R5, #$00
7BE0	3528		MOVE $50, R5
7BE2	A00D		BRA $7BF2		; $0E(R0)

7BE4	8540		LBI R5, #$40
7BE6	EE5F		STAT R5, $E
7BE8	3547		MOVE $8E, R5
7BEA	8135		LBI R1, #$35
7BEC	C152		SE R1, R5
7BEE	F04F		BRA $7BA0		; -> -$50(R0)

7BF0	1E1A		CTRL $E, #$1A
7BF2	2E53		MOVE R14, $A6
7BF4	8E1A		LBI R14, #$1A
7BF6	0203		INC2 R2, R0
7BF8	F08D		BRA $7B6C		; -> -$8E(R0)

7BFA	FE00		SUB R14, #$01
7BFC	8180		LBI R1, #$80
7BFE	CE17		SBSH R14, R1
7C00	F00B		BRA $7BF6		; -> -$0C(R0)

7C02	2553		MOVE R5, $A6
7C04	8520		LBI R5, #$20
7C06	3527		MOVE $4E, R5
7C08	857C		LBI R5, #$7C
7C0A	055D		MLH R5, R5
7C0C	8554		LBI R5, #$54
7C0E	3520		MOVE $40, R5
7C10	2553		MOVE R5, $A6
7C12	352B		MOVE $56, R5
7C14	8522		LBI R5, #$22
7C16	2D53		MOVE R13, $A6
7C18	8D0B		LBI R13, #$0B
7C1A	4ED8		PUTB $E, (R13)
7C1C	F0B1		BRA $7B6C		; -> -$B2(R0)

7C1E	2222		MOVE R2, $44
7C20	A203		ADD R2, #$04
7C22	0024		RET R2

7C24	2222		MOVE R2, $44
7C26	0023		INC2 R0, R2
7C28	1EFF		CTRL $E, #$FF
7C2A	9502		CLR R5, #$02
7C2C	817D		LBI R1, #$7D
7C2E	011D		MLH R1, R1
7C30	81AC		LBI R1, #$AC
7C32	0603		INC2 R6, R0
7C34	0014		RET R1

7C36	1064		CTRL $0, #$64
7C38	0E5E		GETB R5, $E
7C3A	1E5E		CTRL $E, #$5E
7C3C	F0D9		BRA $7B64		; -> -$DA(R0)

7C3E	2553		MOVE R5, $A6
7C40	352B		MOVE $56, R5
7C42	8540		LBI R5, #$40
7C44	EE5F		STAT R5, $E
7C46	3547		MOVE $8E, R5
7C48	950A		CLR R5, #$0A
7C4A	8135		LBI R1, #$35
7C4C	C152		SE R1, R5
7C4E	F027		BRA $7C28		; -> -$28(R0)

7C50	2A2A		MOVE R10, $54
7C52	0024		RET R2

7C54	8540		LBI R5, #$40
7C56	EE5F		STAT R5, $E
7C58	950A		CLR R5, #$0A
7C5A	C592		SE R5, R9
7C5C	A02D		BRA $7C8C		; $2E(R0)

7C5E	8A80		LBI R10, #$80
7C60	EEAF		STAT R10, $E
7C62	CA4A		SNE R10, R4
7C64	A011		BRA $7C78		; $12(R0)

7C66	F700		SUB R7, #$01
7C68	C7EF		SNBSH R7, R14
7C6A	A003		BRA $7C70		; $04(R0)

7C6C	0E5E		GETB R5, $E
7C6E	F01B		BRA $7C54		; -> -$1C(R0)

7C70	857C		LBI R5, #$7C
7C72	055D		MLH R5, R5
7C74	8524		LBI R5, #$24
7C76	A005		BRA $7C7E		; $06(R0)

7C78	857C		LBI R5, #$7C
7C7A	055D		MLH R5, R5
7C7C	851E		LBI R5, #$1E
7C7E	3500		MOVE $00, R5
7C80	C80B		SNZ R8
7C82	A017		BRA $7C9C		; $18(R0)

7C84	C80C		SNS R8
7C86	A017		BRA $7CA0		; $18(R0)

7C88	1E3B		CTRL $E, #$3B
7C8A	0000		HALT
7C8C	3547		MOVE $8E, R5
7C8E	9502		CLR R5, #$02
7C90	3202		MOVE $04, R2
7C92	817E		LBI R1, #$7E
7C94	011D		MLH R1, R1
7C96	8108		LBI R1, #$08
7C98	0603		INC2 R6, R0
7C9A	0014		RET R1

7C9C	1E3F		CTRL $E, #$3F
7C9E	0000		HALT
7CA0	1E7F		CTRL $E, #$7F
7CA2	0000		HALT
7CA4	8540		LBI R5, #$40
7CA6	EE5F		STAT R5, $E
7CA8	3547		MOVE $8E, R5
7CAA	9509		CLR R5, #$09
7CAC	8134		LBI R1, #$34
7CAE	C512		SE R5, R1
7CB0	A013		BRA $7CC6		; $14(R0)

7CB2	1E17		CTRL $E, #$17
7CB4	8540		LBI R5, #$40
7CB6	EE5F		STAT R5, $E
7CB8	3547		MOVE $8E, R5
7CBA	B501		SET R5, #$01
7CBC	813D		LBI R1, #$3D
7CBE	C152		SE R1, R5
7CC0	A003		BRA $7CC6		; $04(R0)

7CC2	1E13		CTRL $E, #$13
7CC4	0023		INC2 R0, R2
7CC6	B501		SET R5, #$01
7CC8	0603		INC2 R6, R0
7CCA	A0A1		BRA $7D6E		; $A2(R0)

7CCC	0E5E		GETB R5, $E
7CCE	8C7F		LBI R12, #$7F
7CD0	0CCD		MLH R12, R12
7CD2	0433		INC2 R4, R3
7CD4	D548		MOVE R5, (R4)
7CD6	957F		CLR R5, #$7F
7CD8	C503		SZ R5
7CDA	A01F		BRA $7CFC		; $20(R0)

7CDC	055C		MHL R5, R5
7CDE	8107		LBI R1, #$07
7CE0	C15A		SNE R1, R5
7CE2	A005		BRA $7CEA		; $06(R0)

7CE4	8106		LBI R1, #$06
7CE6	C152		SE R1, R5
7CE8	A011		BRA $7CFC		; $12(R0)

7CEA	2552		MOVE R5, $A4
7CEC	055C		MHL R5, R5
7CEE	957F		CLR R5, #$7F
7CF0	C50B		SNZ R5
7CF2	A007		BRA $7CFC		; $08(R0)

7CF4	0580		DEC2 R5, R8
7CF6	8180		LBI R1, #$80
7CF8	C517		SBSH R5, R1
7CFA	A073		BRA $7D70		; $74(R0)

7CFC	8540		LBI R5, #$40
7CFE	EE5F		STAT R5, $E
7D00	3547		MOVE $8E, R5
7D02	87F4		LBI R7, #$F4
7D04	0755		AND R7, R5
7D06	8134		LBI R1, #$34
7D08	C172		SE R1, R7
7D0A	A05B		BRA $7D68		; $5C(R0)

7D0C	95FE		CLR R5, #$FE
7D0E	C50B		SNZ R5
7D10	A015		BRA $7D28		; $16(R0)

7D12	FC00		SUB R12, #$01
7D14	8180		LBI R1, #$80
7D16	CC17		SBSH R12, R1
7D18	F047		BRA $7CD2		; -> -$48(R0)

7D1A	8C7F		LBI R12, #$7F
7D1C	0CCD		MLH R12, R12
7D1E	F800		SUB R8, #$01
7D20	8180		LBI R1, #$80
7D22	C817		SBSH R8, R1
7D24	F053		BRA $7CD2		; -> -$54(R0)

7D26	A03B		BRA $7D64		; $3C(R0)

7D28	8C10		LBI R12, #$10
7D2A	0CCD		MLH R12, R12
7D2C	0E5E		GETB R5, $E
7D2E	8540		LBI R5, #$40
7D30	EE5F		STAT R5, $E
7D32	3547		MOVE $8E, R5
7D34	87F4		LBI R7, #$F4
7D36	0755		AND R7, R5
7D38	8134		LBI R1, #$34
7D3A	C172		SE R1, R7
7D3C	A029		BRA $7D68		; $2A(R0)

7D3E	95FE		CLR R5, #$FE
7D40	C50B		SNZ R5
7D42	A017		BRA $7D5C		; $18(R0)

7D44	0E5E		GETB R5, $E
7D46	8540		LBI R5, #$40
7D48	EE5F		STAT R5, $E
7D4A	3547		MOVE $8E, R5
7D4C	87F4		LBI R7, #$F4
7D4E	0755		AND R7, R5
7D50	8134		LBI R1, #$34
7D52	C712		SE R7, R1
7D54	A011		BRA $7D68		; $12(R0)

7D56	95FE		CLR R5, #$FE
7D58	C503		SZ R5
7D5A	0023		INC2 R0, R2
7D5C	FC00		SUB R12, #$01
7D5E	8180		LBI R1, #$80
7D60	CC17		SBSH R12, R1
7D62	F037		BRA $7D2C		; -> -$38(R0)

7D64	0603		INC2 R6, R0
7D66	A08B		BRA $7DF4		; $8C(R0)

7D68	B501		SET R5, #$01
7D6A	9502		CLR R5, #$02
7D6C	0603		INC2 R6, R0
7D6E	A03B		BRA $7DAC		; $3C(R0)

7D70	817E		LBI R1, #$7E
7D72	011D		MLH R1, R1
7D74	81AC		LBI R1, #$AC
7D76	0603		INC2 R6, R0
7D78	0014		RET R1

7D7A	08BC		MHL R8, R11
7D7C	0857		XOR R8, R5
7D7E	0184		MOVE R1, R8
7D80	0784		MOVE R7, R8
7D82	E07F		SWAP R7
7D84	0877		XOR R8, R7
7D86	980F		CLR R8, #$0F
7D88	08B7		XOR R8, R11
7D8A	0B14		MOVE R11, R1
7D8C	97F0		CLR R7, #$F0
7D8E	0B77		XOR R11, R7
7D90	E01E		ROR3 R1
7D92	0714		MOVE R7, R1
7D94	97E0		CLR R7, #$E0
7D96	0877		XOR R8, R7
7D98	911F		CLR R1, #$1F
7D9A	0B17		XOR R11, R1
7D9C	E07F		SWAP R7
7D9E	0174		MOVE R1, R7
7DA0	971F		CLR R7, #$1F
7DA2	0B77		XOR R11, R7
7DA4	91FE		CLR R1, #$FE
7DA6	0817		XOR R8, R1
7DA8	0B8D		MLH R11, R8
7DAA	0024		RET R2

7DAC	3648		MOVE $90, R6
7DAE	8710		LBI R7, #$10
7DB0	0755		AND R7, R5
7DB2	C70B		SNZ R7
7DB4	A029		BRA $7DE0		; $2A(R0)

7DB6	8702		LBI R7, #$02
7DB8	0755		AND R7, R5
7DBA	C703		SZ R7
7DBC	A02D		BRA $7DEC		; $2E(R0)

7DBE	8101		LBI R1, #$01
7DC0	C515		SBS R5, R1
7DC2	A0A9		BRA $7E6E		; $AA(R0)

7DC4	8180		LBI R1, #$80
7DC6	C515		SBS R5, R1
7DC8	A007		BRA $7DD2		; $08(R0)

7DCA	817E		LBI R1, #$7E
7DCC	011D		MLH R1, R1
7DCE	81D4		LBI R1, #$D4
7DD0	0014		RET R1

7DD2	861B		LBI R6, #$1B
7DD4	066D		MLH R6, R6
7DD6	861E		LBI R6, #$1E
7DD8	0434		MOVE R4, R3
7DDA	A40B		ADD R4, #$0C
7DDC	5648		MOVE (R4), R6
7DDE	0024		RET R2

7DE0	2553		MOVE R5, $A6
7DE2	55F8		MOVE (R15), R5
7DE4	861B		LBI R6, #$1B
7DE6	066D		MLH R6, R6
7DE8	8620		LBI R6, #$20
7DEA	F013		BRA $7DD8		; -> -$14(R0)

7DEC	861B		LBI R6, #$1B
7DEE	066D		MLH R6, R6
7DF0	8621		LBI R6, #$21
7DF2	F01B		BRA $7DD8		; -> -$1C(R0)

7DF4	3648		MOVE $90, R6
7DF6	861B		LBI R6, #$1B
7DF8	066D		MLH R6, R6
7DFA	861F		LBI R6, #$1F
7DFC	F025		BRA $7DD8		; -> -$26(R0)

7DFE	3648		MOVE $90, R6
7E00	861B		LBI R6, #$1B
7E02	066D		MLH R6, R6
7E04	8622		LBI R6, #$22
7E06	F02F		BRA $7DD8		; -> -$30(R0)

7E08	3606		MOVE $0C, R6
7E0A	9502		CLR R5, #$02
7E0C	3505		MOVE $0A, R5
7E0E	857D		LBI R5, #$7D
7E10	055D		MLH R5, R5
7E12	85AC		LBI R5, #$AC
7E14	3500		MOVE $00, R5
7E16	1EFF		CTRL $E, #$FF
7E18	0000		HALT
7E1A	857D		LBI R5, #$7D
7E1C	055D		MLH R5, R5
7E1E	85AC		LBI R5, #$AC
7E20	0E1E		GETB R1, $E
7E22	3606		MOVE $0C, R6
7E24	3705		MOVE $0A, R7
7E26	3500		MOVE $00, R5
7E28	1EFF		CTRL $E, #$FF
7E2A	0000		HALT
7E2C	3606		MOVE $0C, R6
7E2E	857D		LBI R5, #$7D
7E30	055D		MLH R5, R5
7E32	85F4		LBI R5, #$F4
7E34	F021		BRA $7E14		; -> -$22(R0)

7E36	3648		MOVE $90, R6
7E38	861B		LBI R6, #$1B
7E3A	066D		MLH R6, R6
7E3C	861D		LBI R6, #$1D
7E3E	F067		BRA $7DD8		; -> -$68(R0)

7E40	1EFF		CTRL $E, #$FF
7E42	0674		MOVE R6, R7
7E44	F051		BRA $7DF4		; -> -$52(R0)

7E46	3648		MOVE $90, R6
7E48	861C		LBI R6, #$1C
7E4A	066D		MLH R6, R6
7E4C	861B		LBI R6, #$1B
7E4E	F077		BRA $7DD8		; -> -$78(R0)

7E50	3648		MOVE $90, R6
7E52	861B		LBI R6, #$1B
7E54	066D		MLH R6, R6
7E56	8624		LBI R6, #$24
7E58	F081		BRA $7DD8		; -> -$82(R0)

7E5A	3648		MOVE $90, R6
7E5C	861C		LBI R6, #$1C
7E5E	066D		MLH R6, R6
7E60	861C		LBI R6, #$1C
7E62	F08B		BRA $7DD8		; -> -$8C(R0)

7E64	3648		MOVE $90, R6
7E66	861B		LBI R6, #$1B
7E68	066D		MLH R6, R6
7E6A	8623		LBI R6, #$23
7E6C	F095		BRA $7DD8		; -> -$96(R0)

7E6E	1EFF		CTRL $E, #$FF
7E70	8C1F		LBI R12, #$1F
7E72	0CCD		MLH R12, R12
7E74	FC00		SUB R12, #$01
7E76	8180		LBI R1, #$80
7E78	CC17		SBSH R12, R1
7E7A	F007		BRA $7E74		; -> -$08(R0)

7E7C	8540		LBI R5, #$40
7E7E	EE5F		STAT R5, $E
7E80	957F		CLR R5, #$7F
7E82	C503		SZ R5
7E84	A0F9		BRA $7F80		; $FA(R0)

7E86	3241		MOVE $82, R2
7E88	1F40		CTRL $F, #$40
7E8A	255D		MOVE R5, $BA
7E8C	3574		MOVE $E8, R5
7E8E	0504		MOVE R5, R0
7E90	A505		ADD R5, #$06
7E92	3577		MOVE $EE, R5
7E94	2076		JMP ($00EC)

7E96	A00B		BRA $7EA4		; $0C(R0)

7E98	2241		MOVE R2, $82
7E9A	861C		LBI R6, #$1C
7E9C	066D		MLH R6, R6
7E9E	861D		LBI R6, #$1D
7EA0	F0C9		BRA $7DD8		; -> -$CA(R0)

7EA2	F0F7		BRA $7DAC		; -> -$F8(R0)

7EA4	817F		LBI R1, #$7F
7EA6	011D		MLH R1, R1
7EA8	81AE		LBI R1, #$AE
7EAA	0014		RET R1

7EAC	1EFF		CTRL $E, #$FF
7EAE	3648		MOVE $90, R6
7EB0	2653		MOVE R6, $A6
7EB2	8C0F		LBI R12, #$0F
7EB4	0CCD		MLH R12, R12
7EB6	8540		LBI R5, #$40
7EB8	EE5F		STAT R5, $E
7EBA	3547		MOVE $8E, R5
7EBC	9502		CLR R5, #$02
7EBE	8115		LBI R1, #$15
7EC0	C152		SE R1, R5
7EC2	A009		BRA $7ECE		; $0A(R0)

7EC4	FC00		SUB R12, #$01
7EC6	8180		LBI R1, #$80
7EC8	CC17		SBSH R12, R1
7ECA	F015		BRA $7EB6		; -> -$16(R0)

7ECC	F0F5		BRA $7DD8		; -> -$F6(R0)

7ECE	9502		CLR R5, #$02
7ED0	0603		INC2 R6, R0
7ED2	F031		BRA $7EA2		; -> -$32(R0)

7ED4	1EFF		CTRL $E, #$FF
7ED6	8C1F		LBI R12, #$1F
7ED8	0CCD		MLH R12, R12
7EDA	FC00		SUB R12, #$01
7EDC	8180		LBI R1, #$80
7EDE	CC17		SBSH R12, R1
7EE0	F007		BRA $7EDA		; -> -$08(R0)

7EE2	8540		LBI R5, #$40
7EE4	EE5F		STAT R5, $E
7EE6	95FE		CLR R5, #$FE
7EE8	C50B		SNZ R5
7EEA	A093		BRA $7F80		; $94(R0)

7EEC	A0A5		BRA $7F94		; $A6(R0)

7EEE	0434		MOVE R4, R3
7EF0	A409		ADD R4, #$0A
7EF2	DF48		MOVE R15, (R4)
7EF4	251B		MOVE R5, $36
7EF6	F500		SUB R5, #$01
7EF8	351B		MOVE $36, R5
7EFA	C50B		SNZ R5
7EFC	A095		BRA $7F94		; $96(R0)

7EFE	8CF8		LBI R12, #$F8
7F00	0CCD		MLH R12, R12
7F02	0E5E		GETB R5, $E
7F04	01CC		MHL R1, R12
7F06	01C6		OR R1, R12
7F08	C10B		SNZ R1
7F0A	A093		BRA $7FA0		; $94(R0)

7F0C	FC00		SUB R12, #$01
7F0E	8540		LBI R5, #$40
7F10	EE5F		STAT R5, $E
7F12	3547		MOVE $8E, R5
7F14	9502		CLR R5, #$02
7F16	8135		LBI R1, #$35
7F18	C51A		SNE R5, R1
7F1A	F017		BRA $7F04		; -> -$18(R0)

7F1C	8180		LBI R1, #$80
7F1E	C51D		SNBS R5, R1
7F20	F04D		BRA $7ED4		; -> -$4E(R0)

7F22	8101		LBI R1, #$01
7F24	C515		SBS R5, R1
7F26	A007		BRA $7F30		; $08(R0)

7F28	1EFF		CTRL $E, #$FF
7F2A	224A		MOVE R2, $94
7F2C	0603		INC2 R6, R0
7F2E	F05D		BRA $7ED2		; -> -$5E(R0)

7F30	1EFF		CTRL $E, #$FF
7F32	8C1F		LBI R12, #$1F
7F34	0CCD		MLH R12, R12
7F36	FC00		SUB R12, #$01
7F38	8180		LBI R1, #$80
7F3A	CC17		SBSH R12, R1
7F3C	F007		BRA $7F36		; -> -$08(R0)

7F3E	8540		LBI R5, #$40
7F40	EE5F		STAT R5, $E
7F42	957F		CLR R5, #$7F
7F44	C503		SZ R5
7F46	A037		BRA $7F80		; $38(R0)

7F48	0E5E		GETB R5, $E
7F4A	2553		MOVE R5, $A6
7F4C	55F8		MOVE (R15), R5
7F4E	0433		INC2 R4, R3
7F50	6548		MOVB R5, (R4)
7F52	8107		LBI R1, #$07
7F54	C15A		SNE R1, R5
7F56	A017		BRA $7F70		; $18(R0)

7F58	8104		LBI R1, #$04
7F5A	C15A		SNE R1, R5
7F5C	A011		BRA $7F70		; $12(R0)

7F5E	8106		LBI R1, #$06
7F60	C152		SE R1, R5
7F62	A013		BRA $7F78		; $14(R0)

7F64	A409		ADD R4, #$0A
7F66	D548		MOVE R5, (R4)
7F68	015C		MHL R1, R5
7F6A	0156		OR R1, R5
7F6C	C103		SZ R1
7F6E	A007		BRA $7F78		; $08(R0)

7F70	8168		LBI R1, #$68
7F72	011D		MLH R1, R1
7F74	8110		LBI R1, #$10
7F76	0014		RET R1

7F78	224A		MOVE R2, $94
7F7A	8510		LBI R5, #$10
7F7C	0603		INC2 R6, R0
7F7E	F0AD		BRA $7ED2		; -> -$AE(R0)

7F80	1F40		CTRL $F, #$40
7F82	255D		MOVE R5, $BA
7F84	3574		MOVE $E8, R5
7F86	0504		MOVE R5, R0
7F88	A505		ADD R5, #$06
7F8A	3577		MOVE $EE, R5
7F8C	2076		JMP ($00EC)

7F8E	A01D		BRA $7FAE		; $1E(R0)

7F90	1E3F		CTRL $E, #$3F
7F92	F0A5		BRA $7EEE		; -> -$A6(R0)

7F94	1EFF		CTRL $E, #$FF
7F96	224A		MOVE R2, $94
7F98	817D		LBI R1, #$7D
7F9A	011D		MLH R1, R1
7F9C	81D2		LBI R1, #$D2
7F9E	0014		RET R1

7FA0	1EFF		CTRL $E, #$FF
7FA2	224A		MOVE R2, $94
7FA4	817D		LBI R1, #$7D
7FA6	011D		MLH R1, R1
7FA8	81F4		LBI R1, #$F4
7FAA	0603		INC2 R6, R0
7FAC	0014		RET R1

7FAE	3048		MOVE $90, R0
7FB0	224A		MOVE R2, $94
7FB2	2551		MOVE R5, $A2
7FB4	861C		LBI R6, #$1C
7FB6	066D		MLH R6, R6
7FB8	861F		LBI R6, #$1F
7FBA	8180		LBI R1, #$80
7FBC	C516		SBC R5, R1
7FBE	A011		BRA $7FD2		; $12(R0)

7FC0	861B		LBI R6, #$1B
7FC2	066D		MLH R6, R6
7FC4	861D		LBI R6, #$1D
7FC6	8140		LBI R1, #$40
7FC8	C516		SBC R5, R1
7FCA	A005		BRA $7FD2		; $06(R0)

7FCC	861C		LBI R6, #$1C
7FCE	066D		MLH R6, R6
7FD0	861E		LBI R6, #$1E
7FD2	817D		LBI R1, #$7D
7FD4	011D		MLH R1, R1
7FD6	81D8		LBI R1, #$D8
7FD8	0014		RET R1

7FDA	0000		HALT
7FDC	0000		HALT
7FDE	0000		HALT
7FE0	0000		HALT
7FE2	0000		HALT
7FE4	0000		HALT
7FE6	0000		HALT
7FE8	0000		HALT
7FEA	0000		HALT
7FEC	0000		HALT
7FEE	0000		HALT
7FF0	0000		HALT
7FF2	0000		HALT
7FF4	0000		HALT
7FF6	0000		HALT
7FF8	0000		HALT
7FFA	0000		HALT
7FFC	0000		HALT
7FFE	0000		HALT
8000	1104		CTRL $1, #$04
8002	8381		LBI R3, #$81
8004	033D		MLH R3, R3
8006	83D0		LBI R3, #$D0
8008	3382		MOVE $104, R3
800A	8381		LBI R3, #$81
800C	033D		MLH R3, R3
800E	838E		LBI R3, #$8E
8010	33E6		MOVE $1CC, R3
8012	8383		LBI R3, #$83
8014	033D		MLH R3, R3
8016	83FE		LBI R3, #$FE
8018	339B		MOVE $136, R3
801A	8384		LBI R3, #$84
801C	033D		MLH R3, R3
801E	8302		LBI R3, #$02
8020	339C		MOVE $138, R3
8022	8384		LBI R3, #$84
8024	033D		MLH R3, R3
8026	8306		LBI R3, #$06
8028	339D		MOVE $13A, R3
802A	8384		LBI R3, #$84
802C	033D		MLH R3, R3
802E	830A		LBI R3, #$0A
8030	339E		MOVE $13C, R3
8032	8384		LBI R3, #$84
8034	033D		MLH R3, R3
8036	830E		LBI R3, #$0E
8038	339F		MOVE $13E, R3
803A	8301		LBI R3, #$01
803C	033D		MLH R3, R3
803E	8300		LBI R3, #$00
8040	339A		MOVE $134, R3
8042	8301		LBI R3, #$01
8044	033D		MLH R3, R3
8046	8308		LBI R3, #$08
8048	3392		MOVE $124, R3
804A	E03F		SWAP R3
804C	3393		MOVE $126, R3
804E	8381		LBI R3, #$81
8050	033D		MLH R3, R3
8052	83DC		LBI R3, #$DC
8054	33BC		MOVE $178, R3
8056	8381		LBI R3, #$81
8058	033D		MLH R3, R3
805A	83EC		LBI R3, #$EC
805C	33BD		MOVE $17A, R3
805E	8381		LBI R3, #$81
8060	033D		MLH R3, R3
8062	83FC		LBI R3, #$FC
8064	33BE		MOVE $17C, R3
8066	33D6		MOVE $1AC, R3
8068	8382		LBI R3, #$82
806A	033D		MLH R3, R3
806C	835C		LBI R3, #$5C
806E	33D2		MOVE $1A4, R3
8070	8382		LBI R3, #$82
8072	033D		MLH R3, R3
8074	8306		LBI R3, #$06
8076	33BF		MOVE $17E, R3
8078	33D7		MOVE $1AE, R3
807A	8382		LBI R3, #$82
807C	033D		MLH R3, R3
807E	8368		LBI R3, #$68
8080	33D3		MOVE $1A6, R3
8082	8382		LBI R3, #$82
8084	033D		MLH R3, R3
8086	8310		LBI R3, #$10
8088	33C2		MOVE $184, R3
808A	8382		LBI R3, #$82
808C	033D		MLH R3, R3
808E	8374		LBI R3, #$74
8090	33C3		MOVE $186, R3
8092	33DA		MOVE $1B4, R3
8094	8382		LBI R3, #$82
8096	033D		MLH R3, R3
8098	8394		LBI R3, #$94
809A	33D4		MOVE $1A8, R3
809C	8382		LBI R3, #$82
809E	033D		MLH R3, R3
80A0	83A0		LBI R3, #$A0
80A2	33C4		MOVE $188, R3
80A4	8382		LBI R3, #$82
80A6	033D		MLH R3, R3
80A8	83CE		LBI R3, #$CE
80AA	33C5		MOVE $18A, R3
80AC	8382		LBI R3, #$82
80AE	033D		MLH R3, R3
80B0	83FA		LBI R3, #$FA
80B2	33C6		MOVE $18C, R3
80B4	8383		LBI R3, #$83
80B6	033D		MLH R3, R3
80B8	8342		LBI R3, #$42
80BA	33C7		MOVE $18E, R3
80BC	33DB		MOVE $1B6, R3
80BE	8383		LBI R3, #$83
80C0	033D		MLH R3, R3
80C2	834E		LBI R3, #$4E
80C4	33D5		MOVE $1AA, R3
80C6	8384		LBI R3, #$84
80C8	033D		MLH R3, R3
80CA	8326		LBI R3, #$26
80CC	33AC		MOVE $158, R3
80CE	8384		LBI R3, #$84
80D0	033D		MLH R3, R3
80D2	832A		LBI R3, #$2A
80D4	33AD		MOVE $15A, R3
80D6	8384		LBI R3, #$84
80D8	033D		MLH R3, R3
80DA	8338		LBI R3, #$38
80DC	33AE		MOVE $15C, R3
80DE	8384		LBI R3, #$84
80E0	033D		MLH R3, R3
80E2	833C		LBI R3, #$3C
80E4	33AF		MOVE $15E, R3
80E6	8384		LBI R3, #$84
80E8	033D		MLH R3, R3
80EA	839C		LBI R3, #$9C
80EC	33AB		MOVE $156, R3
80EE	83AA		LBI R3, #$AA
80F0	033D		MLH R3, R3
80F2	83F6		LBI R3, #$F6
80F4	33B2		MOVE $164, R3
80F6	83AB		LBI R3, #$AB
80F8	033D		MLH R3, R3
80FA	83B2		LBI R3, #$B2
80FC	33B3		MOVE $166, R3
80FE	83AC		LBI R3, #$AC
8100	033D		MLH R3, R3
8102	836E		LBI R3, #$6E
8104	33BA		MOVE $174, R3
8106	83AD		LBI R3, #$AD
8108	033D		MLH R3, R3
810A	8398		LBI R3, #$98
810C	33BB		MOVE $176, R3
810E	830A		LBI R3, #$0A
8110	033D		MLH R3, R3
8112	8300		LBI R3, #$00
8114	33AA		MOVE $154, R3
8116	8CBE		LBI R12, #$BE
8118	0CCD		MLH R12, R12
811A	8CFE		LBI R12, #$FE
811C	2353		MOVE R3, $A6
811E	8318		LBI R3, #$18
8120	4130		PUTB $1, (R3)+
8122	4138		PUTB $1, (R3)
8124	8C08		LBI R12, #$08
8126	0CCD		MLH R12, R12
8128	8C00		LBI R12, #$00
812A	3C83		MOVE $106, R12
812C	84FF		LBI R4, #$FF
812E	013E		GETB R3, $1
8130	033D		MLH R3, R3
8132	0004		NOP
8134	013E		GETB R3, $1
8136	53C1		MOVE (R12)+, R3
8138	F400		SUB R4, #$01
813A	C404		SS R4
813C	F00F		BRA $812E		; -> -$10(R0)

813E	0303		INC2 R3, R0
8140	33E7		MOVE $1CE, R3
8142	8CA7		LBI R12, #$A7
8144	0CCD		MLH R12, R12
8146	8CFC		LBI R12, #$FC
8148	2353		MOVE R3, $A6
814A	8318		LBI R3, #$18
814C	4130		PUTB $1, (R3)+
814E	4138		PUTB $1, (R3)
8150	2352		MOVE R3, $A4
8152	013C		MHL R1, R3
8154	9102		CLR R1, #$02
8156	031D		MLH R3, R1
8158	3352		MOVE $A4, R3
815A	209B		JMP ($0136)

815C	015E		GETB R5, $1
815E	055D		MLH R5, R5
8160	0004		NOP
8162	015E		GETB R5, $1
8164	3574		MOVE $E8, R5
8166	2076		JMP ($00EC)

8168	21DF		MOVE R1, $1BE
816A	3174		MOVE $E8, R1
816C	2076		JMP ($00EC)

816E	2CDE		MOVE R12, $1BC
8170	E13F		STAT R3, $1
8172	E17F		STAT R7, $1
8174	64C3		MOVB R4, (R12)++++
8176	C340		SLE R3, R4
8178	F005		BRA $8174		; -> -$06(R0)

817A	C342		SE R3, R4
817C	A051		BRA $81D0		; $52(R0)

817E	FC02		SUB R12, #$03
8180	68C2		MOVB R8, (R12)+++
8182	C782		SE R7, R8
8184	F011		BRA $8174		; -> -$12(R0)

8186	FC01		SUB R12, #$02
8188	D3C8		MOVE R3, (R12)
818A	3374		MOVE $E8, R3
818C	2076		JMP ($00EC)

818E	E14F		STAT R4, $1
8190	E15F		STAT R5, $1
8192	2C53		MOVE R12, $A6
8194	8C06		LBI R12, #$06
8196	830E		LBI R3, #$0E
8198	033D		MLH R3, R3
819A	8320		LBI R3, #$20
819C	41C0		PUTB $1, (R12)+
819E	41C1		PUTB $1, (R12)++
81A0	8187		LBI R1, #$87
81A2	011D		MLH R1, R1
81A4	8168		LBI R1, #$68
81A6	0014		RET R1

81A8	0000		HALT
81AA	0000		HALT
81AC	0000		HALT
81AE	0000		HALT
81B0	0000		HALT
81B2	0000		HALT
81B4	0000		HALT
81B6	0000		HALT
81B8	0000		HALT
81BA	0000		HALT
81BC	0000		HALT
81BE	0000		HALT
81C0	0000		HALT
81C2	0000		HALT
81C4	0000		HALT
81C6	0000		HALT
81C8	0000		HALT
81CA	0000		HALT
81CC	0000		HALT
81CE	0000		HALT
81D0	013E		GETB R3, $1
81D2	2283		MOVE R2, $106
81D4	0238		ADD R2, R3
81D6	014E		GETB R4, $1
81D8	0238		ADD R2, R3
81DA	D028		JMP (R2)
81DC	2C9A		MOVE R12, $134
81DE	0C46		OR R12, R4
81E0	9C0F		CLR R12, #$0F
81E2	2D9A		MOVE R13, $134
81E4	0D46		OR R13, R4
81E6	E0DF		SWAP R13
81E8	9D0F		CLR R13, #$0F
81EA	0024		RET R2

81EC	2C92		MOVE R12, $124
81EE	0C46		OR R12, R4
81F0	9C07		CLR R12, #$07
81F2	2D93		MOVE R13, $126
81F4	0D46		OR R13, R4
81F6	E0DF		SWAP R13
81F8	9D07		CLR R13, #$07
81FA	0024		RET R2

81FC	015E		GETB R5, $1
81FE	2C9A		MOVE R12, $134
8200	0C46		OR R12, R4
8202	9C0F		CLR R12, #$0F
8204	A007		BRA $820E		; $08(R0)

8206	015E		GETB R5, $1
8208	2C92		MOVE R12, $124
820A	0C46		OR R12, R4
820C	9C07		CLR R12, #$07
820E	01DE		GETB R13, $1
8210	0754		MOVE R7, R5
8212	95F0		CLR R5, #$F0
8214	0D5D		MLH R13, R5
8216	8800		LBI R8, #$00
8218	970F		CLR R7, #$0F
821A	C70B		SNZ R7
821C	A013		BRA $8232		; $14(R0)

821E	259A		MOVE R5, $134
8220	0576		OR R5, R7
8222	D851		MOVE R8, (R5)+
8224	D558		MOVE R5, (R5)
8226	0D58		ADD R13, R5
8228	05DC		MHL R5, R13
822A	055A		ADDH R5, R5
822C	0D5D		MLH R13, R5
822E	055C		MHL R5, R5
8230	0858		ADD R8, R5
8232	94F0		CLR R4, #$F0
8234	C40B		SNZ R4
8236	A01D		BRA $8256		; $1E(R0)

8238	E04F		SWAP R4
823A	259A		MOVE R5, $134
823C	0546		OR R5, R4
823E	D651		MOVE R6, (R5)+
8240	D558		MOVE R5, (R5)
8242	01DC		MHL R1, R13
8244	0D5D		MLH R13, R5
8246	0DDA		ADDH R13, R13
8248	05DC		MHL R5, R13
824A	055A		ADDH R5, R5
824C	0518		ADD R5, R1
824E	0D5D		MLH R13, R5
8250	055C		MHL R5, R5
8252	0858		ADD R8, R5
8254	0868		ADD R8, R6
8256	C80B		SNZ R8
8258	A209		ADD R2, #$0A
825A	0024		RET R2

825C	65D0		MOVB R5, (R13)+
825E	2C9A		MOVE R12, $134
8260	0C46		OR R12, R4
8262	9C0F		CLR R12, #$0F
8264	6DD8		MOVB R13, (R13)
8266	F057		BRA $8210		; -> -$58(R0)

8268	65D0		MOVB R5, (R13)+
826A	2C92		MOVE R12, $124
826C	0C46		OR R12, R4
826E	9C07		CLR R12, #$07
8270	6DD8		MOVB R13, (R13)
8272	F063		BRA $8210		; -> -$64(R0)

8274	015E		GETB R5, $1
8276	2C9A		MOVE R12, $134
8278	0C46		OR R12, R4
827A	9C0F		CLR R12, #$0F
827C	016E		GETB R6, $1
827E	0D64		MOVE R13, R6
8280	950F		CLR R5, #$0F
8282	C50B		SNZ R5
8284	A009		BRA $8290		; $0A(R0)

8286	279A		MOVE R7, $134
8288	8702		LBI R7, #$02
828A	0756		OR R7, R5
828C	D778		MOVE R7, (R7)
828E	0D78		ADD R13, R7
8290	9DC0		CLR R13, #$C0
8292	0024		RET R2

8294	65D0		MOVB R5, (R13)+
8296	2C9A		MOVE R12, $134
8298	0C46		OR R12, R4
829A	9C0F		CLR R12, #$0F
829C	66D8		MOVB R6, (R13)
829E	F021		BRA $827E		; -> -$22(R0)

82A0	015E		GETB R5, $1
82A2	81F0		LBI R1, #$F0
82A4	C51E		SNBC R5, R1
82A6	A01D		BRA $82C6		; $1E(R0)

82A8	279A		MOVE R7, $134
82AA	0756		OR R7, R5
82AC	01DE		GETB R13, $1
82AE	970F		CLR R7, #$0F
82B0	D871		MOVE R8, (R7)+
82B2	DA78		MOVE R10, (R7)
82B4	95F0		CLR R5, #$F0
82B6	0D5D		MLH R13, R5
82B8	0DA8		ADD R13, R10
82BA	0ADC		MHL R10, R13
82BC	0AAA		ADDH R10, R10
82BE	0DAD		MLH R13, R10
82C0	0AAC		MHL R10, R10
82C2	08A8		ADD R8, R10
82C4	0024		RET R2

82C6	01DE		GETB R13, $1
82C8	0D5D		MLH R13, R5
82CA	8800		LBI R8, #$00
82CC	0024		RET R2

82CE	015E		GETB R5, $1
82D0	0A54		MOVE R10, R5
82D2	9A0F		CLR R10, #$0F
82D4	01CE		GETB R12, $1
82D6	95F0		CLR R5, #$F0
82D8	0C5D		MLH R12, R5
82DA	017E		GETB R7, $1
82DC	8900		LBI R9, #$00
82DE	CA0B		SNZ R10
82E0	A039		BRA $831C		; $3A(R0)

82E2	259A		MOVE R5, $134
82E4	05A6		OR R5, R10
82E6	D951		MOVE R9, (R5)+
82E8	D558		MOVE R5, (R5)
82EA	06CC		MHL R6, R12
82EC	0C58		ADD R12, R5
82EE	05CC		MHL R5, R12
82F0	055A		ADDH R5, R5
82F2	0C5D		MLH R12, R5
82F4	C569		SGE R5, R6
82F6	A900		ADD R9, #$01
82F8	A021		BRA $831C		; $22(R0)

82FA	015E		GETB R5, $1
82FC	0A54		MOVE R10, R5
82FE	9A0F		CLR R10, #$0F
8300	01CE		GETB R12, $1
8302	95F0		CLR R5, #$F0
8304	0C5D		MLH R12, R5
8306	017E		GETB R7, $1
8308	CA0B		SNZ R10
830A	A00F		BRA $831C		; $10(R0)

830C	259A		MOVE R5, $134
830E	8502		LBI R5, #$02
8310	05A6		OR R5, R10
8312	D558		MOVE R5, (R5)
8314	0C58		ADD R12, R5
8316	05CC		MHL R5, R12
8318	055A		ADDH R5, R5
831A	0C5D		MLH R12, R5
831C	01DE		GETB R13, $1
831E	0A74		MOVE R10, R7
8320	9A0F		CLR R10, #$0F
8322	97F0		CLR R7, #$F0
8324	0D7D		MLH R13, R7
8326	8800		LBI R8, #$00
8328	CA0B		SNZ R10
832A	0024		RET R2

832C	259A		MOVE R5, $134
832E	05A6		OR R5, R10
8330	D851		MOVE R8, (R5)+
8332	D558		MOVE R5, (R5)
8334	0D58		ADD R13, R5
8336	05DC		MHL R5, R13
8338	055A		ADDH R5, R5
833A	0D5D		MLH R13, R5
833C	055C		MHL R5, R5
833E	0858		ADD R8, R5
8340	0024		RET R2

8342	015E		GETB R5, $1
8344	2C9A		MOVE R12, $134
8346	0C46		OR R12, R4
8348	01DE		GETB R13, $1
834A	9C0F		CLR R12, #$0F
834C	0024		RET R2

834E	65D0		MOVB R5, (R13)+
8350	2C9A		MOVE R12, $134
8352	0C46		OR R12, R4
8354	6DD8		MOVB R13, (R13)
8356	9C0F		CLR R12, #$0F
8358	0024		RET R2

835A	21CA		MOVE R1, $194
835C	3182		MOVE $104, R1
835E	04B4		MOVE R4, R11
8360	8E0A		LBI R14, #$0A
8362	0EED		MLH R14, R14
8364	8E4E		LBI R14, #$4E
8366	8D0A		LBI R13, #$0A
8368	0DDD		MLH R13, R13
836A	8D44		LBI R13, #$44
836C	A01B		BRA $838A		; $1C(R0)

836E	8401		LBI R4, #$01
8370	8E0A		LBI R14, #$0A
8372	0EED		MLH R14, R14
8374	8E4E		LBI R14, #$4E
8376	8D0A		LBI R13, #$0A
8378	0DDD		MLH R13, R13
837A	8D44		LBI R13, #$44
837C	A00B		BRA $838A		; $0C(R0)

837E	8E0A		LBI R14, #$0A
8380	0EED		MLH R14, R14
8382	8E48		LBI R14, #$48
8384	8D0A		LBI R13, #$0A
8386	0DDD		MLH R13, R13
8388	8D40		LBI R13, #$40
838A	8300		LBI R3, #$00
838C	043D		MLH R4, R3
838E	54E1		MOVE (R14)+, R4
8390	21A3		MOVE R1, $146
8392	91F0		CLR R1, #$F0
8394	9F0F		CLR R15, #$0F
8396	0F16		OR R15, R1
8398	7FE0		MOVB (R14)+, R15
839A	2C53		MOVE R12, $A6
839C	E1CF		STAT R12, $1
839E	0CC8		ADD R12, R12
83A0	08CC		MHL R8, R12
83A2	B802		SET R8, #$02
83A4	78E0		MOVB (R14)+, R8
83A6	0CCD		MLH R12, R12
83A8	E1CF		STAT R12, $1
83AA	0CC8		ADD R12, R12
83AC	5CE8		MOVE (R14), R12
83AE	A003		BRA $83B4		; $04(R0)

83B0	0203		INC2 R2, R0
83B2	20C4		JMP ($0188)

83B4	D8D1		MOVE R8, (R13)+
83B6	048C		MHL R4, R8
83B8	0F44		MOVE R15, R4
83BA	9F0F		CLR R15, #$0F
83BC	94F0		CLR R4, #$F0
83BE	34A3		MOVE $146, R4
83C0	DCD8		MOVE R12, (R13)
83C2	E0CC		SHR R12
83C4	01CC		MHL R1, R12
83C6	018D		MLH R1, R8
83C8	E01C		SHR R1
83CA	0C1D		MLH R12, R1
83CC	2B53		MOVE R11, $A6
83CE	8B18		LBI R11, #$18
83D0	41B0		PUTB $1, (R11)+
83D2	41B8		PUTB $1, (R11)
83D4	0004		NOP
83D6	2082		JMP ($0104)

83D8	940F		CLR R4, #$0F
83DA	2C9A		MOVE R12, $134
83DC	0C46		OR R12, R4
83DE	63C8		MOVB R3, (R12)
83E0	0F34		MOVE R15, R3
83E2	93F0		CLR R3, #$F0
83E4	33A3		MOVE $146, R3
83E6	9FCF		CLR R15, #$CF
83E8	E0FC		SHR R15
83EA	E0FC		SHR R15
83EC	00F8		ADD R0, R15
83EE	8F80		LBI R15, #$80
83F0	2082		JMP ($0104)

83F2	8F40		LBI R15, #$40
83F4	2082		JMP ($0104)

83F6	8F20		LBI R15, #$20
83F8	2082		JMP ($0104)

83FA	8F10		LBI R15, #$10
83FC	2082		JMP ($0104)

83FE	8F80		LBI R15, #$80
8400	2082		JMP ($0104)

8402	8F40		LBI R15, #$40
8404	2082		JMP ($0104)

8406	8F20		LBI R15, #$20
8408	2082		JMP ($0104)

840A	8F10		LBI R15, #$10
840C	2082		JMP ($0104)

840E	8F10		LBI R15, #$10
8410	2AA3		MOVE R10, $146
8412	8108		LBI R1, #$08
8414	CA1E		SNBC R10, R1
8416	2082		JMP ($0104)

8418	8B08		LBI R11, #$08
841A	2182		MOVE R1, $104
841C	31CA		MOVE $194, R1
841E	8183		LBI R1, #$83
8420	011D		MLH R1, R1
8422	815A		LBI R1, #$5A
8424	0014		RET R1

8426	8100		LBI R1, #$00
8428	A013		BRA $843E		; $14(R0)

842A	8101		LBI R1, #$01
842C	CD1E		SNBC R13, R1
842E	A003		BRA $8434		; $04(R0)

8430	8138		LBI R1, #$38
8432	A009		BRA $843E		; $0A(R0)

8434	813C		LBI R1, #$3C
8436	A005		BRA $843E		; $06(R0)

8438	8132		LBI R1, #$32
843A	A001		BRA $843E		; $02(R0)

843C	8128		LBI R1, #$28
843E	E15F		STAT R5, $1
8440	E16F		STAT R6, $1
8442	0EDC		MHL R14, R13
8444	0E8D		MLH R14, R8
8446	E0EC		SHR R14
8448	E0DC		SHR R13
844A	2B53		MOVE R11, $A6
844C	8B1D		LBI R11, #$1D
844E	41B5		PUTB $1, (R11)--
8450	41B8		PUTB $1, (R11)
8452	0004		NOP
8454	0018		ADD R0, R1
8456	017E		GETB R7, $1
8458	077D		MLH R7, R7
845A	0004		NOP
845C	017E		GETB R7, $1
845E	F000		BRA $845F		; -> -$01(R0)

8460	018E		GETB R8, $1
8462	088D		MLH R8, R8
8464	0004		NOP
8466	018E		GETB R8, $1
8468	F000		BRA $8469		; -> -$01(R0)

846A	019E		GETB R9, $1
846C	099D		MLH R9, R9
846E	0004		NOP
8470	019E		GETB R9, $1
8472	F000		BRA $8473		; -> -$01(R0)

8474	01AE		GETB R10, $1
8476	0AAD		MLH R10, R10
8478	0004		NOP
847A	01AE		GETB R10, $1
847C	A015		BRA $8494		; $16(R0)

847E	017E		GETB R7, $1
8480	077D		MLH R7, R7
8482	0004		NOP
8484	017E		GETB R7, $1
8486	F000		BRA $8487		; -> -$01(R0)

8488	018E		GETB R8, $1
848A	088D		MLH R8, R8
848C	A003		BRA $8492		; $04(R0)

848E	011E		GETB R1, $1
8490	F000		BRA $8491		; -> -$01(R0)

8492	018E		GETB R8, $1
8494	8B0B		LBI R11, #$0B
8496	41B1		PUTB $1, (R11)++
8498	41B8		PUTB $1, (R11)
849A	0024		RET R2

849C	8701		LBI R7, #$01
849E	CD76		SBC R13, R7
84A0	8700		LBI R7, #$00
84A2	E15F		STAT R5, $1
84A4	E16F		STAT R6, $1
84A6	0EDC		MHL R14, R13
84A8	0E8D		MLH R14, R8
84AA	E0EC		SHR R14
84AC	E0DC		SHR R13
84AE	2B53		MOVE R11, $A6
84B0	8B1D		LBI R11, #$1D
84B2	41B5		PUTB $1, (R11)--
84B4	41B8		PUTB $1, (R11)
84B6	8B00		LBI R11, #$00
84B8	C70B		SNZ R7
84BA	01AE		GETB R10, $1
84BC	0004		NOP
84BE	0024		RET R2

84C0	0203		INC2 R2, R0
84C2	20C4		JMP ($0188)

84C4	03D4		MOVE R3, R13
84C6	3FCB		MOVE $196, R15
84C8	E15F		STAT R5, $1
84CA	055D		MLH R5, R5
84CC	E15F		STAT R5, $1
84CE	35CA		MOVE $194, R5
84D0	0203		INC2 R2, R0
84D2	2061		JMP ($00C2)

84D4	1104		CTRL $1, #$04
84D6	2FCB		MOVE R15, $196
84D8	8B01		LBI R11, #$01
84DA	0BBD		MLH R11, R11
84DC	8B94		LBI R11, #$94
84DE	41B0		PUTB $1, (R11)+
84E0	41B8		PUTB $1, (R11)
84E2	0004		NOP
84E4	2082		JMP ($0104)

84E6	BF08		SET R15, #$08
84E8	0203		INC2 R2, R0
84EA	20BE		JMP ($017C)

84EC	2182		MOVE R1, $104
84EE	318B		MOVE $116, R1
84F0	A005		BRA $84F8		; $06(R0)

84F2	0000		HALT
84F4	0000		HALT
84F6	A053		BRA $854C		; $54(R0)

84F8	8185		LBI R1, #$85
84FA	011D		MLH R1, R1
84FC	8130		LBI R1, #$30
84FE	3182		MOVE $104, R1
8500	E15F		STAT R5, $1
8502	055D		MLH R5, R5
8504	E15F		STAT R5, $1
8506	358A		MOVE $114, R5
8508	0EDC		MHL R14, R13
850A	0E8D		MLH R14, R8
850C	E0EC		SHR R14
850E	E0DC		SHR R13
8510	2B53		MOVE R11, $A6
8512	8B1D		LBI R11, #$1D
8514	41B5		PUTB $1, (R11)--
8516	41B8		PUTB $1, (R11)
8518	2283		MOVE R2, $106
851A	0004		NOP
851C	013E		GETB R3, $1
851E	0238		ADD R2, R3
8520	0238		ADD R2, R3
8522	014E		GETB R4, $1
8524	CC0B		SNZ R12
8526	D028		JMP (R2)
8528	BC03		SET R12, #$03
852A	61C8		MOVB R1, (R12)
852C	0416		OR R4, R1
852E	D028		JMP (R2)
8530	268A		MOVE R6, $114
8532	056C		MHL R5, R6
8534	C503		SZ R5
8536	A003		BRA $853C		; $04(R0)

8538	C60B		SNZ R6
853A	A007		BRA $8544		; $08(R0)

853C	2B53		MOVE R11, $A6
853E	8B0B		LBI R11, #$0B
8540	41B1		PUTB $1, (R11)++
8542	41B8		PUTB $1, (R11)
8544	218B		MOVE R1, $116
8546	3182		MOVE $104, R1
8548	9F08		CLR R15, #$08
854A	2082		JMP ($0104)

854C	2182		MOVE R1, $104
854E	318B		MOVE $116, R1
8550	8185		LBI R1, #$85
8552	011D		MLH R1, R1
8554	8186		LBI R1, #$86
8556	3182		MOVE $104, R1
8558	E15F		STAT R5, $1
855A	055D		MLH R5, R5
855C	E15F		STAT R5, $1
855E	358A		MOVE $114, R5
8560	21D2		MOVE R1, $1A4
8562	31BE		MOVE $17C, R1
8564	21D3		MOVE R1, $1A6
8566	31BF		MOVE $17E, R1
8568	21D4		MOVE R1, $1A8
856A	31C3		MOVE $186, R1
856C	21D5		MOVE R1, $1AA
856E	31C7		MOVE $18E, R1
8570	D4D1		MOVE R4, (R13)+
8572	034C		MHL R3, R4
8574	2283		MOVE R2, $106
8576	0238		ADD R2, R3
8578	0238		ADD R2, R3
857A	CC0B		SNZ R12
857C	D028		JMP (R2)
857E	BC03		SET R12, #$03
8580	61C8		MOVB R1, (R12)
8582	0416		OR R4, R1
8584	D028		JMP (R2)
8586	21D6		MOVE R1, $1AC
8588	31BE		MOVE $17C, R1
858A	21D7		MOVE R1, $1AE
858C	31BF		MOVE $17E, R1
858E	21DA		MOVE R1, $1B4
8590	31C3		MOVE $186, R1
8592	21DB		MOVE R1, $1B6
8594	31C7		MOVE $18E, R1
8596	218B		MOVE R1, $116
8598	3182		MOVE $104, R1
859A	9F08		CLR R15, #$08
859C	2082		JMP ($0104)

859E	0203		INC2 R2, R0
85A0	20BE		JMP ($017C)

85A2	0203		INC2 R2, R0
85A4	20AF		JMP ($015E)

85A6	A007		BRA $85B0		; $08(R0)

85A8	0203		INC2 R2, R0
85AA	20BC		JMP ($0178)

85AC	D7D1		MOVE R7, (R13)+
85AE	D8D8		MOVE R8, (R13)
85B0	D3C1		MOVE R3, (R12)+
85B2	D4C8		MOVE R4, (R12)
85B4	014C		MHL R1, R4
85B6	048D		MLH R4, R8
85B8	044A		ADDH R4, R4
85BA	084C		MHL R8, R4
85BC	088A		ADDH R8, R8
85BE	0818		ADD R8, R1
85C0	048D		MLH R4, R8
85C2	083A		ADDH R8, R3
85C4	0878		ADD R8, R7
85C6	078C		MHL R7, R8
85C8	077A		ADDH R7, R7
85CA	033C		MHL R3, R3
85CC	0738		ADD R7, R3
85CE	087D		MLH R8, R7
85D0	54C5		MOVE (R12)-, R4
85D2	58C8		MOVE (R12), R8
85D4	C403		SZ R4
85D6	A015		BRA $85EE		; $16(R0)

85D8	C803		SZ R8
85DA	A011		BRA $85EE		; $12(R0)

85DC	C703		SZ R7
85DE	A00D		BRA $85EE		; $0E(R0)

85E0	014C		MHL R1, R4
85E2	C103		SZ R1
85E4	A007		BRA $85EE		; $08(R0)

85E6	077C		MHL R7, R7
85E8	C70B		SNZ R7
85EA	209B		JMP ($0136)

85EC	209D		JMP ($013A)

85EE	077C		MHL R7, R7
85F0	C70B		SNZ R7
85F2	209C		JMP ($0138)

85F4	209E		JMP ($013C)

85F6	0203		INC2 R2, R0
85F8	20BE		JMP ($017C)

85FA	0203		INC2 R2, R0
85FC	20AE		JMP ($015C)

85FE	A005		BRA $8606		; $06(R0)

8600	0000		HALT
8602	0000		HALT
8604	D8D8		MOVE R8, (R13)
8606	2753		MOVE R7, $A6
8608	8180		LBI R1, #$80
860A	C81F		SNBSH R8, R1
860C	F700		SUB R7, #$01
860E	A011		BRA $8622		; $12(R0)

8610	0203		INC2 R2, R0
8612	20BE		JMP ($017C)

8614	0203		INC2 R2, R0
8616	20AF		JMP ($015E)

8618	A007		BRA $8622		; $08(R0)

861A	0203		INC2 R2, R0
861C	20BC		JMP ($0178)

861E	D7D1		MOVE R7, (R13)+
8620	D8D8		MOVE R8, (R13)
8622	D3C1		MOVE R3, (R12)+
8624	D4C8		MOVE R4, (R12)
8626	093C		MHL R9, R3
8628	0A7C		MHL R10, R7
862A	997F		CLR R9, #$7F
862C	9A7F		CLR R10, #$7F
862E	014C		MHL R1, R4
8630	048D		MLH R4, R8
8632	044A		ADDH R4, R4
8634	084C		MHL R8, R4
8636	088A		ADDH R8, R8
8638	0818		ADD R8, R1
863A	048D		MLH R4, R8
863C	083A		ADDH R8, R3
863E	0878		ADD R8, R7
8640	078C		MHL R7, R8
8642	077A		ADDH R7, R7
8644	033C		MHL R3, R3
8646	0738		ADD R7, R3
8648	087D		MLH R8, R7
864A	54C5		MOVE (R12)-, R4
864C	58C8		MOVE (R12), R8
864E	0374		MOVE R3, R7
8650	937F		CLR R3, #$7F
8652	C9A2		SE R9, R10
8654	A003		BRA $865A		; $04(R0)

8656	C392		SE R3, R9
8658	209F		JMP ($013E)

865A	C403		SZ R4
865C	A00D		BRA $866C		; $0E(R0)

865E	C803		SZ R8
8660	A009		BRA $866C		; $0A(R0)

8662	C703		SZ R7
8664	A005		BRA $866C		; $06(R0)

8666	014C		MHL R1, R4
8668	C10B		SNZ R1
866A	209B		JMP ($0136)

866C	C303		SZ R3
866E	209C		JMP ($0138)

8670	209D		JMP ($013A)

8672	0203		INC2 R2, R0
8674	20BE		JMP ($017C)

8676	0203		INC2 R2, R0
8678	20AF		JMP ($015E)

867A	A007		BRA $8684		; $08(R0)

867C	0203		INC2 R2, R0
867E	20BC		JMP ($0178)

8680	D7D1		MOVE R7, (R13)+
8682	D8D8		MOVE R8, (R13)
8684	D3C1		MOVE R3, (R12)+
8686	D4C8		MOVE R4, (R12)
8688	8FFF		LBI R15, #$FF
868A	2E53		MOVE R14, $A6
868C	0E46		OR R14, R4
868E	0E89		SUB R14, R8
8690	8400		LBI R4, #$00
8692	04E6		OR R4, R14
8694	0E4C		MHL R14, R4
8696	CEFF		SNBSH R14, R15
8698	0EEB		ADDH2 R14, R14
869A	088C		MHL R8, R8
869C	0E89		SUB R14, R8
869E	04ED		MLH R4, R14
86A0	8E00		LBI R14, #$00
86A2	0E36		OR R14, R3
86A4	CEFF		SNBSH R14, R15
86A6	0EEB		ADDH2 R14, R14
86A8	0E79		SUB R14, R7
86AA	8300		LBI R3, #$00
86AC	03E6		OR R3, R14
86AE	0E3C		MHL R14, R3
86B0	CEFF		SNBSH R14, R15
86B2	0EEB		ADDH2 R14, R14
86B4	077C		MHL R7, R7
86B6	0E79		SUB R14, R7
86B8	03ED		MLH R3, R14
86BA	54C5		MOVE (R12)-, R4
86BC	53C8		MOVE (R12), R3
86BE	C403		SZ R4
86C0	A00D		BRA $86D0		; $0E(R0)

86C2	014C		MHL R1, R4
86C4	C103		SZ R1
86C6	A007		BRA $86D0		; $08(R0)

86C8	C303		SZ R3
86CA	A003		BRA $86D0		; $04(R0)

86CC	CE0B		SNZ R14
86CE	209D		JMP ($013A)

86D0	CEFF		SNBSH R14, R15
86D2	209C		JMP ($0138)

86D4	209E		JMP ($013C)

86D6	0203		INC2 R2, R0
86D8	20BE		JMP ($017C)

86DA	0203		INC2 R2, R0
86DC	20AE		JMP ($015C)

86DE	A005		BRA $86E6		; $06(R0)

86E0	0000		HALT
86E2	0000		HALT
86E4	D8D8		MOVE R8, (R13)
86E6	2753		MOVE R7, $A6
86E8	8180		LBI R1, #$80
86EA	C81F		SNBSH R8, R1
86EC	F700		SUB R7, #$01
86EE	A011		BRA $8702		; $12(R0)

86F0	0203		INC2 R2, R0
86F2	20BE		JMP ($017C)

86F4	0203		INC2 R2, R0
86F6	20AF		JMP ($015E)

86F8	A007		BRA $8702		; $08(R0)

86FA	0203		INC2 R2, R0
86FC	20BC		JMP ($0178)

86FE	D7D1		MOVE R7, (R13)+
8700	D8D8		MOVE R8, (R13)
8702	D3C1		MOVE R3, (R12)+
8704	D4C8		MOVE R4, (R12)
8706	093C		MHL R9, R3
8708	0A7C		MHL R10, R7
870A	997F		CLR R9, #$7F
870C	9A7F		CLR R10, #$7F
870E	8FFF		LBI R15, #$FF
8710	2E53		MOVE R14, $A6
8712	0E46		OR R14, R4
8714	0E89		SUB R14, R8
8716	8400		LBI R4, #$00
8718	04E6		OR R4, R14
871A	0E4C		MHL R14, R4
871C	CEFF		SNBSH R14, R15
871E	0EEB		ADDH2 R14, R14
8720	088C		MHL R8, R8
8722	0E89		SUB R14, R8
8724	04ED		MLH R4, R14
8726	8E00		LBI R14, #$00
8728	0E36		OR R14, R3
872A	CEFF		SNBSH R14, R15
872C	0EEB		ADDH2 R14, R14
872E	0E79		SUB R14, R7
8730	8300		LBI R3, #$00
8732	03E6		OR R3, R14
8734	0E3C		MHL R14, R3
8736	CEFF		SNBSH R14, R15
8738	0EEB		ADDH2 R14, R14
873A	077C		MHL R7, R7
873C	0E79		SUB R14, R7
873E	03ED		MLH R3, R14
8740	54C5		MOVE (R12)-, R4
8742	53C8		MOVE (R12), R3
8744	9E7F		CLR R14, #$7F
8746	C9AA		SNE R9, R10
8748	A003		BRA $874E		; $04(R0)

874A	C9E2		SE R9, R14
874C	209F		JMP ($013E)

874E	C403		SZ R4
8750	A00F		BRA $8762		; $10(R0)

8752	014C		MHL R1, R4
8754	C103		SZ R1
8756	A009		BRA $8762		; $0A(R0)

8758	C303		SZ R3
875A	A005		BRA $8762		; $06(R0)

875C	013C		MHL R1, R3
875E	C10B		SNZ R1
8760	209B		JMP ($0136)

8762	CE03		SZ R14
8764	209C		JMP ($0138)

8766	209D		JMP ($013A)

8768	016E		GETB R6, $1
876A	C460		SLE R4, R6
876C	A01B		BRA $878A		; $1C(R0)

876E	C462		SE R4, R6
8770	A01D		BRA $8790		; $1E(R0)

8772	017E		GETB R7, $1
8774	C572		SE R5, R7
8776	F00F		BRA $8768		; -> -$10(R0)

8778	41C1		PUTB $1, (R12)++
877A	41C8		PUTB $1, (R12)
877C	21E5		MOVE R1, $1CA
877E	3182		MOVE $104, R1
8780	8404		LBI R4, #$04
8782	8183		LBI R1, #$83
8784	011D		MLH R1, R1
8786	817E		LBI R1, #$7E
8788	0014		RET R1

878A	011E		GETB R1, $1
878C	0004		NOP
878E	F027		BRA $8768		; -> -$28(R0)

8790	41C1		PUTB $1, (R12)++
8792	41C8		PUTB $1, (R12)
8794	0004		NOP
8796	20E5		JMP ($01CA)

8798	0000		HALT
879A	0000		HALT
879C	0000		HALT
879E	0000		HALT
87A0	0000		HALT
87A2	0000		HALT
87A4	0000		HALT
87A6	0000		HALT
87A8	0000		HALT
87AA	0000		HALT
87AC	0000		HALT
87AE	0000		HALT
87B0	0000		HALT
87B2	0000		HALT
87B4	0000		HALT
87B6	0000		HALT
87B8	0000		HALT
87BA	0000		HALT
87BC	0000		HALT
87BE	0000		HALT
87C0	0000		HALT
87C2	0000		HALT
87C4	0000		HALT
87C6	0000		HALT
87C8	0000		HALT
87CA	0000		HALT
87CC	0000		HALT
87CE	0000		HALT
87D0	0000		HALT
87D2	0000		HALT
87D4	0000		HALT
87D6	0000		HALT
87D8	0000		HALT
87DA	0000		HALT
87DC	0000		HALT
87DE	0000		HALT
87E0	0000		HALT
87E2	0000		HALT
87E4	0000		HALT
87E6	0000		HALT
87E8	0000		HALT
87EA	0000		HALT
87EC	0000		HALT
87EE	0000		HALT
87F0	0000		HALT
87F2	0000		HALT
87F4	0000		HALT
87F6	0000		HALT
87F8	0000		HALT
87FA	0000		HALT
87FC	0000		HALT
87FE	0000		HALT
8800	0203		INC2 R2, R0
8802	20BE		JMP ($017C)

8804	0203		INC2 R2, R0
8806	20AE		JMP ($015C)

8808	A005		BRA $8810		; $06(R0)

880A	0000		HALT
880C	0000		HALT
880E	D8D8		MOVE R8, (R13)
8810	2753		MOVE R7, $A6
8812	8180		LBI R1, #$80
8814	C81F		SNBSH R8, R1
8816	F700		SUB R7, #$01
8818	A011		BRA $882C		; $12(R0)

881A	0203		INC2 R2, R0
881C	20BE		JMP ($017C)

881E	0203		INC2 R2, R0
8820	20AF		JMP ($015E)

8822	A007		BRA $882C		; $08(R0)

8824	0203		INC2 R2, R0
8826	20BC		JMP ($0178)

8828	D7D1		MOVE R7, (R13)+
882A	D8D8		MOVE R8, (R13)
882C	D3C1		MOVE R3, (R12)+
882E	D4C8		MOVE R4, (R12)
8830	053C		MHL R5, R3
8832	097C		MHL R9, R7
8834	957F		CLR R5, #$7F
8836	997F		CLR R9, #$7F
8838	C59A		SNE R5, R9
883A	A01B		BRA $8858		; $1C(R0)

883C	C503		SZ R5
883E	209C		JMP ($0138)

8840	209D		JMP ($013A)

8842	0203		INC2 R2, R0
8844	20BE		JMP ($017C)

8846	0203		INC2 R2, R0
8848	20AF		JMP ($015E)

884A	A007		BRA $8854		; $08(R0)

884C	0203		INC2 R2, R0
884E	20BC		JMP ($0178)

8850	D7D1		MOVE R7, (R13)+
8852	D8D8		MOVE R8, (R13)
8854	D3C1		MOVE R3, (R12)+
8856	D4C8		MOVE R4, (R12)
8858	053C		MHL R5, R3
885A	097C		MHL R9, R7
885C	C59A		SNE R5, R9
885E	A005		BRA $8866		; $06(R0)

8860	C598		SGT R5, R9
8862	209C		JMP ($0138)

8864	209D		JMP ($013A)

8866	C37A		SNE R3, R7
8868	A005		BRA $8870		; $06(R0)

886A	C378		SGT R3, R7
886C	209C		JMP ($0138)

886E	209D		JMP ($013A)

8870	064C		MHL R6, R4
8872	0A8C		MHL R10, R8
8874	C6AA		SNE R6, R10
8876	A005		BRA $887E		; $06(R0)

8878	C6A8		SGT R6, R10
887A	209C		JMP ($0138)

887C	209D		JMP ($013A)

887E	C48A		SNE R4, R8
8880	209B		JMP ($0136)

8882	C488		SGT R4, R8
8884	209C		JMP ($0138)

8886	209D		JMP ($013A)

8888	0203		INC2 R2, R0
888A	20C4		JMP ($0188)

888C	C80B		SNZ R8
888E	A005		BRA $8896		; $06(R0)

8890	0203		INC2 R2, R0
8892	20AD		JMP ($015A)

8894	A001		BRA $8898		; $02(R0)

8896	68D8		MOVB R8, (R13)
8898	C84A		SNE R8, R4
889A	209B		JMP ($0136)

889C	C848		SGT R8, R4
889E	209C		JMP ($0138)

88A0	209D		JMP ($013A)

88A2	0203		INC2 R2, R0
88A4	20C5		JMP ($018A)

88A6	C803		SZ R8
88A8	A019		BRA $88C4		; $1A(R0)

88AA	C903		SZ R9
88AC	A03D		BRA $88EC		; $3E(R0)

88AE	6AD0		MOVB R10, (R13)+
88B0	63C0		MOVB R3, (R12)+
88B2	C3A2		SE R3, R10
88B4	A007		BRA $88BE		; $08(R0)

88B6	C40B		SNZ R4
88B8	209B		JMP ($0136)

88BA	F400		SUB R4, #$01
88BC	F00F		BRA $88AE		; -> -$10(R0)

88BE	C3A8		SGT R3, R10
88C0	209C		JMP ($0138)

88C2	209D		JMP ($013A)

88C4	0203		INC2 R2, R0
88C6	20AB		JMP ($0156)

88C8	2B53		MOVE R11, $A6
88CA	01AE		GETB R10, $1
88CC	63C0		MOVB R3, (R12)+
88CE	C3A2		SE R3, R10
88D0	A00D		BRA $88E0		; $0E(R0)

88D2	F400		SUB R4, #$01
88D4	C404		SS R4
88D6	F00D		BRA $88CA		; -> -$0E(R0)

88D8	8B0B		LBI R11, #$0B
88DA	41B1		PUTB $1, (R11)++
88DC	41B8		PUTB $1, (R11)
88DE	209B		JMP ($0136)

88E0	8B0B		LBI R11, #$0B
88E2	41B1		PUTB $1, (R11)++
88E4	41B8		PUTB $1, (R11)
88E6	C3A8		SGT R3, R10
88E8	209C		JMP ($0138)

88EA	209D		JMP ($013A)

88EC	3DCB		MOVE $196, R13
88EE	0894		MOVE R8, R9
88F0	0DC4		MOVE R13, R12
88F2	0203		INC2 R2, R0
88F4	20AB		JMP ($0156)

88F6	2B53		MOVE R11, $A6
88F8	2ECB		MOVE R14, $196
88FA	013E		GETB R3, $1
88FC	6AE0		MOVB R10, (R14)+
88FE	C3A2		SE R3, R10
8900	A00D		BRA $8910		; $0E(R0)

8902	F400		SUB R4, #$01
8904	C404		SS R4
8906	F00D		BRA $88FA		; -> -$0E(R0)

8908	8B0B		LBI R11, #$0B
890A	41B1		PUTB $1, (R11)++
890C	41B8		PUTB $1, (R11)
890E	209B		JMP ($0136)

8910	8B0B		LBI R11, #$0B
8912	41B1		PUTB $1, (R11)++
8914	41B8		PUTB $1, (R11)
8916	C3A8		SGT R3, R10
8918	209C		JMP ($0138)

891A	209D		JMP ($013A)

891C	0203		INC2 R2, R0
891E	20BE		JMP ($017C)

8920	0203		INC2 R2, R0
8922	20AE		JMP ($015C)

8924	A005		BRA $892C		; $06(R0)

8926	0000		HALT
8928	0000		HALT
892A	D8D8		MOVE R8, (R13)
892C	2753		MOVE R7, $A6
892E	8180		LBI R1, #$80
8930	C81F		SNBSH R8, R1
8932	F700		SUB R7, #$01
8934	57C1		MOVE (R12)+, R7
8936	58C8		MOVE (R12), R8
8938	2082		JMP ($0104)

893A	0203		INC2 R2, R0
893C	20BF		JMP ($017E)

893E	0203		INC2 R2, R0
8940	20AC		JMP ($0158)

8942	A00B		BRA $8950		; $0C(R0)

8944	0203		INC2 R2, R0
8946	20BD		JMP ($017A)

8948	D7D1		MOVE R7, (R13)+
894A	D8D1		MOVE R8, (R13)+
894C	D9D1		MOVE R9, (R13)+
894E	DAD8		MOVE R10, (R13)
8950	57C1		MOVE (R12)+, R7
8952	58C1		MOVE (R12)+, R8
8954	59C1		MOVE (R12)+, R9
8956	5AC8		MOVE (R12), R10
8958	2082		JMP ($0104)

895A	0203		INC2 R2, R0
895C	20BE		JMP ($017C)

895E	0203		INC2 R2, R0
8960	20AF		JMP ($015E)

8962	A007		BRA $896C		; $08(R0)

8964	0203		INC2 R2, R0
8966	20BC		JMP ($0178)

8968	D7D1		MOVE R7, (R13)+
896A	D8D1		MOVE R8, (R13)+
896C	57C1		MOVE (R12)+, R7
896E	58C8		MOVE (R12), R8
8970	2082		JMP ($0104)

8972	0203		INC2 R2, R0
8974	20BF		JMP ($017E)

8976	0203		INC2 R2, R0
8978	20AF		JMP ($015E)

897A	A007		BRA $8984		; $08(R0)

897C	0203		INC2 R2, R0
897E	20BD		JMP ($017A)

8980	D7D1		MOVE R7, (R13)+
8982	D8D1		MOVE R8, (R13)+
8984	57C1		MOVE (R12)+, R7
8986	58C8		MOVE (R12), R8
8988	2082		JMP ($0104)

898A	0203		INC2 R2, R0
898C	20BD		JMP ($017A)

898E	D7D1		MOVE R7, (R13)+
8990	017C		MHL R1, R7
8992	9180		CLR R1, #$80
8994	071D		MLH R7, R1
8996	A021		BRA $89BA		; $22(R0)

8998	0203		INC2 R2, R0
899A	20BD		JMP ($017A)

899C	D7D1		MOVE R7, (R13)+
899E	017C		MHL R1, R7
89A0	B180		SET R1, #$80
89A2	071D		MLH R7, R1
89A4	A013		BRA $89BA		; $14(R0)

89A6	0203		INC2 R2, R0
89A8	20BD		JMP ($017A)

89AA	D7D1		MOVE R7, (R13)+
89AC	017C		MHL R1, R7
89AE	A17F		ADD R1, #$80
89B0	071D		MLH R7, R1
89B2	A005		BRA $89BA		; $06(R0)

89B4	0203		INC2 R2, R0
89B6	20BD		JMP ($017A)

89B8	D7D1		MOVE R7, (R13)+
89BA	57C1		MOVE (R12)+, R7
89BC	D8D1		MOVE R8, (R13)+
89BE	58C1		MOVE (R12)+, R8
89C0	8410		LBI R4, #$10
89C2	C346		SBC R3, R4
89C4	A007		BRA $89CE		; $08(R0)

89C6	D9D1		MOVE R9, (R13)+
89C8	59C1		MOVE (R12)+, R9
89CA	DAD8		MOVE R10, (R13)
89CC	5AC8		MOVE (R12), R10
89CE	C703		SZ R7
89D0	A021		BRA $89F4		; $22(R0)

89D2	C803		SZ R8
89D4	A01D		BRA $89F4		; $1E(R0)

89D6	088C		MHL R8, R8
89D8	C803		SZ R8
89DA	A017		BRA $89F4		; $18(R0)

89DC	C346		SBC R3, R4
89DE	209B		JMP ($0136)

89E0	C903		SZ R9
89E2	A00F		BRA $89F4		; $10(R0)

89E4	CA03		SZ R10
89E6	A00B		BRA $89F4		; $0C(R0)

89E8	099C		MHL R9, R9
89EA	C903		SZ R9
89EC	A005		BRA $89F4		; $06(R0)

89EE	0AAC		MHL R10, R10
89F0	CA0B		SNZ R10
89F2	209B		JMP ($0136)

89F4	8180		LBI R1, #$80
89F6	C71F		SNBSH R7, R1
89F8	209C		JMP ($0138)

89FA	209D		JMP ($013A)

89FC	0203		INC2 R2, R0
89FE	20BC		JMP ($0178)

8A00	D3D1		MOVE R3, (R13)+
8A02	8180		LBI R1, #$80
8A04	C317		SBSH R3, R1
8A06	A053		BRA $8A5C		; $54(R0)

8A08	A013		BRA $8A1E		; $14(R0)

8A0A	0203		INC2 R2, R0
8A0C	20BC		JMP ($0178)

8A0E	D3D1		MOVE R3, (R13)+
8A10	8180		LBI R1, #$80
8A12	C317		SBSH R3, R1
8A14	A007		BRA $8A1E		; $08(R0)

8A16	A043		BRA $8A5C		; $44(R0)

8A18	0203		INC2 R2, R0
8A1A	20BC		JMP ($0178)

8A1C	D3D1		MOVE R3, (R13)+
8A1E	D4D8		MOVE R4, (R13)
8A20	81FF		LBI R1, #$FF
8A22	0417		XOR R4, R1
8A24	064C		MHL R6, R4
8A26	0617		XOR R6, R1
8A28	046D		MLH R4, R6
8A2A	0317		XOR R3, R1
8A2C	053C		MHL R5, R3
8A2E	0517		XOR R5, R1
8A30	035D		MLH R3, R5
8A32	A400		ADD R4, #$01
8A34	C403		SZ R4
8A36	A03F		BRA $8A78		; $40(R0)

8A38	064C		MHL R6, R4
8A3A	C603		SZ R6
8A3C	A039		BRA $8A78		; $3A(R0)

8A3E	A300		ADD R3, #$01
8A40	C303		SZ R3
8A42	A033		BRA $8A78		; $34(R0)

8A44	053C		MHL R5, R3
8A46	C50B		SNZ R5
8A48	A027		BRA $8A72		; $28(R0)

8A4A	8180		LBI R1, #$80
8A4C	C512		SE R5, R1
8A4E	A027		BRA $8A78		; $28(R0)

8A50	53C1		MOVE (R12)+, R3
8A52	54C8		MOVE (R12), R4
8A54	209F		JMP ($013E)

8A56	0203		INC2 R2, R0
8A58	20BC		JMP ($0178)

8A5A	D3D1		MOVE R3, (R13)+
8A5C	D4D8		MOVE R4, (R13)
8A5E	C303		SZ R3
8A60	A015		BRA $8A78		; $16(R0)

8A62	053C		MHL R5, R3
8A64	C503		SZ R5
8A66	A00F		BRA $8A78		; $10(R0)

8A68	C403		SZ R4
8A6A	A00B		BRA $8A78		; $0C(R0)

8A6C	064C		MHL R6, R4
8A6E	C603		SZ R6
8A70	A005		BRA $8A78		; $06(R0)

8A72	53C1		MOVE (R12)+, R3
8A74	54C8		MOVE (R12), R4
8A76	209B		JMP ($0136)

8A78	53C1		MOVE (R12)+, R3
8A7A	54C8		MOVE (R12), R4
8A7C	8180		LBI R1, #$80
8A7E	C31F		SNBSH R3, R1
8A80	209C		JMP ($0138)

8A82	209D		JMP ($013A)

8A84	0203		INC2 R2, R0
8A86	20BE		JMP ($017C)

8A88	A007		BRA $8A92		; $08(R0)

8A8A	0000		HALT
8A8C	0000		HALT
8A8E	0000		HALT
8A90	0000		HALT
8A92	8100		LBI R1, #$00
8A94	081D		MLH R8, R1
8A96	58C1		MOVE (R12)+, R8
8A98	5DC5		MOVE (R12)-, R13
8A9A	2082		JMP ($0104)

8A9C	0203		INC2 R2, R0
8A9E	20BE		JMP ($017C)

8AA0	0203		INC2 R2, R0
8AA2	20AD		JMP ($015A)

8AA4	A005		BRA $8AAC		; $06(R0)

8AA6	0000		HALT
8AA8	0000		HALT
8AAA	68D8		MOVB R8, (R13)
8AAC	BC03		SET R12, #$03
8AAE	78C8		MOVB (R12), R8
8AB0	2082		JMP ($0104)

8AB2	0203		INC2 R2, R0
8AB4	20C4		JMP ($0188)

8AB6	0944		MOVE R9, R4
8AB8	E09F		SWAP R9
8ABA	940F		CLR R4, #$0F
8ABC	990F		CLR R9, #$0F
8ABE	C803		SZ R8
8AC0	A013		BRA $8AD6		; $14(R0)

8AC2	2C9A		MOVE R12, $134
8AC4	0C46		OR R12, R4
8AC6	D3D1		MOVE R3, (R13)+
8AC8	53C1		MOVE (R12)+, R3
8ACA	D3D1		MOVE R3, (R13)+
8ACC	53C8		MOVE (R12), R3
8ACE	C49A		SNE R4, R9
8AD0	2082		JMP ($0104)

8AD2	A40F		ADD R4, #$10
8AD4	F013		BRA $8AC2		; -> -$14(R0)

8AD6	0203		INC2 R2, R0
8AD8	20AB		JMP ($0156)

8ADA	017E		GETB R7, $1
8ADC	2C9A		MOVE R12, $134
8ADE	077D		MLH R7, R7
8AE0	017E		GETB R7, $1
8AE2	0C46		OR R12, R4
8AE4	57C1		MOVE (R12)+, R7
8AE6	018E		GETB R8, $1
8AE8	088D		MLH R8, R8
8AEA	0004		NOP
8AEC	018E		GETB R8, $1
8AEE	58C1		MOVE (R12)+, R8
8AF0	C49A		SNE R4, R9
8AF2	A003		BRA $8AF8		; $04(R0)

8AF4	A40F		ADD R4, #$10
8AF6	F01D		BRA $8ADA		; -> -$1E(R0)

8AF8	8B0B		LBI R11, #$0B
8AFA	41B1		PUTB $1, (R11)++
8AFC	41B8		PUTB $1, (R11)
8AFE	0004		NOP
8B00	2082		JMP ($0104)

8B02	0203		INC2 R2, R0
8B04	20BE		JMP ($017C)

8B06	8183		LBI R1, #$83
8B08	011D		MLH R1, R1
8B0A	816E		LBI R1, #$6E
8B0C	0014		RET R1

8B0E	0000		HALT
8B10	BC02		SET R12, #$02
8B12	D3C8		MOVE R3, (R12)
8B14	53D8		MOVE (R13), R3
8B16	2082		JMP ($0104)

8B18	0203		INC2 R2, R0
8B1A	20BF		JMP ($017E)

8B1C	8183		LBI R1, #$83
8B1E	011D		MLH R1, R1
8B20	816E		LBI R1, #$6E
8B22	0014		RET R1

8B24	0000		HALT
8B26	D3C1		MOVE R3, (R12)+
8B28	53D1		MOVE (R13)+, R3
8B2A	D3C1		MOVE R3, (R12)+
8B2C	53D1		MOVE (R13)+, R3
8B2E	D3C1		MOVE R3, (R12)+
8B30	53D1		MOVE (R13)+, R3
8B32	D3C8		MOVE R3, (R12)
8B34	53D8		MOVE (R13), R3
8B36	2082		JMP ($0104)

8B38	0203		INC2 R2, R0
8B3A	20BF		JMP ($017E)

8B3C	8183		LBI R1, #$83
8B3E	011D		MLH R1, R1
8B40	816E		LBI R1, #$6E
8B42	0014		RET R1

8B44	0000		HALT
8B46	D3C1		MOVE R3, (R12)+
8B48	53D1		MOVE (R13)+, R3
8B4A	D3C8		MOVE R3, (R12)
8B4C	53D8		MOVE (R13), R3
8B4E	2082		JMP ($0104)

8B50	0203		INC2 R2, R0
8B52	20BE		JMP ($017C)

8B54	8183		LBI R1, #$83
8B56	011D		MLH R1, R1
8B58	816E		LBI R1, #$6E
8B5A	0014		RET R1

8B5C	0000		HALT
8B5E	D3C1		MOVE R3, (R12)+
8B60	53D1		MOVE (R13)+, R3
8B62	D3C8		MOVE R3, (R12)
8B64	53D8		MOVE (R13), R3
8B66	2082		JMP ($0104)

8B68	0203		INC2 R2, R0
8B6A	20BE		JMP ($017C)

8B6C	8183		LBI R1, #$83
8B6E	011D		MLH R1, R1
8B70	816E		LBI R1, #$6E
8B72	0014		RET R1

8B74	0000		HALT
8B76	BC03		SET R12, #$03
8B78	63C8		MOVB R3, (R12)
8B7A	73D8		MOVB (R13), R3
8B7C	2082		JMP ($0104)

8B7E	0203		INC2 R2, R0
8B80	20C4		JMP ($0188)

8B82	0544		MOVE R5, R4
8B84	E05F		SWAP R5
8B86	940F		CLR R4, #$0F
8B88	950F		CLR R5, #$0F
8B8A	2C9A		MOVE R12, $134
8B8C	0C46		OR R12, R4
8B8E	D3C1		MOVE R3, (R12)+
8B90	53D1		MOVE (R13)+, R3
8B92	D3C8		MOVE R3, (R12)
8B94	53D1		MOVE (R13)+, R3
8B96	C45A		SNE R4, R5
8B98	2082		JMP ($0104)

8B9A	A40F		ADD R4, #$10
8B9C	F013		BRA $8B8A		; -> -$14(R0)

8B9E	0203		INC2 R2, R0
8BA0	20C7		JMP ($018E)

8BA2	A005		BRA $8BAA		; $06(R0)

8BA4	2C9A		MOVE R12, $134
8BA6	0C46		OR R12, R4
8BA8	9C0F		CLR R12, #$0F
8BAA	D9C1		MOVE R9, (R12)+
8BAC	DAC8		MOVE R10, (R12)
8BAE	FA00		SUB R10, #$01
8BB0	5AC5		MOVE (R12)-, R10
8BB2	CA03		SZ R10
8BB4	A011		BRA $8BC8		; $12(R0)

8BB6	0AAC		MHL R10, R10
8BB8	CA03		SZ R10
8BBA	A019		BRA $8BD6		; $1A(R0)

8BBC	C903		SZ R9
8BBE	A015		BRA $8BD6		; $16(R0)

8BC0	099C		MHL R9, R9
8BC2	C903		SZ R9
8BC4	A00F		BRA $8BD6		; $10(R0)

8BC6	2082		JMP ($0104)

8BC8	CA04		SS R10
8BCA	A009		BRA $8BD6		; $0A(R0)

8BCC	0AAC		MHL R10, R10
8BCE	CA04		SS R10
8BD0	A003		BRA $8BD6		; $04(R0)

8BD2	F900		SUB R9, #$01
8BD4	59C8		MOVE (R12), R9
8BD6	8140		LBI R1, #$40
8BD8	C31E		SNBC R3, R1
8BDA	A00F		BRA $8BEC		; $10(R0)

8BDC	0203		INC2 R2, R0
8BDE	20C2		JMP ($0184)

8BE0	A09B		BRA $8C7E		; $9C(R0)

8BE2	0000		HALT
8BE4	0000		HALT
8BE6	0000		HALT
8BE8	0000		HALT
8BEA	A091		BRA $8C7E		; $92(R0)

8BEC	94F0		CLR R4, #$F0
8BEE	C40B		SNZ R4
8BF0	2082		JMP ($0104)

8BF2	E04F		SWAP R4
8BF4	2D9A		MOVE R13, $134
8BF6	0D46		OR R13, R4
8BF8	D8D1		MOVE R8, (R13)+
8BFA	DDD8		MOVE R13, (R13)
8BFC	A07F		BRA $8C7E		; $80(R0)

8BFE	0203		INC2 R2, R0
8C00	20BE		JMP ($017C)

8C02	84FF		LBI R4, #$FF
8C04	8180		LBI R1, #$80
8C06	A01D		BRA $8C26		; $1E(R0)

8C08	0000		HALT
8C0A	0000		HALT
8C0C	84FF		LBI R4, #$FF
8C0E	8180		LBI R1, #$80
8C10	A013		BRA $8C26		; $14(R0)

8C12	2C9A		MOVE R12, $134
8C14	0C46		OR R12, R4
8C16	9C0F		CLR R12, #$0F
8C18	E04F		SWAP R4
8C1A	940F		CLR R4, #$0F
8C1C	2D9A		MOVE R13, $134
8C1E	0D46		OR R13, R4
8C20	D8D1		MOVE R8, (R13)+
8C22	DDD8		MOVE R13, (R13)
8C24	8140		LBI R1, #$40
8C26	23A3		MOVE R3, $146
8C28	93F0		CLR R3, #$F0
8C2A	0316		OR R3, R1
8C2C	73C0		MOVB (R12)+, R3
8C2E	2653		MOVE R6, $A6
8C30	8108		LBI R1, #$08
8C32	CF1E		SNBC R15, R1
8C34	A005		BRA $8C3C		; $06(R0)

8C36	278A		MOVE R7, $114
8C38	067C		MHL R6, R7
8C3A	A003		BRA $8C40		; $04(R0)

8C3C	E16F		STAT R6, $1
8C3E	E17F		STAT R7, $1
8C40	0668		ADD R6, R6
8C42	056C		MHL R5, R6
8C44	B502		SET R5, #$02
8C46	75C0		MOVB (R12)+, R5
8C48	076D		MLH R7, R6
8C4A	0778		ADD R7, R7
8C4C	57C8		MOVE (R12), R7
8C4E	C40B		SNZ R4
8C50	2082		JMP ($0104)

8C52	A029		BRA $8C7E		; $2A(R0)

8C54	0144		MOVE R1, R4
8C56	910F		CLR R1, #$0F
8C58	CF1E		SNBC R15, R1
8C5A	2082		JMP ($0104)

8C5C	94F0		CLR R4, #$F0
8C5E	C40B		SNZ R4
8C60	2082		JMP ($0104)

8C62	E04F		SWAP R4
8C64	2C9A		MOVE R12, $134
8C66	0C46		OR R12, R4
8C68	D8C1		MOVE R8, (R12)+
8C6A	DDC8		MOVE R13, (R12)
8C6C	A00F		BRA $8C7E		; $10(R0)

8C6E	0203		INC2 R2, R0
8C70	20C7		JMP ($018E)

8C72	0144		MOVE R1, R4
8C74	910F		CLR R1, #$0F
8C76	CF1E		SNBC R15, R1
8C78	2082		JMP ($0104)

8C7A	0203		INC2 R2, R0
8C7C	20C2		JMP ($0184)

8C7E	2B53		MOVE R11, $A6
8C80	3B8A		MOVE $114, R11
8C82	8B19		LBI R11, #$19
8C84	0CDC		MHL R12, R13
8C86	0C8D		MLH R12, R8
8C88	E0CC		SHR R12
8C8A	41B1		PUTB $1, (R11)++
8C8C	E0DC		SHR R13
8C8E	41B8		PUTB $1, (R11)
8C90	0004		NOP
8C92	2082		JMP ($0104)

8C94	8B02		LBI R11, #$02
8C96	A001		BRA $8C9A		; $02(R0)

8C98	8B00		LBI R11, #$00
8C9A	0203		INC2 R2, R0
8C9C	20C7		JMP ($018E)

8C9E	2E9A		MOVE R14, $134
8CA0	0E46		OR R14, R4
8CA2	E0EF		SWAP R14
8CA4	9E0F		CLR R14, #$0F
8CA6	D7E1		MOVE R7, (R14)+
8CA8	D8E5		MOVE R8, (R14)-
8CAA	BE10		SET R14, #$10
8CAC	D9E1		MOVE R9, (R14)+
8CAE	DAE5		MOVE R10, (R14)-
8CB0	D3C1		MOVE R3, (R12)+
8CB2	D4C5		MOVE R4, (R12)-
8CB4	014C		MHL R1, R4
8CB6	048D		MLH R4, R8
8CB8	044A		ADDH R4, R4
8CBA	084C		MHL R8, R4
8CBC	088A		ADDH R8, R8
8CBE	0818		ADD R8, R1
8CC0	048D		MLH R4, R8
8CC2	083A		ADDH R8, R3
8CC4	0878		ADD R8, R7
8CC6	078C		MHL R7, R8
8CC8	077A		ADDH R7, R7
8CCA	033C		MHL R3, R3
8CCC	0738		ADD R7, R3
8CCE	087D		MLH R8, R7
8CD0	039C		MHL R3, R9
8CD2	0674		MOVE R6, R7
8CD4	937F		CLR R3, #$7F
8CD6	967F		CLR R6, #$7F
8CD8	C63A		SNE R6, R3
8CDA	A005		BRA $8CE2		; $06(R0)

8CDC	C603		SZ R6
8CDE	A033		BRA $8D14		; $34(R0)

8CE0	A02B		BRA $8D0E		; $2C(R0)

8CE2	039C		MHL R3, R9
8CE4	C73A		SNE R7, R3
8CE6	A005		BRA $8CEE		; $06(R0)

8CE8	C738		SGT R7, R3
8CEA	A027		BRA $8D14		; $28(R0)

8CEC	A01F		BRA $8D0E		; $20(R0)

8CEE	C89A		SNE R8, R9
8CF0	A005		BRA $8CF8		; $06(R0)

8CF2	C898		SGT R8, R9
8CF4	A01D		BRA $8D14		; $1E(R0)

8CF6	A015		BRA $8D0E		; $16(R0)

8CF8	03AC		MHL R3, R10
8CFA	0E4C		MHL R14, R4
8CFC	CE3A		SNE R14, R3
8CFE	A005		BRA $8D06		; $06(R0)

8D00	CE38		SGT R14, R3
8D02	A00F		BRA $8D14		; $10(R0)

8D04	A007		BRA $8D0E		; $08(R0)

8D06	C4AA		SNE R4, R10
8D08	A009		BRA $8D14		; $0A(R0)

8D0A	C4A8		SGT R4, R10
8D0C	A005		BRA $8D14		; $06(R0)

8D0E	00B8		ADD R0, R11
8D10	A005		BRA $8D18		; $06(R0)

8D12	A009		BRA $8D1E		; $0A(R0)

8D14	00B8		ADD R0, R11
8D16	A005		BRA $8D1E		; $06(R0)

8D18	58C1		MOVE (R12)+, R8
8D1A	54C8		MOVE (R12), R4
8D1C	2082		JMP ($0104)

8D1E	58C1		MOVE (R12)+, R8
8D20	54C8		MOVE (R12), R4
8D22	2C9A		MOVE R12, $134
8D24	0C56		OR R12, R5
8D26	9C0F		CLR R12, #$0F
8D28	D8C1		MOVE R8, (R12)+
8D2A	D9C8		MOVE R9, (R12)
8D2C	95F0		CLR R5, #$F0
8D2E	0D5D		MLH R13, R5
8D30	0D98		ADD R13, R9
8D32	09DC		MHL R9, R13
8D34	099A		ADDH R9, R9
8D36	0D9D		MLH R13, R9
8D38	099C		MHL R9, R9
8D3A	0898		ADD R8, R9
8D3C	F0BF		BRA $8C7E		; -> -$C0(R0)

8D3E	0203		INC2 R2, R0
8D40	20C7		JMP ($018E)

8D42	0844		MOVE R8, R4
8D44	0D5D		MLH R13, R5
8D46	F0C9		BRA $8C7E		; -> -$CA(R0)

8D48	0203		INC2 R2, R0
8D4A	20C4		JMP ($0188)

8D4C	74D8		MOVB (R13), R4
8D4E	2082		JMP ($0104)

8D50	0203		INC2 R2, R0
8D52	20C6		JMP ($018C)

8D54	C803		SZ R8
8D56	A00B		BRA $8D64		; $0C(R0)

8D58	63D0		MOVB R3, (R13)+
8D5A	73C0		MOVB (R12)+, R3
8D5C	F400		SUB R4, #$01
8D5E	C404		SS R4
8D60	F009		BRA $8D58		; -> -$0A(R0)

8D62	2082		JMP ($0104)

8D64	0203		INC2 R2, R0
8D66	20AB		JMP ($0156)

8D68	01AE		GETB R10, $1
8D6A	7AC0		MOVB (R12)+, R10
8D6C	F400		SUB R4, #$01
8D6E	C404		SS R4
8D70	F009		BRA $8D68		; -> -$0A(R0)

8D72	8B0B		LBI R11, #$0B
8D74	41B1		PUTB $1, (R11)++
8D76	41B8		PUTB $1, (R11)
8D78	0004		NOP
8D7A	2082		JMP ($0104)

8D7C	0203		INC2 R2, R0
8D7E	20C6		JMP ($018C)

8D80	63D0		MOVB R3, (R13)+
8D82	930F		CLR R3, #$0F
8D84	65C8		MOVB R5, (R12)
8D86	95F0		CLR R5, #$F0
8D88	0536		OR R5, R3
8D8A	75C0		MOVB (R12)+, R5
8D8C	C40B		SNZ R4
8D8E	2082		JMP ($0104)

8D90	F400		SUB R4, #$01
8D92	F013		BRA $8D80		; -> -$14(R0)

8D94	0203		INC2 R2, R0
8D96	20C6		JMP ($018C)

8D98	63C8		MOVB R3, (R12)
8D9A	93F0		CLR R3, #$F0
8D9C	0434		MOVE R4, R3
8D9E	E04F		SWAP R4
8DA0	0346		OR R3, R4
8DA2	73C8		MOVB (R12), R3
8DA4	2082		JMP ($0104)

8DA6	0203		INC2 R2, R0
8DA8	20BE		JMP ($017C)

8DAA	0203		INC2 R2, R0
8DAC	20AF		JMP ($015E)

8DAE	A007		BRA $8DB8		; $08(R0)

8DB0	0203		INC2 R2, R0
8DB2	20BC		JMP ($0178)

8DB4	D7D1		MOVE R7, (R13)+
8DB6	D8D5		MOVE R8, (R13)-
8DB8	8200		LBI R2, #$00
8DBA	A029		BRA $8DE6		; $2A(R0)

8DBC	0203		INC2 R2, R0
8DBE	20BE		JMP ($017C)

8DC0	0203		INC2 R2, R0
8DC2	20AF		JMP ($015E)

8DC4	A007		BRA $8DCE		; $08(R0)

8DC6	0203		INC2 R2, R0
8DC8	20BC		JMP ($0178)

8DCA	D7D1		MOVE R7, (R13)+
8DCC	D8D5		MOVE R8, (R13)-
8DCE	820A		LBI R2, #$0A
8DD0	A013		BRA $8DE6		; $14(R0)

8DD2	0203		INC2 R2, R0
8DD4	20BE		JMP ($017C)

8DD6	0203		INC2 R2, R0
8DD8	20AF		JMP ($015E)

8DDA	A007		BRA $8DE4		; $08(R0)

8DDC	0203		INC2 R2, R0
8DDE	20BC		JMP ($0178)

8DE0	D7D1		MOVE R7, (R13)+
8DE2	D8D5		MOVE R8, (R13)-
8DE4	8214		LBI R2, #$14
8DE6	D3C1		MOVE R3, (R12)+
8DE8	D4C5		MOVE R4, (R12)-
8DEA	053C		MHL R5, R3
8DEC	097C		MHL R9, R7
8DEE	064C		MHL R6, R4
8DF0	0A8C		MHL R10, R8
8DF2	0028		ADD R0, R2
8DF4	0377		XOR R3, R7
8DF6	0487		XOR R4, R8
8DF8	0597		XOR R5, R9
8DFA	06A7		XOR R6, R10
8DFC	A011		BRA $8E10		; $12(R0)

8DFE	0376		OR R3, R7
8E00	0486		OR R4, R8
8E02	0596		OR R5, R9
8E04	06A6		OR R6, R10
8E06	A007		BRA $8E10		; $08(R0)

8E08	0375		AND R3, R7
8E0A	0485		AND R4, R8
8E0C	0595		AND R5, R9
8E0E	06A5		AND R6, R10
8E10	035D		MLH R3, R5
8E12	046D		MLH R4, R6
8E14	53C1		MOVE (R12)+, R3
8E16	54C5		MOVE (R12)-, R4
8E18	0346		OR R3, R4
8E1A	0356		OR R3, R5
8E1C	0366		OR R3, R6
8E1E	A01D		BRA $8E3E		; $1E(R0)

8E20	0203		INC2 R2, R0
8E22	20C4		JMP ($0188)

8E24	63D8		MOVB R3, (R13)
8E26	0347		XOR R3, R4
8E28	A011		BRA $8E3C		; $12(R0)

8E2A	0203		INC2 R2, R0
8E2C	20C4		JMP ($0188)

8E2E	63D8		MOVB R3, (R13)
8E30	0346		OR R3, R4
8E32	A007		BRA $8E3C		; $08(R0)

8E34	0203		INC2 R2, R0
8E36	20C4		JMP ($0188)

8E38	63D8		MOVB R3, (R13)
8E3A	0345		AND R3, R4
8E3C	73D8		MOVB (R13), R3
8E3E	C30B		SNZ R3
8E40	209B		JMP ($0136)

8E42	209C		JMP ($0138)

8E44	0203		INC2 R2, R0
8E46	20C4		JMP ($0188)

8E48	C80B		SNZ R8
8E4A	A005		BRA $8E52		; $06(R0)

8E4C	0203		INC2 R2, R0
8E4E	20AD		JMP ($015A)

8E50	A001		BRA $8E54		; $02(R0)

8E52	68D8		MOVB R8, (R13)
8E54	C84E		SNBC R8, R4
8E56	209B		JMP ($0136)

8E58	C845		SBS R8, R4
8E5A	209C		JMP ($0138)

8E5C	209E		JMP ($013C)

8E5E	0203		INC2 R2, R0
8E60	20C6		JMP ($018C)

8E62	8F00		LBI R15, #$00
8E64	A00D		BRA $8E74		; $0E(R0)

8E66	0203		INC2 R2, R0
8E68	20C6		JMP ($018C)

8E6A	8F04		LBI R15, #$04
8E6C	A005		BRA $8E74		; $06(R0)

8E6E	0203		INC2 R2, R0
8E70	20C6		JMP ($018C)

8E72	8F08		LBI R15, #$08
8E74	8900		LBI R9, #$00
8E76	C803		SZ R8
8E78	A023		BRA $8E9E		; $24(R0)

8E7A	6AD0		MOVB R10, (R13)+
8E7C	63C8		MOVB R3, (R12)
8E7E	00F8		ADD R0, R15
8E80	03A7		XOR R3, R10
8E82	A005		BRA $8E8A		; $06(R0)

8E84	03A6		OR R3, R10
8E86	A001		BRA $8E8A		; $02(R0)

8E88	03A5		AND R3, R10
8E8A	0936		OR R9, R3
8E8C	73C0		MOVB (R12)+, R3
8E8E	F400		SUB R4, #$01
8E90	C803		SZ R8
8E92	A011		BRA $8EA6		; $12(R0)

8E94	C404		SS R4
8E96	F01D		BRA $8E7A		; -> -$1E(R0)

8E98	C903		SZ R9
8E9A	209C		JMP ($0138)

8E9C	209B		JMP ($0136)

8E9E	0203		INC2 R2, R0
8EA0	20AB		JMP ($0156)

8EA2	01AE		GETB R10, $1
8EA4	F029		BRA $8E7C		; -> -$2A(R0)

8EA6	C404		SS R4
8EA8	F007		BRA $8EA2		; -> -$08(R0)

8EAA	2B53		MOVE R11, $A6
8EAC	8B0B		LBI R11, #$0B
8EAE	41B1		PUTB $1, (R11)++
8EB0	41B8		PUTB $1, (R11)
8EB2	C903		SZ R9
8EB4	209C		JMP ($0138)

8EB6	209B		JMP ($0136)

8EB8	0000		HALT
8EBA	0000		HALT
8EBC	0000		HALT
8EBE	0000		HALT
8EC0	0000		HALT
8EC2	0000		HALT
8EC4	0000		HALT
8EC6	0000		HALT
8EC8	0000		HALT
8ECA	0000		HALT
8ECC	0000		HALT
8ECE	0000		HALT
8ED0	0000		HALT
8ED2	0000		HALT
8ED4	0000		HALT
8ED6	0000		HALT
8ED8	0000		HALT
8EDA	0000		HALT
8EDC	0000		HALT
8EDE	0000		HALT
8EE0	0000		HALT
8EE2	0000		HALT
8EE4	0000		HALT
8EE6	0000		HALT
8EE8	0000		HALT
8EEA	0000		HALT
8EEC	0000		HALT
8EEE	0000		HALT
8EF0	0000		HALT
8EF2	0000		HALT
8EF4	0000		HALT
8EF6	0000		HALT
8EF8	0000		HALT
8EFA	0000		HALT
8EFC	0000		HALT
8EFE	0000		HALT
8F00	0000		HALT
8F02	0000		HALT
8F04	0000		HALT
8F06	0000		HALT
8F08	0000		HALT
8F0A	0000		HALT
8F0C	0000		HALT
8F0E	0000		HALT
8F10	0000		HALT
8F12	0000		HALT
8F14	0000		HALT
8F16	0000		HALT
8F18	0000		HALT
8F1A	0000		HALT
8F1C	0000		HALT
8F1E	0000		HALT
8F20	0000		HALT
8F22	0000		HALT
8F24	0000		HALT
8F26	0000		HALT
8F28	0000		HALT
8F2A	0000		HALT
8F2C	0000		HALT
8F2E	0000		HALT
8F30	0000		HALT
8F32	0000		HALT
8F34	0000		HALT
8F36	0000		HALT
8F38	0000		HALT
8F3A	0000		HALT
8F3C	0000		HALT
8F3E	0000		HALT
8F40	0000		HALT
8F42	0000		HALT
8F44	0000		HALT
8F46	0000		HALT
8F48	0000		HALT
8F4A	0000		HALT
8F4C	0000		HALT
8F4E	0000		HALT
8F50	0000		HALT
8F52	0000		HALT
8F54	0000		HALT
8F56	0000		HALT
8F58	0000		HALT
8F5A	0000		HALT
8F5C	0000		HALT
8F5E	0000		HALT
8F60	0000		HALT
8F62	0000		HALT
8F64	0000		HALT
8F66	0000		HALT
8F68	0000		HALT
8F6A	0000		HALT
8F6C	0000		HALT
8F6E	0000		HALT
8F70	0000		HALT
8F72	0000		HALT
8F74	0000		HALT
8F76	0000		HALT
8F78	0000		HALT
8F7A	0000		HALT
8F7C	0000		HALT
8F7E	0000		HALT
8F80	0000		HALT
8F82	0000		HALT
8F84	0000		HALT
8F86	0000		HALT
8F88	0000		HALT
8F8A	0000		HALT
8F8C	0000		HALT
8F8E	0000		HALT
8F90	0000		HALT
8F92	0000		HALT
8F94	0000		HALT
8F96	0000		HALT
8F98	0000		HALT
8F9A	0000		HALT
8F9C	0000		HALT
8F9E	0000		HALT
8FA0	0000		HALT
8FA2	0000		HALT
8FA4	0000		HALT
8FA6	0000		HALT
8FA8	0000		HALT
8FAA	0000		HALT
8FAC	0000		HALT
8FAE	0000		HALT
8FB0	0000		HALT
8FB2	0000		HALT
8FB4	0000		HALT
8FB6	0000		HALT
8FB8	0000		HALT
8FBA	0000		HALT
8FBC	0000		HALT
8FBE	0000		HALT
8FC0	0000		HALT
8FC2	0000		HALT
8FC4	0000		HALT
8FC6	0000		HALT
8FC8	0000		HALT
8FCA	0000		HALT
8FCC	0000		HALT
8FCE	0000		HALT
8FD0	0000		HALT
8FD2	0000		HALT
8FD4	0000		HALT
8FD6	0000		HALT
8FD8	0000		HALT
8FDA	0000		HALT
8FDC	0000		HALT
8FDE	0000		HALT
8FE0	0000		HALT
8FE2	0000		HALT
8FE4	0000		HALT
8FE6	0000		HALT
8FE8	0000		HALT
8FEA	0000		HALT
8FEC	0000		HALT
8FEE	0000		HALT
8FF0	0000		HALT
8FF2	0000		HALT
8FF4	0000		HALT
8FF6	0000		HALT
8FF8	0000		HALT
8FFA	0000		HALT
8FFC	0000		HALT
8FFE	0000		HALT
9000	8A02		LBI R10, #$02
9002	A001		BRA $9006		; $02(R0)

9004	8A00		LBI R10, #$00
9006	0203		INC2 R2, R0
9008	20C3		JMP ($0186)

900A	8902		LBI R9, #$02
900C	BC10		SET R12, #$10
900E	D6C1		MOVE R6, (R12)+
9010	D7C5		MOVE R7, (R12)-
9012	9C10		CLR R12, #$10
9014	A00F		BRA $9026		; $10(R0)

9016	8A02		LBI R10, #$02
9018	A001		BRA $901C		; $02(R0)

901A	8A00		LBI R10, #$00
901C	0203		INC2 R2, R0
901E	20C3		JMP ($0186)

9020	8900		LBI R9, #$00
9022	2653		MOVE R6, $A6
9024	2753		MOVE R7, $A6
9026	D4C1		MOVE R4, (R12)+
9028	D5C5		MOVE R5, (R12)-
902A	2853		MOVE R8, $A6
902C	8200		LBI R2, #$00
902E	00A8		ADD R0, R10
9030	A005		BRA $9038		; $06(R0)

9032	8180		LBI R1, #$80
9034	C41F		SNBSH R4, R1
9036	F800		SUB R8, #$01
9038	8101		LBI R1, #$01
903A	C316		SBC R3, R1
903C	A0DF		BRA $911E		; $E0(R0)

903E	8108		LBI R1, #$08
9040	CD19		SGE R13, R1
9042	A0A7		BRA $90EC		; $A8(R0)

9044	8120		LBI R1, #$20
9046	CD19		SGE R13, R1
9048	A009		BRA $9054		; $0A(R0)

904A	FD1F		SUB R13, #$20
904C	0754		MOVE R7, R5
904E	0644		MOVE R6, R4
9050	0584		MOVE R5, R8
9052	0484		MOVE R4, R8
9054	8110		LBI R1, #$10
9056	CD19		SGE R13, R1
9058	A009		BRA $9064		; $0A(R0)

905A	FD0F		SUB R13, #$10
905C	0764		MOVE R7, R6
905E	0654		MOVE R6, R5
9060	0544		MOVE R5, R4
9062	0484		MOVE R4, R8
9064	8108		LBI R1, #$08
9066	CD19		SGE R13, R1
9068	A011		BRA $907C		; $12(R0)

906A	FD07		SUB R13, #$08
906C	077C		MHL R7, R7
906E	076D		MLH R7, R6
9070	066C		MHL R6, R6
9072	065D		MLH R6, R5
9074	055C		MHL R5, R5
9076	054D		MLH R5, R4
9078	044C		MHL R4, R4
907A	048D		MLH R4, R8
907C	8104		LBI R1, #$04
907E	CD19		SGE R13, R1
9080	A069		BRA $90EC		; $6A(R0)

9082	FD03		SUB R13, #$04
9084	C903		SZ R9
9086	A003		BRA $908C		; $04(R0)

9088	E05F		SWAP R5
908A	A031		BRA $90BE		; $32(R0)

908C	E07F		SWAP R7
908E	97F0		CLR R7, #$F0
9090	017C		MHL R1, R7
9092	E01F		SWAP R1
9094	0E14		MOVE R14, R1
9096	910F		CLR R1, #$0F
9098	0716		OR R7, R1
909A	9EF0		CLR R14, #$F0
909C	E06F		SWAP R6
909E	0164		MOVE R1, R6
90A0	910F		CLR R1, #$0F
90A2	01E6		OR R1, R14
90A4	071D		MLH R7, R1
90A6	96F0		CLR R6, #$F0
90A8	016C		MHL R1, R6
90AA	E01F		SWAP R1
90AC	0E14		MOVE R14, R1
90AE	910F		CLR R1, #$0F
90B0	0616		OR R6, R1
90B2	9EF0		CLR R14, #$F0
90B4	E05F		SWAP R5
90B6	0154		MOVE R1, R5
90B8	910F		CLR R1, #$0F
90BA	01E6		OR R1, R14
90BC	061D		MLH R6, R1
90BE	95F0		CLR R5, #$F0
90C0	015C		MHL R1, R5
90C2	E01F		SWAP R1
90C4	0E14		MOVE R14, R1
90C6	910F		CLR R1, #$0F
90C8	0516		OR R5, R1
90CA	9EF0		CLR R14, #$F0
90CC	E04F		SWAP R4
90CE	0144		MOVE R1, R4
90D0	910F		CLR R1, #$0F
90D2	01E6		OR R1, R14
90D4	051D		MLH R5, R1
90D6	94F0		CLR R4, #$F0
90D8	014C		MHL R1, R4
90DA	E01F		SWAP R1
90DC	0E14		MOVE R14, R1
90DE	910F		CLR R1, #$0F
90E0	0416		OR R4, R1
90E2	9EF0		CLR R14, #$F0
90E4	0184		MOVE R1, R8
90E6	910F		CLR R1, #$0F
90E8	01E6		OR R1, R14
90EA	041D		MLH R4, R1
90EC	CD0B		SNZ R13
90EE	A049		BRA $913A		; $4A(R0)

90F0	FD00		SUB R13, #$01
90F2	0098		ADD R0, R9
90F4	A013		BRA $910A		; $14(R0)

90F6	E07C		SHR R7
90F8	017C		MHL R1, R7
90FA	016D		MLH R1, R6
90FC	E01C		SHR R1
90FE	071D		MLH R7, R1
9100	E06C		SHR R6
9102	016C		MHL R1, R6
9104	015D		MLH R1, R5
9106	E01C		SHR R1
9108	061D		MLH R6, R1
910A	E05C		SHR R5
910C	015C		MHL R1, R5
910E	014D		MLH R1, R4
9110	E01C		SHR R1
9112	051D		MLH R5, R1
9114	E04C		SHR R4
9116	084C		MHL R8, R4
9118	E08C		SHR R8
911A	048D		MLH R4, R8
911C	F031		BRA $90EC		; -> -$32(R0)

911E	00A8		ADD R0, R10
9120	A03B		BRA $915E		; $3C(R0)

9122	8B08		LBI R11, #$08
9124	0DDD		MLH R13, R13
9126	8E00		LBI R14, #$00
9128	0EED		MLH R14, R14
912A	8E08		LBI R14, #$08
912C	CDB9		SGE R13, R11
912E	A00B		BRA $913C		; $0C(R0)

9130	FD07		SUB R13, #$08
9132	61E0		MOVB R1, (R14)+
9134	C18A		SNE R1, R8
9136	F00B		BRA $912C		; -> -$0C(R0)

9138	A01D		BRA $9158		; $1E(R0)

913A	A0FD		BRA $923A		; $FE(R0)

913C	61E8		MOVB R1, (R14)
913E	8EFF		LBI R14, #$FF
9140	0DD8		ADD R13, R13
9142	00D8		ADD R0, R13
9144	9E40		CLR R14, #$40
9146	9E20		CLR R14, #$20
9148	9E10		CLR R14, #$10
914A	9E08		CLR R14, #$08
914C	9E04		CLR R14, #$04
914E	9E02		CLR R14, #$02
9150	9E01		CLR R14, #$01
9152	01E5		AND R1, R14
9154	08E5		AND R8, R14
9156	C182		SE R1, R8
9158	82FF		LBI R2, #$FF
915A	088C		MHL R8, R8
915C	0DDC		MHL R13, R13
915E	8108		LBI R1, #$08
9160	CD19		SGE R13, R1
9162	A09D		BRA $9202		; $9E(R0)

9164	8120		LBI R1, #$20
9166	CD19		SGE R13, R1
9168	A009		BRA $9174		; $0A(R0)

916A	FD1F		SUB R13, #$20
916C	0464		MOVE R4, R6
916E	0574		MOVE R5, R7
9170	2653		MOVE R6, $A6
9172	2753		MOVE R7, $A6
9174	8110		LBI R1, #$10
9176	CD19		SGE R13, R1
9178	A009		BRA $9184		; $0A(R0)

917A	FD0F		SUB R13, #$10
917C	0454		MOVE R4, R5
917E	0564		MOVE R5, R6
9180	0674		MOVE R6, R7
9182	2753		MOVE R7, $A6
9184	8108		LBI R1, #$08
9186	CD19		SGE R13, R1
9188	A011		BRA $919C		; $12(R0)

918A	FD07		SUB R13, #$08
918C	044D		MLH R4, R4
918E	045C		MHL R4, R5
9190	055D		MLH R5, R5
9192	056C		MHL R5, R6
9194	066D		MLH R6, R6
9196	067C		MHL R6, R7
9198	077D		MLH R7, R7
919A	8700		LBI R7, #$00
919C	8104		LBI R1, #$04
919E	CD19		SGE R13, R1
91A0	A05F		BRA $9202		; $60(R0)

91A2	FD03		SUB R13, #$04
91A4	014C		MHL R1, R4
91A6	E01F		SWAP R1
91A8	910F		CLR R1, #$0F
91AA	E04F		SWAP R4
91AC	0E44		MOVE R14, R4
91AE	9EF0		CLR R14, #$F0
91B0	01E6		OR R1, R14
91B2	041D		MLH R4, R1
91B4	940F		CLR R4, #$0F
91B6	015C		MHL R1, R5
91B8	E01F		SWAP R1
91BA	0E14		MOVE R14, R1
91BC	91F0		CLR R1, #$F0
91BE	0416		OR R4, R1
91C0	9E0F		CLR R14, #$0F
91C2	E05F		SWAP R5
91C4	0154		MOVE R1, R5
91C6	91F0		CLR R1, #$F0
91C8	01E6		OR R1, R14
91CA	051D		MLH R5, R1
91CC	950F		CLR R5, #$0F
91CE	0098		ADD R0, R9
91D0	A02F		BRA $9202		; $30(R0)

91D2	016C		MHL R1, R6
91D4	E01F		SWAP R1
91D6	0E14		MOVE R14, R1
91D8	91F0		CLR R1, #$F0
91DA	0516		OR R5, R1
91DC	9E0F		CLR R14, #$0F
91DE	E06F		SWAP R6
91E0	0164		MOVE R1, R6
91E2	91F0		CLR R1, #$F0
91E4	01E6		OR R1, R14
91E6	061D		MLH R6, R1
91E8	960F		CLR R6, #$0F
91EA	017C		MHL R1, R7
91EC	E01F		SWAP R1
91EE	0E14		MOVE R14, R1
91F0	91F0		CLR R1, #$F0
91F2	0616		OR R6, R1
91F4	9E0F		CLR R14, #$0F
91F6	E07F		SWAP R7
91F8	0174		MOVE R1, R7
91FA	91F0		CLR R1, #$F0
91FC	01E6		OR R1, R14
91FE	071D		MLH R7, R1
9200	970F		CLR R7, #$0F
9202	CD0B		SNZ R13
9204	A033		BRA $923A		; $34(R0)

9206	FD00		SUB R13, #$01
9208	014C		MHL R1, R4
920A	0118		ADD R1, R1
920C	041D		MLH R4, R1
920E	0448		ADD R4, R4
9210	014D		MLH R1, R4
9212	015C		MHL R1, R5
9214	0118		ADD R1, R1
9216	041C		MHL R4, R1
9218	051D		MLH R5, R1
921A	0558		ADD R5, R5
921C	0098		ADD R0, R9
921E	F01D		BRA $9202		; -> -$1E(R0)

9220	015D		MLH R1, R5
9222	016C		MHL R1, R6
9224	0118		ADD R1, R1
9226	051C		MHL R5, R1
9228	061D		MLH R6, R1
922A	0668		ADD R6, R6
922C	016D		MLH R1, R6
922E	017C		MHL R1, R7
9230	0118		ADD R1, R1
9232	061C		MHL R6, R1
9234	071D		MLH R7, R1
9236	0778		ADD R7, R7
9238	F037		BRA $9202		; -> -$38(R0)

923A	54C1		MOVE (R12)+, R4
923C	55C5		MOVE (R12)-, R5
923E	0098		ADD R0, R9
9240	A005		BRA $9248		; $06(R0)

9242	BC10		SET R12, #$10
9244	56C1		MOVE (R12)+, R6
9246	57C5		MOVE (R12)-, R7
9248	00A8		ADD R0, R10
924A	2082		JMP ($0104)

924C	C203		SZ R2
924E	209F		JMP ($013E)

9250	034C		MHL R3, R4
9252	8180		LBI R1, #$80
9254	C316		SBC R3, R1
9256	209C		JMP ($0138)

9258	C403		SZ R4
925A	209D		JMP ($013A)

925C	C503		SZ R5
925E	209D		JMP ($013A)

9260	055C		MHL R5, R5
9262	C503		SZ R5
9264	209D		JMP ($013A)

9266	044C		MHL R4, R4
9268	C403		SZ R4
926A	209D		JMP ($013A)

926C	0098		ADD R0, R9
926E	209B		JMP ($0136)

9270	C603		SZ R6
9272	209D		JMP ($013A)

9274	C703		SZ R7
9276	209D		JMP ($013A)

9278	066C		MHL R6, R6
927A	C603		SZ R6
927C	209D		JMP ($013A)

927E	077C		MHL R7, R7
9280	C703		SZ R7
9282	209D		JMP ($013A)

9284	209B		JMP ($0136)

9286	0203		INC2 R2, R0
9288	20C6		JMP ($018C)

928A	C803		SZ R8
928C	A011		BRA $92A0		; $12(R0)

928E	63C8		MOVB R3, (R12)
9290	0ED4		MOVE R14, R13
9292	0E38		ADD R14, R3
9294	6AE8		MOVB R10, (R14)
9296	7AC0		MOVB (R12)+, R10
9298	F400		SUB R4, #$01
929A	C404		SS R4
929C	F00F		BRA $928E		; -> -$10(R0)

929E	2082		JMP ($0104)

92A0	E15F		STAT R5, $1
92A2	E16F		STAT R6, $1
92A4	3DCB		MOVE $196, R13
92A6	63C8		MOVB R3, (R12)
92A8	0D38		ADD R13, R3
92AA	8701		LBI R7, #$01
92AC	CD76		SBC R13, R7
92AE	8700		LBI R7, #$00
92B0	0EDC		MHL R14, R13
92B2	0E8D		MLH R14, R8
92B4	E0EC		SHR R14
92B6	E0DC		SHR R13
92B8	2B53		MOVE R11, $A6
92BA	8B1D		LBI R11, #$1D
92BC	41B5		PUTB $1, (R11)--
92BE	41B8		PUTB $1, (R11)
92C0	8B00		LBI R11, #$00
92C2	C70B		SNZ R7
92C4	01AE		GETB R10, $1
92C6	F000		BRA $92C7		; -> -$01(R0)

92C8	01AE		GETB R10, $1
92CA	7AC0		MOVB (R12)+, R10
92CC	F400		SUB R4, #$01
92CE	C404		SS R4
92D0	A00B		BRA $92DE		; $0C(R0)

92D2	2B53		MOVE R11, $A6
92D4	8B0B		LBI R11, #$0B
92D6	41B1		PUTB $1, (R11)++
92D8	41B8		PUTB $1, (R11)
92DA	0004		NOP
92DC	2082		JMP ($0104)

92DE	2DCB		MOVE R13, $196
92E0	F03B		BRA $92A6		; -> -$3C(R0)

92E2	0203		INC2 R2, R0
92E4	20C6		JMP ($018C)

92E6	C803		SZ R8
92E8	A02D		BRA $9318		; $2E(R0)

92EA	63C8		MOVB R3, (R12)
92EC	0ED4		MOVE R14, R13
92EE	0E38		ADD R14, R3
92F0	6AE8		MOVB R10, (R14)
92F2	F400		SUB R4, #$01
92F4	CA0B		SNZ R10
92F6	A015		BRA $930E		; $16(R0)

92F8	219A		MOVE R1, $134
92FA	8111		LBI R1, #$11
92FC	8900		LBI R9, #$00
92FE	7910		MOVB (R1)+, R9
9300	5C18		MOVE (R1), R12
9302	219A		MOVE R1, $134
9304	8123		LBI R1, #$23
9306	7A18		MOVB (R1), R10
9308	C404		SS R4
930A	209C		JMP ($0138)

930C	209D		JMP ($013A)

930E	C404		SS R4
9310	A001		BRA $9314		; $02(R0)

9312	209B		JMP ($0136)

9314	AC00		ADD R12, #$01
9316	F02D		BRA $92EA		; -> -$2E(R0)

9318	E15F		STAT R5, $1
931A	E16F		STAT R6, $1
931C	3DCB		MOVE $196, R13
931E	63C8		MOVB R3, (R12)
9320	0D38		ADD R13, R3
9322	8701		LBI R7, #$01
9324	CD76		SBC R13, R7
9326	8700		LBI R7, #$00
9328	0EDC		MHL R14, R13
932A	0E8D		MLH R14, R8
932C	E0EC		SHR R14
932E	E0DC		SHR R13
9330	2B53		MOVE R11, $A6
9332	8B1D		LBI R11, #$1D
9334	41B5		PUTB $1, (R11)--
9336	41B8		PUTB $1, (R11)
9338	8B00		LBI R11, #$00
933A	C70B		SNZ R7
933C	01AE		GETB R10, $1
933E	F000		BRA $933F		; -> -$01(R0)

9340	01AE		GETB R10, $1
9342	F400		SUB R4, #$01
9344	CA0B		SNZ R10
9346	A01D		BRA $9366		; $1E(R0)

9348	219A		MOVE R1, $134
934A	8111		LBI R1, #$11
934C	8900		LBI R9, #$00
934E	7910		MOVB (R1)+, R9
9350	5C18		MOVE (R1), R12
9352	219A		MOVE R1, $134
9354	8123		LBI R1, #$23
9356	7A18		MOVB (R1), R10
9358	2B53		MOVE R11, $A6
935A	8B0B		LBI R11, #$0B
935C	41B1		PUTB $1, (R11)++
935E	41B8		PUTB $1, (R11)
9360	C404		SS R4
9362	209C		JMP ($0138)

9364	209D		JMP ($013A)

9366	2DCB		MOVE R13, $196
9368	C404		SS R4
936A	A009		BRA $9376		; $0A(R0)

936C	2B53		MOVE R11, $A6
936E	8B0B		LBI R11, #$0B
9370	41B1		PUTB $1, (R11)++
9372	41B8		PUTB $1, (R11)
9374	209B		JMP ($0136)

9376	AC00		ADD R12, #$01
9378	F05B		BRA $931E		; -> -$5C(R0)

937A	0203		INC2 R2, R0
937C	20C6		JMP ($018C)

937E	0344		MOVE R3, R4
9380	930F		CLR R3, #$0F
9382	E03F		SWAP R3
9384	94F0		CLR R4, #$F0
9386	0C38		ADD R12, R3
9388	0D48		ADD R13, R4
938A	8A00		LBI R10, #$00
938C	65D4		MOVB R5, (R13)-
938E	E05F		SWAP R5
9390	75C4		MOVB (R12)-, R5
9392	C30B		SNZ R3
9394	2082		JMP ($0104)

9396	F300		SUB R3, #$01
9398	C40B		SNZ R4
939A	A015		BRA $93B2		; $16(R0)

939C	F400		SUB R4, #$01
939E	65D4		MOVB R5, (R13)-
93A0	95F0		CLR R5, #$F0
93A2	C40B		SNZ R4
93A4	F015		BRA $9390		; -> -$16(R0)

93A6	F400		SUB R4, #$01
93A8	66D4		MOVB R6, (R13)-
93AA	96F0		CLR R6, #$F0
93AC	E06F		SWAP R6
93AE	0566		OR R5, R6
93B0	F021		BRA $9390		; -> -$22(R0)

93B2	8500		LBI R5, #$00
93B4	F025		BRA $9390		; -> -$26(R0)

93B6	0203		INC2 R2, R0
93B8	20C6		JMP ($018C)

93BA	0344		MOVE R3, R4
93BC	930F		CLR R3, #$0F
93BE	E03F		SWAP R3
93C0	94F0		CLR R4, #$F0
93C2	0C38		ADD R12, R3
93C4	0D48		ADD R13, R4
93C6	65D4		MOVB R5, (R13)-
93C8	E05F		SWAP R5
93CA	75C4		MOVB (R12)-, R5
93CC	C30B		SNZ R3
93CE	2082		JMP ($0104)

93D0	F300		SUB R3, #$01
93D2	C40B		SNZ R4
93D4	A013		BRA $93EA		; $14(R0)

93D6	F400		SUB R4, #$01
93D8	66D4		MOVB R6, (R13)-
93DA	0564		MOVE R5, R6
93DC	B6F0		SET R6, #$F0
93DE	76C4		MOVB (R12)-, R6
93E0	C30B		SNZ R3
93E2	2082		JMP ($0104)

93E4	F300		SUB R3, #$01
93E6	B50F		SET R5, #$0F
93E8	F021		BRA $93C8		; -> -$22(R0)

93EA	85F0		LBI R5, #$F0
93EC	F023		BRA $93CA		; -> -$24(R0)

93EE	33A2		MOVE $144, R3
93F0	0203		INC2 R2, R0
93F2	20C6		JMP ($018C)

93F4	8B09		LBI R11, #$09
93F6	8A20		LBI R10, #$20
93F8	8921		LBI R9, #$21
93FA	8822		LBI R8, #$22
93FC	8700		LBI R7, #$00
93FE	8600		LBI R6, #$00
9400	8F00		LBI R15, #$00
9402	8200		LBI R2, #$00
9404	63C8		MOVB R3, (R12)
9406	F400		SUB R4, #$01
9408	0F3D		MLH R15, R3
940A	C3AA		SNE R3, R10
940C	A039		BRA $9448		; $3A(R0)

940E	C39A		SNE R3, R9
9410	A0D9		BRA $94EC		; $DA(R0)

9412	AC00		ADD R12, #$01
9414	63C8		MOVB R3, (R12)
9416	F400		SUB R4, #$01
9418	C3AA		SNE R3, R10
941A	A02B		BRA $9448		; $2C(R0)

941C	C39A		SNE R3, R9
941E	A0CB		BRA $94EC		; $CC(R0)

9420	C38A		SNE R3, R8
9422	A015		BRA $943A		; $16(R0)

9424	C703		SZ R7
9426	A009		BRA $9432		; $0A(R0)

9428	03FC		MHL R3, R15
942A	73C0		MOVB (R12)+, R3
942C	C404		SS R4
942E	F01B		BRA $9414		; -> -$1C(R0)

9430	A0E9		BRA $951C		; $EA(R0)

9432	AC00		ADD R12, #$01
9434	C404		SS R4
9436	F023		BRA $9414		; -> -$24(R0)

9438	A0E1		BRA $951C		; $E2(R0)

943A	03FC		MHL R3, R15
943C	73C0		MOVB (R12)+, R3
943E	8700		LBI R7, #$00
9440	8F00		LBI R15, #$00
9442	C404		SS R4
9444	F031		BRA $9414		; -> -$32(R0)

9446	A0D3		BRA $951C		; $D4(R0)

9448	C203		SZ R2
944A	A00D		BRA $945A		; $0E(R0)

944C	65D0		MOVB R5, (R13)+
944E	0E54		MOVE R14, R5
9450	950F		CLR R5, #$0F
9452	9EF0		CLR R14, #$F0
9454	E05F		SWAP R5
9456	C5B0		SLE R5, R11
9458	A0CD		BRA $9528		; $CE(R0)

945A	C703		SZ R7
945C	A061		BRA $94C0		; $62(R0)

945E	C562		SE R5, R6
9460	A01D		BRA $9480		; $1E(R0)

9462	03FC		MHL R3, R15
9464	73C0		MOVB (R12)+, R3
9466	CEB8		SGT R14, R11
9468	A007		BRA $9472		; $08(R0)

946A	8200		LBI R2, #$00
946C	C404		SS R4
946E	F05B		BRA $9414		; -> -$5C(R0)

9470	A0A9		BRA $951C		; $AA(R0)

9472	C203		SZ R2
9474	F00B		BRA $946A		; -> -$0C(R0)

9476	8201		LBI R2, #$01
9478	05E4		MOVE R5, R14
947A	C404		SS R4
947C	F069		BRA $9414		; -> -$6A(R0)

947E	A09B		BRA $951C		; $9C(R0)

9480	0F56		OR R15, R5
9482	B5F0		SET R5, #$F0
9484	21A2		MOVE R1, $144
9486	8301		LBI R3, #$01
9488	C31E		SNBC R3, R1
948A	A007		BRA $9494		; $08(R0)

948C	219A		MOVE R1, $134
948E	8111		LBI R1, #$11
9490	7610		MOVB (R1)+, R6
9492	5C18		MOVE (R1), R12
9494	75C0		MOVB (R12)+, R5
9496	CEB8		SGT R14, R11
9498	A015		BRA $94B0		; $16(R0)

949A	810F		LBI R1, #$0F
949C	CE1D		SNBS R14, R1
949E	F035		BRA $946A		; -> -$36(R0)

94A0	8101		LBI R1, #$01
94A2	CE15		SBS R14, R1
94A4	F03B		BRA $946A		; -> -$3C(R0)

94A6	8701		LBI R7, #$01
94A8	8200		LBI R2, #$00
94AA	C404		SS R4
94AC	F099		BRA $9414		; -> -$9A(R0)

94AE	A06B		BRA $951C		; $6C(R0)

94B0	8701		LBI R7, #$01
94B2	C203		SZ R2
94B4	F04B		BRA $946A		; -> -$4C(R0)

94B6	8201		LBI R2, #$01
94B8	05E4		MOVE R5, R14
94BA	C404		SS R4
94BC	F0A9		BRA $9414		; -> -$AA(R0)

94BE	A05B		BRA $951C		; $5C(R0)

94C0	0F56		OR R15, R5
94C2	B5F0		SET R5, #$F0
94C4	75C0		MOVB (R12)+, R5
94C6	CEB8		SGT R14, R11
94C8	A013		BRA $94DE		; $14(R0)

94CA	810F		LBI R1, #$0F
94CC	CE1D		SNBS R14, R1
94CE	A003		BRA $94D4		; $04(R0)

94D0	8101		LBI R1, #$01
94D2	CE1E		SNBC R14, R1
94D4	8700		LBI R7, #$00
94D6	8200		LBI R2, #$00
94D8	C404		SS R4
94DA	F0C7		BRA $9414		; -> -$C8(R0)

94DC	A03D		BRA $951C		; $3E(R0)

94DE	C203		SZ R2
94E0	F00B		BRA $94D6		; -> -$0C(R0)

94E2	8201		LBI R2, #$01
94E4	05E4		MOVE R5, R14
94E6	C404		SS R4
94E8	F0D5		BRA $9414		; -> -$D6(R0)

94EA	A02F		BRA $951C		; $30(R0)

94EC	C203		SZ R2
94EE	A00D		BRA $94FE		; $0E(R0)

94F0	65D0		MOVB R5, (R13)+
94F2	0E54		MOVE R14, R5
94F4	950F		CLR R5, #$0F
94F6	9EF0		CLR R14, #$F0
94F8	E05F		SWAP R5
94FA	C5B0		SLE R5, R11
94FC	A029		BRA $9528		; $2A(R0)

94FE	C703		SZ R7
9500	F041		BRA $94C0		; -> -$42(R0)

9502	C562		SE R5, R6
9504	F085		BRA $9480		; -> -$86(R0)

9506	03FC		MHL R3, R15
9508	73C0		MOVB (R12)+, R3
950A	CEB8		SGT R14, R11
950C	F05D		BRA $94B0		; -> -$5E(R0)

950E	810F		LBI R1, #$0F
9510	CE1D		SNBS R14, R1
9512	F0A9		BRA $946A		; -> -$AA(R0)

9514	8101		LBI R1, #$01
9516	CE15		SBS R14, R1
9518	F0AF		BRA $946A		; -> -$B0(R0)

951A	F075		BRA $94A6		; -> -$76(R0)

951C	CF62		SE R15, R6
951E	A001		BRA $9522		; $02(R0)

9520	209B		JMP ($0136)

9522	C703		SZ R7
9524	209C		JMP ($0138)

9526	209D		JMP ($013A)

9528	8B07		LBI R11, #$07
952A	2182		MOVE R1, $104
952C	31CA		MOVE $194, R1
952E	8183		LBI R1, #$83
9530	011D		MLH R1, R1
9532	815A		LBI R1, #$5A
9534	0014		RET R1

9536	0203		INC2 R2, R0
9538	20BE		JMP ($017C)

953A	8183		LBI R1, #$83
953C	011D		MLH R1, R1
953E	816E		LBI R1, #$6E
9540	0014		RET R1

9542	0000		HALT
9544	3CCA		MOVE $194, R12
9546	3FCB		MOVE $196, R15
9548	2253		MOVE R2, $A6
954A	2353		MOVE R3, $A6
954C	2453		MOVE R4, $A6
954E	2553		MOVE R5, $A6
9550	2653		MOVE R6, $A6
9552	8900		LBI R9, #$00
9554	8A00		LBI R10, #$00
9556	8B09		LBI R11, #$09
9558	8F08		LBI R15, #$08
955A	6CD0		MOVB R12, (R13)+
955C	FF00		SUB R15, #$01
955E	C903		SZ R9
9560	A019		BRA $957C		; $1A(R0)

9562	CCA2		SE R12, R10
9564	A015		BRA $957C		; $16(R0)

9566	CF03		SZ R15
9568	F00F		BRA $955A		; -> -$10(R0)

956A	2CCA		MOVE R12, $194
956C	2FCB		MOVE R15, $196
956E	8207		LBI R2, #$07
9570	2182		MOVE R1, $104
9572	31CA		MOVE $194, R1
9574	8183		LBI R1, #$83
9576	011D		MLH R1, R1
9578	815A		LBI R1, #$5A
957A	0014		RET R1

957C	0EC4		MOVE R14, R12
957E	9C0F		CLR R12, #$0F
9580	E0CF		SWAP R12
9582	8200		LBI R2, #$00
9584	CCB0		SLE R12, R11
9586	F01D		BRA $956A		; -> -$1E(R0)

9588	CCA2		SE R12, R10
958A	A013		BRA $95A0		; $14(R0)

958C	C903		SZ R9
958E	A017		BRA $95A8		; $18(R0)

9590	CF0B		SNZ R15
9592	A0A9		BRA $963E		; $AA(R0)

9594	C203		SZ R2
9596	F03D		BRA $955A		; -> -$3E(R0)

9598	9EF0		CLR R14, #$F0
959A	0CE4		MOVE R12, R14
959C	8201		LBI R2, #$01
959E	F01B		BRA $9584		; -> -$1C(R0)

95A0	C903		SZ R9
95A2	A003		BRA $95A8		; $04(R0)

95A4	8901		LBI R9, #$01
95A6	A079		BRA $9622		; $7A(R0)

95A8	0338		ADD R3, R3
95AA	0448		ADD R4, R4
95AC	0558		ADD R5, R5
95AE	0668		ADD R6, R6
95B0	014C		MHL R1, R4
95B2	0318		ADD R3, R1
95B4	015C		MHL R1, R5
95B6	0418		ADD R4, R1
95B8	016C		MHL R1, R6
95BA	0518		ADD R5, R1
95BC	04AD		MLH R4, R10
95BE	05AD		MLH R5, R10
95C0	06AD		MLH R6, R10
95C2	0864		MOVE R8, R6
95C4	085D		MLH R8, R5
95C6	0744		MOVE R7, R4
95C8	073D		MLH R7, R3
95CA	0338		ADD R3, R3
95CC	0448		ADD R4, R4
95CE	0558		ADD R5, R5
95D0	0668		ADD R6, R6
95D2	014C		MHL R1, R4
95D4	0318		ADD R3, R1
95D6	015C		MHL R1, R5
95D8	0418		ADD R4, R1
95DA	016C		MHL R1, R6
95DC	0518		ADD R5, R1
95DE	04AD		MLH R4, R10
95E0	05AD		MLH R5, R10
95E2	06AD		MLH R6, R10
95E4	0338		ADD R3, R3
95E6	0448		ADD R4, R4
95E8	0558		ADD R5, R5
95EA	0668		ADD R6, R6
95EC	014C		MHL R1, R4
95EE	0318		ADD R3, R1
95F0	015C		MHL R1, R5
95F2	0418		ADD R4, R1
95F4	016C		MHL R1, R6
95F6	0518		ADD R5, R1
95F8	04AD		MLH R4, R10
95FA	05AD		MLH R5, R10
95FC	06AD		MLH R6, R10
95FE	0688		ADD R6, R8
9600	018C		MHL R1, R8
9602	0518		ADD R5, R1
9604	0478		ADD R4, R7
9606	017C		MHL R1, R7
9608	0318		ADD R3, R1
960A	8801		LBI R8, #$01
960C	C68F		SNBSH R6, R8
960E	A500		ADD R5, #$01
9610	C58F		SNBSH R5, R8
9612	A400		ADD R4, #$01
9614	C48F		SNBSH R4, R8
9616	A300		ADD R3, #$01
9618	C38F		SNBSH R3, R8
961A	028D		MLH R2, R8
961C	04AD		MLH R4, R10
961E	05AD		MLH R5, R10
9620	06AD		MLH R6, R10
9622	06C8		ADD R6, R12
9624	8801		LBI R8, #$01
9626	C687		SBSH R6, R8
9628	F099		BRA $9590		; -> -$9A(R0)

962A	A500		ADD R5, #$01
962C	C587		SBSH R5, R8
962E	F09F		BRA $9590		; -> -$A0(R0)

9630	A400		ADD R4, #$01
9632	C487		SBSH R4, R8
9634	F0A5		BRA $9590		; -> -$A6(R0)

9636	A300		ADD R3, #$01
9638	C38F		SNBSH R3, R8
963A	028D		MLH R2, R8
963C	F0AD		BRA $9590		; -> -$AE(R0)

963E	C203		SZ R2
9640	F0D7		BRA $956A		; -> -$D8(R0)

9642	9EF0		CLR R14, #$F0
9644	CEB8		SGT R14, R11
9646	F0DD		BRA $956A		; -> -$DE(R0)

9648	8780		LBI R7, #$80
964A	C37D		SNBS R3, R7
964C	027D		MLH R2, R7
964E	8801		LBI R8, #$01
9650	CE8E		SNBC R14, R8
9652	A005		BRA $965A		; $06(R0)

9654	880F		LBI R8, #$0F
9656	CE85		SBS R14, R8
9658	A021		BRA $967C		; $22(R0)

965A	9380		CLR R3, #$80
965C	2CCA		MOVE R12, $194
965E	2FCB		MOVE R15, $196
9660	043D		MLH R4, R3
9662	065D		MLH R6, R5
9664	54C1		MOVE (R12)+, R4
9666	56C8		MOVE (R12), R6
9668	022C		MHL R2, R2
966A	C20B		SNZ R2
966C	2082		JMP ($0104)

966E	8209		LBI R2, #$09
9670	2182		MOVE R1, $104
9672	31CA		MOVE $194, R1
9674	8183		LBI R1, #$83
9676	011D		MLH R1, R1
9678	815A		LBI R1, #$5A
967A	0014		RET R1

967C	81FF		LBI R1, #$FF
967E	0617		XOR R6, R1
9680	0517		XOR R5, R1
9682	0417		XOR R4, R1
9684	0317		XOR R3, R1
9686	B307		SET R3, #$07
9688	A600		ADD R6, #$01
968A	C603		SZ R6
968C	F031		BRA $965C		; -> -$32(R0)

968E	A500		ADD R5, #$01
9690	C503		SZ R5
9692	F037		BRA $965C		; -> -$38(R0)

9694	A400		ADD R4, #$01
9696	C403		SZ R4
9698	F03D		BRA $965C		; -> -$3E(R0)

969A	A300		ADD R3, #$01
969C	C37D		SNBS R3, R7
969E	F043		BRA $965C		; -> -$44(R0)

96A0	B307		SET R3, #$07
96A2	027D		MLH R2, R7
96A4	F049		BRA $965C		; -> -$4A(R0)

96A6	0000		HALT
96A8	0000		HALT
96AA	0000		HALT
96AC	0000		HALT
96AE	0000		HALT
96B0	0000		HALT
96B2	0000		HALT
96B4	0000		HALT
96B6	0000		HALT
96B8	0000		HALT
96BA	0000		HALT
96BC	0000		HALT
96BE	0000		HALT
96C0	0000		HALT
96C2	0000		HALT
96C4	0000		HALT
96C6	0000		HALT
96C8	0000		HALT
96CA	0000		HALT
96CC	0000		HALT
96CE	0000		HALT
96D0	0000		HALT
96D2	0000		HALT
96D4	0000		HALT
96D6	0000		HALT
96D8	0000		HALT
96DA	0000		HALT
96DC	0000		HALT
96DE	0000		HALT
96E0	0000		HALT
96E2	0000		HALT
96E4	0000		HALT
96E6	0000		HALT
96E8	0000		HALT
96EA	0000		HALT
96EC	0000		HALT
96EE	0000		HALT
96F0	0000		HALT
96F2	0000		HALT
96F4	0000		HALT
96F6	0000		HALT
96F8	0000		HALT
96FA	0000		HALT
96FC	0000		HALT
96FE	0000		HALT
9700	0000		HALT
9702	0000		HALT
9704	0000		HALT
9706	0000		HALT
9708	0000		HALT
970A	0000		HALT
970C	0000		HALT
970E	0000		HALT
9710	0000		HALT
9712	0000		HALT
9714	0000		HALT
9716	0000		HALT
9718	0000		HALT
971A	0000		HALT
971C	0000		HALT
971E	0000		HALT
9720	0000		HALT
9722	0000		HALT
9724	0000		HALT
9726	0000		HALT
9728	0000		HALT
972A	0000		HALT
972C	0000		HALT
972E	0000		HALT
9730	0000		HALT
9732	0000		HALT
9734	0000		HALT
9736	0000		HALT
9738	0000		HALT
973A	0000		HALT
973C	0000		HALT
973E	0000		HALT
9740	0000		HALT
9742	0000		HALT
9744	0000		HALT
9746	0000		HALT
9748	0000		HALT
974A	0000		HALT
974C	0000		HALT
974E	0000		HALT
9750	0000		HALT
9752	0000		HALT
9754	0000		HALT
9756	0000		HALT
9758	0000		HALT
975A	0000		HALT
975C	0000		HALT
975E	0000		HALT
9760	0000		HALT
9762	0000		HALT
9764	0000		HALT
9766	0000		HALT
9768	0000		HALT
976A	0000		HALT
976C	0000		HALT
976E	0000		HALT
9770	0000		HALT
9772	0000		HALT
9774	0000		HALT
9776	0000		HALT
9778	0000		HALT
977A	0000		HALT
977C	0000		HALT
977E	0000		HALT
9780	0000		HALT
9782	0000		HALT
9784	0000		HALT
9786	0000		HALT
9788	0000		HALT
978A	0000		HALT
978C	0000		HALT
978E	0000		HALT
9790	0000		HALT
9792	0000		HALT
9794	0000		HALT
9796	0000		HALT
9798	0000		HALT
979A	0000		HALT
979C	0000		HALT
979E	0000		HALT
97A0	0000		HALT
97A2	0000		HALT
97A4	0000		HALT
97A6	0000		HALT
97A8	0000		HALT
97AA	0000		HALT
97AC	0000		HALT
97AE	0000		HALT
97B0	0000		HALT
97B2	0000		HALT
97B4	0000		HALT
97B6	0000		HALT
97B8	0000		HALT
97BA	0000		HALT
97BC	0000		HALT
97BE	0000		HALT
97C0	0000		HALT
97C2	0000		HALT
97C4	0000		HALT
97C6	0000		HALT
97C8	0000		HALT
97CA	0000		HALT
97CC	0000		HALT
97CE	0000		HALT
97D0	0000		HALT
97D2	0000		HALT
97D4	0000		HALT
97D6	0000		HALT
97D8	0000		HALT
97DA	0000		HALT
97DC	0000		HALT
97DE	0000		HALT
97E0	0000		HALT
97E2	0000		HALT
97E4	0000		HALT
97E6	0000		HALT
97E8	0000		HALT
97EA	0000		HALT
97EC	0000		HALT
97EE	0000		HALT
97F0	0000		HALT
97F2	0000		HALT
97F4	0000		HALT
97F6	0000		HALT
97F8	0000		HALT
97FA	0000		HALT
97FC	0000		HALT
97FE	0000		HALT
9800	0203		INC2 R2, R0
9802	20BE		JMP ($017C)

9804	8183		LBI R1, #$83
9806	011D		MLH R1, R1
9808	816E		LBI R1, #$6E
980A	0014		RET R1

980C	0000		HALT
980E	8200		LBI R2, #$00
9810	2353		MOVE R3, $A6
9812	2453		MOVE R4, $A6
9814	2553		MOVE R5, $A6
9816	D8C1		MOVE R8, (R12)+
9818	D9C8		MOVE R9, (R12)
981A	8A00		LBI R10, #$00
981C	8B01		LBI R11, #$01
981E	53D1		MOVE (R13)+, R3
9820	3DCA		MOVE $194, R13
9822	2D53		MOVE R13, $A6
9824	8D80		LBI R13, #$80
9826	8E0A		LBI R14, #$0A
9828	3FCB		MOVE $196, R15
982A	8F08		LBI R15, #$08
982C	C8D7		SBSH R8, R13
982E	A02B		BRA $985C		; $2C(R0)

9830	81FF		LBI R1, #$FF
9832	068C		MHL R6, R8
9834	079C		MHL R7, R9
9836	0617		XOR R6, R1
9838	0717		XOR R7, R1
983A	0817		XOR R8, R1
983C	0917		XOR R9, R1
983E	A900		ADD R9, #$01
9840	C903		SZ R9
9842	A00D		BRA $9852		; $0E(R0)

9844	A700		ADD R7, #$01
9846	C703		SZ R7
9848	A007		BRA $9852		; $08(R0)

984A	A800		ADD R8, #$01
984C	C803		SZ R8
984E	A001		BRA $9852		; $02(R0)

9850	A600		ADD R6, #$01
9852	810D		LBI R1, #$0D
9854	021D		MLH R2, R1
9856	086D		MLH R8, R6
9858	097D		MLH R9, R7
985A	A003		BRA $9860		; $04(R0)

985C	810C		LBI R1, #$0C
985E	021D		MLH R2, R1
9860	0FFD		MLH R15, R15
9862	0C8C		MHL R12, R8
9864	CC03		SZ R12
9866	A02B		BRA $9894		; $2C(R0)

9868	FF01		SUB R15, #$02
986A	0FFD		MLH R15, R15
986C	0C84		MOVE R12, R8
986E	C203		SZ R2
9870	A02D		BRA $98A0		; $2E(R0)

9872	CC03		SZ R12
9874	A01D		BRA $9894		; $1E(R0)

9876	FF01		SUB R15, #$02
9878	0FFD		MLH R15, R15
987A	0C9C		MHL R12, R9
987C	C203		SZ R2
987E	A01F		BRA $98A0		; $20(R0)

9880	CC03		SZ R12
9882	A00F		BRA $9894		; $10(R0)

9884	FF01		SUB R15, #$02
9886	0FFD		MLH R15, R15
9888	0C94		MOVE R12, R9
988A	C203		SZ R2
988C	A011		BRA $98A0		; $12(R0)

988E	CC03		SZ R12
9890	A001		BRA $9894		; $02(R0)

9892	A0BF		BRA $9954		; $C0(R0)

9894	CCDD		SNBS R12, R13
9896	A003		BRA $989C		; $04(R0)

9898	E0DC		SHR R13
989A	F007		BRA $9894		; -> -$08(R0)

989C	8210		LBI R2, #$10
989E	A001		BRA $98A2		; $02(R0)

98A0	CCDD		SNBS R12, R13
98A2	0526		OR R5, R2
98A4	E0DC		SHR R13
98A6	CD03		SZ R13
98A8	A007		BRA $98B2		; $08(R0)

98AA	0FFC		MHL R15, R15
98AC	FF01		SUB R15, #$02
98AE	CF0B		SNZ R15
98B0	A0A1		BRA $9954		; $A2(R0)

98B2	8F9A		LBI R15, #$9A
98B4	0654		MOVE R6, R5
98B6	06AD		MLH R6, R10
98B8	0668		ADD R6, R6
98BA	C6B7		SBSH R6, R11
98BC	C6F1		SLT R6, R15
98BE	A65F		ADD R6, #$60
98C0	075C		MHL R7, R5
98C2	8500		LBI R5, #$00
98C4	0566		OR R5, R6
98C6	97F0		CLR R7, #$F0
98C8	067A		ADDH R6, R7
98CA	0678		ADD R6, R7
98CC	C6E1		SLT R6, R14
98CE	A605		ADD R6, #$06
98D0	075C		MHL R7, R5
98D2	970F		CLR R7, #$0F
98D4	0678		ADD R6, R7
98D6	0678		ADD R6, R7
98D8	C6B7		SBSH R6, R11
98DA	C6F1		SLT R6, R15
98DC	A65F		ADD R6, #$60
98DE	056D		MLH R5, R6
98E0	0744		MOVE R7, R4
98E2	97F0		CLR R7, #$F0
98E4	067A		ADDH R6, R7
98E6	0678		ADD R6, R7
98E8	C6E1		SLT R6, R14
98EA	A605		ADD R6, #$06
98EC	0744		MOVE R7, R4
98EE	970F		CLR R7, #$0F
98F0	0678		ADD R6, R7
98F2	0678		ADD R6, R7
98F4	C6B7		SBSH R6, R11
98F6	C6F1		SLT R6, R15
98F8	A65F		ADD R6, #$60
98FA	074C		MHL R7, R4
98FC	8400		LBI R4, #$00
98FE	0466		OR R4, R6
9900	97F0		CLR R7, #$F0
9902	067A		ADDH R6, R7
9904	0678		ADD R6, R7
9906	C6E1		SLT R6, R14
9908	A605		ADD R6, #$06
990A	074C		MHL R7, R4
990C	970F		CLR R7, #$0F
990E	0678		ADD R6, R7
9910	0678		ADD R6, R7
9912	C6B7		SBSH R6, R11
9914	C6F1		SLT R6, R15
9916	A65F		ADD R6, #$60
9918	046D		MLH R4, R6
991A	0734		MOVE R7, R3
991C	97F0		CLR R7, #$F0
991E	067A		ADDH R6, R7
9920	0678		ADD R6, R7
9922	C6E1		SLT R6, R14
9924	A605		ADD R6, #$06
9926	0734		MOVE R7, R3
9928	970F		CLR R7, #$0F
992A	0678		ADD R6, R7
992C	0678		ADD R6, R7
992E	C6B7		SBSH R6, R11
9930	C6F1		SLT R6, R15
9932	A65F		ADD R6, #$60
9934	073C		MHL R7, R3
9936	8300		LBI R3, #$00
9938	0366		OR R3, R6
993A	067A		ADDH R6, R7
993C	0678		ADD R6, R7
993E	036D		MLH R3, R6
9940	CD03		SZ R13
9942	F0A3		BRA $98A0		; -> -$A4(R0)

9944	0FFC		MHL R15, R15
9946	8D80		LBI R13, #$80
9948	FF01		SUB R15, #$02
994A	00F8		ADD R0, R15
994C	A005		BRA $9954		; $06(R0)

994E	F0C9		BRA $9886		; -> -$CA(R0)

9950	F0D9		BRA $9878		; -> -$DA(R0)

9952	F0E9		BRA $986A		; -> -$EA(R0)

9954	022C		MHL R2, R2
9956	0526		OR R5, R2
9958	2FCB		MOVE R15, $196
995A	2DCA		MOVE R13, $194
995C	53D1		MOVE (R13)+, R3
995E	54D1		MOVE (R13)+, R4
9960	55D8		MOVE (R13), R5
9962	2082		JMP ($0104)

9964	0203		INC2 R2, R0
9966	20BE		JMP ($017C)

9968	0203		INC2 R2, R0
996A	20AE		JMP ($015C)

996C	A005		BRA $9974		; $06(R0)

996E	0000		HALT
9970	0000		HALT
9972	D8D8		MOVE R8, (R13)
9974	2753		MOVE R7, $A6
9976	9F01		CLR R15, #$01
9978	BF02		SET R15, #$02
997A	8180		LBI R1, #$80
997C	C81F		SNBSH R8, R1
997E	F700		SUB R7, #$01
9980	A015		BRA $9998		; $16(R0)

9982	0203		INC2 R2, R0
9984	20BE		JMP ($017C)

9986	0203		INC2 R2, R0
9988	20AF		JMP ($015E)

998A	A007		BRA $9994		; $08(R0)

998C	0203		INC2 R2, R0
998E	20BC		JMP ($0178)

9990	D7D1		MOVE R7, (R13)+
9992	D8D5		MOVE R8, (R13)-
9994	BC10		SET R12, #$10
9996	9F03		CLR R15, #$03
9998	D4C1		MOVE R4, (R12)+
999A	D6C5		MOVE R6, (R12)-
999C	2D9A		MOVE R13, $134
999E	8D19		LBI R13, #$19
99A0	017C		MHL R1, R7
99A2	31A2		MOVE $144, R1
99A4	71D0		MOVB (R13)+, R1
99A6	77D0		MOVB (R13)+, R7
99A8	018C		MHL R1, R8
99AA	71D0		MOVB (R13)+, R1
99AC	78D8		MOVB (R13), R8
99AE	819C		LBI R1, #$9C
99B0	011D		MLH R1, R1
99B2	81F8		LBI R1, #$F8
99B4	31CA		MOVE $194, R1
99B6	819D		LBI R1, #$9D
99B8	011D		MLH R1, R1
99BA	8158		LBI R1, #$58
99BC	31CB		MOVE $196, R1
99BE	2EAA		MOVE R14, $154
99C0	2853		MOVE R8, $A6
99C2	8180		LBI R1, #$80
99C4	C41F		SNBSH R4, R1
99C6	F800		SUB R8, #$01
99C8	3DCE		MOVE $19C, R13
99CA	0D84		MOVE R13, R8
99CC	58E1		MOVE (R14)+, R8
99CE	54E1		MOVE (R14)+, R4
99D0	56E8		MOVE (R14), R6
99D2	038D		MLH R3, R8
99D4	034C		MHL R3, R4
99D6	054D		MLH R5, R4
99D8	056C		MHL R5, R6
99DA	076D		MLH R7, R6
99DC	8700		LBI R7, #$00
99DE	8E3C		LBI R14, #$3C
99E0	8B07		LBI R11, #$07
99E2	E07C		SHR R7
99E4	065D		MLH R6, R5
99E6	E06C		SHR R6
99E8	076D		MLH R7, R6
99EA	57E5		MOVE (R14)-, R7
99EC	E05C		SHR R5
99EE	043D		MLH R4, R3
99F0	E04C		SHR R4
99F2	054D		MLH R5, R4
99F4	55E5		MOVE (R14)-, R5
99F6	E03C		SHR R3
99F8	53E7		MOVE (R14)--, R3
99FA	FB00		SUB R11, #$01
99FC	CB03		SZ R11
99FE	F01D		BRA $99E2		; -> -$1E(R0)

9A00	A085		BRA $9A88		; $86(R0)

9A02	0203		INC2 R2, R0
9A04	20BF		JMP ($017E)

9A06	0203		INC2 R2, R0
9A08	20AF		JMP ($015E)

9A0A	A007		BRA $9A14		; $08(R0)

9A0C	0203		INC2 R2, R0
9A0E	20BD		JMP ($017A)

9A10	D7D1		MOVE R7, (R13)+
9A12	D8D5		MOVE R8, (R13)-
9A14	2953		MOVE R9, $A6
9A16	2A53		MOVE R10, $A6
9A18	3ADC		MOVE $1B8, R10
9A1A	3ADD		MOVE $1BA, R10
9A1C	BF01		SET R15, #$01
9A1E	D3C1		MOVE R3, (R12)+
9A20	D4C5		MOVE R4, (R12)-
9A22	2553		MOVE R5, $A6
9A24	2653		MOVE R6, $A6
9A26	0203		INC2 R2, R0
9A28	20BA		JMP ($0174)

9A2A	A001		BRA $9A2E		; $02(R0)

9A2C	A095		BRA $9AC4		; $96(R0)

9A2E	0203		INC2 R2, R0
9A30	20BB		JMP ($0176)

9A32	A001		BRA $9A36		; $02(R0)

9A34	A08D		BRA $9AC4		; $8E(R0)

9A36	2D9A		MOVE R13, $134
9A38	8D18		LBI R13, #$18
9A3A	0134		MOVE R1, R3
9A3C	017C		MHL R1, R7
9A3E	31CF		MOVE $19E, R1
9A40	57D1		MOVE (R13)+, R7
9A42	58D0		MOVE (R13)', R8
9A44	819D		LBI R1, #$9D
9A46	011D		MLH R1, R1
9A48	8102		LBI R1, #$02
9A4A	31CA		MOVE $194, R1
9A4C	819D		LBI R1, #$9D
9A4E	011D		MLH R1, R1
9A50	8166		LBI R1, #$66
9A52	31CB		MOVE $196, R1
9A54	3DCE		MOVE $19C, R13
9A56	2D53		MOVE R13, $A6
9A58	2EAA		MOVE R14, $154
9A5A	0544		MOVE R5, R4
9A5C	8600		LBI R6, #$00
9A5E	036D		MLH R3, R6
9A60	53E1		MOVE (R14)+, R3
9A62	55E8		MOVE (R14), R5
9A64	043D		MLH R4, R3
9A66	045C		MHL R4, R5
9A68	065D		MLH R6, R5
9A6A	8E3A		LBI R14, #$3A
9A6C	8B07		LBI R11, #$07
9A6E	E06C		SHR R6
9A70	054D		MLH R5, R4
9A72	E05C		SHR R5
9A74	065D		MLH R6, R5
9A76	56E5		MOVE (R14)-, R6
9A78	E04C		SHR R4
9A7A	E03C		SHR R3
9A7C	043D		MLH R4, R3
9A7E	54E5		MOVE (R14)-, R4
9A80	FE03		SUB R14, #$04
9A82	FB00		SUB R11, #$01
9A84	CB03		SZ R11
9A86	F019		BRA $9A6E		; -> -$1A(R0)

9A88	A0BD		BRA $9B48		; $BE(R0)

9A8A	0203		INC2 R2, R0
9A8C	20BF		JMP ($017E)

9A8E	0203		INC2 R2, R0
9A90	20AC		JMP ($0158)

9A92	A00B		BRA $9AA0		; $0C(R0)

9A94	0203		INC2 R2, R0
9A96	20BD		JMP ($017A)

9A98	D7D1		MOVE R7, (R13)+
9A9A	D8D1		MOVE R8, (R13)+
9A9C	D9D1		MOVE R9, (R13)+
9A9E	DAD8		MOVE R10, (R13)
9AA0	BF01		SET R15, #$01
9AA2	8100		LBI R1, #$00
9AA4	31DC		MOVE $1B8, R1
9AA6	31DD		MOVE $1BA, R1
9AA8	D3C1		MOVE R3, (R12)+
9AAA	D4C1		MOVE R4, (R12)+
9AAC	D5C1		MOVE R5, (R12)+
9AAE	D6C7		MOVE R6, (R12)--
9AB0	FC01		SUB R12, #$02
9AB2	0203		INC2 R2, R0
9AB4	20BA		JMP ($0174)

9AB6	A001		BRA $9ABA		; $02(R0)

9AB8	A009		BRA $9AC4		; $0A(R0)

9ABA	0203		INC2 R2, R0
9ABC	20BB		JMP ($0176)

9ABE	A00F		BRA $9AD0		; $10(R0)

9AC0	A001		BRA $9AC4		; $02(R0)

9AC2	A00B		BRA $9AD0		; $0C(R0)

9AC4	2353		MOVE R3, $A6
9AC6	53C1		MOVE (R12)+, R3
9AC8	53C1		MOVE (R12)+, R3
9ACA	53C1		MOVE (R12)+, R3
9ACC	53C8		MOVE (R12), R3
9ACE	2082		JMP ($0104)

9AD0	2D9A		MOVE R13, $134
9AD2	8D18		LBI R13, #$18
9AD4	0134		MOVE R1, R3
9AD6	017C		MHL R1, R7
9AD8	31CF		MOVE $19E, R1
9ADA	57D1		MOVE (R13)+, R7
9ADC	58D1		MOVE (R13)+, R8
9ADE	59D1		MOVE (R13)+, R9
9AE0	5AD0		MOVE (R13)', R10
9AE2	819D		LBI R1, #$9D
9AE4	011D		MLH R1, R1
9AE6	810A		LBI R1, #$0A
9AE8	31CA		MOVE $194, R1
9AEA	819D		LBI R1, #$9D
9AEC	011D		MLH R1, R1
9AEE	8172		LBI R1, #$72
9AF0	31CB		MOVE $196, R1
9AF2	3DCE		MOVE $19C, R13
9AF4	2D53		MOVE R13, $A6
9AF6	2EAA		MOVE R14, $154
9AF8	0964		MOVE R9, R6
9AFA	0754		MOVE R7, R5
9AFC	0544		MOVE R5, R4
9AFE	8A00		LBI R10, #$00
9B00	03AD		MLH R3, R10
9B02	53E1		MOVE (R14)+, R3
9B04	55E1		MOVE (R14)+, R5
9B06	57E1		MOVE (R14)+, R7
9B08	59E8		MOVE (R14), R9
9B0A	043D		MLH R4, R3
9B0C	045C		MHL R4, R5
9B0E	065D		MLH R6, R5
9B10	067C		MHL R6, R7
9B12	087D		MLH R8, R7
9B14	089C		MHL R8, R9
9B16	0A9D		MLH R10, R9
9B18	8E3E		LBI R14, #$3E
9B1A	8B07		LBI R11, #$07
9B1C	E0AC		SHR R10
9B1E	098D		MLH R9, R8
9B20	E09C		SHR R9
9B22	0A9D		MLH R10, R9
9B24	5AE5		MOVE (R14)-, R10
9B26	E08C		SHR R8
9B28	076D		MLH R7, R6
9B2A	E07C		SHR R7
9B2C	087D		MLH R8, R7
9B2E	58E5		MOVE (R14)-, R8
9B30	E06C		SHR R6
9B32	054D		MLH R5, R4
9B34	E05C		SHR R5
9B36	065D		MLH R6, R5
9B38	56E5		MOVE (R14)-, R6
9B3A	E04C		SHR R4
9B3C	E03C		SHR R3
9B3E	043D		MLH R4, R3
9B40	54E5		MOVE (R14)-, R4
9B42	FB00		SUB R11, #$01
9B44	CB03		SZ R11
9B46	F02B		BRA $9B1C		; -> -$2C(R0)

9B48	2353		MOVE R3, $A6
9B4A	2453		MOVE R4, $A6
9B4C	2553		MOVE R5, $A6
9B4E	2653		MOVE R6, $A6
9B50	2B53		MOVE R11, $A6
9B52	3CCC		MOVE $198, R12
9B54	3FCD		MOVE $19A, R15
9B56	2CCE		MOVE R12, $19C
9B58	61C8		MOVB R1, (R12)
9B5A	0B1A		ADDH R11, R1
9B5C	8E00		LBI R14, #$00
9B5E	01B4		MOVE R1, R11
9B60	91F0		CLR R1, #$F0
9B62	0118		ADD R1, R1
9B64	0018		ADD R0, R1
9B66	A08D		BRA $9BF6		; $8E(R0)

9B68	A01B		BRA $9B86		; $1C(R0)

9B6A	A023		BRA $9B90		; $24(R0)

9B6C	A01D		BRA $9B8C		; $1E(R0)

9B6E	A035		BRA $9BA6		; $36(R0)

9B70	A02F		BRA $9BA2		; $30(R0)

9B72	A023		BRA $9B98		; $24(R0)

9B74	A037		BRA $9BAE		; $38(R0)

9B76	A047		BRA $9BC0		; $48(R0)

9B78	A039		BRA $9BB4		; $3A(R0)

9B7A	A03D		BRA $9BBA		; $3E(R0)

9B7C	A049		BRA $9BC8		; $4A(R0)

9B7E	A051		BRA $9BD2		; $52(R0)

9B80	A04B		BRA $9BCE		; $4C(R0)

9B82	A055		BRA $9BDA		; $56(R0)

9B84	A05B		BRA $9BE2		; $5C(R0)

9B86	0203		INC2 R2, R0
9B88	20CA		JMP ($0194)

9B8A	A069		BRA $9BF6		; $6A(R0)

9B8C	0203		INC2 R2, R0
9B8E	20CA		JMP ($0194)

9B90	BE08		SET R14, #$08
9B92	0203		INC2 R2, R0
9B94	20CA		JMP ($0194)

9B96	A05D		BRA $9BF6		; $5E(R0)

9B98	BE08		SET R14, #$08
9B9A	0203		INC2 R2, R0
9B9C	20CA		JMP ($0194)

9B9E	9E08		CLR R14, #$08
9BA0	A003		BRA $9BA6		; $04(R0)

9BA2	0203		INC2 R2, R0
9BA4	20CA		JMP ($0194)

9BA6	BE10		SET R14, #$10
9BA8	0203		INC2 R2, R0
9BAA	20CA		JMP ($0194)

9BAC	A047		BRA $9BF6		; $48(R0)

9BAE	0203		INC2 R2, R0
9BB0	20CB		JMP ($0196)

9BB2	A00B		BRA $9BC0		; $0C(R0)

9BB4	0203		INC2 R2, R0
9BB6	20CA		JMP ($0194)

9BB8	A005		BRA $9BC0		; $06(R0)

9BBA	BE08		SET R14, #$08
9BBC	0203		INC2 R2, R0
9BBE	20CA		JMP ($0194)

9BC0	BE18		SET R14, #$18
9BC2	0203		INC2 R2, R0
9BC4	20CA		JMP ($0194)

9BC6	A02D		BRA $9BF6		; $2E(R0)

9BC8	0203		INC2 R2, R0
9BCA	20CB		JMP ($0196)

9BCC	A003		BRA $9BD2		; $04(R0)

9BCE	0203		INC2 R2, R0
9BD0	20CA		JMP ($0194)

9BD2	BE10		SET R14, #$10
9BD4	0203		INC2 R2, R0
9BD6	20CB		JMP ($0196)

9BD8	A00B		BRA $9BE6		; $0C(R0)

9BDA	BE08		SET R14, #$08
9BDC	0203		INC2 R2, R0
9BDE	20CB		JMP ($0196)

9BE0	A003		BRA $9BE6		; $04(R0)

9BE2	0203		INC2 R2, R0
9BE4	20CB		JMP ($0196)

9BE6	8120		LBI R1, #$20
9BE8	CE16		SBC R14, R1
9BEA	A003		BRA $9BF0		; $04(R0)

9BEC	AB0F		ADD R11, #$10
9BEE	A00B		BRA $9BFC		; $0C(R0)

9BF0	AB7F		ADD R11, #$80
9BF2	AB7F		ADD R11, #$80
9BF4	A00F		BRA $9C06		; $10(R0)

9BF6	8120		LBI R1, #$20
9BF8	CE16		SBC R14, R1
9BFA	A009		BRA $9C06		; $0A(R0)

9BFC	8E20		LBI R14, #$20
9BFE	9B0F		CLR R11, #$0F
9C00	E0BE		ROR3 R11
9C02	01B4		MOVE R1, R11
9C04	F0A1		BRA $9B64		; -> -$A2(R0)

9C06	2CCE		MOVE R12, $19C
9C08	76C4		MOVB (R12)-, R6
9C0A	3CCE		MOVE $19C, R12
9C0C	066C		MHL R6, R6
9C0E	065D		MLH R6, R5
9C10	055C		MHL R5, R5
9C12	054D		MLH R5, R4
9C14	044C		MHL R4, R4
9C16	043D		MLH R4, R3
9C18	033C		MHL R3, R3
9C1A	2FCD		MOVE R15, $19A
9C1C	8101		LBI R1, #$01
9C1E	CF16		SBC R15, R1
9C20	A007		BRA $9C2A		; $08(R0)

9C22	8D00		LBI R13, #$00
9C24	8180		LBI R1, #$80
9C26	C316		SBC R3, R1
9C28	8DFF		LBI R13, #$FF
9C2A	03DD		MLH R3, R13
9C2C	8107		LBI R1, #$07
9C2E	CC16		SBC R12, R1
9C30	F0D9		BRA $9B58		; -> -$DA(R0)

9C32	2CCC		MOVE R12, $198
9C34	2FCD		MOVE R15, $19A
9C36	8101		LBI R1, #$01
9C38	CF1E		SNBC R15, R1
9C3A	A089		BRA $9CC6		; $8A(R0)

9C3C	0BBC		MHL R11, R11
9C3E	CB0B		SNZ R11
9C40	A005		BRA $9C48		; $06(R0)

9C42	8E00		LBI R14, #$00
9C44	0203		INC2 R2, R0
9C46	20CA		JMP ($0194)

9C48	2DCE		MOVE R13, $19C
9C4A	21CF		MOVE R1, $19E
9C4C	071C		MHL R7, R1
9C4E	0717		XOR R7, R1
9C50	977F		CLR R7, #$7F
9C52	21CF		MOVE R1, $19E
9C54	9180		CLR R1, #$80
9C56	2853		MOVE R8, $A6
9C58	081C		MHL R8, R1
9C5A	9880		CLR R8, #$80
9C5C	0818		ADD R8, R1
9C5E	F83F		SUB R8, #$40
9C60	8100		LBI R1, #$00
9C62	031D		MLH R3, R1
9C64	0203		INC2 R2, R0
9C66	20BA		JMP ($0174)

9C68	A00B		BRA $9C76		; $0C(R0)

9C6A	0004		NOP
9C6C	F800		SUB R8, #$01
9C6E	D1D8		MOVE R1, (R13)
9C70	910F		CLR R1, #$0F
9C72	E01F		SWAP R1
9C74	0616		OR R6, R1
9C76	81FF		LBI R1, #$FF
9C78	C817		SBSH R8, R1
9C7A	A011		BRA $9C8E		; $12(R0)

9C7C	9880		CLR R8, #$80
9C7E	0876		OR R8, R7
9C80	038D		MLH R3, R8
9C82	2AA3		MOVE R10, $146
9C84	8102		LBI R1, #$02
9C86	CA1E		SNBC R10, R1
9C88	A01F		BRA $9CAA		; $20(R0)

9C8A	8B0D		LBI R11, #$0D
9C8C	A00D		BRA $9C9C		; $0E(R0)

9C8E	8180		LBI R1, #$80
9C90	C81E		SNBC R8, R1
9C92	A021		BRA $9CB6		; $22(R0)

9C94	9880		CLR R8, #$80
9C96	0876		OR R8, R7
9C98	038D		MLH R3, R8
9C9A	8B0C		LBI R11, #$0C
9C9C	2182		MOVE R1, $104
9C9E	31CA		MOVE $194, R1
9CA0	8183		LBI R1, #$83
9CA2	011D		MLH R1, R1
9CA4	815A		LBI R1, #$5A
9CA6	3182		MOVE $104, R1
9CA8	A011		BRA $9CBC		; $12(R0)

9CAA	2353		MOVE R3, $A6
9CAC	53C1		MOVE (R12)+, R3
9CAE	53C1		MOVE (R12)+, R3
9CB0	53C1		MOVE (R12)+, R3
9CB2	53C8		MOVE (R12), R3
9CB4	2082		JMP ($0104)

9CB6	9880		CLR R8, #$80
9CB8	0876		OR R8, R7
9CBA	038D		MLH R3, R8
9CBC	53C1		MOVE (R12)+, R3
9CBE	54C1		MOVE (R12)+, R4
9CC0	55C1		MOVE (R12)+, R5
9CC2	56C8		MOVE (R12), R6
9CC4	2082		JMP ($0104)

9CC6	27A2		MOVE R7, $144
9CC8	8180		LBI R1, #$80
9CCA	C71E		SNBC R7, R1
9CCC	A00F		BRA $9CDE		; $10(R0)

9CCE	0BBC		MHL R11, R11
9CD0	CB03		SZ R11
9CD2	A009		BRA $9CDE		; $0A(R0)

9CD4	8E00		LBI R14, #$00
9CD6	0203		INC2 R2, R0
9CD8	20CB		JMP ($0196)

9CDA	2CCC		MOVE R12, $198
9CDC	2FCD		MOVE R15, $19A
9CDE	2DCE		MOVE R13, $19C
9CE0	56C1		MOVE (R12)+, R6
9CE2	D7D1		MOVE R7, (R13)+
9CE4	77C0		MOVB (R12)+, R7
9CE6	67D5		MOVB R7, (R13)--
9CE8	77C6		MOVB (R12)---, R7
9CEA	8102		LBI R1, #$02
9CEC	CF16		SBC R15, R1
9CEE	2082		JMP ($0104)

9CF0	9C10		CLR R12, #$10
9CF2	54C1		MOVE (R12)+, R4
9CF4	55C5		MOVE (R12)-, R5
9CF6	2082		JMP ($0104)

9CF8	D7E1		MOVE R7, (R14)+
9CFA	D8E1		MOVE R8, (R14)+
9CFC	D9E7		MOVE R9, (R14)--
9CFE	2A53		MOVE R10, $A6
9D00	A01F		BRA $9D22		; $20(R0)

9D02	D7E1		MOVE R7, (R14)+
9D04	D8E5		MOVE R8, (R14)-
9D06	2953		MOVE R9, $A6
9D08	A027		BRA $9D32		; $28(R0)

9D0A	D7E1		MOVE R7, (R14)+
9D0C	D8E1		MOVE R8, (R14)+
9D0E	D9E1		MOVE R9, (R14)+
9D10	DAE7		MOVE R10, (R14)--
9D12	FE01		SUB R14, #$02
9D14	016C		MHL R1, R6
9D16	06AD		MLH R6, R10
9D18	066A		ADDH R6, R6
9D1A	0A6C		MHL R10, R6
9D1C	0AAA		ADDH R10, R10
9D1E	0A18		ADD R10, R1
9D20	06AD		MLH R6, R10
9D22	0A5A		ADDH R10, R5
9D24	0A98		ADD R10, R9
9D26	09AC		MHL R9, R10
9D28	099A		ADDH R9, R9
9D2A	055C		MHL R5, R5
9D2C	0958		ADD R9, R5
9D2E	0A9D		MLH R10, R9
9D30	05A4		MOVE R5, R10
9D32	094A		ADDH R9, R4
9D34	0988		ADD R9, R8
9D36	089C		MHL R8, R9
9D38	088A		ADDH R8, R8
9D3A	044C		MHL R4, R4
9D3C	0848		ADD R8, R4
9D3E	098D		MLH R9, R8
9D40	0494		MOVE R4, R9
9D42	083A		ADDH R8, R3
9D44	0878		ADD R8, R7
9D46	078C		MHL R7, R8
9D48	077A		ADDH R7, R7
9D4A	033C		MHL R3, R3
9D4C	0738		ADD R7, R3
9D4E	087D		MLH R8, R7
9D50	0384		MOVE R3, R8
9D52	077C		MHL R7, R7
9D54	0D78		ADD R13, R7
9D56	0024		RET R2

9D58	D7E1		MOVE R7, (R14)+
9D5A	D8E1		MOVE R8, (R14)+
9D5C	D9E7		MOVE R9, (R14)--
9D5E	2C53		MOVE R12, $A6
9D60	0C56		OR R12, R5
9D62	8FFF		LBI R15, #$FF
9D64	A035		BRA $9D9C		; $36(R0)

9D66	D7E1		MOVE R7, (R14)+
9D68	D8E5		MOVE R8, (R14)-
9D6A	2C53		MOVE R12, $A6
9D6C	0C46		OR R12, R4
9D6E	8FFF		LBI R15, #$FF
9D70	A043		BRA $9DB6		; $44(R0)

9D72	D7E1		MOVE R7, (R14)+
9D74	D8E1		MOVE R8, (R14)+
9D76	D9E1		MOVE R9, (R14)+
9D78	DAE7		MOVE R10, (R14)--
9D7A	FE01		SUB R14, #$02
9D7C	8FFF		LBI R15, #$FF
9D7E	2C53		MOVE R12, $A6
9D80	0C66		OR R12, R6
9D82	0CA9		SUB R12, R10
9D84	8600		LBI R6, #$00
9D86	06C6		OR R6, R12
9D88	0C6C		MHL R12, R6
9D8A	CCFF		SNBSH R12, R15
9D8C	0CCB		ADDH2 R12, R12
9D8E	0AAC		MHL R10, R10
9D90	0CA9		SUB R12, R10
9D92	06CD		MLH R6, R12
9D94	8C00		LBI R12, #$00
9D96	0C56		OR R12, R5
9D98	CCFF		SNBSH R12, R15
9D9A	0CCB		ADDH2 R12, R12
9D9C	0C99		SUB R12, R9
9D9E	8500		LBI R5, #$00
9DA0	05C6		OR R5, R12
9DA2	0C5C		MHL R12, R5
9DA4	CCFF		SNBSH R12, R15
9DA6	0CCB		ADDH2 R12, R12
9DA8	099C		MHL R9, R9
9DAA	0C99		SUB R12, R9
9DAC	05CD		MLH R5, R12
9DAE	8C00		LBI R12, #$00
9DB0	0C46		OR R12, R4
9DB2	CCFF		SNBSH R12, R15
9DB4	0CCB		ADDH2 R12, R12
9DB6	0C89		SUB R12, R8
9DB8	8400		LBI R4, #$00
9DBA	04C6		OR R4, R12
9DBC	0C4C		MHL R12, R4
9DBE	CCFF		SNBSH R12, R15
9DC0	0CCB		ADDH2 R12, R12
9DC2	088C		MHL R8, R8
9DC4	0C89		SUB R12, R8
9DC6	04CD		MLH R4, R12
9DC8	8C00		LBI R12, #$00
9DCA	0C36		OR R12, R3
9DCC	CCFF		SNBSH R12, R15
9DCE	0CCB		ADDH2 R12, R12
9DD0	0C79		SUB R12, R7
9DD2	8300		LBI R3, #$00
9DD4	03C6		OR R3, R12
9DD6	0C3C		MHL R12, R3
9DD8	CCFF		SNBSH R12, R15
9DDA	0CCB		ADDH2 R12, R12
9DDC	077C		MHL R7, R7
9DDE	0C79		SUB R12, R7
9DE0	03CD		MLH R3, R12
9DE2	0CCC		MHL R12, R12
9DE4	0DC8		ADD R13, R12
9DE6	0024		RET R2

9DE8	1074		CTRL $0, #$74
9DEA	8C02		LBI R12, #$02
9DEC	0CCD		MLH R12, R12
9DEE	8C00		LBI R12, #$00
9DF0	2B53		MOVE R11, $A6
9DF2	2D9A		MOVE R13, $134
9DF4	851B		LBI R5, #$1B
9DF6	8A09		LBI R10, #$09
9DF8	8410		LBI R4, #$10
9DFA	8804		LBI R8, #$04
9DFC	8902		LBI R9, #$02
9DFE	63D0		MOVB R3, (R13)+
9E00	0634		MOVE R6, R3
9E02	960F		CLR R6, #$0F
9E04	E06F		SWAP R6
9E06	C6A0		SLE R6, R10
9E08	A003		BRA $9E0E		; $04(R0)

9E0A	0658		ADD R6, R5
9E0C	A001		BRA $9E10		; $02(R0)

9E0E	06A9		SUB R6, R10
9E10	76C0		MOVB (R12)+, R6
9E12	F900		SUB R9, #$01
9E14	C90B		SNZ R9
9E16	A005		BRA $9E1E		; $06(R0)

9E18	0634		MOVE R6, R3
9E1A	96F0		CLR R6, #$F0
9E1C	F017		BRA $9E06		; -> -$18(R0)

9E1E	F800		SUB R8, #$01
9E20	C803		SZ R8
9E22	F027		BRA $9DFC		; -> -$28(R0)

9E24	5BC1		MOVE (R12)+, R11
9E26	5BC1		MOVE (R12)+, R11
9E28	5BC1		MOVE (R12)+, R11
9E2A	5BC1		MOVE (R12)+, R11
9E2C	AD0B		ADD R13, #$0C
9E2E	F400		SUB R4, #$01
9E30	C403		SZ R4
9E32	F039		BRA $9DFA		; -> -$3A(R0)

9E34	2D92		MOVE R13, $124
9E36	8404		LBI R4, #$04
9E38	8808		LBI R8, #$08
9E3A	8902		LBI R9, #$02
9E3C	63D0		MOVB R3, (R13)+
9E3E	0634		MOVE R6, R3
9E40	960F		CLR R6, #$0F
9E42	E06F		SWAP R6
9E44	C6A0		SLE R6, R10
9E46	A003		BRA $9E4C		; $04(R0)

9E48	0658		ADD R6, R5
9E4A	A001		BRA $9E4E		; $02(R0)

9E4C	06A9		SUB R6, R10
9E4E	76C0		MOVB (R12)+, R6
9E50	F900		SUB R9, #$01
9E52	C90B		SNZ R9
9E54	A005		BRA $9E5C		; $06(R0)

9E56	0634		MOVE R6, R3
9E58	96F0		CLR R6, #$F0
9E5A	F017		BRA $9E44		; -> -$18(R0)

9E5C	F800		SUB R8, #$01
9E5E	C803		SZ R8
9E60	F027		BRA $9E3A		; -> -$28(R0)

9E62	5BC1		MOVE (R12)+, R11
9E64	5BC1		MOVE (R12)+, R11
9E66	5BC1		MOVE (R12)+, R11
9E68	5BC1		MOVE (R12)+, R11
9E6A	5BC1		MOVE (R12)+, R11
9E6C	5BC1		MOVE (R12)+, R11
9E6E	5BC1		MOVE (R12)+, R11
9E70	5BC1		MOVE (R12)+, R11
9E72	AD17		ADD R13, #$18
9E74	F400		SUB R4, #$01
9E76	C403		SZ R4
9E78	F041		BRA $9E38		; -> -$42(R0)

9E7A	FC07		SUB R12, #$08
9E7C	2353		MOVE R3, $A6
9E7E	E13F		STAT R3, $1
9E80	2453		MOVE R4, $A6
9E82	E14F		STAT R4, $1
9E84	0338		ADD R3, R3
9E86	0448		ADD R4, R4
9E88	074C		MHL R7, R4
9E8A	0378		ADD R3, R7
9E8C	073C		MHL R7, R3
9E8E	B702		SET R7, #$02
9E90	0B74		MOVE R11, R7
9E92	0D34		MOVE R13, R3
9E94	0E44		MOVE R14, R4
9E96	055D		MLH R5, R5
9E98	55C1		MOVE (R12)+, R5
9E9A	75C0		MOVB (R12)+, R5
9E9C	0758		ADD R7, R5
9E9E	77C0		MOVB (R12)+, R7
9EA0	8802		LBI R8, #$02
9EA2	8902		LBI R9, #$02
9EA4	0634		MOVE R6, R3
9EA6	960F		CLR R6, #$0F
9EA8	E06F		SWAP R6
9EAA	C6A0		SLE R6, R10
9EAC	A003		BRA $9EB2		; $04(R0)

9EAE	0658		ADD R6, R5
9EB0	A001		BRA $9EB4		; $02(R0)

9EB2	06A9		SUB R6, R10
9EB4	76C0		MOVB (R12)+, R6
9EB6	F900		SUB R9, #$01
9EB8	C90B		SNZ R9
9EBA	A005		BRA $9EC2		; $06(R0)

9EBC	0634		MOVE R6, R3
9EBE	96F0		CLR R6, #$F0
9EC0	F017		BRA $9EAA		; -> -$18(R0)

9EC2	F800		SUB R8, #$01
9EC4	C80B		SNZ R8
9EC6	A003		BRA $9ECC		; $04(R0)

9EC8	0344		MOVE R3, R4
9ECA	F029		BRA $9EA2		; -> -$2A(R0)

9ECC	FC43		SUB R12, #$44
9ECE	8103		LBI R1, #$03
9ED0	011D		MLH R1, R1
9ED2	51C1		MOVE (R12)+, R1
9ED4	814C		LBI R1, #$4C
9ED6	71C0		MOVB (R12)+, R1
9ED8	8180		LBI R1, #$80
9EDA	CF16		SBC R15, R1
9EDC	A013		BRA $9EF2		; $14(R0)

9EDE	8140		LBI R1, #$40
9EE0	CF16		SBC R15, R1
9EE2	A011		BRA $9EF6		; $12(R0)

9EE4	8120		LBI R1, #$20
9EE6	CF16		SBC R15, R1
9EE8	A00F		BRA $9EFA		; $10(R0)

9EEA	8110		LBI R1, #$10
9EEC	CF16		SBC R15, R1
9EEE	A00D		BRA $9EFE		; $0E(R0)

9EF0	0000		HALT
9EF2	811B		LBI R1, #$1B
9EF4	A009		BRA $9F00		; $0A(R0)

9EF6	811C		LBI R1, #$1C
9EF8	A005		BRA $9F00		; $06(R0)

9EFA	811D		LBI R1, #$1D
9EFC	A001		BRA $9F00		; $02(R0)

9EFE	811E		LBI R1, #$1E
9F00	71C8		MOVB (R12), R1
9F02	8C01		LBI R12, #$01
9F04	0CCD		MLH R12, R12
9F06	8CC4		LBI R12, #$C4
9F08	D3C1		MOVE R3, (R12)+
9F0A	C3B2		SE R3, R11
9F0C	A013		BRA $9F22		; $14(R0)

9F0E	63C0		MOVB R3, (R12)+
9F10	C3D2		SE R3, R13
9F12	A00D		BRA $9F22		; $0E(R0)

9F14	63C8		MOVB R3, (R12)
9F16	C3E2		SE R3, R14
9F18	A007		BRA $9F22		; $08(R0)

9F1A	2BE2		MOVE R11, $1C4
9F1C	81FF		LBI R1, #$FF
9F1E	0B1D		MLH R11, R1
9F20	3BE2		MOVE $1C4, R11
9F22	2330		MOVE R3, $60
9F24	849F		LBI R4, #$9F
9F26	044D		MLH R4, R4
9F28	843C		LBI R4, #$3C
9F2A	3430		MOVE $60, R4
9F2C	21E2		MOVE R1, $1C4
9F2E	011C		MHL R1, R1
9F30	C103		SZ R1
9F32	0000		HALT
9F34	3330		MOVE $60, R3
9F36	20E4		JMP ($01C8)

9F38	3330		MOVE $60, R3
9F3A	205C		JMP ($00B8)

9F3C	8440		LBI R4, #$40
9F3E	E44F		STAT R4, $4
9F40	812A		LBI R1, #$2A
9F42	C412		SE R4, R1
9F44	A007		BRA $9F4E		; $08(R0)

9F46	2100		MOVE R1, $00
9F48	A105		ADD R1, #$06
9F4A	3100		MOVE $00, R1
9F4C	1412		CTRL $4, #$12
9F4E	2100		MOVE R1, $00
9F50	A101		ADD R1, #$02
9F52	3100		MOVE $00, R1
9F54	814B		LBI R1, #$4B
9F56	C412		SE R4, R1
9F58	A009		BRA $9F64		; $0A(R0)

9F5A	24E2		MOVE R4, $1C4
9F5C	8100		LBI R1, #$00
9F5E	041D		MLH R4, R1
9F60	34E2		MOVE $1C4, R4
9F62	1412		CTRL $4, #$12
9F64	1450		CTRL $4, #$50
9F66	841A		LBI R4, #$1A
9F68	F400		SUB R4, #$01
9F6A	C403		SZ R4
9F6C	F005		BRA $9F68		; -> -$06(R0)

9F6E	1412		CTRL $4, #$12
9F70	0000		HALT
9F72	0000		HALT
9F74	0000		HALT
9F76	0000		HALT
9F78	0000		HALT
9F7A	0000		HALT
9F7C	0000		HALT
9F7E	0000		HALT
9F80	0000		HALT
9F82	0000		HALT
9F84	0000		HALT
9F86	0000		HALT
9F88	0000		HALT
9F8A	0000		HALT
9F8C	0000		HALT
9F8E	0000		HALT
9F90	0000		HALT
9F92	0000		HALT
9F94	0000		HALT
9F96	0000		HALT
9F98	0000		HALT
9F9A	0000		HALT
9F9C	0000		HALT
9F9E	0000		HALT
9FA0	0000		HALT
9FA2	0000		HALT
9FA4	0000		HALT
9FA6	0000		HALT
9FA8	0000		HALT
9FAA	0000		HALT
9FAC	0000		HALT
9FAE	0000		HALT
9FB0	0000		HALT
9FB2	0000		HALT
9FB4	0000		HALT
9FB6	0000		HALT
9FB8	0000		HALT
9FBA	0000		HALT
9FBC	0000		HALT
9FBE	0000		HALT
9FC0	0000		HALT
9FC2	0000		HALT
9FC4	0000		HALT
9FC6	0000		HALT
9FC8	0000		HALT
9FCA	0000		HALT
9FCC	0000		HALT
9FCE	0000		HALT
9FD0	0000		HALT
9FD2	0000		HALT
9FD4	0000		HALT
9FD6	0000		HALT
9FD8	0000		HALT
9FDA	0000		HALT
9FDC	0000		HALT
9FDE	0000		HALT
9FE0	0000		HALT
9FE2	0000		HALT
9FE4	0000		HALT
9FE6	0000		HALT
9FE8	0000		HALT
9FEA	0000		HALT
9FEC	0000		HALT
9FEE	0000		HALT
9FF0	0000		HALT
9FF2	0000		HALT
9FF4	0000		HALT
9FF6	0000		HALT
9FF8	0000		HALT
9FFA	0000		HALT
9FFC	0000		HALT
9FFE	0000		HALT
A000	0203		INC2 R2, R0
A002	20BE		JMP ($017C)

A004	0203		INC2 R2, R0
A006	20AF		JMP ($015E)

A008	A007		BRA $A012		; $08(R0)

A00A	0203		INC2 R2, R0
A00C	20BC		JMP ($0178)

A00E	D7D1		MOVE R7, (R13)+
A010	D8D5		MOVE R8, (R13)-
A012	D3C1		MOVE R3, (R12)+
A014	D4C5		MOVE R4, (R12)-
A016	BC10		SET R12, #$10
A018	D5C1		MOVE R5, (R12)+
A01A	D6C5		MOVE R6, (R12)-
A01C	9F01		CLR R15, #$01
A01E	2953		MOVE R9, $A6
A020	8A80		LBI R10, #$80
A022	C7A7		SBSH R7, R10
A024	A021		BRA $A048		; $22(R0)

A026	A97F		ADD R9, #$80
A028	81FF		LBI R1, #$FF
A02A	0817		XOR R8, R1
A02C	0B8C		MHL R11, R8
A02E	0B17		XOR R11, R1
A030	08BD		MLH R8, R11
A032	0717		XOR R7, R1
A034	0B7C		MHL R11, R7
A036	0B17		XOR R11, R1
A038	07BD		MLH R7, R11
A03A	A800		ADD R8, #$01
A03C	C803		SZ R8
A03E	A029		BRA $A06A		; $2A(R0)

A040	0B8C		MHL R11, R8
A042	CB03		SZ R11
A044	A700		ADD R7, #$01
A046	A021		BRA $A06A		; $22(R0)

A048	C803		SZ R8
A04A	A01D		BRA $A06A		; $1E(R0)

A04C	0B8C		MHL R11, R8
A04E	CB03		SZ R11
A050	A017		BRA $A06A		; $18(R0)

A052	C703		SZ R7
A054	A013		BRA $A06A		; $14(R0)

A056	0B7C		MHL R11, R7
A058	CB03		SZ R11
A05A	A00D		BRA $A06A		; $0E(R0)

A05C	8B09		LBI R11, #$09
A05E	2182		MOVE R1, $104
A060	31CA		MOVE $194, R1
A062	8183		LBI R1, #$83
A064	011D		MLH R1, R1
A066	815A		LBI R1, #$5A
A068	0014		RET R1

A06A	C3A7		SBSH R3, R10
A06C	A049		BRA $A0B8		; $4A(R0)

A06E	A980		ADD R9, #$81
A070	81FF		LBI R1, #$FF
A072	0617		XOR R6, R1
A074	0B6C		MHL R11, R6
A076	0B17		XOR R11, R1
A078	06BD		MLH R6, R11
A07A	0517		XOR R5, R1
A07C	0B5C		MHL R11, R5
A07E	0B17		XOR R11, R1
A080	05BD		MLH R5, R11
A082	0417		XOR R4, R1
A084	0B4C		MHL R11, R4
A086	0B17		XOR R11, R1
A088	04BD		MLH R4, R11
A08A	0317		XOR R3, R1
A08C	0B3C		MHL R11, R3
A08E	0B17		XOR R11, R1
A090	03BD		MLH R3, R11
A092	A600		ADD R6, #$01
A094	C603		SZ R6
A096	A055		BRA $A0EE		; $56(R0)

A098	0B6C		MHL R11, R6
A09A	CB03		SZ R11
A09C	A04F		BRA $A0EE		; $50(R0)

A09E	A500		ADD R5, #$01
A0A0	C503		SZ R5
A0A2	A049		BRA $A0EE		; $4A(R0)

A0A4	0B5C		MHL R11, R5
A0A6	CB03		SZ R11
A0A8	A043		BRA $A0EE		; $44(R0)

A0AA	A400		ADD R4, #$01
A0AC	C403		SZ R4
A0AE	A03D		BRA $A0EE		; $3E(R0)

A0B0	0B4C		MHL R11, R4
A0B2	CB03		SZ R11
A0B4	A300		ADD R3, #$01
A0B6	A035		BRA $A0EE		; $36(R0)

A0B8	C603		SZ R6
A0BA	A031		BRA $A0EE		; $32(R0)

A0BC	0B6C		MHL R11, R6
A0BE	CB03		SZ R11
A0C0	A02B		BRA $A0EE		; $2C(R0)

A0C2	C503		SZ R5
A0C4	A027		BRA $A0EE		; $28(R0)

A0C6	0B5C		MHL R11, R5
A0C8	CB03		SZ R11
A0CA	A021		BRA $A0EE		; $22(R0)

A0CC	C403		SZ R4
A0CE	A01D		BRA $A0EE		; $1E(R0)

A0D0	0B4C		MHL R11, R4
A0D2	CB03		SZ R11
A0D4	A017		BRA $A0EE		; $18(R0)

A0D6	C303		SZ R3
A0D8	A013		BRA $A0EE		; $14(R0)

A0DA	0B3C		MHL R11, R3
A0DC	CB03		SZ R11
A0DE	A00D		BRA $A0EE		; $0E(R0)

A0E0	2B53		MOVE R11, $A6
A0E2	5BC1		MOVE (R12)+, R11
A0E4	5BC5		MOVE (R12)-, R11
A0E6	9C10		CLR R12, #$10
A0E8	5BC1		MOVE (R12)+, R11
A0EA	5BC5		MOVE (R12)-, R11
A0EC	2082		JMP ($0104)

A0EE	39A2		MOVE $144, R9
A0F0	2EAA		MOVE R14, $154
A0F2	0A84		MOVE R10, R8
A0F4	0874		MOVE R8, R7
A0F6	078C		MHL R7, R8
A0F8	098D		MLH R9, R8
A0FA	09AC		MHL R9, R10
A0FC	0BAD		MLH R11, R10
A0FE	8B00		LBI R11, #$00
A100	07BD		MLH R7, R11
A102	57E1		MOVE (R14)+, R7
A104	59E1		MOVE (R14)+, R9
A106	5BE8		MOVE (R14), R11
A108	8E3C		LBI R14, #$3C
A10A	8D07		LBI R13, #$07
A10C	0BAD		MLH R11, R10
A10E	E0BC		SHR R11
A110	7BE5		MOVB (R14)--, R11
A112	E0AC		SHR R10
A114	098D		MLH R9, R8
A116	E09C		SHR R9
A118	0A9D		MLH R10, R9
A11A	5AE5		MOVE (R14)-, R10
A11C	E08C		SHR R8
A11E	E07C		SHR R7
A120	087D		MLH R8, R7
A122	58E7		MOVE (R14)--, R8
A124	FD00		SUB R13, #$01
A126	CD03		SZ R13
A128	F01D		BRA $A10C		; -> -$1E(R0)

A12A	8E38		LBI R14, #$38
A12C	D7E1		MOVE R7, (R14)+
A12E	0A3C		MHL R10, R3
A130	017C		MHL R1, R7
A132	C1A0		SLE R1, R10
A134	A019		BRA $A150		; $1A(R0)

A136	C730		SLE R7, R3
A138	A015		BRA $A150		; $16(R0)

A13A	D8E1		MOVE R8, (R14)+
A13C	0A4C		MHL R10, R4
A13E	018C		MHL R1, R8
A140	C1A0		SLE R1, R10
A142	A00B		BRA $A150		; $0C(R0)

A144	C840		SLE R8, R4
A146	A007		BRA $A150		; $08(R0)

A148	69E8		MOVB R9, (R14)
A14A	0A5C		MHL R10, R5
A14C	C9A8		SGT R9, R10
A14E	F0F3		BRA $A05C		; -> -$F4(R0)

A150	2D9A		MOVE R13, $134
A152	8D18		LBI R13, #$18
A154	2153		MOVE R1, $A6
A156	51D1		MOVE (R13)+, R1
A158	51D5		MOVE (R13)-, R1
A15A	8E30		LBI R14, #$30
A15C	8B08		LBI R11, #$08
A15E	0BBD		MLH R11, R11
A160	8B40		LBI R11, #$40
A162	3CCC		MOVE $198, R12
A164	3FCD		MOVE $19A, R15
A166	81A3		LBI R1, #$A3
A168	011D		MLH R1, R1
A16A	8154		LBI R1, #$54
A16C	31CA		MOVE $194, R1
A16E	81A3		LBI R1, #$A3
A170	011D		MLH R1, R1
A172	812A		LBI R1, #$2A
A174	31CE		MOVE $19C, R1
A176	81A4		LBI R1, #$A4
A178	011D		MLH R1, R1
A17A	8106		LBI R1, #$06
A17C	31CF		MOVE $19E, R1
A17E	A0CD		BRA $A24E		; $CE(R0)

A180	0203		INC2 R2, R0
A182	20BF		JMP ($017E)

A184	0203		INC2 R2, R0
A186	20AF		JMP ($015E)

A188	A007		BRA $A192		; $08(R0)

A18A	0203		INC2 R2, R0
A18C	20BD		JMP ($017A)

A18E	D7D1		MOVE R7, (R13)+
A190	D8D5		MOVE R8, (R13)-
A192	9F02		CLR R15, #$02
A194	BF01		SET R15, #$01
A196	2953		MOVE R9, $A6
A198	2A53		MOVE R10, $A6
A19A	3ADC		MOVE $1B8, R10
A19C	3ADD		MOVE $1BA, R10
A19E	D3C1		MOVE R3, (R12)+
A1A0	D4C5		MOVE R4, (R12)-
A1A2	2553		MOVE R5, $A6
A1A4	2653		MOVE R6, $A6
A1A6	0203		INC2 R2, R0
A1A8	20BB		JMP ($0176)

A1AA	A001		BRA $A1AE		; $02(R0)

A1AC	A0A1		BRA $A250		; $A2(R0)

A1AE	0203		INC2 R2, R0
A1B0	20BA		JMP ($0174)

A1B2	A001		BRA $A1B6		; $02(R0)

A1B4	A08B		BRA $A242		; $8C(R0)

A1B6	33CA		MOVE $194, R3
A1B8	34CB		MOVE $196, R4
A1BA	35CC		MOVE $198, R5
A1BC	36CD		MOVE $19A, R6
A1BE	0134		MOVE R1, R3
A1C0	017C		MHL R1, R7
A1C2	31A2		MOVE $144, R1
A1C4	81A3		LBI R1, #$A3
A1C6	011D		MLH R1, R1
A1C8	8154		LBI R1, #$54
A1CA	31CE		MOVE $19C, R1
A1CC	81A3		LBI R1, #$A3
A1CE	011D		MLH R1, R1
A1D0	81FA		LBI R1, #$FA
A1D2	31CF		MOVE $19E, R1
A1D4	2EAA		MOVE R14, $154
A1D6	0984		MOVE R9, R8
A1D8	8A00		LBI R10, #$00
A1DA	07AD		MLH R7, R10
A1DC	57E1		MOVE (R14)+, R7
A1DE	59E8		MOVE (R14), R9
A1E0	087D		MLH R8, R7
A1E2	089C		MHL R8, R9
A1E4	0A9D		MLH R10, R9
A1E6	8E3A		LBI R14, #$3A
A1E8	8B07		LBI R11, #$07
A1EA	E0AC		SHR R10
A1EC	098D		MLH R9, R8
A1EE	E09C		SHR R9
A1F0	0A9D		MLH R10, R9
A1F2	5AE5		MOVE (R14)-, R10
A1F4	E08C		SHR R8
A1F6	E07C		SHR R7
A1F8	087D		MLH R8, R7
A1FA	58E5		MOVE (R14)-, R8
A1FC	FE03		SUB R14, #$04
A1FE	FB00		SUB R11, #$01
A200	CB03		SZ R11
A202	F019		BRA $A1EA		; -> -$1A(R0)

A204	8B08		LBI R11, #$08
A206	A0C7		BRA $A2D0		; $C8(R0)

A208	0203		INC2 R2, R0
A20A	20BF		JMP ($017E)

A20C	0203		INC2 R2, R0
A20E	20AC		JMP ($0158)

A210	A00B		BRA $A21E		; $0C(R0)

A212	0203		INC2 R2, R0
A214	20BD		JMP ($017A)

A216	D7D1		MOVE R7, (R13)+
A218	D8D1		MOVE R8, (R13)+
A21A	D9D1		MOVE R9, (R13)+
A21C	DAD8		MOVE R10, (R13)
A21E	BF03		SET R15, #$03
A220	2153		MOVE R1, $A6
A222	31DC		MOVE $1B8, R1
A224	31DD		MOVE $1BA, R1
A226	D3C1		MOVE R3, (R12)+
A228	D4C1		MOVE R4, (R12)+
A22A	D5C1		MOVE R5, (R12)+
A22C	D6C7		MOVE R6, (R12)--
A22E	FC01		SUB R12, #$02
A230	0203		INC2 R2, R0
A232	20BB		JMP ($0176)

A234	A001		BRA $A238		; $02(R0)

A236	A017		BRA $A250		; $18(R0)

A238	0203		INC2 R2, R0
A23A	20BA		JMP ($0174)

A23C	A01F		BRA $A25E		; $20(R0)

A23E	A001		BRA $A242		; $02(R0)

A240	A01B		BRA $A25E		; $1C(R0)

A242	2353		MOVE R3, $A6
A244	53C1		MOVE (R12)+, R3
A246	53C1		MOVE (R12)+, R3
A248	53C1		MOVE (R12)+, R3
A24A	53C8		MOVE (R12), R3
A24C	2082		JMP ($0104)

A24E	A0A9		BRA $A2FA		; $AA(R0)

A250	8B0F		LBI R11, #$0F
A252	2182		MOVE R1, $104
A254	31CA		MOVE $194, R1
A256	8183		LBI R1, #$83
A258	011D		MLH R1, R1
A25A	815A		LBI R1, #$5A
A25C	0014		RET R1

A25E	33CA		MOVE $194, R3
A260	34CB		MOVE $196, R4
A262	35CC		MOVE $198, R5
A264	36CD		MOVE $19A, R6
A266	0134		MOVE R1, R3
A268	017C		MHL R1, R7
A26A	31A2		MOVE $144, R1
A26C	81A3		LBI R1, #$A3
A26E	011D		MLH R1, R1
A270	812A		LBI R1, #$2A
A272	31CE		MOVE $19C, R1
A274	81A3		LBI R1, #$A3
A276	011D		MLH R1, R1
A278	815E		LBI R1, #$5E
A27A	31CF		MOVE $19E, R1
A27C	2EAA		MOVE R14, $154
A27E	05A4		MOVE R5, R10
A280	0394		MOVE R3, R9
A282	0984		MOVE R9, R8
A284	8600		LBI R6, #$00
A286	076D		MLH R7, R6
A288	57E1		MOVE (R14)+, R7
A28A	59E1		MOVE (R14)+, R9
A28C	53E1		MOVE (R14)+, R3
A28E	55E8		MOVE (R14), R5
A290	087D		MLH R8, R7
A292	089C		MHL R8, R9
A294	0A9D		MLH R10, R9
A296	0A3C		MHL R10, R3
A298	043D		MLH R4, R3
A29A	045C		MHL R4, R5
A29C	065D		MLH R6, R5
A29E	8E3E		LBI R14, #$3E
A2A0	8B07		LBI R11, #$07
A2A2	E06C		SHR R6
A2A4	054D		MLH R5, R4
A2A6	E05C		SHR R5
A2A8	065D		MLH R6, R5
A2AA	56E5		MOVE (R14)-, R6
A2AC	E04C		SHR R4
A2AE	03AD		MLH R3, R10
A2B0	E03C		SHR R3
A2B2	043D		MLH R4, R3
A2B4	54E5		MOVE (R14)-, R4
A2B6	E0AC		SHR R10
A2B8	098D		MLH R9, R8
A2BA	E09C		SHR R9
A2BC	0A9D		MLH R10, R9
A2BE	5AE5		MOVE (R14)-, R10
A2C0	E08C		SHR R8
A2C2	E07C		SHR R7
A2C4	087D		MLH R8, R7
A2C6	58E5		MOVE (R14)-, R8
A2C8	FB00		SUB R11, #$01
A2CA	CB03		SZ R11
A2CC	F02B		BRA $A2A2		; -> -$2C(R0)

A2CE	8B10		LBI R11, #$10
A2D0	2D9A		MOVE R13, $134
A2D2	8D1E		LBI R13, #$1E
A2D4	23CA		MOVE R3, $194
A2D6	24CB		MOVE R4, $196
A2D8	25CC		MOVE R5, $198
A2DA	26CD		MOVE R6, $19A
A2DC	2153		MOVE R1, $A6
A2DE	031D		MLH R3, R1
A2E0	51D5		MOVE (R13)-, R1
A2E2	51D5		MOVE (R13)-, R1
A2E4	51D5		MOVE (R13)-, R1
A2E6	51D8		MOVE (R13), R1
A2E8	81A3		LBI R1, #$A3
A2EA	011D		MLH R1, R1
A2EC	8138		LBI R1, #$38
A2EE	31CA		MOVE $194, R1
A2F0	3CCC		MOVE $198, R12
A2F2	3FCD		MOVE $19A, R15
A2F4	8E18		LBI R14, #$18
A2F6	0BBD		MLH R11, R11
A2F8	8B08		LBI R11, #$08
A2FA	073C		MHL R7, R3
A2FC	6CE8		MOVB R12, (R14)
A2FE	CC70		SLE R12, R7
A300	A0CB		BRA $A3CE		; $CC(R0)

A302	CC72		SE R12, R7
A304	A04F		BRA $A356		; $50(R0)

A306	AE00		ADD R14, #$01
A308	6CE0		MOVB R12, (R14)+
A30A	CC30		SLE R12, R3
A30C	A0BD		BRA $A3CC		; $BE(R0)

A30E	CC32		SE R12, R3
A310	A041		BRA $A354		; $42(R0)

A312	084C		MHL R8, R4
A314	6CE0		MOVB R12, (R14)+
A316	CC80		SLE R12, R8
A318	A0B1		BRA $A3CC		; $B2(R0)

A31A	CC82		SE R12, R8
A31C	A035		BRA $A354		; $36(R0)

A31E	6CE0		MOVB R12, (R14)+
A320	CC40		SLE R12, R4
A322	A0A7		BRA $A3CC		; $A8(R0)

A324	CC42		SE R12, R4
A326	A02B		BRA $A354		; $2C(R0)

A328	20CE		JMP ($019C)

A32A	095C		MHL R9, R5
A32C	6CE0		MOVB R12, (R14)+
A32E	CC90		SLE R12, R9
A330	A099		BRA $A3CC		; $9A(R0)

A332	CC92		SE R12, R9
A334	A01D		BRA $A354		; $1E(R0)

A336	20CA		JMP ($0194)

A338	6CE0		MOVB R12, (R14)+
A33A	CC50		SLE R12, R5
A33C	A08D		BRA $A3CC		; $8E(R0)

A33E	CC52		SE R12, R5
A340	A011		BRA $A354		; $12(R0)

A342	0A6C		MHL R10, R6
A344	6CE0		MOVB R12, (R14)+
A346	CCA0		SLE R12, R10
A348	A081		BRA $A3CC		; $82(R0)

A34A	CCA2		SE R12, R10
A34C	A005		BRA $A354		; $06(R0)

A34E	6CE8		MOVB R12, (R14)
A350	CC60		SLE R12, R6
A352	A077		BRA $A3CC		; $78(R0)

A354	9E07		CLR R14, #$07
A356	61D8		MOVB R1, (R13)
A358	01B6		OR R1, R11
A35A	71D8		MOVB (R13), R1
A35C	20CF		JMP ($019E)

A35E	D7E1		MOVE R7, (R14)+
A360	D8E1		MOVE R8, (R14)+
A362	D9E1		MOVE R9, (R14)+
A364	DAE8		MOVE R10, (R14)
A366	8FFF		LBI R15, #$FF
A368	2C53		MOVE R12, $A6
A36A	0C66		OR R12, R6
A36C	0CA9		SUB R12, R10
A36E	8600		LBI R6, #$00
A370	06C6		OR R6, R12
A372	0C6C		MHL R12, R6
A374	CCFF		SNBSH R12, R15
A376	0CCB		ADDH2 R12, R12
A378	0AAC		MHL R10, R10
A37A	0CA9		SUB R12, R10
A37C	06CD		MLH R6, R12
A37E	8C00		LBI R12, #$00
A380	0C56		OR R12, R5
A382	CCFF		SNBSH R12, R15
A384	0CCB		ADDH2 R12, R12
A386	0C99		SUB R12, R9
A388	8500		LBI R5, #$00
A38A	05C6		OR R5, R12
A38C	0C5C		MHL R12, R5
A38E	CCFF		SNBSH R12, R15
A390	0CCB		ADDH2 R12, R12
A392	099C		MHL R9, R9
A394	0C99		SUB R12, R9
A396	05CD		MLH R5, R12
A398	8C00		LBI R12, #$00
A39A	0C46		OR R12, R4
A39C	CCFF		SNBSH R12, R15
A39E	0CCB		ADDH2 R12, R12
A3A0	0C89		SUB R12, R8
A3A2	8400		LBI R4, #$00
A3A4	04C6		OR R4, R12
A3A6	0C4C		MHL R12, R4
A3A8	CCFF		SNBSH R12, R15
A3AA	0CCB		ADDH2 R12, R12
A3AC	088C		MHL R8, R8
A3AE	0C89		SUB R12, R8
A3B0	04CD		MLH R4, R12
A3B2	8C00		LBI R12, #$00
A3B4	0C36		OR R12, R3
A3B6	CCFF		SNBSH R12, R15
A3B8	0CCB		ADDH2 R12, R12
A3BA	0C79		SUB R12, R7
A3BC	8300		LBI R3, #$00
A3BE	03C6		OR R3, R12
A3C0	0C3C		MHL R12, R3
A3C2	CCFF		SNBSH R12, R15
A3C4	0CCB		ADDH2 R12, R12
A3C6	077C		MHL R7, R7
A3C8	0C79		SUB R12, R7
A3CA	03CD		MLH R3, R12
A3CC	9E07		CLR R14, #$07
A3CE	E0BC		SHR R11
A3D0	CB0B		SNZ R11
A3D2	A003		BRA $A3D8		; $04(R0)

A3D4	FE07		SUB R14, #$08
A3D6	F0DD		BRA $A2FA		; -> -$DE(R0)

A3D8	0BBC		MHL R11, R11
A3DA	FB01		SUB R11, #$02
A3DC	CB0B		SNZ R11
A3DE	A033		BRA $A414		; $34(R0)

A3E0	0BBD		MLH R11, R11
A3E2	8B80		LBI R11, #$80
A3E4	033D		MLH R3, R3
A3E6	034C		MHL R3, R4
A3E8	044D		MLH R4, R4
A3EA	045C		MHL R4, R5
A3EC	055D		MLH R5, R5
A3EE	056C		MHL R5, R6
A3F0	066D		MLH R6, R6
A3F2	8600		LBI R6, #$00
A3F4	AD00		ADD R13, #$01
A3F6	8E38		LBI R14, #$38
A3F8	F023		BRA $A3D6		; -> -$24(R0)

A3FA	D7E1		MOVE R7, (R14)+
A3FC	D8E5		MOVE R8, (R14)-
A3FE	2C53		MOVE R12, $A6
A400	0C46		OR R12, R4
A402	8FFF		LBI R15, #$FF
A404	F065		BRA $A3A0		; -> -$66(R0)

A406	D7E1		MOVE R7, (R14)+
A408	D8E1		MOVE R8, (R14)+
A40A	D9E7		MOVE R9, (R14)--
A40C	2C53		MOVE R12, $A6
A40E	8FFF		LBI R15, #$FF
A410	0C5C		MHL R12, R5
A412	F081		BRA $A392		; -> -$82(R0)

A414	2CCC		MOVE R12, $198
A416	2FCD		MOVE R15, $19A
A418	8101		LBI R1, #$01
A41A	CF1E		SNBC R15, R1
A41C	A0DF		BRA $A4FE		; $E0(R0)

A41E	21A2		MOVE R1, $144
A420	091C		MHL R9, R1
A422	0917		XOR R9, R1
A424	997F		CLR R9, #$7F
A426	21A2		MOVE R1, $144
A428	9180		CLR R1, #$80
A42A	2A53		MOVE R10, $A6
A42C	0A1C		MHL R10, R1
A42E	9A80		CLR R10, #$80
A430	0A19		SUB R10, R1
A432	AA3F		ADD R10, #$40
A434	8D18		LBI R13, #$18
A436	61D8		MOVB R1, (R13)
A438	C103		SZ R1
A43A	AA00		ADD R10, #$01
A43C	81FF		LBI R1, #$FF
A43E	CA17		SBSH R10, R1
A440	A029		BRA $A46C		; $2A(R0)

A442	2BA3		MOVE R11, $146
A444	8102		LBI R1, #$02
A446	CB1E		SNBC R11, R1
A448	A00F		BRA $A45A		; $10(R0)

A44A	8B0D		LBI R11, #$0D
A44C	2182		MOVE R1, $104
A44E	31CA		MOVE $194, R1
A450	8183		LBI R1, #$83
A452	011D		MLH R1, R1
A454	815A		LBI R1, #$5A
A456	3182		MOVE $104, R1
A458	A025		BRA $A480		; $26(R0)

A45A	2353		MOVE R3, $A6
A45C	8102		LBI R1, #$02
A45E	CF1E		SNBC R15, R1
A460	A003		BRA $A466		; $04(R0)

A462	53C1		MOVE (R12)+, R3
A464	53C1		MOVE (R12)+, R3
A466	53C1		MOVE (R12)+, R3
A468	53C8		MOVE (R12), R3
A46A	2082		JMP ($0104)

A46C	8180		LBI R1, #$80
A46E	CA1E		SNBC R10, R1
A470	A00D		BRA $A480		; $0E(R0)

A472	8B0C		LBI R11, #$0C
A474	2182		MOVE R1, $104
A476	31CA		MOVE $194, R1
A478	8183		LBI R1, #$83
A47A	011D		MLH R1, R1
A47C	815A		LBI R1, #$5A
A47E	3182		MOVE $104, R1
A480	8102		LBI R1, #$02
A482	CF16		SBC R15, R1
A484	A033		BRA $A4BA		; $34(R0)

A486	61D8		MOVB R1, (R13)
A488	C103		SZ R1
A48A	A005		BRA $A492		; $06(R0)

A48C	D3D1		MOVE R3, (R13)+
A48E	D4D8		MOVE R4, (R13)
A490	A01B		BRA $A4AE		; $1C(R0)

A492	D7D1		MOVE R7, (R13)+
A494	037C		MHL R3, R7
A496	047D		MLH R4, R7
A498	D7D1		MOVE R7, (R13)+
A49A	047C		MHL R4, R7
A49C	2553		MOVE R5, $A6
A49E	2653		MOVE R6, $A6
A4A0	0203		INC2 R2, R0
A4A2	20BA		JMP ($0174)

A4A4	A001		BRA $A4A8		; $02(R0)

A4A6	0004		NOP
A4A8	970F		CLR R7, #$0F
A4AA	E07F		SWAP R7
A4AC	0476		OR R4, R7
A4AE	9A80		CLR R10, #$80
A4B0	0A96		OR R10, R9
A4B2	03AD		MLH R3, R10
A4B4	53C1		MOVE (R12)+, R3
A4B6	54C8		MOVE (R12), R4
A4B8	2082		JMP ($0104)

A4BA	61D8		MOVB R1, (R13)
A4BC	C103		SZ R1
A4BE	A009		BRA $A4CA		; $0A(R0)

A4C0	D3D1		MOVE R3, (R13)+
A4C2	D4D1		MOVE R4, (R13)+
A4C4	D5D1		MOVE R5, (R13)+
A4C6	D6D8		MOVE R6, (R13)
A4C8	A023		BRA $A4EE		; $24(R0)

A4CA	D7D1		MOVE R7, (R13)+
A4CC	037C		MHL R3, R7
A4CE	047D		MLH R4, R7
A4D0	D7D1		MOVE R7, (R13)+
A4D2	047C		MHL R4, R7
A4D4	057D		MLH R5, R7
A4D6	D7D1		MOVE R7, (R13)+
A4D8	057C		MHL R5, R7
A4DA	067D		MLH R6, R7
A4DC	D7D8		MOVE R7, (R13)
A4DE	067C		MHL R6, R7
A4E0	0203		INC2 R2, R0
A4E2	20BA		JMP ($0174)

A4E4	A001		BRA $A4E8		; $02(R0)

A4E6	0004		NOP
A4E8	970F		CLR R7, #$0F
A4EA	E07F		SWAP R7
A4EC	0676		OR R6, R7
A4EE	9A80		CLR R10, #$80
A4F0	0A96		OR R10, R9
A4F2	03AD		MLH R3, R10
A4F4	53C1		MOVE (R12)+, R3
A4F6	54C1		MOVE (R12)+, R4
A4F8	55C1		MOVE (R12)+, R5
A4FA	56C8		MOVE (R12), R6
A4FC	2082		JMP ($0104)

A4FE	2AA2		MOVE R10, $144
A500	033D		MLH R3, R3
A502	034C		MHL R3, R4
A504	044D		MLH R4, R4
A506	045C		MHL R4, R5
A508	8D18		LBI R13, #$18
A50A	D7D1		MOVE R7, (R13)+
A50C	D8D5		MOVE R8, (R13)-
A50E	8180		LBI R1, #$80
A510	CA1E		SNBC R10, R1
A512	A01D		BRA $A532		; $1E(R0)

A514	81FF		LBI R1, #$FF
A516	0817		XOR R8, R1
A518	0B8C		MHL R11, R8
A51A	0B17		XOR R11, R1
A51C	08BD		MLH R8, R11
A51E	0717		XOR R7, R1
A520	0B7C		MHL R11, R7
A522	0B17		XOR R11, R1
A524	07BD		MLH R7, R11
A526	A800		ADD R8, #$01
A528	C803		SZ R8
A52A	A005		BRA $A532		; $06(R0)

A52C	0B8C		MHL R11, R8
A52E	CB0B		SNZ R11
A530	A700		ADD R7, #$01
A532	8101		LBI R1, #$01
A534	CA1E		SNBC R10, R1
A536	A01D		BRA $A556		; $1E(R0)

A538	81FF		LBI R1, #$FF
A53A	0417		XOR R4, R1
A53C	0B4C		MHL R11, R4
A53E	0B17		XOR R11, R1
A540	04BD		MLH R4, R11
A542	0317		XOR R3, R1
A544	0B3C		MHL R11, R3
A546	0B17		XOR R11, R1
A548	03BD		MLH R3, R11
A54A	A400		ADD R4, #$01
A54C	C403		SZ R4
A54E	A005		BRA $A556		; $06(R0)

A550	0B4C		MHL R11, R4
A552	CB0B		SNZ R11
A554	A300		ADD R3, #$01
A556	57C1		MOVE (R12)+, R7
A558	58C5		MOVE (R12)-, R8
A55A	9C10		CLR R12, #$10
A55C	53C1		MOVE (R12)+, R3
A55E	54C5		MOVE (R12)-, R4
A560	2082		JMP ($0104)

A562	0203		INC2 R2, R0
A564	20BF		JMP ($017E)

A566	0203		INC2 R2, R0
A568	20AC		JMP ($0158)

A56A	A00B		BRA $A578		; $0C(R0)

A56C	0203		INC2 R2, R0
A56E	20BD		JMP ($017A)

A570	D7D1		MOVE R7, (R13)+
A572	D8D1		MOVE R8, (R13)+
A574	D9D1		MOVE R9, (R13)+
A576	DAD8		MOVE R10, (R13)
A578	D3C1		MOVE R3, (R12)+
A57A	D4C1		MOVE R4, (R12)+
A57C	D5C1		MOVE R5, (R12)+
A57E	D6C8		MOVE R6, (R12)
A580	8100		LBI R1, #$00
A582	31DC		MOVE $1B8, R1
A584	31DD		MOVE $1BA, R1
A586	8F02		LBI R15, #$02
A588	A023		BRA $A5AE		; $24(R0)

A58A	0203		INC2 R2, R0
A58C	20BF		JMP ($017E)

A58E	0203		INC2 R2, R0
A590	20AF		JMP ($015E)

A592	A007		BRA $A59C		; $08(R0)

A594	0203		INC2 R2, R0
A596	20BD		JMP ($017A)

A598	D7D1		MOVE R7, (R13)+
A59A	D8D8		MOVE R8, (R13)
A59C	2953		MOVE R9, $A6
A59E	2A53		MOVE R10, $A6
A5A0	D3C1		MOVE R3, (R12)+
A5A2	D4C5		MOVE R4, (R12)-
A5A4	2553		MOVE R5, $A6
A5A6	2653		MOVE R6, $A6
A5A8	36DC		MOVE $1B8, R6
A5AA	36DD		MOVE $1BA, R6
A5AC	8F00		LBI R15, #$00
A5AE	0D3C		MHL R13, R3
A5B0	0E7C		MHL R14, R7
A5B2	9D80		CLR R13, #$80
A5B4	9E80		CLR R14, #$80
A5B6	CDEA		SNE R13, R14
A5B8	A011		BRA $A5CC		; $12(R0)

A5BA	CDE8		SGT R13, R14
A5BC	A007		BRA $A5C6		; $08(R0)

A5BE	0DE9		SUB R13, R14
A5C0	0203		INC2 R2, R0
A5C2	20B3		JMP ($0166)

A5C4	A005		BRA $A5CC		; $06(R0)

A5C6	0ED9		SUB R14, R13
A5C8	0203		INC2 R2, R0
A5CA	20B2		JMP ($0164)

A5CC	0D34		MOVE R13, R3
A5CE	0E74		MOVE R14, R7
A5D0	CDE2		SE R13, R14
A5D2	A03B		BRA $A610		; $3C(R0)

A5D4	0D4C		MHL R13, R4
A5D6	0E8C		MHL R14, R8
A5D8	CDE2		SE R13, R14
A5DA	A033		BRA $A610		; $34(R0)

A5DC	0D44		MOVE R13, R4
A5DE	0E84		MOVE R14, R8
A5E0	CDE2		SE R13, R14
A5E2	A02B		BRA $A610		; $2C(R0)

A5E4	0D5C		MHL R13, R5
A5E6	0E9C		MHL R14, R9
A5E8	CDE2		SE R13, R14
A5EA	A023		BRA $A610		; $24(R0)

A5EC	00F8		ADD R0, R15
A5EE	A041		BRA $A632		; $42(R0)

A5F0	0D54		MOVE R13, R5
A5F2	0E94		MOVE R14, R9
A5F4	CDE2		SE R13, R14
A5F6	A017		BRA $A610		; $18(R0)

A5F8	0D6C		MHL R13, R6
A5FA	0EAC		MHL R14, R10
A5FC	CDE2		SE R13, R14
A5FE	A00F		BRA $A610		; $10(R0)

A600	0D64		MOVE R13, R6
A602	0EA4		MOVE R14, R10
A604	CDE2		SE R13, R14
A606	A007		BRA $A610		; $08(R0)

A608	2DDC		MOVE R13, $1B8
A60A	2EDD		MOVE R14, $1BA
A60C	CDEA		SNE R13, R14
A60E	A021		BRA $A632		; $22(R0)

A610	033C		MHL R3, R3
A612	077C		MHL R7, R7
A614	937F		CLR R3, #$7F
A616	977F		CLR R7, #$7F
A618	C372		SE R3, R7
A61A	A00F		BRA $A62C		; $10(R0)

A61C	C303		SZ R3
A61E	A005		BRA $A626		; $06(R0)

A620	CDE8		SGT R13, R14
A622	209C		JMP ($0138)

A624	209D		JMP ($013A)

A626	CDE1		SLT R13, R14
A628	209C		JMP ($0138)

A62A	209D		JMP ($013A)

A62C	C303		SZ R3
A62E	209C		JMP ($0138)

A630	209D		JMP ($013A)

A632	C303		SZ R3
A634	A021		BRA $A658		; $22(R0)

A636	014C		MHL R1, R4
A638	C103		SZ R1
A63A	A01B		BRA $A658		; $1C(R0)

A63C	C403		SZ R4
A63E	A017		BRA $A658		; $18(R0)

A640	015C		MHL R1, R5
A642	C103		SZ R1
A644	A011		BRA $A658		; $12(R0)

A646	00F8		ADD R0, R15
A648	209B		JMP ($0136)

A64A	C503		SZ R5
A64C	A009		BRA $A658		; $0A(R0)

A64E	016C		MHL R1, R6
A650	C103		SZ R1
A652	A003		BRA $A658		; $04(R0)

A654	C60B		SNZ R6
A656	209B		JMP ($0136)

A658	033C		MHL R3, R3
A65A	077C		MHL R7, R7
A65C	937F		CLR R3, #$7F
A65E	977F		CLR R7, #$7F
A660	C37A		SNE R3, R7
A662	209B		JMP ($0136)

A664	C303		SZ R3
A666	209C		JMP ($0138)

A668	209D		JMP ($013A)

A66A	0000		HALT
A66C	0000		HALT
A66E	0000		HALT
A670	0000		HALT
A672	0000		HALT
A674	0000		HALT
A676	0000		HALT
A678	0000		HALT
A67A	0000		HALT
A67C	0000		HALT
A67E	0000		HALT
A680	0000		HALT
A682	0000		HALT
A684	0000		HALT
A686	0000		HALT
A688	0000		HALT
A68A	0000		HALT
A68C	0000		HALT
A68E	0000		HALT
A690	0000		HALT
A692	0000		HALT
A694	0000		HALT
A696	0000		HALT
A698	0000		HALT
A69A	0000		HALT
A69C	0000		HALT
A69E	0000		HALT
A6A0	0000		HALT
A6A2	0000		HALT
A6A4	0000		HALT
A6A6	0000		HALT
A6A8	0000		HALT
A6AA	0000		HALT
A6AC	0000		HALT
A6AE	0000		HALT
A6B0	0000		HALT
A6B2	0000		HALT
A6B4	0000		HALT
A6B6	0000		HALT
A6B8	0000		HALT
A6BA	0000		HALT
A6BC	0000		HALT
A6BE	0000		HALT
A6C0	0000		HALT
A6C2	0000		HALT
A6C4	0000		HALT
A6C6	0000		HALT
A6C8	0000		HALT
A6CA	0000		HALT
A6CC	0000		HALT
A6CE	0000		HALT
A6D0	0000		HALT
A6D2	0000		HALT
A6D4	0000		HALT
A6D6	0000		HALT
A6D8	0000		HALT
A6DA	0000		HALT
A6DC	0000		HALT
A6DE	0000		HALT
A6E0	0000		HALT
A6E2	0000		HALT
A6E4	0000		HALT
A6E6	0000		HALT
A6E8	0000		HALT
A6EA	0000		HALT
A6EC	0000		HALT
A6EE	0000		HALT
A6F0	0000		HALT
A6F2	0000		HALT
A6F4	0000		HALT
A6F6	0000		HALT
A6F8	0000		HALT
A6FA	0000		HALT
A6FC	0000		HALT
A6FE	0000		HALT
A700	0000		HALT
A702	0000		HALT
A704	0000		HALT
A706	0000		HALT
A708	0000		HALT
A70A	0000		HALT
A70C	0000		HALT
A70E	0000		HALT
A710	0000		HALT
A712	0000		HALT
A714	0000		HALT
A716	0000		HALT
A718	0000		HALT
A71A	0000		HALT
A71C	0000		HALT
A71E	0000		HALT
A720	0000		HALT
A722	0000		HALT
A724	0000		HALT
A726	0000		HALT
A728	0000		HALT
A72A	0000		HALT
A72C	0000		HALT
A72E	0000		HALT
A730	0000		HALT
A732	0000		HALT
A734	0000		HALT
A736	0000		HALT
A738	0000		HALT
A73A	0000		HALT
A73C	0000		HALT
A73E	0000		HALT
A740	0000		HALT
A742	0000		HALT
A744	0000		HALT
A746	0000		HALT
A748	0000		HALT
A74A	0000		HALT
A74C	0000		HALT
A74E	0000		HALT
A750	0000		HALT
A752	0000		HALT
A754	0000		HALT
A756	0000		HALT
A758	0000		HALT
A75A	0000		HALT
A75C	0000		HALT
A75E	0000		HALT
A760	0000		HALT
A762	0000		HALT
A764	0000		HALT
A766	0000		HALT
A768	0000		HALT
A76A	0000		HALT
A76C	0000		HALT
A76E	0000		HALT
A770	0000		HALT
A772	0000		HALT
A774	0000		HALT
A776	0000		HALT
A778	0000		HALT
A77A	0000		HALT
A77C	0000		HALT
A77E	0000		HALT
A780	0000		HALT
A782	0000		HALT
A784	0000		HALT
A786	0000		HALT
A788	0000		HALT
A78A	0000		HALT
A78C	0000		HALT
A78E	0000		HALT
A790	0000		HALT
A792	0000		HALT
A794	0000		HALT
A796	0000		HALT
A798	0000		HALT
A79A	0000		HALT
A79C	0000		HALT
A79E	0000		HALT
A7A0	0000		HALT
A7A2	0000		HALT
A7A4	0000		HALT
A7A6	0000		HALT
A7A8	0000		HALT
A7AA	0000		HALT
A7AC	0000		HALT
A7AE	0000		HALT
A7B0	0000		HALT
A7B2	0000		HALT
A7B4	0000		HALT
A7B6	0000		HALT
A7B8	0000		HALT
A7BA	0000		HALT
A7BC	0000		HALT
A7BE	0000		HALT
A7C0	0000		HALT
A7C2	0000		HALT
A7C4	0000		HALT
A7C6	0000		HALT
A7C8	0000		HALT
A7CA	0000		HALT
A7CC	0000		HALT
A7CE	0000		HALT
A7D0	0000		HALT
A7D2	0000		HALT
A7D4	0000		HALT
A7D6	0000		HALT
A7D8	0000		HALT
A7DA	0000		HALT
A7DC	0000		HALT
A7DE	0000		HALT
A7E0	0000		HALT
A7E2	0000		HALT
A7E4	0000		HALT
A7E6	0000		HALT
A7E8	0000		HALT
A7EA	0000		HALT
A7EC	0000		HALT
A7EE	0000		HALT
A7F0	0000		HALT
A7F2	0000		HALT
A7F4	0000		HALT
A7F6	0000		HALT
A7F8	0000		HALT
A7FA	0000		HALT
A7FC	0000		HALT
A7FE	0000		HALT
A800	0203		INC2 R2, R0
A802	20BF		JMP ($017E)

A804	0203		INC2 R2, R0
A806	20AF		JMP ($015E)

A808	A007		BRA $A812		; $08(R0)

A80A	0203		INC2 R2, R0
A80C	20BD		JMP ($017A)

A80E	D7D1		MOVE R7, (R13)+
A810	D8D4		MOVE R8, (R13)~
A812	8F00		LBI R15, #$00
A814	A013		BRA $A82A		; $14(R0)

A816	0203		INC2 R2, R0
A818	20BF		JMP ($017E)

A81A	0203		INC2 R2, R0
A81C	20AF		JMP ($015E)

A81E	A007		BRA $A828		; $08(R0)

A820	0203		INC2 R2, R0
A822	20BD		JMP ($017A)

A824	D7D1		MOVE R7, (R13)+
A826	D8D4		MOVE R8, (R13)~
A828	8F80		LBI R15, #$80
A82A	2953		MOVE R9, $A6
A82C	2A53		MOVE R10, $A6
A82E	3ADC		MOVE $1B8, R10
A830	3ADD		MOVE $1BA, R10
A832	33A2		MOVE $144, R3
A834	D3C1		MOVE R3, (R12)+
A836	D4C5		MOVE R4, (R12)-
A838	2553		MOVE R5, $A6
A83A	2653		MOVE R6, $A6
A83C	A043		BRA $A882		; $44(R0)

A83E	0203		INC2 R2, R0
A840	20BF		JMP ($017E)

A842	0203		INC2 R2, R0
A844	20AC		JMP ($0158)

A846	A00B		BRA $A854		; $0C(R0)

A848	0203		INC2 R2, R0
A84A	20BD		JMP ($017A)

A84C	D7D1		MOVE R7, (R13)+
A84E	D8D1		MOVE R8, (R13)+
A850	D9D1		MOVE R9, (R13)+
A852	DAD8		MOVE R10, (R13)
A854	8F00		LBI R15, #$00
A856	A017		BRA $A870		; $18(R0)

A858	0203		INC2 R2, R0
A85A	20BF		JMP ($017E)

A85C	0203		INC2 R2, R0
A85E	20AC		JMP ($0158)

A860	A00B		BRA $A86E		; $0C(R0)

A862	0203		INC2 R2, R0
A864	20BD		JMP ($017A)

A866	D7D1		MOVE R7, (R13)+
A868	D8D1		MOVE R8, (R13)+
A86A	D9D1		MOVE R9, (R13)+
A86C	DAD8		MOVE R10, (R13)
A86E	8F80		LBI R15, #$80
A870	33A2		MOVE $144, R3
A872	8100		LBI R1, #$00
A874	31DC		MOVE $1B8, R1
A876	31DD		MOVE $1BA, R1
A878	D3C1		MOVE R3, (R12)+
A87A	D4C1		MOVE R4, (R12)+
A87C	D5C1		MOVE R5, (R12)+
A87E	D6C8		MOVE R6, (R12)
A880	9C07		CLR R12, #$07
A882	0D3C		MHL R13, R3
A884	0E7C		MHL R14, R7
A886	8B80		LBI R11, #$80
A888	CDB6		SBC R13, R11
A88A	AF7F		ADD R15, #$80
A88C	CEB6		SBC R14, R11
A88E	AF7F		ADD R15, #$80
A890	9D80		CLR R13, #$80
A892	9E80		CLR R14, #$80
A894	CDEA		SNE R13, R14
A896	A011		BRA $A8AA		; $12(R0)

A898	CDE8		SGT R13, R14
A89A	A007		BRA $A8A4		; $08(R0)

A89C	0DE9		SUB R13, R14
A89E	0203		INC2 R2, R0
A8A0	20B3		JMP ($0166)

A8A2	A005		BRA $A8AA		; $06(R0)

A8A4	0ED9		SUB R14, R13
A8A6	0203		INC2 R2, R0
A8A8	20B2		JMP ($0164)

A8AA	CF0B		SNZ R15
A8AC	A0C5		BRA $A974		; $C6(R0)

A8AE	8BFF		LBI R11, #$FF
A8B0	2E53		MOVE R14, $A6
A8B2	0E66		OR R14, R6
A8B4	22DC		MOVE R2, $1B8
A8B6	21DD		MOVE R1, $1BA
A8B8	0219		SUB R2, R1
A8BA	81F0		LBI R1, #$F0
A8BC	C21D		SNBS R2, R1
A8BE	FE00		SUB R14, #$01
A8C0	92F0		CLR R2, #$F0
A8C2	32DC		MOVE $1B8, R2
A8C4	0EA9		SUB R14, R10
A8C6	8600		LBI R6, #$00
A8C8	06E6		OR R6, R14
A8CA	0E6C		MHL R14, R6
A8CC	CEBF		SNBSH R14, R11
A8CE	0EEB		ADDH2 R14, R14
A8D0	0AAC		MHL R10, R10
A8D2	0EA9		SUB R14, R10
A8D4	06ED		MLH R6, R14
A8D6	8E00		LBI R14, #$00
A8D8	0E56		OR R14, R5
A8DA	CEBF		SNBSH R14, R11
A8DC	0EEB		ADDH2 R14, R14
A8DE	0E99		SUB R14, R9
A8E0	8500		LBI R5, #$00
A8E2	05E6		OR R5, R14
A8E4	0E5C		MHL R14, R5
A8E6	CEBF		SNBSH R14, R11
A8E8	0EEB		ADDH2 R14, R14
A8EA	099C		MHL R9, R9
A8EC	0E99		SUB R14, R9
A8EE	05ED		MLH R5, R14
A8F0	8E00		LBI R14, #$00
A8F2	0E46		OR R14, R4
A8F4	CEBF		SNBSH R14, R11
A8F6	0EEB		ADDH2 R14, R14
A8F8	0E89		SUB R14, R8
A8FA	8400		LBI R4, #$00
A8FC	04E6		OR R4, R14
A8FE	0E4C		MHL R14, R4
A900	CEBF		SNBSH R14, R11
A902	0EEB		ADDH2 R14, R14
A904	088C		MHL R8, R8
A906	0E89		SUB R14, R8
A908	04ED		MLH R4, R14
A90A	8E00		LBI R14, #$00
A90C	0E36		OR R14, R3
A90E	CEBF		SNBSH R14, R11
A910	0EEB		ADDH2 R14, R14
A912	0E79		SUB R14, R7
A914	8300		LBI R3, #$00
A916	03E6		OR R3, R14
A918	CEB7		SBSH R14, R11
A91A	A0C5		BRA $A9E2		; $C6(R0)

A91C	22DC		MOVE R2, $1B8
A91E	02B7		XOR R2, R11
A920	06B7		XOR R6, R11
A922	0E6C		MHL R14, R6
A924	0EB7		XOR R14, R11
A926	06ED		MLH R6, R14
A928	05B7		XOR R5, R11
A92A	0E5C		MHL R14, R5
A92C	0EB7		XOR R14, R11
A92E	05ED		MLH R5, R14
A930	04B7		XOR R4, R11
A932	0E4C		MHL R14, R4
A934	0EB7		XOR R14, R11
A936	04ED		MLH R4, R14
A938	03B7		XOR R3, R11
A93A	0E3C		MHL R14, R3
A93C	A200		ADD R2, #$01
A93E	92F0		CLR R2, #$F0
A940	32DC		MOVE $1B8, R2
A942	C203		SZ R2
A944	A027		BRA $A96E		; $28(R0)

A946	A600		ADD R6, #$01
A948	C603		SZ R6
A94A	A021		BRA $A96E		; $22(R0)

A94C	016C		MHL R1, R6
A94E	C103		SZ R1
A950	A01B		BRA $A96E		; $1C(R0)

A952	A500		ADD R5, #$01
A954	C503		SZ R5
A956	A015		BRA $A96E		; $16(R0)

A958	015C		MHL R1, R5
A95A	C103		SZ R1
A95C	A00F		BRA $A96E		; $10(R0)

A95E	A400		ADD R4, #$01
A960	C403		SZ R4
A962	A009		BRA $A96E		; $0A(R0)

A964	014C		MHL R1, R4
A966	C103		SZ R1
A968	A003		BRA $A96E		; $04(R0)

A96A	A300		ADD R3, #$01
A96C	C303		SZ R3
A96E	AE7F		ADD R14, #$80
A970	03ED		MLH R3, R14
A972	A06D		BRA $A9E2		; $6E(R0)

A974	21DC		MOVE R1, $1B8
A976	2BDD		MOVE R11, $1BA
A978	01B8		ADD R1, R11
A97A	31DC		MOVE $1B8, R1
A97C	016C		MHL R1, R6
A97E	06AD		MLH R6, R10
A980	066A		ADDH R6, R6
A982	0A6C		MHL R10, R6
A984	0AAA		ADDH R10, R10
A986	0A18		ADD R10, R1
A988	06AD		MLH R6, R10
A98A	0A5A		ADDH R10, R5
A98C	0A98		ADD R10, R9
A98E	09AC		MHL R9, R10
A990	099A		ADDH R9, R9
A992	055C		MHL R5, R5
A994	0958		ADD R9, R5
A996	0A9D		MLH R10, R9
A998	05A4		MOVE R5, R10
A99A	094A		ADDH R9, R4
A99C	0988		ADD R9, R8
A99E	089C		MHL R8, R9
A9A0	088A		ADDH R8, R8
A9A2	044C		MHL R4, R4
A9A4	0848		ADD R8, R4
A9A6	098D		MLH R9, R8
A9A8	0494		MOVE R4, R9
A9AA	083A		ADDH R8, R3
A9AC	0878		ADD R8, R7
A9AE	8300		LBI R3, #$00
A9B0	0386		OR R3, R8
A9B2	088C		MHL R8, R8
A9B4	C80B		SNZ R8
A9B6	A029		BRA $A9E2		; $2A(R0)

A9B8	0D3C		MHL R13, R3
A9BA	8E01		LBI R14, #$01
A9BC	0203		INC2 R2, R0
A9BE	20B2		JMP ($0164)

A9C0	B310		SET R3, #$10
A9C2	9D7F		CLR R13, #$7F
A9C4	013C		MHL R1, R3
A9C6	917F		CLR R1, #$7F
A9C8	CD1A		SNE R13, R1
A9CA	A091		BRA $AA5E		; $92(R0)

A9CC	013C		MHL R1, R3
A9CE	A17F		ADD R1, #$80
A9D0	031D		MLH R3, R1
A9D2	8B0C		LBI R11, #$0C
A9D4	2182		MOVE R1, $104
A9D6	31CA		MOVE $194, R1
A9D8	8183		LBI R1, #$83
A9DA	011D		MLH R1, R1
A9DC	815A		LBI R1, #$5A
A9DE	3182		MOVE $104, R1
A9E0	A07B		BRA $AA5E		; $7C(R0)

A9E2	2AA2		MOVE R10, $144
A9E4	8104		LBI R1, #$04
A9E6	CA16		SBC R10, R1
A9E8	A01F		BRA $AA0A		; $20(R0)

A9EA	0203		INC2 R2, R0
A9EC	20BA		JMP ($0174)

A9EE	A06D		BRA $AA5E		; $6E(R0)

A9F0	A039		BRA $AA2C		; $3A(R0)

A9F2	2AA3		MOVE R10, $146
A9F4	8102		LBI R1, #$02
A9F6	CA1E		SNBC R10, R1
A9F8	A049		BRA $AA44		; $4A(R0)

A9FA	8B0D		LBI R11, #$0D
A9FC	2182		MOVE R1, $104
A9FE	31CA		MOVE $194, R1
AA00	8183		LBI R1, #$83
AA02	011D		MLH R1, R1
AA04	815A		LBI R1, #$5A
AA06	3182		MOVE $104, R1
AA08	A053		BRA $AA5E		; $54(R0)

AA0A	C303		SZ R3
AA0C	A04F		BRA $AA5E		; $50(R0)

AA0E	C403		SZ R4
AA10	A04B		BRA $AA5E		; $4C(R0)

AA12	014C		MHL R1, R4
AA14	C103		SZ R1
AA16	A045		BRA $AA5E		; $46(R0)

AA18	015C		MHL R1, R5
AA1A	C103		SZ R1
AA1C	A03F		BRA $AA5E		; $40(R0)

AA1E	C503		SZ R5
AA20	A03B		BRA $AA5E		; $3C(R0)

AA22	C603		SZ R6
AA24	A037		BRA $AA5E		; $38(R0)

AA26	016C		MHL R1, R6
AA28	C103		SZ R1
AA2A	A031		BRA $AA5E		; $32(R0)

AA2C	2AA3		MOVE R10, $146
AA2E	8101		LBI R1, #$01
AA30	CA1E		SNBC R10, R1
AA32	A015		BRA $AA4A		; $16(R0)

AA34	8B0E		LBI R11, #$0E
AA36	2182		MOVE R1, $104
AA38	31CA		MOVE $194, R1
AA3A	8183		LBI R1, #$83
AA3C	011D		MLH R1, R1
AA3E	815A		LBI R1, #$5A
AA40	3182		MOVE $104, R1
AA42	A007		BRA $AA4C		; $08(R0)

AA44	2653		MOVE R6, $A6
AA46	2553		MOVE R5, $A6
AA48	2453		MOVE R4, $A6
AA4A	2353		MOVE R3, $A6
AA4C	53C1		MOVE (R12)+, R3
AA4E	54C1		MOVE (R12)+, R4
AA50	2AA2		MOVE R10, $144
AA52	8110		LBI R1, #$10
AA54	CA16		SBC R10, R1
AA56	209B		JMP ($0136)

AA58	55C1		MOVE (R12)+, R5
AA5A	56C8		MOVE (R12), R6
AA5C	209B		JMP ($0136)

AA5E	2AA2		MOVE R10, $144
AA60	53C1		MOVE (R12)+, R3
AA62	54C1		MOVE (R12)+, R4
AA64	8110		LBI R1, #$10
AA66	CA16		SBC R10, R1
AA68	A003		BRA $AA6E		; $04(R0)

AA6A	55C1		MOVE (R12)+, R5
AA6C	56C8		MOVE (R12), R6
AA6E	8180		LBI R1, #$80
AA70	C31F		SNBSH R3, R1
AA72	209C		JMP ($0138)

AA74	209D		JMP ($013A)

AA76	0203		INC2 R2, R0
AA78	20BD		JMP ($017A)

AA7A	D3D1		MOVE R3, (R13)+
AA7C	D4D1		MOVE R4, (R13)+
AA7E	2553		MOVE R5, $A6
AA80	2653		MOVE R6, $A6
AA82	36DC		MOVE $1B8, R6
AA84	8900		LBI R9, #$00
AA86	A021		BRA $AAAA		; $22(R0)

AA88	0203		INC2 R2, R0
AA8A	20BD		JMP ($017A)

AA8C	D3D1		MOVE R3, (R13)+
AA8E	D4D1		MOVE R4, (R13)+
AA90	D5D1		MOVE R5, (R13)+
AA92	D6D8		MOVE R6, (R13)
AA94	8902		LBI R9, #$02
AA96	8700		LBI R7, #$00
AA98	076D		MLH R7, R6
AA9A	E07C		SHR R7
AA9C	37DC		MOVE $1B8, R7
AA9E	E06C		SHR R6
AAA0	016C		MHL R1, R6
AAA2	015D		MLH R1, R5
AAA4	E01C		SHR R1
AAA6	061D		MLH R6, R1
AAA8	E05C		SHR R5
AAAA	015C		MHL R1, R5
AAAC	014D		MLH R1, R4
AAAE	E01C		SHR R1
AAB0	051D		MLH R5, R1
AAB2	E04C		SHR R4
AAB4	014C		MHL R1, R4
AAB6	013D		MLH R1, R3
AAB8	E01C		SHR R1
AABA	041D		MLH R4, R1
AABC	E03C		SHR R3
AABE	9380		CLR R3, #$80
AAC0	0203		INC2 R2, R0
AAC2	20BA		JMP ($0174)

AAC4	A021		BRA $AAE8		; $22(R0)

AAC6	A01D		BRA $AAE6		; $1E(R0)

AAC8	2AA3		MOVE R10, $146
AACA	8102		LBI R1, #$02
AACC	CA1E		SNBC R10, R1
AACE	A00F		BRA $AAE0		; $10(R0)

AAD0	8B0D		LBI R11, #$0D
AAD2	2182		MOVE R1, $104
AAD4	31CA		MOVE $194, R1
AAD6	8183		LBI R1, #$83
AAD8	011D		MLH R1, R1
AADA	815A		LBI R1, #$5A
AADC	3182		MOVE $104, R1
AADE	A007		BRA $AAE8		; $08(R0)

AAE0	2653		MOVE R6, $A6
AAE2	2553		MOVE R5, $A6
AAE4	2453		MOVE R4, $A6
AAE6	2353		MOVE R3, $A6
AAE8	53C1		MOVE (R12)+, R3
AAEA	54C1		MOVE (R12)+, R4
AAEC	0098		ADD R0, R9
AAEE	2082		JMP ($0104)

AAF0	55C1		MOVE (R12)+, R5
AAF2	56C8		MOVE (R12), R6
AAF4	2082		JMP ($0104)

AAF6	013C		MHL R1, R3
AAF8	01E8		ADD R1, R14
AAFA	031D		MLH R3, R1
AAFC	810F		LBI R1, #$0F
AAFE	CE11		SLT R14, R1
AB00	A021		BRA $AB24		; $22(R0)

AB02	8101		LBI R1, #$01
AB04	CE1E		SNBC R14, R1
AB06	A00B		BRA $AB14		; $0C(R0)

AB08	2153		MOVE R1, $A6
AB0A	01E9		SUB R1, R14
AB0C	E01C		SHR R1
AB0E	A10D		ADD R1, #$0E
AB10	6118		MOVB R1, (R1)
AB12	A00B		BRA $AB20		; $0C(R0)

AB14	2153		MOVE R1, $A6
AB16	01E9		SUB R1, R14
AB18	E01C		SHR R1
AB1A	A10D		ADD R1, #$0E
AB1C	6118		MOVB R1, (R1)
AB1E	E01F		SWAP R1
AB20	91F0		CLR R1, #$F0
AB22	31DC		MOVE $1B8, R1
AB24	8108		LBI R1, #$08
AB26	CE19		SGE R14, R1
AB28	A00B		BRA $AB36		; $0C(R0)

AB2A	FE07		SUB R14, #$08
AB2C	0644		MOVE R6, R4
AB2E	0534		MOVE R5, R3
AB30	2453		MOVE R4, $A6
AB32	8300		LBI R3, #$00
AB34	053D		MLH R5, R3
AB36	8104		LBI R1, #$04
AB38	CE19		SGE R14, R1
AB3A	A00B		BRA $AB48		; $0C(R0)

AB3C	FE03		SUB R14, #$04
AB3E	0654		MOVE R6, R5
AB40	0544		MOVE R5, R4
AB42	0434		MOVE R4, R3
AB44	8300		LBI R3, #$00
AB46	043D		MLH R4, R3
AB48	8102		LBI R1, #$02
AB4A	CE19		SGE R14, R1
AB4C	A00F		BRA $AB5E		; $10(R0)

AB4E	FE01		SUB R14, #$02
AB50	066C		MHL R6, R6
AB52	065D		MLH R6, R5
AB54	055C		MHL R5, R5
AB56	054D		MLH R5, R4
AB58	044C		MHL R4, R4
AB5A	043D		MLH R4, R3
AB5C	8300		LBI R3, #$00
AB5E	8101		LBI R1, #$01
AB60	CE19		SGE R14, R1
AB62	0024		RET R2

AB64	E06F		SWAP R6
AB66	96F0		CLR R6, #$F0
AB68	016C		MHL R1, R6
AB6A	E01F		SWAP R1
AB6C	0E14		MOVE R14, R1
AB6E	910F		CLR R1, #$0F
AB70	0616		OR R6, R1
AB72	9EF0		CLR R14, #$F0
AB74	E05F		SWAP R5
AB76	0154		MOVE R1, R5
AB78	910F		CLR R1, #$0F
AB7A	01E6		OR R1, R14
AB7C	061D		MLH R6, R1
AB7E	95F0		CLR R5, #$F0
AB80	015C		MHL R1, R5
AB82	E01F		SWAP R1
AB84	0E14		MOVE R14, R1
AB86	910F		CLR R1, #$0F
AB88	0516		OR R5, R1
AB8A	9EF0		CLR R14, #$F0
AB8C	E04F		SWAP R4
AB8E	0144		MOVE R1, R4
AB90	910F		CLR R1, #$0F
AB92	01E6		OR R1, R14
AB94	051D		MLH R5, R1
AB96	94F0		CLR R4, #$F0
AB98	014C		MHL R1, R4
AB9A	E01F		SWAP R1
AB9C	0E14		MOVE R14, R1
AB9E	910F		CLR R1, #$0F
ABA0	0416		OR R4, R1
ABA2	9EF0		CLR R14, #$F0
ABA4	E03F		SWAP R3
ABA6	0134		MOVE R1, R3
ABA8	910F		CLR R1, #$0F
ABAA	01E6		OR R1, R14
ABAC	041D		MLH R4, R1
ABAE	93F0		CLR R3, #$F0
ABB0	0024		RET R2

ABB2	017C		MHL R1, R7
ABB4	01D8		ADD R1, R13
ABB6	071D		MLH R7, R1
ABB8	810F		LBI R1, #$0F
ABBA	CD11		SLT R13, R1
ABBC	A021		BRA $ABE0		; $22(R0)

ABBE	8101		LBI R1, #$01
ABC0	CD1E		SNBC R13, R1
ABC2	A00B		BRA $ABD0		; $0C(R0)

ABC4	2153		MOVE R1, $A6
ABC6	01D9		SUB R1, R13
ABC8	E01C		SHR R1
ABCA	A115		ADD R1, #$16
ABCC	6118		MOVB R1, (R1)
ABCE	A00B		BRA $ABDC		; $0C(R0)

ABD0	2153		MOVE R1, $A6
ABD2	01D9		SUB R1, R13
ABD4	E01C		SHR R1
ABD6	A115		ADD R1, #$16
ABD8	6118		MOVB R1, (R1)
ABDA	E01F		SWAP R1
ABDC	91F0		CLR R1, #$F0
ABDE	31DD		MOVE $1BA, R1
ABE0	8108		LBI R1, #$08
ABE2	CD19		SGE R13, R1
ABE4	A00B		BRA $ABF2		; $0C(R0)

ABE6	FD07		SUB R13, #$08
ABE8	0A84		MOVE R10, R8
ABEA	0974		MOVE R9, R7
ABEC	2853		MOVE R8, $A6
ABEE	8700		LBI R7, #$00
ABF0	097D		MLH R9, R7
ABF2	8104		LBI R1, #$04
ABF4	CD19		SGE R13, R1
ABF6	A00B		BRA $AC04		; $0C(R0)

ABF8	FD03		SUB R13, #$04
ABFA	0A94		MOVE R10, R9
ABFC	0984		MOVE R9, R8
ABFE	0874		MOVE R8, R7
AC00	8700		LBI R7, #$00
AC02	087D		MLH R8, R7
AC04	8102		LBI R1, #$02
AC06	CD19		SGE R13, R1
AC08	A00F		BRA $AC1A		; $10(R0)

AC0A	FD01		SUB R13, #$02
AC0C	0AAC		MHL R10, R10
AC0E	0A9D		MLH R10, R9
AC10	099C		MHL R9, R9
AC12	098D		MLH R9, R8
AC14	088C		MHL R8, R8
AC16	087D		MLH R8, R7
AC18	8700		LBI R7, #$00
AC1A	8101		LBI R1, #$01
AC1C	CD19		SGE R13, R1
AC1E	0024		RET R2

AC20	E0AF		SWAP R10
AC22	9AF0		CLR R10, #$F0
AC24	01AC		MHL R1, R10
AC26	E01F		SWAP R1
AC28	0D14		MOVE R13, R1
AC2A	910F		CLR R1, #$0F
AC2C	0A16		OR R10, R1
AC2E	9DF0		CLR R13, #$F0
AC30	E09F		SWAP R9
AC32	0194		MOVE R1, R9
AC34	910F		CLR R1, #$0F
AC36	01D6		OR R1, R13
AC38	0A1D		MLH R10, R1
AC3A	99F0		CLR R9, #$F0
AC3C	019C		MHL R1, R9
AC3E	E01F		SWAP R1
AC40	0D14		MOVE R13, R1
AC42	910F		CLR R1, #$0F
AC44	0916		OR R9, R1
AC46	9DF0		CLR R13, #$F0
AC48	E08F		SWAP R8
AC4A	0184		MOVE R1, R8
AC4C	910F		CLR R1, #$0F
AC4E	01D6		OR R1, R13
AC50	091D		MLH R9, R1
AC52	98F0		CLR R8, #$F0
AC54	018C		MHL R1, R8
AC56	E01F		SWAP R1
AC58	0D14		MOVE R13, R1
AC5A	910F		CLR R1, #$0F
AC5C	0816		OR R8, R1
AC5E	9DF0		CLR R13, #$F0
AC60	E07F		SWAP R7
AC62	0174		MOVE R1, R7
AC64	910F		CLR R1, #$0F
AC66	01D6		OR R1, R13
AC68	081D		MLH R8, R1
AC6A	97F0		CLR R7, #$F0
AC6C	0024		RET R2

AC6E	81F0		LBI R1, #$F0
AC70	C316		SBC R3, R1
AC72	0024		RET R2

AC74	8E01		LBI R14, #$01
AC76	0EED		MLH R14, R14
AC78	C303		SZ R3
AC7A	A083		BRA $AD00		; $84(R0)

AC7C	8E02		LBI R14, #$02
AC7E	0B4C		MHL R11, R4
AC80	CB03		SZ R11
AC82	A033		BRA $ACB8		; $34(R0)

AC84	AE01		ADD R14, #$02
AC86	0B44		MOVE R11, R4
AC88	CB03		SZ R11
AC8A	A02B		BRA $ACB8		; $2C(R0)

AC8C	AE01		ADD R14, #$02
AC8E	0B5C		MHL R11, R5
AC90	CB03		SZ R11
AC92	A023		BRA $ACB8		; $24(R0)

AC94	AE01		ADD R14, #$02
AC96	0B54		MOVE R11, R5
AC98	CB03		SZ R11
AC9A	A01B		BRA $ACB8		; $1C(R0)

AC9C	AE01		ADD R14, #$02
AC9E	0B6C		MHL R11, R6
ACA0	CB03		SZ R11
ACA2	A013		BRA $ACB8		; $14(R0)

ACA4	AE01		ADD R14, #$02
ACA6	0B64		MOVE R11, R6
ACA8	CB03		SZ R11
ACAA	A00B		BRA $ACB8		; $0C(R0)

ACAC	AE01		ADD R14, #$02
ACAE	2BDC		MOVE R11, $1B8
ACB0	CB03		SZ R11
ACB2	A009		BRA $ACBE		; $0A(R0)

ACB4	A201		ADD R2, #$02
ACB6	0024		RET R2

ACB8	81F0		LBI R1, #$F0
ACBA	CB1E		SNBC R11, R1
ACBC	AE00		ADD R14, #$01
ACBE	0EED		MLH R14, R14
ACC0	8108		LBI R1, #$08
ACC2	CE19		SGE R14, R1
ACC4	A00B		BRA $ACD2		; $0C(R0)

ACC6	FE07		SUB R14, #$08
ACC8	015D		MLH R1, R5
ACCA	031C		MHL R3, R1
ACCC	0464		MOVE R4, R6
ACCE	2553		MOVE R5, $A6
ACD0	2653		MOVE R6, $A6
ACD2	8104		LBI R1, #$04
ACD4	CE19		SGE R14, R1
ACD6	A00B		BRA $ACE4		; $0C(R0)

ACD8	FE03		SUB R14, #$04
ACDA	014D		MLH R1, R4
ACDC	031C		MHL R3, R1
ACDE	0454		MOVE R4, R5
ACE0	0564		MOVE R5, R6
ACE2	2653		MOVE R6, $A6
ACE4	8102		LBI R1, #$02
ACE6	CE19		SGE R14, R1
ACE8	A00F		BRA $ACFA		; $10(R0)

ACEA	FE01		SUB R14, #$02
ACEC	034C		MHL R3, R4
ACEE	044D		MLH R4, R4
ACF0	045C		MHL R4, R5
ACF2	055D		MLH R5, R5
ACF4	056C		MHL R5, R6
ACF6	066D		MLH R6, R6
ACF8	8600		LBI R6, #$00
ACFA	8101		LBI R1, #$01
ACFC	CE19		SGE R14, R1
ACFE	A04B		BRA $AD4C		; $4C(R0)

AD00	E03F		SWAP R3
AD02	930F		CLR R3, #$0F
AD04	014C		MHL R1, R4
AD06	E01F		SWAP R1
AD08	0B14		MOVE R11, R1
AD0A	91F0		CLR R1, #$F0
AD0C	0316		OR R3, R1
AD0E	9B0F		CLR R11, #$0F
AD10	E04F		SWAP R4
AD12	0144		MOVE R1, R4
AD14	91F0		CLR R1, #$F0
AD16	01B6		OR R1, R11
AD18	041D		MLH R4, R1
AD1A	940F		CLR R4, #$0F
AD1C	015C		MHL R1, R5
AD1E	E01F		SWAP R1
AD20	0B14		MOVE R11, R1
AD22	91F0		CLR R1, #$F0
AD24	0416		OR R4, R1
AD26	9B0F		CLR R11, #$0F
AD28	E05F		SWAP R5
AD2A	0154		MOVE R1, R5
AD2C	91F0		CLR R1, #$F0
AD2E	01B6		OR R1, R11
AD30	051D		MLH R5, R1
AD32	950F		CLR R5, #$0F
AD34	016C		MHL R1, R6
AD36	E01F		SWAP R1
AD38	0B14		MOVE R11, R1
AD3A	91F0		CLR R1, #$F0
AD3C	0516		OR R5, R1
AD3E	9B0F		CLR R11, #$0F
AD40	E06F		SWAP R6
AD42	0164		MOVE R1, R6
AD44	91F0		CLR R1, #$F0
AD46	01B6		OR R1, R11
AD48	061D		MLH R6, R1
AD4A	960F		CLR R6, #$0F
AD4C	0EEC		MHL R14, R14
AD4E	2B53		MOVE R11, $A6
AD50	0BE9		SUB R11, R14
AD52	E0BC		SHR R11
AD54	AB0D		ADD R11, #$0E
AD56	8101		LBI R1, #$01
AD58	CE1D		SNBS R14, R1
AD5A	A005		BRA $AD62		; $06(R0)

AD5C	21DC		MOVE R1, $1B8
AD5E	E01F		SWAP R1
AD60	A009		BRA $AD6C		; $0A(R0)

AD62	21DC		MOVE R1, $1B8
AD64	3BDC		MOVE $1B8, R11
AD66	6BB8		MOVB R11, (R11)
AD68	01B6		OR R1, R11
AD6A	2BDC		MOVE R11, $1B8
AD6C	71B8		MOVB (R11), R1
AD6E	8180		LBI R1, #$80
AD70	C31F		SNBSH R3, R1
AD72	A00D		BRA $AD82		; $0E(R0)

AD74	013C		MHL R1, R3
AD76	01E9		SUB R1, R14
AD78	031D		MLH R3, R1
AD7A	917F		CLR R1, #$7F
AD7C	C103		SZ R1
AD7E	A00D		BRA $AD8E		; $0E(R0)

AD80	0024		RET R2

AD82	013C		MHL R1, R3
AD84	01E9		SUB R1, R14
AD86	031D		MLH R3, R1
AD88	917F		CLR R1, #$7F
AD8A	C103		SZ R1
AD8C	0024		RET R2

AD8E	013C		MHL R1, R3
AD90	A17F		ADD R1, #$80
AD92	031D		MLH R3, R1
AD94	A203		ADD R2, #$04
AD96	0024		RET R2

AD98	81F0		LBI R1, #$F0
AD9A	C716		SBC R7, R1
AD9C	0024		RET R2

AD9E	8E01		LBI R14, #$01
ADA0	0EED		MLH R14, R14
ADA2	C703		SZ R7
ADA4	A083		BRA $AE2A		; $84(R0)

ADA6	8E02		LBI R14, #$02
ADA8	0B8C		MHL R11, R8
ADAA	CB03		SZ R11
ADAC	A033		BRA $ADE2		; $34(R0)

ADAE	AE01		ADD R14, #$02
ADB0	0B84		MOVE R11, R8
ADB2	CB03		SZ R11
ADB4	A02B		BRA $ADE2		; $2C(R0)

ADB6	AE01		ADD R14, #$02
ADB8	0B9C		MHL R11, R9
ADBA	CB03		SZ R11
ADBC	A023		BRA $ADE2		; $24(R0)

ADBE	AE01		ADD R14, #$02
ADC0	0B94		MOVE R11, R9
ADC2	CB03		SZ R11
ADC4	A01B		BRA $ADE2		; $1C(R0)

ADC6	AE01		ADD R14, #$02
ADC8	0BAC		MHL R11, R10
ADCA	CB03		SZ R11
ADCC	A013		BRA $ADE2		; $14(R0)

ADCE	AE01		ADD R14, #$02
ADD0	0BA4		MOVE R11, R10
ADD2	CB03		SZ R11
ADD4	A00B		BRA $ADE2		; $0C(R0)

ADD6	AE01		ADD R14, #$02
ADD8	2BDC		MOVE R11, $1B8
ADDA	CB03		SZ R11
ADDC	A009		BRA $ADE8		; $0A(R0)

ADDE	A201		ADD R2, #$02
ADE0	0024		RET R2

ADE2	81F0		LBI R1, #$F0
ADE4	CB1E		SNBC R11, R1
ADE6	AE00		ADD R14, #$01
ADE8	0EED		MLH R14, R14
ADEA	8108		LBI R1, #$08
ADEC	CE19		SGE R14, R1
ADEE	A00B		BRA $ADFC		; $0C(R0)

ADF0	FE07		SUB R14, #$08
ADF2	019D		MLH R1, R9
ADF4	071C		MHL R7, R1
ADF6	08A4		MOVE R8, R10
ADF8	2953		MOVE R9, $A6
ADFA	2A53		MOVE R10, $A6
ADFC	8104		LBI R1, #$04
ADFE	CE19		SGE R14, R1
AE00	A00B		BRA $AE0E		; $0C(R0)

AE02	FE03		SUB R14, #$04
AE04	018D		MLH R1, R8
AE06	071C		MHL R7, R1
AE08	0894		MOVE R8, R9
AE0A	09A4		MOVE R9, R10
AE0C	2A53		MOVE R10, $A6
AE0E	8102		LBI R1, #$02
AE10	CE19		SGE R14, R1
AE12	A00F		BRA $AE24		; $10(R0)

AE14	FE01		SUB R14, #$02
AE16	078C		MHL R7, R8
AE18	088D		MLH R8, R8
AE1A	089C		MHL R8, R9
AE1C	099D		MLH R9, R9
AE1E	098C		MHL R9, R8
AE20	088D		MLH R8, R8
AE22	8800		LBI R8, #$00
AE24	8101		LBI R1, #$01
AE26	CE19		SGE R14, R1
AE28	A04B		BRA $AE76		; $4C(R0)

AE2A	E07F		SWAP R7
AE2C	970F		CLR R7, #$0F
AE2E	018C		MHL R1, R8
AE30	E01F		SWAP R1
AE32	0B14		MOVE R11, R1
AE34	91F0		CLR R1, #$F0
AE36	0716		OR R7, R1
AE38	9B0F		CLR R11, #$0F
AE3A	E08F		SWAP R8
AE3C	0184		MOVE R1, R8
AE3E	91F0		CLR R1, #$F0
AE40	01B6		OR R1, R11
AE42	081D		MLH R8, R1
AE44	980F		CLR R8, #$0F
AE46	019C		MHL R1, R9
AE48	E01F		SWAP R1
AE4A	0B14		MOVE R11, R1
AE4C	91F0		CLR R1, #$F0
AE4E	0816		OR R8, R1
AE50	9B0F		CLR R11, #$0F
AE52	E09F		SWAP R9
AE54	0194		MOVE R1, R9
AE56	91F0		CLR R1, #$F0
AE58	01B6		OR R1, R11
AE5A	091D		MLH R9, R1
AE5C	990F		CLR R9, #$0F
AE5E	01AC		MHL R1, R10
AE60	E01F		SWAP R1
AE62	0B14		MOVE R11, R1
AE64	91F0		CLR R1, #$F0
AE66	0916		OR R9, R1
AE68	9B0F		CLR R11, #$0F
AE6A	E0AF		SWAP R10
AE6C	01A4		MOVE R1, R10
AE6E	91F0		CLR R1, #$F0
AE70	01B6		OR R1, R11
AE72	0A1D		MLH R10, R1
AE74	9A0F		CLR R10, #$0F
AE76	0EEC		MHL R14, R14
AE78	2B53		MOVE R11, $A6
AE7A	0BE9		SUB R11, R14
AE7C	E0BC		SHR R11
AE7E	AB15		ADD R11, #$16
AE80	8101		LBI R1, #$01
AE82	CE1D		SNBS R14, R1
AE84	A005		BRA $AE8C		; $06(R0)

AE86	21DD		MOVE R1, $1BA
AE88	E01F		SWAP R1
AE8A	A009		BRA $AE96		; $0A(R0)

AE8C	21DD		MOVE R1, $1BA
AE8E	3BDD		MOVE $1BA, R11
AE90	6BB8		MOVB R11, (R11)
AE92	01B6		OR R1, R11
AE94	2BDD		MOVE R11, $1BA
AE96	71B8		MOVB (R11), R1
AE98	8180		LBI R1, #$80
AE9A	C71F		SNBSH R7, R1
AE9C	A00D		BRA $AEAC		; $0E(R0)

AE9E	017C		MHL R1, R7
AEA0	01E9		SUB R1, R14
AEA2	071D		MLH R7, R1
AEA4	917F		CLR R1, #$7F
AEA6	C103		SZ R1
AEA8	A00D		BRA $AEB8		; $0E(R0)

AEAA	0024		RET R2

AEAC	017C		MHL R1, R7
AEAE	01E9		SUB R1, R14
AEB0	071D		MLH R7, R1
AEB2	917F		CLR R1, #$7F
AEB4	C103		SZ R1
AEB6	0024		RET R2

AEB8	017C		MHL R1, R7
AEBA	A17F		ADD R1, #$80
AEBC	071D		MLH R7, R1
AEBE	A203		ADD R2, #$04
AEC0	0024		RET R2

AEC2	0000		HALT
AEC4	0000		HALT
AEC6	0000		HALT
AEC8	0000		HALT
AECA	0000		HALT
AECC	0000		HALT
AECE	0000		HALT
AED0	0000		HALT
AED2	0000		HALT
AED4	0000		HALT
AED6	0000		HALT
AED8	0000		HALT
AEDA	0000		HALT
AEDC	0000		HALT
AEDE	0000		HALT
AEE0	0000		HALT
AEE2	0000		HALT
AEE4	0000		HALT
AEE6	0000		HALT
AEE8	0000		HALT
AEEA	0000		HALT
AEEC	0000		HALT
AEEE	0000		HALT
AEF0	0000		HALT
AEF2	0000		HALT
AEF4	0000		HALT
AEF6	0000		HALT
AEF8	0000		HALT
AEFA	0000		HALT
AEFC	0000		HALT
AEFE	0000		HALT
AF00	0000		HALT
AF02	0000		HALT
AF04	0000		HALT
AF06	0000		HALT
AF08	0000		HALT
AF0A	0000		HALT
AF0C	0000		HALT
AF0E	0000		HALT
AF10	0000		HALT
AF12	0000		HALT
AF14	0000		HALT
AF16	0000		HALT
AF18	0000		HALT
AF1A	0000		HALT
AF1C	0000		HALT
AF1E	0000		HALT
AF20	0000		HALT
AF22	0000		HALT
AF24	0000		HALT
AF26	0000		HALT
AF28	0000		HALT
AF2A	0000		HALT
AF2C	0000		HALT
AF2E	0000		HALT
AF30	0000		HALT
AF32	0000		HALT
AF34	0000		HALT
AF36	0000		HALT
AF38	0000		HALT
AF3A	0000		HALT
AF3C	0000		HALT
AF3E	0000		HALT
AF40	0000		HALT
AF42	0000		HALT
AF44	0000		HALT
AF46	0000		HALT
AF48	0000		HALT
AF4A	0000		HALT
AF4C	0000		HALT
AF4E	0000		HALT
AF50	0000		HALT
AF52	0000		HALT
AF54	0000		HALT
AF56	0000		HALT
AF58	0000		HALT
AF5A	0000		HALT
AF5C	0000		HALT
AF5E	0000		HALT
AF60	0000		HALT
AF62	0000		HALT
AF64	0000		HALT
AF66	0000		HALT
AF68	0000		HALT
AF6A	0000		HALT
AF6C	0000		HALT
AF6E	0000		HALT
AF70	0000		HALT
AF72	0000		HALT
AF74	0000		HALT
AF76	0000		HALT
AF78	0000		HALT
AF7A	0000		HALT
AF7C	0000		HALT
AF7E	0000		HALT
AF80	0000		HALT
AF82	0000		HALT
AF84	0000		HALT
AF86	0000		HALT
AF88	0000		HALT
AF8A	0000		HALT
AF8C	0000		HALT
AF8E	0000		HALT
AF90	0000		HALT
AF92	0000		HALT
AF94	0000		HALT
AF96	0000		HALT
AF98	0000		HALT
AF9A	0000		HALT
AF9C	0000		HALT
AF9E	0000		HALT
AFA0	0000		HALT
AFA2	0000		HALT
AFA4	0000		HALT
AFA6	0000		HALT
AFA8	0000		HALT
AFAA	0000		HALT
AFAC	0000		HALT
AFAE	0000		HALT
AFB0	0000		HALT
AFB2	0000		HALT
AFB4	0000		HALT
AFB6	0000		HALT
AFB8	0000		HALT
AFBA	0000		HALT
AFBC	0000		HALT
AFBE	0000		HALT
AFC0	0000		HALT
AFC2	0000		HALT
AFC4	0000		HALT
AFC6	0000		HALT
AFC8	0000		HALT
AFCA	0000		HALT
AFCC	0000		HALT
AFCE	0000		HALT
AFD0	0000		HALT
AFD2	0000		HALT
AFD4	0000		HALT
AFD6	0000		HALT
AFD8	0000		HALT
AFDA	0000		HALT
AFDC	0000		HALT
AFDE	0000		HALT
AFE0	0000		HALT
AFE2	0000		HALT
AFE4	0000		HALT
AFE6	0000		HALT
AFE8	0000		HALT
AFEA	0000		HALT
AFEC	0000		HALT
AFEE	0000		HALT
AFF0	0000		HALT
AFF2	0000		HALT
AFF4	0000		HALT
AFF6	0000		HALT
AFF8	0000		HALT
AFFA	0000		HALT
AFFC	0000		HALT
AFFE	0000		HALT
B000	FFFF		SUB R15, #$100
B002	FFFF		SUB R15, #$100
B004	FFFF		SUB R15, #$100
B006	FFFF		SUB R15, #$100
B008	FFFF		SUB R15, #$100
B00A	FFFF		SUB R15, #$100
B00C	FFFF		SUB R15, #$100
B00E	FFFF		SUB R15, #$100
B010	FFFF		SUB R15, #$100
B012	FFFF		SUB R15, #$100
B014	FFFF		SUB R15, #$100
B016	FFFF		SUB R15, #$100
B018	FFFF		SUB R15, #$100
B01A	FFFF		SUB R15, #$100
B01C	FFFF		SUB R15, #$100
B01E	FFFF		SUB R15, #$100
B020	FFFF		SUB R15, #$100
B022	FFFF		SUB R15, #$100
B024	FFFF		SUB R15, #$100
B026	FFFF		SUB R15, #$100
B028	FFFF		SUB R15, #$100
B02A	FFFF		SUB R15, #$100
B02C	FFFF		SUB R15, #$100
B02E	FFFF		SUB R15, #$100
B030	FFFF		SUB R15, #$100
B032	FFFF		SUB R15, #$100
B034	FFFF		SUB R15, #$100
B036	FFFF		SUB R15, #$100
B038	FFFF		SUB R15, #$100
B03A	FFFF		SUB R15, #$100
B03C	FFFF		SUB R15, #$100
B03E	FFFF		SUB R15, #$100
B040	FFFF		SUB R15, #$100
B042	FFFF		SUB R15, #$100
B044	FFFF		SUB R15, #$100
B046	FFFF		SUB R15, #$100
B048	FFFF		SUB R15, #$100
B04A	FFFF		SUB R15, #$100
B04C	FFFF		SUB R15, #$100
B04E	FFFF		SUB R15, #$100
B050	FFFF		SUB R15, #$100
B052	FFFF		SUB R15, #$100
B054	FFFF		SUB R15, #$100
B056	FFFF		SUB R15, #$100
B058	FFFF		SUB R15, #$100
B05A	FFFF		SUB R15, #$100
B05C	FFFF		SUB R15, #$100
B05E	FFFF		SUB R15, #$100
B060	FFFF		SUB R15, #$100
B062	FFFF		SUB R15, #$100
B064	FFFF		SUB R15, #$100
B066	FFFF		SUB R15, #$100
B068	FFFF		SUB R15, #$100
B06A	FFFF		SUB R15, #$100
B06C	FFFF		SUB R15, #$100
B06E	FFFF		SUB R15, #$100
B070	FFFF		SUB R15, #$100
B072	FFFF		SUB R15, #$100
B074	FFFF		SUB R15, #$100
B076	FFFF		SUB R15, #$100
B078	FFFF		SUB R15, #$100
B07A	FFFF		SUB R15, #$100
B07C	FFFF		SUB R15, #$100
B07E	FFFF		SUB R15, #$100
B080	FFFF		SUB R15, #$100
B082	FFFF		SUB R15, #$100
B084	FFFF		SUB R15, #$100
B086	FFFF		SUB R15, #$100
B088	FFFF		SUB R15, #$100
B08A	FFFF		SUB R15, #$100
B08C	FFFF		SUB R15, #$100
B08E	FFFF		SUB R15, #$100
B090	FFFF		SUB R15, #$100
B092	FFFF		SUB R15, #$100
B094	FFFF		SUB R15, #$100
B096	FFFF		SUB R15, #$100
B098	FFFF		SUB R15, #$100
B09A	FFFF		SUB R15, #$100
B09C	FFFF		SUB R15, #$100
B09E	FFFF		SUB R15, #$100
B0A0	FFFF		SUB R15, #$100
B0A2	FFFF		SUB R15, #$100
B0A4	FFFF		SUB R15, #$100
B0A6	FFFF		SUB R15, #$100
B0A8	FFFF		SUB R15, #$100
B0AA	FFFF		SUB R15, #$100
B0AC	FFFF		SUB R15, #$100
B0AE	FFFF		SUB R15, #$100
B0B0	FFFF		SUB R15, #$100
B0B2	FFFF		SUB R15, #$100
B0B4	FFFF		SUB R15, #$100
B0B6	FFFF		SUB R15, #$100
B0B8	FFFF		SUB R15, #$100
B0BA	FFFF		SUB R15, #$100
B0BC	FFFF		SUB R15, #$100
B0BE	FFFF		SUB R15, #$100
B0C0	FFFF		SUB R15, #$100
B0C2	FFFF		SUB R15, #$100
B0C4	FFFF		SUB R15, #$100
B0C6	FFFF		SUB R15, #$100
B0C8	FFFF		SUB R15, #$100
B0CA	FFFF		SUB R15, #$100
B0CC	FFFF		SUB R15, #$100
B0CE	FFFF		SUB R15, #$100
B0D0	FFFF		SUB R15, #$100
B0D2	FFFF		SUB R15, #$100
B0D4	FFFF		SUB R15, #$100
B0D6	FFFF		SUB R15, #$100
B0D8	FFFF		SUB R15, #$100
B0DA	FFFF		SUB R15, #$100
B0DC	FFFF		SUB R15, #$100
B0DE	FFFF		SUB R15, #$100
B0E0	FFFF		SUB R15, #$100
B0E2	FFFF		SUB R15, #$100
B0E4	FFFF		SUB R15, #$100
B0E6	FFFF		SUB R15, #$100
B0E8	FFFF		SUB R15, #$100
B0EA	FFFF		SUB R15, #$100
B0EC	FFFF		SUB R15, #$100
B0EE	FFFF		SUB R15, #$100
B0F0	FFFF		SUB R15, #$100
B0F2	FFFF		SUB R15, #$100
B0F4	FFFF		SUB R15, #$100
B0F6	FFFF		SUB R15, #$100
B0F8	FFFF		SUB R15, #$100
B0FA	FFFF		SUB R15, #$100
B0FC	FFFF		SUB R15, #$100
B0FE	FFFF		SUB R15, #$100
B100	FFFF		SUB R15, #$100
B102	FFFF		SUB R15, #$100
B104	FFFF		SUB R15, #$100
B106	FFFF		SUB R15, #$100
B108	FFFF		SUB R15, #$100
B10A	FFFF		SUB R15, #$100
B10C	FFFF		SUB R15, #$100
B10E	FFFF		SUB R15, #$100
B110	FFFF		SUB R15, #$100
B112	FFFF		SUB R15, #$100
B114	FFFF		SUB R15, #$100
B116	FFFF		SUB R15, #$100
B118	FFFF		SUB R15, #$100
B11A	FFFF		SUB R15, #$100
B11C	FFFF		SUB R15, #$100
B11E	FFFF		SUB R15, #$100
B120	FFFF		SUB R15, #$100
B122	FFFF		SUB R15, #$100
B124	FFFF		SUB R15, #$100
B126	FFFF		SUB R15, #$100
B128	FFFF		SUB R15, #$100
B12A	FFFF		SUB R15, #$100
B12C	FFFF		SUB R15, #$100
B12E	FFFF		SUB R15, #$100
B130	FFFF		SUB R15, #$100
B132	FFFF		SUB R15, #$100
B134	FFFF		SUB R15, #$100
B136	FFFF		SUB R15, #$100
B138	FFFF		SUB R15, #$100
B13A	FFFF		SUB R15, #$100
B13C	FFFF		SUB R15, #$100
B13E	FFFF		SUB R15, #$100
B140	FFFF		SUB R15, #$100
B142	FFFF		SUB R15, #$100
B144	FFFF		SUB R15, #$100
B146	FFFF		SUB R15, #$100
B148	FFFF		SUB R15, #$100
B14A	FFFF		SUB R15, #$100
B14C	FFFF		SUB R15, #$100
B14E	FFFF		SUB R15, #$100
B150	FFFF		SUB R15, #$100
B152	FFFF		SUB R15, #$100
B154	FFFF		SUB R15, #$100
B156	FFFF		SUB R15, #$100
B158	FFFF		SUB R15, #$100
B15A	FFFF		SUB R15, #$100
B15C	FFFF		SUB R15, #$100
B15E	FFFF		SUB R15, #$100
B160	FFFF		SUB R15, #$100
B162	FFFF		SUB R15, #$100
B164	FFFF		SUB R15, #$100
B166	FFFF		SUB R15, #$100
B168	FFFF		SUB R15, #$100
B16A	FFFF		SUB R15, #$100
B16C	FFFF		SUB R15, #$100
B16E	FFFF		SUB R15, #$100
B170	FFFF		SUB R15, #$100
B172	FFFF		SUB R15, #$100
B174	FFFF		SUB R15, #$100
B176	FFFF		SUB R15, #$100
B178	FFFF		SUB R15, #$100
B17A	FFFF		SUB R15, #$100
B17C	FFFF		SUB R15, #$100
B17E	FFFF		SUB R15, #$100
B180	FFFF		SUB R15, #$100
B182	FFFF		SUB R15, #$100
B184	FFFF		SUB R15, #$100
B186	FFFF		SUB R15, #$100
B188	FFFF		SUB R15, #$100
B18A	FFFF		SUB R15, #$100
B18C	FFFF		SUB R15, #$100
B18E	FFFF		SUB R15, #$100
B190	FFFF		SUB R15, #$100
B192	FFFF		SUB R15, #$100
B194	FFFF		SUB R15, #$100
B196	FFFF		SUB R15, #$100
B198	FFFF		SUB R15, #$100
B19A	FFFF		SUB R15, #$100
B19C	FFFF		SUB R15, #$100
B19E	FFFF		SUB R15, #$100
B1A0	FFFF		SUB R15, #$100
B1A2	FFFF		SUB R15, #$100
B1A4	FFFF		SUB R15, #$100
B1A6	FFFF		SUB R15, #$100
B1A8	FFFF		SUB R15, #$100
B1AA	FFFF		SUB R15, #$100
B1AC	FFFF		SUB R15, #$100
B1AE	FFFF		SUB R15, #$100
B1B0	FFFF		SUB R15, #$100
B1B2	FFFF		SUB R15, #$100
B1B4	FFFF		SUB R15, #$100
B1B6	FFFF		SUB R15, #$100
B1B8	FFFF		SUB R15, #$100
B1BA	FFFF		SUB R15, #$100
B1BC	FFFF		SUB R15, #$100
B1BE	FFFF		SUB R15, #$100
B1C0	FFFF		SUB R15, #$100
B1C2	FFFF		SUB R15, #$100
B1C4	FFFF		SUB R15, #$100
B1C6	FFFF		SUB R15, #$100
B1C8	FFFF		SUB R15, #$100
B1CA	FFFF		SUB R15, #$100
B1CC	FFFF		SUB R15, #$100
B1CE	FFFF		SUB R15, #$100
B1D0	FFFF		SUB R15, #$100
B1D2	FFFF		SUB R15, #$100
B1D4	FFFF		SUB R15, #$100
B1D6	FFFF		SUB R15, #$100
B1D8	FFFF		SUB R15, #$100
B1DA	FFFF		SUB R15, #$100
B1DC	FFFF		SUB R15, #$100
B1DE	FFFF		SUB R15, #$100
B1E0	FFFF		SUB R15, #$100
B1E2	FFFF		SUB R15, #$100
B1E4	FFFF		SUB R15, #$100
B1E6	FFFF		SUB R15, #$100
B1E8	FFFF		SUB R15, #$100
B1EA	FFFF		SUB R15, #$100
B1EC	FFFF		SUB R15, #$100
B1EE	FFFF		SUB R15, #$100
B1F0	FFFF		SUB R15, #$100
B1F2	FFFF		SUB R15, #$100
B1F4	FFFF		SUB R15, #$100
B1F6	FFFF		SUB R15, #$100
B1F8	FFFF		SUB R15, #$100
B1FA	FFFF		SUB R15, #$100
B1FC	FFFF		SUB R15, #$100
B1FE	FFFF		SUB R15, #$100
B200	FFFF		SUB R15, #$100
B202	FFFF		SUB R15, #$100
B204	FFFF		SUB R15, #$100
B206	FFFF		SUB R15, #$100
B208	FFFF		SUB R15, #$100
B20A	FFFF		SUB R15, #$100
B20C	FFFF		SUB R15, #$100
B20E	FFFF		SUB R15, #$100
B210	FFFF		SUB R15, #$100
B212	FFFF		SUB R15, #$100
B214	FFFF		SUB R15, #$100
B216	FFFF		SUB R15, #$100
B218	FFFF		SUB R15, #$100
B21A	FFFF		SUB R15, #$100
B21C	FFFF		SUB R15, #$100
B21E	FFFF		SUB R15, #$100
B220	FFFF		SUB R15, #$100
B222	FFFF		SUB R15, #$100
B224	FFFF		SUB R15, #$100
B226	FFFF		SUB R15, #$100
B228	FFFF		SUB R15, #$100
B22A	FFFF		SUB R15, #$100
B22C	FFFF		SUB R15, #$100
B22E	FFFF		SUB R15, #$100
B230	FFFF		SUB R15, #$100
B232	FFFF		SUB R15, #$100
B234	FFFF		SUB R15, #$100
B236	FFFF		SUB R15, #$100
B238	FFFF		SUB R15, #$100
B23A	FFFF		SUB R15, #$100
B23C	FFFF		SUB R15, #$100
B23E	FFFF		SUB R15, #$100
B240	FFFF		SUB R15, #$100
B242	FFFF		SUB R15, #$100
B244	FFFF		SUB R15, #$100
B246	FFFF		SUB R15, #$100
B248	FFFF		SUB R15, #$100
B24A	FFFF		SUB R15, #$100
B24C	FFFF		SUB R15, #$100
B24E	FFFF		SUB R15, #$100
B250	FFFF		SUB R15, #$100
B252	FFFF		SUB R15, #$100
B254	FFFF		SUB R15, #$100
B256	FFFF		SUB R15, #$100
B258	FFFF		SUB R15, #$100
B25A	FFFF		SUB R15, #$100
B25C	FFFF		SUB R15, #$100
B25E	FFFF		SUB R15, #$100
B260	FFFF		SUB R15, #$100
B262	FFFF		SUB R15, #$100
B264	FFFF		SUB R15, #$100
B266	FFFF		SUB R15, #$100
B268	FFFF		SUB R15, #$100
B26A	FFFF		SUB R15, #$100
B26C	FFFF		SUB R15, #$100
B26E	FFFF		SUB R15, #$100
B270	FFFF		SUB R15, #$100
B272	FFFF		SUB R15, #$100
B274	FFFF		SUB R15, #$100
B276	FFFF		SUB R15, #$100
B278	FFFF		SUB R15, #$100
B27A	FFFF		SUB R15, #$100
B27C	FFFF		SUB R15, #$100
B27E	FFFF		SUB R15, #$100
B280	FFFF		SUB R15, #$100
B282	FFFF		SUB R15, #$100
B284	FFFF		SUB R15, #$100
B286	FFFF		SUB R15, #$100
B288	FFFF		SUB R15, #$100
B28A	FFFF		SUB R15, #$100
B28C	FFFF		SUB R15, #$100
B28E	FFFF		SUB R15, #$100
B290	FFFF		SUB R15, #$100
B292	FFFF		SUB R15, #$100
B294	FFFF		SUB R15, #$100
B296	FFFF		SUB R15, #$100
B298	FFFF		SUB R15, #$100
B29A	FFFF		SUB R15, #$100
B29C	FFFF		SUB R15, #$100
B29E	FFFF		SUB R15, #$100
B2A0	FFFF		SUB R15, #$100
B2A2	FFFF		SUB R15, #$100
B2A4	FFFF		SUB R15, #$100
B2A6	FFFF		SUB R15, #$100
B2A8	FFFF		SUB R15, #$100
B2AA	FFFF		SUB R15, #$100
B2AC	FFFF		SUB R15, #$100
B2AE	FFFF		SUB R15, #$100
B2B0	FFFF		SUB R15, #$100
B2B2	FFFF		SUB R15, #$100
B2B4	FFFF		SUB R15, #$100
B2B6	FFFF		SUB R15, #$100
B2B8	FFFF		SUB R15, #$100
B2BA	FFFF		SUB R15, #$100
B2BC	FFFF		SUB R15, #$100
B2BE	FFFF		SUB R15, #$100
B2C0	FFFF		SUB R15, #$100
B2C2	FFFF		SUB R15, #$100
B2C4	FFFF		SUB R15, #$100
B2C6	FFFF		SUB R15, #$100
B2C8	FFFF		SUB R15, #$100
B2CA	FFFF		SUB R15, #$100
B2CC	FFFF		SUB R15, #$100
B2CE	FFFF		SUB R15, #$100
B2D0	FFFF		SUB R15, #$100
B2D2	FFFF		SUB R15, #$100
B2D4	FFFF		SUB R15, #$100
B2D6	FFFF		SUB R15, #$100
B2D8	FFFF		SUB R15, #$100
B2DA	FFFF		SUB R15, #$100
B2DC	FFFF		SUB R15, #$100
B2DE	FFFF		SUB R15, #$100
B2E0	FFFF		SUB R15, #$100
B2E2	FFFF		SUB R15, #$100
B2E4	FFFF		SUB R15, #$100
B2E6	FFFF		SUB R15, #$100
B2E8	FFFF		SUB R15, #$100
B2EA	FFFF		SUB R15, #$100
B2EC	FFFF		SUB R15, #$100
B2EE	FFFF		SUB R15, #$100
B2F0	FFFF		SUB R15, #$100
B2F2	FFFF		SUB R15, #$100
B2F4	FFFF		SUB R15, #$100
B2F6	FFFF		SUB R15, #$100
B2F8	FFFF		SUB R15, #$100
B2FA	FFFF		SUB R15, #$100
B2FC	FFFF		SUB R15, #$100
B2FE	FFFF		SUB R15, #$100
B300	FFFF		SUB R15, #$100
B302	FFFF		SUB R15, #$100
B304	FFFF		SUB R15, #$100
B306	FFFF		SUB R15, #$100
B308	FFFF		SUB R15, #$100
B30A	FFFF		SUB R15, #$100
B30C	FFFF		SUB R15, #$100
B30E	FFFF		SUB R15, #$100
B310	FFFF		SUB R15, #$100
B312	FFFF		SUB R15, #$100
B314	FFFF		SUB R15, #$100
B316	FFFF		SUB R15, #$100
B318	FFFF		SUB R15, #$100
B31A	FFFF		SUB R15, #$100
B31C	FFFF		SUB R15, #$100
B31E	FFFF		SUB R15, #$100
B320	FFFF		SUB R15, #$100
B322	FFFF		SUB R15, #$100
B324	FFFF		SUB R15, #$100
B326	FFFF		SUB R15, #$100
B328	FFFF		SUB R15, #$100
B32A	FFFF		SUB R15, #$100
B32C	FFFF		SUB R15, #$100
B32E	FFFF		SUB R15, #$100
B330	FFFF		SUB R15, #$100
B332	FFFF		SUB R15, #$100
B334	FFFF		SUB R15, #$100
B336	FFFF		SUB R15, #$100
B338	FFFF		SUB R15, #$100
B33A	FFFF		SUB R15, #$100
B33C	FFFF		SUB R15, #$100
B33E	FFFF		SUB R15, #$100
B340	FFFF		SUB R15, #$100
B342	FFFF		SUB R15, #$100
B344	FFFF		SUB R15, #$100
B346	FFFF		SUB R15, #$100
B348	FFFF		SUB R15, #$100
B34A	FFFF		SUB R15, #$100
B34C	FFFF		SUB R15, #$100
B34E	FFFF		SUB R15, #$100
B350	FFFF		SUB R15, #$100
B352	FFFF		SUB R15, #$100
B354	FFFF		SUB R15, #$100
B356	FFFF		SUB R15, #$100
B358	FFFF		SUB R15, #$100
B35A	FFFF		SUB R15, #$100
B35C	FFFF		SUB R15, #$100
B35E	FFFF		SUB R15, #$100
B360	FFFF		SUB R15, #$100
B362	FFFF		SUB R15, #$100
B364	FFFF		SUB R15, #$100
B366	FFFF		SUB R15, #$100
B368	FFFF		SUB R15, #$100
B36A	FFFF		SUB R15, #$100
B36C	FFFF		SUB R15, #$100
B36E	FFFF		SUB R15, #$100
B370	FFFF		SUB R15, #$100
B372	FFFF		SUB R15, #$100
B374	FFFF		SUB R15, #$100
B376	FFFF		SUB R15, #$100
B378	FFFF		SUB R15, #$100
B37A	FFFF		SUB R15, #$100
B37C	FFFF		SUB R15, #$100
B37E	FFFF		SUB R15, #$100
B380	FFFF		SUB R15, #$100
B382	FFFF		SUB R15, #$100
B384	FFFF		SUB R15, #$100
B386	FFFF		SUB R15, #$100
B388	FFFF		SUB R15, #$100
B38A	FFFF		SUB R15, #$100
B38C	FFFF		SUB R15, #$100
B38E	FFFF		SUB R15, #$100
B390	FFFF		SUB R15, #$100
B392	FFFF		SUB R15, #$100
B394	FFFF		SUB R15, #$100
B396	FFFF		SUB R15, #$100
B398	FFFF		SUB R15, #$100
B39A	FFFF		SUB R15, #$100
B39C	FFFF		SUB R15, #$100
B39E	FFFF		SUB R15, #$100
B3A0	FFFF		SUB R15, #$100
B3A2	FFFF		SUB R15, #$100
B3A4	FFFF		SUB R15, #$100
B3A6	FFFF		SUB R15, #$100
B3A8	FFFF		SUB R15, #$100
B3AA	FFFF		SUB R15, #$100
B3AC	FFFF		SUB R15, #$100
B3AE	FFFF		SUB R15, #$100
B3B0	FFFF		SUB R15, #$100
B3B2	FFFF		SUB R15, #$100
B3B4	FFFF		SUB R15, #$100
B3B6	FFFF		SUB R15, #$100
B3B8	FFFF		SUB R15, #$100
B3BA	FFFF		SUB R15, #$100
B3BC	FFFF		SUB R15, #$100
B3BE	FFFF		SUB R15, #$100
B3C0	FFFF		SUB R15, #$100
B3C2	FFFF		SUB R15, #$100
B3C4	FFFF		SUB R15, #$100
B3C6	FFFF		SUB R15, #$100
B3C8	FFFF		SUB R15, #$100
B3CA	FFFF		SUB R15, #$100
B3CC	FFFF		SUB R15, #$100
B3CE	FFFF		SUB R15, #$100
B3D0	FFFF		SUB R15, #$100
B3D2	FFFF		SUB R15, #$100
B3D4	FFFF		SUB R15, #$100
B3D6	FFFF		SUB R15, #$100
B3D8	FFFF		SUB R15, #$100
B3DA	FFFF		SUB R15, #$100
B3DC	FFFF		SUB R15, #$100
B3DE	FFFF		SUB R15, #$100
B3E0	FFFF		SUB R15, #$100
B3E2	FFFF		SUB R15, #$100
B3E4	FFFF		SUB R15, #$100
B3E6	FFFF		SUB R15, #$100
B3E8	FFFF		SUB R15, #$100
B3EA	FFFF		SUB R15, #$100
B3EC	FFFF		SUB R15, #$100
B3EE	FFFF		SUB R15, #$100
B3F0	FFFF		SUB R15, #$100
B3F2	FFFF		SUB R15, #$100
B3F4	FFFF		SUB R15, #$100
B3F6	FFFF		SUB R15, #$100
B3F8	FFFF		SUB R15, #$100
B3FA	FFFF		SUB R15, #$100
B3FC	FFFF		SUB R15, #$100
B3FE	FFFF		SUB R15, #$100
B400	FFFF		SUB R15, #$100
B402	FFFF		SUB R15, #$100
B404	FFFF		SUB R15, #$100
B406	FFFF		SUB R15, #$100
B408	FFFF		SUB R15, #$100
B40A	FFFF		SUB R15, #$100
B40C	FFFF		SUB R15, #$100
B40E	FFFF		SUB R15, #$100
B410	FFFF		SUB R15, #$100
B412	FFFF		SUB R15, #$100
B414	FFFF		SUB R15, #$100
B416	FFFF		SUB R15, #$100
B418	FFFF		SUB R15, #$100
B41A	FFFF		SUB R15, #$100
B41C	FFFF		SUB R15, #$100
B41E	FFFF		SUB R15, #$100
B420	FFFF		SUB R15, #$100
B422	FFFF		SUB R15, #$100
B424	FFFF		SUB R15, #$100
B426	FFFF		SUB R15, #$100
B428	FFFF		SUB R15, #$100
B42A	FFFF		SUB R15, #$100
B42C	FFFF		SUB R15, #$100
B42E	FFFF		SUB R15, #$100
B430	FFFF		SUB R15, #$100
B432	FFFF		SUB R15, #$100
B434	FFFF		SUB R15, #$100
B436	FFFF		SUB R15, #$100
B438	FFFF		SUB R15, #$100
B43A	FFFF		SUB R15, #$100
B43C	FFFF		SUB R15, #$100
B43E	FFFF		SUB R15, #$100
B440	FFFF		SUB R15, #$100
B442	FFFF		SUB R15, #$100
B444	FFFF		SUB R15, #$100
B446	FFFF		SUB R15, #$100
B448	FFFF		SUB R15, #$100
B44A	FFFF		SUB R15, #$100
B44C	FFFF		SUB R15, #$100
B44E	FFFF		SUB R15, #$100
B450	FFFF		SUB R15, #$100
B452	FFFF		SUB R15, #$100
B454	FFFF		SUB R15, #$100
B456	FFFF		SUB R15, #$100
B458	FFFF		SUB R15, #$100
B45A	FFFF		SUB R15, #$100
B45C	FFFF		SUB R15, #$100
B45E	FFFF		SUB R15, #$100
B460	FFFF		SUB R15, #$100
B462	FFFF		SUB R15, #$100
B464	FFFF		SUB R15, #$100
B466	FFFF		SUB R15, #$100
B468	FFFF		SUB R15, #$100
B46A	FFFF		SUB R15, #$100
B46C	FFFF		SUB R15, #$100
B46E	FFFF		SUB R15, #$100
B470	FFFF		SUB R15, #$100
B472	FFFF		SUB R15, #$100
B474	FFFF		SUB R15, #$100
B476	FFFF		SUB R15, #$100
B478	FFFF		SUB R15, #$100
B47A	FFFF		SUB R15, #$100
B47C	FFFF		SUB R15, #$100
B47E	FFFF		SUB R15, #$100
B480	FFFF		SUB R15, #$100
B482	FFFF		SUB R15, #$100
B484	FFFF		SUB R15, #$100
B486	FFFF		SUB R15, #$100
B488	FFFF		SUB R15, #$100
B48A	FFFF		SUB R15, #$100
B48C	FFFF		SUB R15, #$100
B48E	FFFF		SUB R15, #$100
B490	FFFF		SUB R15, #$100
B492	FFFF		SUB R15, #$100
B494	FFFF		SUB R15, #$100
B496	FFFF		SUB R15, #$100
B498	FFFF		SUB R15, #$100
B49A	FFFF		SUB R15, #$100
B49C	FFFF		SUB R15, #$100
B49E	FFFF		SUB R15, #$100
B4A0	FFFF		SUB R15, #$100
B4A2	FFFF		SUB R15, #$100
B4A4	FFFF		SUB R15, #$100
B4A6	FFFF		SUB R15, #$100
B4A8	FFFF		SUB R15, #$100
B4AA	FFFF		SUB R15, #$100
B4AC	FFFF		SUB R15, #$100
B4AE	FFFF		SUB R15, #$100
B4B0	FFFF		SUB R15, #$100
B4B2	FFFF		SUB R15, #$100
B4B4	FFFF		SUB R15, #$100
B4B6	FFFF		SUB R15, #$100
B4B8	FFFF		SUB R15, #$100
B4BA	FFFF		SUB R15, #$100
B4BC	FFFF		SUB R15, #$100
B4BE	FFFF		SUB R15, #$100
B4C0	FFFF		SUB R15, #$100
B4C2	FFFF		SUB R15, #$100
B4C4	FFFF		SUB R15, #$100
B4C6	FFFF		SUB R15, #$100
B4C8	FFFF		SUB R15, #$100
B4CA	FFFF		SUB R15, #$100
B4CC	FFFF		SUB R15, #$100
B4CE	FFFF		SUB R15, #$100
B4D0	FFFF		SUB R15, #$100
B4D2	FFFF		SUB R15, #$100
B4D4	FFFF		SUB R15, #$100
B4D6	FFFF		SUB R15, #$100
B4D8	FFFF		SUB R15, #$100
B4DA	FFFF		SUB R15, #$100
B4DC	FFFF		SUB R15, #$100
B4DE	FFFF		SUB R15, #$100
B4E0	FFFF		SUB R15, #$100
B4E2	FFFF		SUB R15, #$100
B4E4	FFFF		SUB R15, #$100
B4E6	FFFF		SUB R15, #$100
B4E8	FFFF		SUB R15, #$100
B4EA	FFFF		SUB R15, #$100
B4EC	FFFF		SUB R15, #$100
B4EE	FFFF		SUB R15, #$100
B4F0	FFFF		SUB R15, #$100
B4F2	FFFF		SUB R15, #$100
B4F4	FFFF		SUB R15, #$100
B4F6	FFFF		SUB R15, #$100
B4F8	FFFF		SUB R15, #$100
B4FA	FFFF		SUB R15, #$100
B4FC	FFFF		SUB R15, #$100
B4FE	FFFF		SUB R15, #$100
B500	FFFF		SUB R15, #$100
B502	FFFF		SUB R15, #$100
B504	FFFF		SUB R15, #$100
B506	FFFF		SUB R15, #$100
B508	FFFF		SUB R15, #$100
B50A	FFFF		SUB R15, #$100
B50C	FFFF		SUB R15, #$100
B50E	FFFF		SUB R15, #$100
B510	FFFF		SUB R15, #$100
B512	FFFF		SUB R15, #$100
B514	FFFF		SUB R15, #$100
B516	FFFF		SUB R15, #$100
B518	FFFF		SUB R15, #$100
B51A	FFFF		SUB R15, #$100
B51C	FFFF		SUB R15, #$100
B51E	FFFF		SUB R15, #$100
B520	FFFF		SUB R15, #$100
B522	FFFF		SUB R15, #$100
B524	FFFF		SUB R15, #$100
B526	FFFF		SUB R15, #$100
B528	FFFF		SUB R15, #$100
B52A	FFFF		SUB R15, #$100
B52C	FFFF		SUB R15, #$100
B52E	FFFF		SUB R15, #$100
B530	FFFF		SUB R15, #$100
B532	FFFF		SUB R15, #$100
B534	FFFF		SUB R15, #$100
B536	FFFF		SUB R15, #$100
B538	FFFF		SUB R15, #$100
B53A	FFFF		SUB R15, #$100
B53C	FFFF		SUB R15, #$100
B53E	FFFF		SUB R15, #$100
B540	FFFF		SUB R15, #$100
B542	FFFF		SUB R15, #$100
B544	FFFF		SUB R15, #$100
B546	FFFF		SUB R15, #$100
B548	FFFF		SUB R15, #$100
B54A	FFFF		SUB R15, #$100
B54C	FFFF		SUB R15, #$100
B54E	FFFF		SUB R15, #$100
B550	FFFF		SUB R15, #$100
B552	FFFF		SUB R15, #$100
B554	FFFF		SUB R15, #$100
B556	FFFF		SUB R15, #$100
B558	FFFF		SUB R15, #$100
B55A	FFFF		SUB R15, #$100
B55C	FFFF		SUB R15, #$100
B55E	FFFF		SUB R15, #$100
B560	FFFF		SUB R15, #$100
B562	FFFF		SUB R15, #$100
B564	FFFF		SUB R15, #$100
B566	FFFF		SUB R15, #$100
B568	FFFF		SUB R15, #$100
B56A	FFFF		SUB R15, #$100
B56C	FFFF		SUB R15, #$100
B56E	FFFF		SUB R15, #$100
B570	FFFF		SUB R15, #$100
B572	FFFF		SUB R15, #$100
B574	FFFF		SUB R15, #$100
B576	FFFF		SUB R15, #$100
B578	FFFF		SUB R15, #$100
B57A	FFFF		SUB R15, #$100
B57C	FFFF		SUB R15, #$100
B57E	FFFF		SUB R15, #$100
B580	FFFF		SUB R15, #$100
B582	FFFF		SUB R15, #$100
B584	FFFF		SUB R15, #$100
B586	FFFF		SUB R15, #$100
B588	FFFF		SUB R15, #$100
B58A	FFFF		SUB R15, #$100
B58C	FFFF		SUB R15, #$100
B58E	FFFF		SUB R15, #$100
B590	FFFF		SUB R15, #$100
B592	FFFF		SUB R15, #$100
B594	FFFF		SUB R15, #$100
B596	FFFF		SUB R15, #$100
B598	FFFF		SUB R15, #$100
B59A	FFFF		SUB R15, #$100
B59C	FFFF		SUB R15, #$100
B59E	FFFF		SUB R15, #$100
B5A0	FFFF		SUB R15, #$100
B5A2	FFFF		SUB R15, #$100
B5A4	FFFF		SUB R15, #$100
B5A6	FFFF		SUB R15, #$100
B5A8	FFFF		SUB R15, #$100
B5AA	FFFF		SUB R15, #$100
B5AC	FFFF		SUB R15, #$100
B5AE	FFFF		SUB R15, #$100
B5B0	FFFF		SUB R15, #$100
B5B2	FFFF		SUB R15, #$100
B5B4	FFFF		SUB R15, #$100
B5B6	FFFF		SUB R15, #$100
B5B8	FFFF		SUB R15, #$100
B5BA	FFFF		SUB R15, #$100
B5BC	FFFF		SUB R15, #$100
B5BE	FFFF		SUB R15, #$100
B5C0	FFFF		SUB R15, #$100
B5C2	FFFF		SUB R15, #$100
B5C4	FFFF		SUB R15, #$100
B5C6	FFFF		SUB R15, #$100
B5C8	FFFF		SUB R15, #$100
B5CA	FFFF		SUB R15, #$100
B5CC	FFFF		SUB R15, #$100
B5CE	FFFF		SUB R15, #$100
B5D0	FFFF		SUB R15, #$100
B5D2	FFFF		SUB R15, #$100
B5D4	FFFF		SUB R15, #$100
B5D6	FFFF		SUB R15, #$100
B5D8	FFFF		SUB R15, #$100
B5DA	FFFF		SUB R15, #$100
B5DC	FFFF		SUB R15, #$100
B5DE	FFFF		SUB R15, #$100
B5E0	FFFF		SUB R15, #$100
B5E2	FFFF		SUB R15, #$100
B5E4	FFFF		SUB R15, #$100
B5E6	FFFF		SUB R15, #$100
B5E8	FFFF		SUB R15, #$100
B5EA	FFFF		SUB R15, #$100
B5EC	FFFF		SUB R15, #$100
B5EE	FFFF		SUB R15, #$100
B5F0	FFFF		SUB R15, #$100
B5F2	FFFF		SUB R15, #$100
B5F4	FFFF		SUB R15, #$100
B5F6	FFFF		SUB R15, #$100
B5F8	FFFF		SUB R15, #$100
B5FA	FFFF		SUB R15, #$100
B5FC	FFFF		SUB R15, #$100
B5FE	FFFF		SUB R15, #$100
B600	FFFF		SUB R15, #$100
B602	FFFF		SUB R15, #$100
B604	FFFF		SUB R15, #$100
B606	FFFF		SUB R15, #$100
B608	FFFF		SUB R15, #$100
B60A	FFFF		SUB R15, #$100
B60C	FFFF		SUB R15, #$100
B60E	FFFF		SUB R15, #$100
B610	FFFF		SUB R15, #$100
B612	FFFF		SUB R15, #$100
B614	FFFF		SUB R15, #$100
B616	FFFF		SUB R15, #$100
B618	FFFF		SUB R15, #$100
B61A	FFFF		SUB R15, #$100
B61C	FFFF		SUB R15, #$100
B61E	FFFF		SUB R15, #$100
B620	FFFF		SUB R15, #$100
B622	FFFF		SUB R15, #$100
B624	FFFF		SUB R15, #$100
B626	FFFF		SUB R15, #$100
B628	FFFF		SUB R15, #$100
B62A	FFFF		SUB R15, #$100
B62C	FFFF		SUB R15, #$100
B62E	FFFF		SUB R15, #$100
B630	FFFF		SUB R15, #$100
B632	FFFF		SUB R15, #$100
B634	FFFF		SUB R15, #$100
B636	FFFF		SUB R15, #$100
B638	FFFF		SUB R15, #$100
B63A	FFFF		SUB R15, #$100
B63C	FFFF		SUB R15, #$100
B63E	FFFF		SUB R15, #$100
B640	FFFF		SUB R15, #$100
B642	FFFF		SUB R15, #$100
B644	FFFF		SUB R15, #$100
B646	FFFF		SUB R15, #$100
B648	FFFF		SUB R15, #$100
B64A	FFFF		SUB R15, #$100
B64C	FFFF		SUB R15, #$100
B64E	FFFF		SUB R15, #$100
B650	FFFF		SUB R15, #$100
B652	FFFF		SUB R15, #$100
B654	FFFF		SUB R15, #$100
B656	FFFF		SUB R15, #$100
B658	FFFF		SUB R15, #$100
B65A	FFFF		SUB R15, #$100
B65C	FFFF		SUB R15, #$100
B65E	FFFF		SUB R15, #$100
B660	FFFF		SUB R15, #$100
B662	FFFF		SUB R15, #$100
B664	FFFF		SUB R15, #$100
B666	FFFF		SUB R15, #$100
B668	FFFF		SUB R15, #$100
B66A	FFFF		SUB R15, #$100
B66C	FFFF		SUB R15, #$100
B66E	FFFF		SUB R15, #$100
B670	FFFF		SUB R15, #$100
B672	FFFF		SUB R15, #$100
B674	FFFF		SUB R15, #$100
B676	FFFF		SUB R15, #$100
B678	FFFF		SUB R15, #$100
B67A	FFFF		SUB R15, #$100
B67C	FFFF		SUB R15, #$100
B67E	FFFF		SUB R15, #$100
B680	FFFF		SUB R15, #$100
B682	FFFF		SUB R15, #$100
B684	FFFF		SUB R15, #$100
B686	FFFF		SUB R15, #$100
B688	FFFF		SUB R15, #$100
B68A	FFFF		SUB R15, #$100
B68C	FFFF		SUB R15, #$100
B68E	FFFF		SUB R15, #$100
B690	FFFF		SUB R15, #$100
B692	FFFF		SUB R15, #$100
B694	FFFF		SUB R15, #$100
B696	FFFF		SUB R15, #$100
B698	FFFF		SUB R15, #$100
B69A	FFFF		SUB R15, #$100
B69C	FFFF		SUB R15, #$100
B69E	FFFF		SUB R15, #$100
B6A0	FFFF		SUB R15, #$100
B6A2	FFFF		SUB R15, #$100
B6A4	FFFF		SUB R15, #$100
B6A6	FFFF		SUB R15, #$100
B6A8	FFFF		SUB R15, #$100
B6AA	FFFF		SUB R15, #$100
B6AC	FFFF		SUB R15, #$100
B6AE	FFFF		SUB R15, #$100
B6B0	FFFF		SUB R15, #$100
B6B2	FFFF		SUB R15, #$100
B6B4	FFFF		SUB R15, #$100
B6B6	FFFF		SUB R15, #$100
B6B8	FFFF		SUB R15, #$100
B6BA	FFFF		SUB R15, #$100
B6BC	FFFF		SUB R15, #$100
B6BE	FFFF		SUB R15, #$100
B6C0	FFFF		SUB R15, #$100
B6C2	FFFF		SUB R15, #$100
B6C4	FFFF		SUB R15, #$100
B6C6	FFFF		SUB R15, #$100
B6C8	FFFF		SUB R15, #$100
B6CA	FFFF		SUB R15, #$100
B6CC	FFFF		SUB R15, #$100
B6CE	FFFF		SUB R15, #$100
B6D0	FFFF		SUB R15, #$100
B6D2	FFFF		SUB R15, #$100
B6D4	FFFF		SUB R15, #$100
B6D6	FFFF		SUB R15, #$100
B6D8	FFFF		SUB R15, #$100
B6DA	FFFF		SUB R15, #$100
B6DC	FFFF		SUB R15, #$100
B6DE	FFFF		SUB R15, #$100
B6E0	FFFF		SUB R15, #$100
B6E2	FFFF		SUB R15, #$100
B6E4	FFFF		SUB R15, #$100
B6E6	FFFF		SUB R15, #$100
B6E8	FFFF		SUB R15, #$100
B6EA	FFFF		SUB R15, #$100
B6EC	FFFF		SUB R15, #$100
B6EE	FFFF		SUB R15, #$100
B6F0	FFFF		SUB R15, #$100
B6F2	FFFF		SUB R15, #$100
B6F4	FFFF		SUB R15, #$100
B6F6	FFFF		SUB R15, #$100
B6F8	FFFF		SUB R15, #$100
B6FA	FFFF		SUB R15, #$100
B6FC	FFFF		SUB R15, #$100
B6FE	FFFF		SUB R15, #$100
B700	FFFF		SUB R15, #$100
B702	FFFF		SUB R15, #$100
B704	FFFF		SUB R15, #$100
B706	FFFF		SUB R15, #$100
B708	FFFF		SUB R15, #$100
B70A	FFFF		SUB R15, #$100
B70C	FFFF		SUB R15, #$100
B70E	FFFF		SUB R15, #$100
B710	FFFF		SUB R15, #$100
B712	FFFF		SUB R15, #$100
B714	FFFF		SUB R15, #$100
B716	FFFF		SUB R15, #$100
B718	FFFF		SUB R15, #$100
B71A	FFFF		SUB R15, #$100
B71C	FFFF		SUB R15, #$100
B71E	FFFF		SUB R15, #$100
B720	FFFF		SUB R15, #$100
B722	FFFF		SUB R15, #$100
B724	FFFF		SUB R15, #$100
B726	FFFF		SUB R15, #$100
B728	FFFF		SUB R15, #$100
B72A	FFFF		SUB R15, #$100
B72C	FFFF		SUB R15, #$100
B72E	FFFF		SUB R15, #$100
B730	FFFF		SUB R15, #$100
B732	FFFF		SUB R15, #$100
B734	FFFF		SUB R15, #$100
B736	FFFF		SUB R15, #$100
B738	FFFF		SUB R15, #$100
B73A	FFFF		SUB R15, #$100
B73C	FFFF		SUB R15, #$100
B73E	FFFF		SUB R15, #$100
B740	FFFF		SUB R15, #$100
B742	FFFF		SUB R15, #$100
B744	FFFF		SUB R15, #$100
B746	FFFF		SUB R15, #$100
B748	FFFF		SUB R15, #$100
B74A	FFFF		SUB R15, #$100
B74C	FFFF		SUB R15, #$100
B74E	FFFF		SUB R15, #$100
B750	FFFF		SUB R15, #$100
B752	FFFF		SUB R15, #$100
B754	FFFF		SUB R15, #$100
B756	FFFF		SUB R15, #$100
B758	FFFF		SUB R15, #$100
B75A	FFFF		SUB R15, #$100
B75C	FFFF		SUB R15, #$100
B75E	FFFF		SUB R15, #$100
B760	FFFF		SUB R15, #$100
B762	FFFF		SUB R15, #$100
B764	FFFF		SUB R15, #$100
B766	FFFF		SUB R15, #$100
B768	FFFF		SUB R15, #$100
B76A	FFFF		SUB R15, #$100
B76C	FFFF		SUB R15, #$100
B76E	FFFF		SUB R15, #$100
B770	FFFF		SUB R15, #$100
B772	FFFF		SUB R15, #$100
B774	FFFF		SUB R15, #$100
B776	FFFF		SUB R15, #$100
B778	FFFF		SUB R15, #$100
B77A	FFFF		SUB R15, #$100
B77C	FFFF		SUB R15, #$100
B77E	FFFF		SUB R15, #$100
B780	FFFF		SUB R15, #$100
B782	FFFF		SUB R15, #$100
B784	FFFF		SUB R15, #$100
B786	FFFF		SUB R15, #$100
B788	FFFF		SUB R15, #$100
B78A	FFFF		SUB R15, #$100
B78C	FFFF		SUB R15, #$100
B78E	FFFF		SUB R15, #$100
B790	FFFF		SUB R15, #$100
B792	FFFF		SUB R15, #$100
B794	FFFF		SUB R15, #$100
B796	FFFF		SUB R15, #$100
B798	FFFF		SUB R15, #$100
B79A	FFFF		SUB R15, #$100
B79C	FFFF		SUB R15, #$100
B79E	FFFF		SUB R15, #$100
B7A0	FFFF		SUB R15, #$100
B7A2	FFFF		SUB R15, #$100
B7A4	FFFF		SUB R15, #$100
B7A6	FFFF		SUB R15, #$100
B7A8	FFFF		SUB R15, #$100
B7AA	FFFF		SUB R15, #$100
B7AC	FFFF		SUB R15, #$100
B7AE	FFFF		SUB R15, #$100
B7B0	FFFF		SUB R15, #$100
B7B2	FFFF		SUB R15, #$100
B7B4	FFFF		SUB R15, #$100
B7B6	FFFF		SUB R15, #$100
B7B8	FFFF		SUB R15, #$100
B7BA	FFFF		SUB R15, #$100
B7BC	FFFF		SUB R15, #$100
B7BE	FFFF		SUB R15, #$100
B7C0	FFFF		SUB R15, #$100
B7C2	FFFF		SUB R15, #$100
B7C4	FFFF		SUB R15, #$100
B7C6	FFFF		SUB R15, #$100
B7C8	FFFF		SUB R15, #$100
B7CA	FFFF		SUB R15, #$100
B7CC	FFFF		SUB R15, #$100
B7CE	FFFF		SUB R15, #$100
B7D0	FFFF		SUB R15, #$100
B7D2	FFFF		SUB R15, #$100
B7D4	FFFF		SUB R15, #$100
B7D6	FFFF		SUB R15, #$100
B7D8	FFFF		SUB R15, #$100
B7DA	FFFF		SUB R15, #$100
B7DC	FFFF		SUB R15, #$100
B7DE	FFFF		SUB R15, #$100
B7E0	FFFF		SUB R15, #$100
B7E2	FFFF		SUB R15, #$100
B7E4	FFFF		SUB R15, #$100
B7E6	FFFF		SUB R15, #$100
B7E8	FFFF		SUB R15, #$100
B7EA	FFFF		SUB R15, #$100
B7EC	FFFF		SUB R15, #$100
B7EE	FFFF		SUB R15, #$100
B7F0	FFFF		SUB R15, #$100
B7F2	FFFF		SUB R15, #$100
B7F4	FFFF		SUB R15, #$100
B7F6	FFFF		SUB R15, #$100
B7F8	FFFF		SUB R15, #$100
B7FA	FFFF		SUB R15, #$100
B7FC	FFFF		SUB R15, #$100
B7FE	FFFF		SUB R15, #$100
B800	FFFF		SUB R15, #$100
B802	FFFF		SUB R15, #$100
B804	FFFF		SUB R15, #$100
B806	FFFF		SUB R15, #$100
B808	FFFF		SUB R15, #$100
B80A	FFFF		SUB R15, #$100
B80C	FFFF		SUB R15, #$100
B80E	FFFF		SUB R15, #$100
B810	FFFF		SUB R15, #$100
B812	FFFF		SUB R15, #$100
B814	FFFF		SUB R15, #$100
B816	FFFF		SUB R15, #$100
B818	FFFF		SUB R15, #$100
B81A	FFFF		SUB R15, #$100
B81C	FFFF		SUB R15, #$100
B81E	FFFF		SUB R15, #$100
B820	FFFF		SUB R15, #$100
B822	FFFF		SUB R15, #$100
B824	FFFF		SUB R15, #$100
B826	FFFF		SUB R15, #$100
B828	FFFF		SUB R15, #$100
B82A	FFFF		SUB R15, #$100
B82C	FFFF		SUB R15, #$100
B82E	FFFF		SUB R15, #$100
B830	FFFF		SUB R15, #$100
B832	FFFF		SUB R15, #$100
B834	FFFF		SUB R15, #$100
B836	FFFF		SUB R15, #$100
B838	FFFF		SUB R15, #$100
B83A	FFFF		SUB R15, #$100
B83C	FFFF		SUB R15, #$100
B83E	FFFF		SUB R15, #$100
B840	FFFF		SUB R15, #$100
B842	FFFF		SUB R15, #$100
B844	FFFF		SUB R15, #$100
B846	FFFF		SUB R15, #$100
B848	FFFF		SUB R15, #$100
B84A	FFFF		SUB R15, #$100
B84C	FFFF		SUB R15, #$100
B84E	FFFF		SUB R15, #$100
B850	FFFF		SUB R15, #$100
B852	FFFF		SUB R15, #$100
B854	FFFF		SUB R15, #$100
B856	FFFF		SUB R15, #$100
B858	FFFF		SUB R15, #$100
B85A	FFFF		SUB R15, #$100
B85C	FFFF		SUB R15, #$100
B85E	FFFF		SUB R15, #$100
B860	FFFF		SUB R15, #$100
B862	FFFF		SUB R15, #$100
B864	FFFF		SUB R15, #$100
B866	FFFF		SUB R15, #$100
B868	FFFF		SUB R15, #$100
B86A	FFFF		SUB R15, #$100
B86C	FFFF		SUB R15, #$100
B86E	FFFF		SUB R15, #$100
B870	FFFF		SUB R15, #$100
B872	FFFF		SUB R15, #$100
B874	FFFF		SUB R15, #$100
B876	FFFF		SUB R15, #$100
B878	FFFF		SUB R15, #$100
B87A	FFFF		SUB R15, #$100
B87C	FFFF		SUB R15, #$100
B87E	FFFF		SUB R15, #$100
B880	FFFF		SUB R15, #$100
B882	FFFF		SUB R15, #$100
B884	FFFF		SUB R15, #$100
B886	FFFF		SUB R15, #$100
B888	FFFF		SUB R15, #$100
B88A	FFFF		SUB R15, #$100
B88C	FFFF		SUB R15, #$100
B88E	FFFF		SUB R15, #$100
B890	FFFF		SUB R15, #$100
B892	FFFF		SUB R15, #$100
B894	FFFF		SUB R15, #$100
B896	FFFF		SUB R15, #$100
B898	FFFF		SUB R15, #$100
B89A	FFFF		SUB R15, #$100
B89C	FFFF		SUB R15, #$100
B89E	FFFF		SUB R15, #$100
B8A0	FFFF		SUB R15, #$100
B8A2	FFFF		SUB R15, #$100
B8A4	FFFF		SUB R15, #$100
B8A6	FFFF		SUB R15, #$100
B8A8	FFFF		SUB R15, #$100
B8AA	FFFF		SUB R15, #$100
B8AC	FFFF		SUB R15, #$100
B8AE	FFFF		SUB R15, #$100
B8B0	FFFF		SUB R15, #$100
B8B2	FFFF		SUB R15, #$100
B8B4	FFFF		SUB R15, #$100
B8B6	FFFF		SUB R15, #$100
B8B8	FFFF		SUB R15, #$100
B8BA	FFFF		SUB R15, #$100
B8BC	FFFF		SUB R15, #$100
B8BE	FFFF		SUB R15, #$100
B8C0	FFFF		SUB R15, #$100
B8C2	FFFF		SUB R15, #$100
B8C4	FFFF		SUB R15, #$100
B8C6	FFFF		SUB R15, #$100
B8C8	FFFF		SUB R15, #$100
B8CA	FFFF		SUB R15, #$100
B8CC	FFFF		SUB R15, #$100
B8CE	FFFF		SUB R15, #$100
B8D0	FFFF		SUB R15, #$100
B8D2	FFFF		SUB R15, #$100
B8D4	FFFF		SUB R15, #$100
B8D6	FFFF		SUB R15, #$100
B8D8	FFFF		SUB R15, #$100
B8DA	FFFF		SUB R15, #$100
B8DC	FFFF		SUB R15, #$100
B8DE	FFFF		SUB R15, #$100
B8E0	FFFF		SUB R15, #$100
B8E2	FFFF		SUB R15, #$100
B8E4	FFFF		SUB R15, #$100
B8E6	FFFF		SUB R15, #$100
B8E8	FFFF		SUB R15, #$100
B8EA	FFFF		SUB R15, #$100
B8EC	FFFF		SUB R15, #$100
B8EE	FFFF		SUB R15, #$100
B8F0	FFFF		SUB R15, #$100
B8F2	FFFF		SUB R15, #$100
B8F4	FFFF		SUB R15, #$100
B8F6	FFFF		SUB R15, #$100
B8F8	FFFF		SUB R15, #$100
B8FA	FFFF		SUB R15, #$100
B8FC	FFFF		SUB R15, #$100
B8FE	FFFF		SUB R15, #$100
B900	FFFF		SUB R15, #$100
B902	FFFF		SUB R15, #$100
B904	FFFF		SUB R15, #$100
B906	FFFF		SUB R15, #$100
B908	FFFF		SUB R15, #$100
B90A	FFFF		SUB R15, #$100
B90C	FFFF		SUB R15, #$100
B90E	FFFF		SUB R15, #$100
B910	FFFF		SUB R15, #$100
B912	FFFF		SUB R15, #$100
B914	FFFF		SUB R15, #$100
B916	FFFF		SUB R15, #$100
B918	FFFF		SUB R15, #$100
B91A	FFFF		SUB R15, #$100
B91C	FFFF		SUB R15, #$100
B91E	FFFF		SUB R15, #$100
B920	FFFF		SUB R15, #$100
B922	FFFF		SUB R15, #$100
B924	FFFF		SUB R15, #$100
B926	FFFF		SUB R15, #$100
B928	FFFF		SUB R15, #$100
B92A	FFFF		SUB R15, #$100
B92C	FFFF		SUB R15, #$100
B92E	FFFF		SUB R15, #$100
B930	FFFF		SUB R15, #$100
B932	FFFF		SUB R15, #$100
B934	FFFF		SUB R15, #$100
B936	FFFF		SUB R15, #$100
B938	FFFF		SUB R15, #$100
B93A	FFFF		SUB R15, #$100
B93C	FFFF		SUB R15, #$100
B93E	FFFF		SUB R15, #$100
B940	FFFF		SUB R15, #$100
B942	FFFF		SUB R15, #$100
B944	FFFF		SUB R15, #$100
B946	FFFF		SUB R15, #$100
B948	FFFF		SUB R15, #$100
B94A	FFFF		SUB R15, #$100
B94C	FFFF		SUB R15, #$100
B94E	FFFF		SUB R15, #$100
B950	FFFF		SUB R15, #$100
B952	FFFF		SUB R15, #$100
B954	FFFF		SUB R15, #$100
B956	FFFF		SUB R15, #$100
B958	FFFF		SUB R15, #$100
B95A	FFFF		SUB R15, #$100
B95C	FFFF		SUB R15, #$100
B95E	FFFF		SUB R15, #$100
B960	FFFF		SUB R15, #$100
B962	FFFF		SUB R15, #$100
B964	FFFF		SUB R15, #$100
B966	FFFF		SUB R15, #$100
B968	FFFF		SUB R15, #$100
B96A	FFFF		SUB R15, #$100
B96C	FFFF		SUB R15, #$100
B96E	FFFF		SUB R15, #$100
B970	FFFF		SUB R15, #$100
B972	FFFF		SUB R15, #$100
B974	FFFF		SUB R15, #$100
B976	FFFF		SUB R15, #$100
B978	FFFF		SUB R15, #$100
B97A	FFFF		SUB R15, #$100
B97C	FFFF		SUB R15, #$100
B97E	FFFF		SUB R15, #$100
B980	FFFF		SUB R15, #$100
B982	FFFF		SUB R15, #$100
B984	FFFF		SUB R15, #$100
B986	FFFF		SUB R15, #$100
B988	FFFF		SUB R15, #$100
B98A	FFFF		SUB R15, #$100
B98C	FFFF		SUB R15, #$100
B98E	FFFF		SUB R15, #$100
B990	FFFF		SUB R15, #$100
B992	FFFF		SUB R15, #$100
B994	FFFF		SUB R15, #$100
B996	FFFF		SUB R15, #$100
B998	FFFF		SUB R15, #$100
B99A	FFFF		SUB R15, #$100
B99C	FFFF		SUB R15, #$100
B99E	FFFF		SUB R15, #$100
B9A0	FFFF		SUB R15, #$100
B9A2	FFFF		SUB R15, #$100
B9A4	FFFF		SUB R15, #$100
B9A6	FFFF		SUB R15, #$100
B9A8	FFFF		SUB R15, #$100
B9AA	FFFF		SUB R15, #$100
B9AC	FFFF		SUB R15, #$100
B9AE	FFFF		SUB R15, #$100
B9B0	FFFF		SUB R15, #$100
B9B2	FFFF		SUB R15, #$100
B9B4	FFFF		SUB R15, #$100
B9B6	FFFF		SUB R15, #$100
B9B8	FFFF		SUB R15, #$100
B9BA	FFFF		SUB R15, #$100
B9BC	FFFF		SUB R15, #$100
B9BE	FFFF		SUB R15, #$100
B9C0	FFFF		SUB R15, #$100
B9C2	FFFF		SUB R15, #$100
B9C4	FFFF		SUB R15, #$100
B9C6	FFFF		SUB R15, #$100
B9C8	FFFF		SUB R15, #$100
B9CA	FFFF		SUB R15, #$100
B9CC	FFFF		SUB R15, #$100
B9CE	FFFF		SUB R15, #$100
B9D0	FFFF		SUB R15, #$100
B9D2	FFFF		SUB R15, #$100
B9D4	FFFF		SUB R15, #$100
B9D6	FFFF		SUB R15, #$100
B9D8	FFFF		SUB R15, #$100
B9DA	FFFF		SUB R15, #$100
B9DC	FFFF		SUB R15, #$100
B9DE	FFFF		SUB R15, #$100
B9E0	FFFF		SUB R15, #$100
B9E2	FFFF		SUB R15, #$100
B9E4	FFFF		SUB R15, #$100
B9E6	FFFF		SUB R15, #$100
B9E8	FFFF		SUB R15, #$100
B9EA	FFFF		SUB R15, #$100
B9EC	FFFF		SUB R15, #$100
B9EE	FFFF		SUB R15, #$100
B9F0	FFFF		SUB R15, #$100
B9F2	FFFF		SUB R15, #$100
B9F4	FFFF		SUB R15, #$100
B9F6	FFFF		SUB R15, #$100
B9F8	FFFF		SUB R15, #$100
B9FA	FFFF		SUB R15, #$100
B9FC	FFFF		SUB R15, #$100
B9FE	FFFF		SUB R15, #$100
BA00	FFFF		SUB R15, #$100
BA02	FFFF		SUB R15, #$100
BA04	FFFF		SUB R15, #$100
BA06	FFFF		SUB R15, #$100
BA08	FFFF		SUB R15, #$100
BA0A	FFFF		SUB R15, #$100
BA0C	FFFF		SUB R15, #$100
BA0E	FFFF		SUB R15, #$100
BA10	FFFF		SUB R15, #$100
BA12	FFFF		SUB R15, #$100
BA14	FFFF		SUB R15, #$100
BA16	FFFF		SUB R15, #$100
BA18	FFFF		SUB R15, #$100
BA1A	FFFF		SUB R15, #$100
BA1C	FFFF		SUB R15, #$100
BA1E	FFFF		SUB R15, #$100
BA20	FFFF		SUB R15, #$100
BA22	FFFF		SUB R15, #$100
BA24	FFFF		SUB R15, #$100
BA26	FFFF		SUB R15, #$100
BA28	FFFF		SUB R15, #$100
BA2A	FFFF		SUB R15, #$100
BA2C	FFFF		SUB R15, #$100
BA2E	FFFF		SUB R15, #$100
BA30	FFFF		SUB R15, #$100
BA32	FFFF		SUB R15, #$100
BA34	FFFF		SUB R15, #$100
BA36	FFFF		SUB R15, #$100
BA38	FFFF		SUB R15, #$100
BA3A	FFFF		SUB R15, #$100
BA3C	FFFF		SUB R15, #$100
BA3E	FFFF		SUB R15, #$100
BA40	FFFF		SUB R15, #$100
BA42	FFFF		SUB R15, #$100
BA44	FFFF		SUB R15, #$100
BA46	FFFF		SUB R15, #$100
BA48	FFFF		SUB R15, #$100
BA4A	FFFF		SUB R15, #$100
BA4C	FFFF		SUB R15, #$100
BA4E	FFFF		SUB R15, #$100
BA50	FFFF		SUB R15, #$100
BA52	FFFF		SUB R15, #$100
BA54	FFFF		SUB R15, #$100
BA56	FFFF		SUB R15, #$100
BA58	FFFF		SUB R15, #$100
BA5A	FFFF		SUB R15, #$100
BA5C	FFFF		SUB R15, #$100
BA5E	FFFF		SUB R15, #$100
BA60	FFFF		SUB R15, #$100
BA62	FFFF		SUB R15, #$100
BA64	FFFF		SUB R15, #$100
BA66	FFFF		SUB R15, #$100
BA68	FFFF		SUB R15, #$100
BA6A	FFFF		SUB R15, #$100
BA6C	FFFF		SUB R15, #$100
BA6E	FFFF		SUB R15, #$100
BA70	FFFF		SUB R15, #$100
BA72	FFFF		SUB R15, #$100
BA74	FFFF		SUB R15, #$100
BA76	FFFF		SUB R15, #$100
BA78	FFFF		SUB R15, #$100
BA7A	FFFF		SUB R15, #$100
BA7C	FFFF		SUB R15, #$100
BA7E	FFFF		SUB R15, #$100
BA80	FFFF		SUB R15, #$100
BA82	FFFF		SUB R15, #$100
BA84	FFFF		SUB R15, #$100
BA86	FFFF		SUB R15, #$100
BA88	FFFF		SUB R15, #$100
BA8A	FFFF		SUB R15, #$100
BA8C	FFFF		SUB R15, #$100
BA8E	FFFF		SUB R15, #$100
BA90	FFFF		SUB R15, #$100
BA92	FFFF		SUB R15, #$100
BA94	FFFF		SUB R15, #$100
BA96	FFFF		SUB R15, #$100
BA98	FFFF		SUB R15, #$100
BA9A	FFFF		SUB R15, #$100
BA9C	FFFF		SUB R15, #$100
BA9E	FFFF		SUB R15, #$100
BAA0	FFFF		SUB R15, #$100
BAA2	FFFF		SUB R15, #$100
BAA4	FFFF		SUB R15, #$100
BAA6	FFFF		SUB R15, #$100
BAA8	FFFF		SUB R15, #$100
BAAA	FFFF		SUB R15, #$100
BAAC	FFFF		SUB R15, #$100
BAAE	FFFF		SUB R15, #$100
BAB0	FFFF		SUB R15, #$100
BAB2	FFFF		SUB R15, #$100
BAB4	FFFF		SUB R15, #$100
BAB6	FFFF		SUB R15, #$100
BAB8	FFFF		SUB R15, #$100
BABA	FFFF		SUB R15, #$100
BABC	FFFF		SUB R15, #$100
BABE	FFFF		SUB R15, #$100
BAC0	FFFF		SUB R15, #$100
BAC2	FFFF		SUB R15, #$100
BAC4	FFFF		SUB R15, #$100
BAC6	FFFF		SUB R15, #$100
BAC8	FFFF		SUB R15, #$100
BACA	FFFF		SUB R15, #$100
BACC	FFFF		SUB R15, #$100
BACE	FFFF		SUB R15, #$100
BAD0	FFFF		SUB R15, #$100
BAD2	FFFF		SUB R15, #$100
BAD4	FFFF		SUB R15, #$100
BAD6	FFFF		SUB R15, #$100
BAD8	FFFF		SUB R15, #$100
BADA	FFFF		SUB R15, #$100
BADC	FFFF		SUB R15, #$100
BADE	FFFF		SUB R15, #$100
BAE0	FFFF		SUB R15, #$100
BAE2	FFFF		SUB R15, #$100
BAE4	FFFF		SUB R15, #$100
BAE6	FFFF		SUB R15, #$100
BAE8	FFFF		SUB R15, #$100
BAEA	FFFF		SUB R15, #$100
BAEC	FFFF		SUB R15, #$100
BAEE	FFFF		SUB R15, #$100
BAF0	FFFF		SUB R15, #$100
BAF2	FFFF		SUB R15, #$100
BAF4	FFFF		SUB R15, #$100
BAF6	FFFF		SUB R15, #$100
BAF8	FFFF		SUB R15, #$100
BAFA	FFFF		SUB R15, #$100
BAFC	FFFF		SUB R15, #$100
BAFE	FFFF		SUB R15, #$100
BB00	FFFF		SUB R15, #$100
BB02	FFFF		SUB R15, #$100
BB04	FFFF		SUB R15, #$100
BB06	FFFF		SUB R15, #$100
BB08	FFFF		SUB R15, #$100
BB0A	FFFF		SUB R15, #$100
BB0C	FFFF		SUB R15, #$100
BB0E	FFFF		SUB R15, #$100
BB10	FFFF		SUB R15, #$100
BB12	FFFF		SUB R15, #$100
BB14	FFFF		SUB R15, #$100
BB16	FFFF		SUB R15, #$100
BB18	FFFF		SUB R15, #$100
BB1A	FFFF		SUB R15, #$100
BB1C	FFFF		SUB R15, #$100
BB1E	FFFF		SUB R15, #$100
BB20	FFFF		SUB R15, #$100
BB22	FFFF		SUB R15, #$100
BB24	FFFF		SUB R15, #$100
BB26	FFFF		SUB R15, #$100
BB28	FFFF		SUB R15, #$100
BB2A	FFFF		SUB R15, #$100
BB2C	FFFF		SUB R15, #$100
BB2E	FFFF		SUB R15, #$100
BB30	FFFF		SUB R15, #$100
BB32	FFFF		SUB R15, #$100
BB34	FFFF		SUB R15, #$100
BB36	FFFF		SUB R15, #$100
BB38	FFFF		SUB R15, #$100
BB3A	FFFF		SUB R15, #$100
BB3C	FFFF		SUB R15, #$100
BB3E	FFFF		SUB R15, #$100
BB40	FFFF		SUB R15, #$100
BB42	FFFF		SUB R15, #$100
BB44	FFFF		SUB R15, #$100
BB46	FFFF		SUB R15, #$100
BB48	FFFF		SUB R15, #$100
BB4A	FFFF		SUB R15, #$100
BB4C	FFFF		SUB R15, #$100
BB4E	FFFF		SUB R15, #$100
BB50	FFFF		SUB R15, #$100
BB52	FFFF		SUB R15, #$100
BB54	FFFF		SUB R15, #$100
BB56	FFFF		SUB R15, #$100
BB58	FFFF		SUB R15, #$100
BB5A	FFFF		SUB R15, #$100
BB5C	FFFF		SUB R15, #$100
BB5E	FFFF		SUB R15, #$100
BB60	FFFF		SUB R15, #$100
BB62	FFFF		SUB R15, #$100
BB64	FFFF		SUB R15, #$100
BB66	FFFF		SUB R15, #$100
BB68	FFFF		SUB R15, #$100
BB6A	FFFF		SUB R15, #$100
BB6C	FFFF		SUB R15, #$100
BB6E	FFFF		SUB R15, #$100
BB70	FFFF		SUB R15, #$100
BB72	FFFF		SUB R15, #$100
BB74	FFFF		SUB R15, #$100
BB76	FFFF		SUB R15, #$100
BB78	FFFF		SUB R15, #$100
BB7A	FFFF		SUB R15, #$100
BB7C	FFFF		SUB R15, #$100
BB7E	FFFF		SUB R15, #$100
BB80	FFFF		SUB R15, #$100
BB82	FFFF		SUB R15, #$100
BB84	FFFF		SUB R15, #$100
BB86	FFFF		SUB R15, #$100
BB88	FFFF		SUB R15, #$100
BB8A	FFFF		SUB R15, #$100
BB8C	FFFF		SUB R15, #$100
BB8E	FFFF		SUB R15, #$100
BB90	FFFF		SUB R15, #$100
BB92	FFFF		SUB R15, #$100
BB94	FFFF		SUB R15, #$100
BB96	FFFF		SUB R15, #$100
BB98	FFFF		SUB R15, #$100
BB9A	FFFF		SUB R15, #$100
BB9C	FFFF		SUB R15, #$100
BB9E	FFFF		SUB R15, #$100
BBA0	FFFF		SUB R15, #$100
BBA2	FFFF		SUB R15, #$100
BBA4	FFFF		SUB R15, #$100
BBA6	FFFF		SUB R15, #$100
BBA8	FFFF		SUB R15, #$100
BBAA	FFFF		SUB R15, #$100
BBAC	FFFF		SUB R15, #$100
BBAE	FFFF		SUB R15, #$100
BBB0	FFFF		SUB R15, #$100
BBB2	FFFF		SUB R15, #$100
BBB4	FFFF		SUB R15, #$100
BBB6	FFFF		SUB R15, #$100
BBB8	FFFF		SUB R15, #$100
BBBA	FFFF		SUB R15, #$100
BBBC	FFFF		SUB R15, #$100
BBBE	FFFF		SUB R15, #$100
BBC0	FFFF		SUB R15, #$100
BBC2	FFFF		SUB R15, #$100
BBC4	FFFF		SUB R15, #$100
BBC6	FFFF		SUB R15, #$100
BBC8	FFFF		SUB R15, #$100
BBCA	FFFF		SUB R15, #$100
BBCC	FFFF		SUB R15, #$100
BBCE	FFFF		SUB R15, #$100
BBD0	FFFF		SUB R15, #$100
BBD2	FFFF		SUB R15, #$100
BBD4	FFFF		SUB R15, #$100
BBD6	FFFF		SUB R15, #$100
BBD8	FFFF		SUB R15, #$100
BBDA	FFFF		SUB R15, #$100
BBDC	FFFF		SUB R15, #$100
BBDE	FFFF		SUB R15, #$100
BBE0	FFFF		SUB R15, #$100
BBE2	FFFF		SUB R15, #$100
BBE4	FFFF		SUB R15, #$100
BBE6	FFFF		SUB R15, #$100
BBE8	FFFF		SUB R15, #$100
BBEA	FFFF		SUB R15, #$100
BBEC	FFFF		SUB R15, #$100
BBEE	FFFF		SUB R15, #$100
BBF0	FFFF		SUB R15, #$100
BBF2	FFFF		SUB R15, #$100
BBF4	FFFF		SUB R15, #$100
BBF6	FFFF		SUB R15, #$100
BBF8	FFFF		SUB R15, #$100
BBFA	FFFF		SUB R15, #$100
BBFC	FFFF		SUB R15, #$100
BBFE	FFFF		SUB R15, #$100
BC00	FFFF		SUB R15, #$100
BC02	FFFF		SUB R15, #$100
BC04	FFFF		SUB R15, #$100
BC06	FFFF		SUB R15, #$100
BC08	FFFF		SUB R15, #$100
BC0A	FFFF		SUB R15, #$100
BC0C	FFFF		SUB R15, #$100
BC0E	FFFF		SUB R15, #$100
BC10	FFFF		SUB R15, #$100
BC12	FFFF		SUB R15, #$100
BC14	FFFF		SUB R15, #$100
BC16	FFFF		SUB R15, #$100
BC18	FFFF		SUB R15, #$100
BC1A	FFFF		SUB R15, #$100
BC1C	FFFF		SUB R15, #$100
BC1E	FFFF		SUB R15, #$100
BC20	FFFF		SUB R15, #$100
BC22	FFFF		SUB R15, #$100
BC24	FFFF		SUB R15, #$100
BC26	FFFF		SUB R15, #$100
BC28	FFFF		SUB R15, #$100
BC2A	FFFF		SUB R15, #$100
BC2C	FFFF		SUB R15, #$100
BC2E	FFFF		SUB R15, #$100
BC30	FFFF		SUB R15, #$100
BC32	FFFF		SUB R15, #$100
BC34	FFFF		SUB R15, #$100
BC36	FFFF		SUB R15, #$100
BC38	FFFF		SUB R15, #$100
BC3A	FFFF		SUB R15, #$100
BC3C	FFFF		SUB R15, #$100
BC3E	FFFF		SUB R15, #$100
BC40	FFFF		SUB R15, #$100
BC42	FFFF		SUB R15, #$100
BC44	FFFF		SUB R15, #$100
BC46	FFFF		SUB R15, #$100
BC48	FFFF		SUB R15, #$100
BC4A	FFFF		SUB R15, #$100
BC4C	FFFF		SUB R15, #$100
BC4E	FFFF		SUB R15, #$100
BC50	FFFF		SUB R15, #$100
BC52	FFFF		SUB R15, #$100
BC54	FFFF		SUB R15, #$100
BC56	FFFF		SUB R15, #$100
BC58	FFFF		SUB R15, #$100
BC5A	FFFF		SUB R15, #$100
BC5C	FFFF		SUB R15, #$100
BC5E	FFFF		SUB R15, #$100
BC60	FFFF		SUB R15, #$100
BC62	FFFF		SUB R15, #$100
BC64	FFFF		SUB R15, #$100
BC66	FFFF		SUB R15, #$100
BC68	FFFF		SUB R15, #$100
BC6A	FFFF		SUB R15, #$100
BC6C	FFFF		SUB R15, #$100
BC6E	FFFF		SUB R15, #$100
BC70	FFFF		SUB R15, #$100
BC72	FFFF		SUB R15, #$100
BC74	FFFF		SUB R15, #$100
BC76	FFFF		SUB R15, #$100
BC78	FFFF		SUB R15, #$100
BC7A	FFFF		SUB R15, #$100
BC7C	FFFF		SUB R15, #$100
BC7E	FFFF		SUB R15, #$100
BC80	FFFF		SUB R15, #$100
BC82	FFFF		SUB R15, #$100
BC84	FFFF		SUB R15, #$100
BC86	FFFF		SUB R15, #$100
BC88	FFFF		SUB R15, #$100
BC8A	FFFF		SUB R15, #$100
BC8C	FFFF		SUB R15, #$100
BC8E	FFFF		SUB R15, #$100
BC90	FFFF		SUB R15, #$100
BC92	FFFF		SUB R15, #$100
BC94	FFFF		SUB R15, #$100
BC96	FFFF		SUB R15, #$100
BC98	FFFF		SUB R15, #$100
BC9A	FFFF		SUB R15, #$100
BC9C	FFFF		SUB R15, #$100
BC9E	FFFF		SUB R15, #$100
BCA0	FFFF		SUB R15, #$100
BCA2	FFFF		SUB R15, #$100
BCA4	FFFF		SUB R15, #$100
BCA6	FFFF		SUB R15, #$100
BCA8	FFFF		SUB R15, #$100
BCAA	FFFF		SUB R15, #$100
BCAC	FFFF		SUB R15, #$100
BCAE	FFFF		SUB R15, #$100
BCB0	FFFF		SUB R15, #$100
BCB2	FFFF		SUB R15, #$100
BCB4	FFFF		SUB R15, #$100
BCB6	FFFF		SUB R15, #$100
BCB8	FFFF		SUB R15, #$100
BCBA	FFFF		SUB R15, #$100
BCBC	FFFF		SUB R15, #$100
BCBE	FFFF		SUB R15, #$100
BCC0	FFFF		SUB R15, #$100
BCC2	FFFF		SUB R15, #$100
BCC4	FFFF		SUB R15, #$100
BCC6	FFFF		SUB R15, #$100
BCC8	FFFF		SUB R15, #$100
BCCA	FFFF		SUB R15, #$100
BCCC	FFFF		SUB R15, #$100
BCCE	FFFF		SUB R15, #$100
BCD0	FFFF		SUB R15, #$100
BCD2	FFFF		SUB R15, #$100
BCD4	FFFF		SUB R15, #$100
BCD6	FFFF		SUB R15, #$100
BCD8	FFFF		SUB R15, #$100
BCDA	FFFF		SUB R15, #$100
BCDC	FFFF		SUB R15, #$100
BCDE	FFFF		SUB R15, #$100
BCE0	FFFF		SUB R15, #$100
BCE2	FFFF		SUB R15, #$100
BCE4	FFFF		SUB R15, #$100
BCE6	FFFF		SUB R15, #$100
BCE8	FFFF		SUB R15, #$100
BCEA	FFFF		SUB R15, #$100
BCEC	FFFF		SUB R15, #$100
BCEE	FFFF		SUB R15, #$100
BCF0	FFFF		SUB R15, #$100
BCF2	FFFF		SUB R15, #$100
BCF4	FFFF		SUB R15, #$100
BCF6	FFFF		SUB R15, #$100
BCF8	FFFF		SUB R15, #$100
BCFA	FFFF		SUB R15, #$100
BCFC	FFFF		SUB R15, #$100
BCFE	FFFF		SUB R15, #$100
BD00	FFFF		SUB R15, #$100
BD02	FFFF		SUB R15, #$100
BD04	FFFF		SUB R15, #$100
BD06	FFFF		SUB R15, #$100
BD08	FFFF		SUB R15, #$100
BD0A	FFFF		SUB R15, #$100
BD0C	FFFF		SUB R15, #$100
BD0E	FFFF		SUB R15, #$100
BD10	FFFF		SUB R15, #$100
BD12	FFFF		SUB R15, #$100
BD14	FFFF		SUB R15, #$100
BD16	FFFF		SUB R15, #$100
BD18	FFFF		SUB R15, #$100
BD1A	FFFF		SUB R15, #$100
BD1C	FFFF		SUB R15, #$100
BD1E	FFFF		SUB R15, #$100
BD20	FFFF		SUB R15, #$100
BD22	FFFF		SUB R15, #$100
BD24	FFFF		SUB R15, #$100
BD26	FFFF		SUB R15, #$100
BD28	FFFF		SUB R15, #$100
BD2A	FFFF		SUB R15, #$100
BD2C	FFFF		SUB R15, #$100
BD2E	FFFF		SUB R15, #$100
BD30	FFFF		SUB R15, #$100
BD32	FFFF		SUB R15, #$100
BD34	FFFF		SUB R15, #$100
BD36	FFFF		SUB R15, #$100
BD38	FFFF		SUB R15, #$100
BD3A	FFFF		SUB R15, #$100
BD3C	FFFF		SUB R15, #$100
BD3E	FFFF		SUB R15, #$100
BD40	FFFF		SUB R15, #$100
BD42	FFFF		SUB R15, #$100
BD44	FFFF		SUB R15, #$100
BD46	FFFF		SUB R15, #$100
BD48	FFFF		SUB R15, #$100
BD4A	FFFF		SUB R15, #$100
BD4C	FFFF		SUB R15, #$100
BD4E	FFFF		SUB R15, #$100
BD50	FFFF		SUB R15, #$100
BD52	FFFF		SUB R15, #$100
BD54	FFFF		SUB R15, #$100
BD56	FFFF		SUB R15, #$100
BD58	FFFF		SUB R15, #$100
BD5A	FFFF		SUB R15, #$100
BD5C	FFFF		SUB R15, #$100
BD5E	FFFF		SUB R15, #$100
BD60	FFFF		SUB R15, #$100
BD62	FFFF		SUB R15, #$100
BD64	FFFF		SUB R15, #$100
BD66	FFFF		SUB R15, #$100
BD68	FFFF		SUB R15, #$100
BD6A	FFFF		SUB R15, #$100
BD6C	FFFF		SUB R15, #$100
BD6E	FFFF		SUB R15, #$100
BD70	FFFF		SUB R15, #$100
BD72	FFFF		SUB R15, #$100
BD74	FFFF		SUB R15, #$100
BD76	FFFF		SUB R15, #$100
BD78	FFFF		SUB R15, #$100
BD7A	FFFF		SUB R15, #$100
BD7C	FFFF		SUB R15, #$100
BD7E	FFFF		SUB R15, #$100
BD80	FFFF		SUB R15, #$100
BD82	FFFF		SUB R15, #$100
BD84	FFFF		SUB R15, #$100
BD86	FFFF		SUB R15, #$100
BD88	FFFF		SUB R15, #$100
BD8A	FFFF		SUB R15, #$100
BD8C	FFFF		SUB R15, #$100
BD8E	FFFF		SUB R15, #$100
BD90	FFFF		SUB R15, #$100
BD92	FFFF		SUB R15, #$100
BD94	FFFF		SUB R15, #$100
BD96	FFFF		SUB R15, #$100
BD98	FFFF		SUB R15, #$100
BD9A	FFFF		SUB R15, #$100
BD9C	FFFF		SUB R15, #$100
BD9E	FFFF		SUB R15, #$100
BDA0	FFFF		SUB R15, #$100
BDA2	FFFF		SUB R15, #$100
BDA4	FFFF		SUB R15, #$100
BDA6	FFFF		SUB R15, #$100
BDA8	FFFF		SUB R15, #$100
BDAA	FFFF		SUB R15, #$100
BDAC	FFFF		SUB R15, #$100
BDAE	FFFF		SUB R15, #$100
BDB0	FFFF		SUB R15, #$100
BDB2	FFFF		SUB R15, #$100
BDB4	FFFF		SUB R15, #$100
BDB6	FFFF		SUB R15, #$100
BDB8	FFFF		SUB R15, #$100
BDBA	FFFF		SUB R15, #$100
BDBC	FFFF		SUB R15, #$100
BDBE	FFFF		SUB R15, #$100
BDC0	FFFF		SUB R15, #$100
BDC2	FFFF		SUB R15, #$100
BDC4	FFFF		SUB R15, #$100
BDC6	FFFF		SUB R15, #$100
BDC8	FFFF		SUB R15, #$100
BDCA	FFFF		SUB R15, #$100
BDCC	FFFF		SUB R15, #$100
BDCE	FFFF		SUB R15, #$100
BDD0	FFFF		SUB R15, #$100
BDD2	FFFF		SUB R15, #$100
BDD4	FFFF		SUB R15, #$100
BDD6	FFFF		SUB R15, #$100
BDD8	FFFF		SUB R15, #$100
BDDA	FFFF		SUB R15, #$100
BDDC	FFFF		SUB R15, #$100
BDDE	FFFF		SUB R15, #$100
BDE0	FFFF		SUB R15, #$100
BDE2	FFFF		SUB R15, #$100
BDE4	FFFF		SUB R15, #$100
BDE6	FFFF		SUB R15, #$100
BDE8	FFFF		SUB R15, #$100
BDEA	FFFF		SUB R15, #$100
BDEC	FFFF		SUB R15, #$100
BDEE	FFFF		SUB R15, #$100
BDF0	FFFF		SUB R15, #$100
BDF2	FFFF		SUB R15, #$100
BDF4	FFFF		SUB R15, #$100
BDF6	FFFF		SUB R15, #$100
BDF8	FFFF		SUB R15, #$100
BDFA	FFFF		SUB R15, #$100
BDFC	FFFF		SUB R15, #$100
BDFE	FFFF		SUB R15, #$100
BE00	FFFF		SUB R15, #$100
BE02	FFFF		SUB R15, #$100
BE04	FFFF		SUB R15, #$100
BE06	FFFF		SUB R15, #$100
BE08	FFFF		SUB R15, #$100
BE0A	FFFF		SUB R15, #$100
BE0C	FFFF		SUB R15, #$100
BE0E	FFFF		SUB R15, #$100
BE10	FFFF		SUB R15, #$100
BE12	FFFF		SUB R15, #$100
BE14	FFFF		SUB R15, #$100
BE16	FFFF		SUB R15, #$100
BE18	FFFF		SUB R15, #$100
BE1A	FFFF		SUB R15, #$100
BE1C	FFFF		SUB R15, #$100
BE1E	FFFF		SUB R15, #$100
BE20	FFFF		SUB R15, #$100
BE22	FFFF		SUB R15, #$100
BE24	FFFF		SUB R15, #$100
BE26	FFFF		SUB R15, #$100
BE28	FFFF		SUB R15, #$100
BE2A	FFFF		SUB R15, #$100
BE2C	FFFF		SUB R15, #$100
BE2E	FFFF		SUB R15, #$100
BE30	FFFF		SUB R15, #$100
BE32	FFFF		SUB R15, #$100
BE34	FFFF		SUB R15, #$100
BE36	FFFF		SUB R15, #$100
BE38	FFFF		SUB R15, #$100
BE3A	FFFF		SUB R15, #$100
BE3C	FFFF		SUB R15, #$100
BE3E	FFFF		SUB R15, #$100
BE40	FFFF		SUB R15, #$100
BE42	FFFF		SUB R15, #$100
BE44	FFFF		SUB R15, #$100
BE46	FFFF		SUB R15, #$100
BE48	FFFF		SUB R15, #$100
BE4A	FFFF		SUB R15, #$100
BE4C	FFFF		SUB R15, #$100
BE4E	FFFF		SUB R15, #$100
BE50	FFFF		SUB R15, #$100
BE52	FFFF		SUB R15, #$100
BE54	FFFF		SUB R15, #$100
BE56	FFFF		SUB R15, #$100
BE58	FFFF		SUB R15, #$100
BE5A	FFFF		SUB R15, #$100
BE5C	FFFF		SUB R15, #$100
BE5E	FFFF		SUB R15, #$100
BE60	FFFF		SUB R15, #$100
BE62	FFFF		SUB R15, #$100
BE64	FFFF		SUB R15, #$100
BE66	FFFF		SUB R15, #$100
BE68	FFFF		SUB R15, #$100
BE6A	FFFF		SUB R15, #$100
BE6C	FFFF		SUB R15, #$100
BE6E	FFFF		SUB R15, #$100
BE70	FFFF		SUB R15, #$100
BE72	FFFF		SUB R15, #$100
BE74	FFFF		SUB R15, #$100
BE76	FFFF		SUB R15, #$100
BE78	FFFF		SUB R15, #$100
BE7A	FFFF		SUB R15, #$100
BE7C	FFFF		SUB R15, #$100
BE7E	FFFF		SUB R15, #$100
BE80	FFFF		SUB R15, #$100
BE82	FFFF		SUB R15, #$100
BE84	FFFF		SUB R15, #$100
BE86	FFFF		SUB R15, #$100
BE88	FFFF		SUB R15, #$100
BE8A	FFFF		SUB R15, #$100
BE8C	FFFF		SUB R15, #$100
BE8E	FFFF		SUB R15, #$100
BE90	FFFF		SUB R15, #$100
BE92	FFFF		SUB R15, #$100
BE94	FFFF		SUB R15, #$100
BE96	FFFF		SUB R15, #$100
BE98	FFFF		SUB R15, #$100
BE9A	FFFF		SUB R15, #$100
BE9C	FFFF		SUB R15, #$100
BE9E	FFFF		SUB R15, #$100
BEA0	FFFF		SUB R15, #$100
BEA2	FFFF		SUB R15, #$100
BEA4	FFFF		SUB R15, #$100
BEA6	FFFF		SUB R15, #$100
BEA8	FFFF		SUB R15, #$100
BEAA	FFFF		SUB R15, #$100
BEAC	FFFF		SUB R15, #$100
BEAE	FFFF		SUB R15, #$100
BEB0	FFFF		SUB R15, #$100
BEB2	FFFF		SUB R15, #$100
BEB4	FFFF		SUB R15, #$100
BEB6	FFFF		SUB R15, #$100
BEB8	FFFF		SUB R15, #$100
BEBA	FFFF		SUB R15, #$100
BEBC	FFFF		SUB R15, #$100
BEBE	FFFF		SUB R15, #$100
BEC0	FFFF		SUB R15, #$100
BEC2	FFFF		SUB R15, #$100
BEC4	FFFF		SUB R15, #$100
BEC6	FFFF		SUB R15, #$100
BEC8	FFFF		SUB R15, #$100
BECA	FFFF		SUB R15, #$100
BECC	FFFF		SUB R15, #$100
BECE	FFFF		SUB R15, #$100
BED0	FFFF		SUB R15, #$100
BED2	FFFF		SUB R15, #$100
BED4	FFFF		SUB R15, #$100
BED6	FFFF		SUB R15, #$100
BED8	FFFF		SUB R15, #$100
BEDA	FFFF		SUB R15, #$100
BEDC	FFFF		SUB R15, #$100
BEDE	FFFF		SUB R15, #$100
BEE0	FFFF		SUB R15, #$100
BEE2	FFFF		SUB R15, #$100
BEE4	FFFF		SUB R15, #$100
BEE6	FFFF		SUB R15, #$100
BEE8	FFFF		SUB R15, #$100
BEEA	FFFF		SUB R15, #$100
BEEC	FFFF		SUB R15, #$100
BEEE	FFFF		SUB R15, #$100
BEF0	FFFF		SUB R15, #$100
BEF2	FFFF		SUB R15, #$100
BEF4	FFFF		SUB R15, #$100
BEF6	FFFF		SUB R15, #$100
BEF8	FFFF		SUB R15, #$100
BEFA	FFFF		SUB R15, #$100
BEFC	FFFF		SUB R15, #$100
BEFE	FFFF		SUB R15, #$100
BF00	FFFF		SUB R15, #$100
BF02	FFFF		SUB R15, #$100
BF04	FFFF		SUB R15, #$100
BF06	FFFF		SUB R15, #$100
BF08	FFFF		SUB R15, #$100
BF0A	FFFF		SUB R15, #$100
BF0C	FFFF		SUB R15, #$100
BF0E	FFFF		SUB R15, #$100
BF10	FFFF		SUB R15, #$100
BF12	FFFF		SUB R15, #$100
BF14	FFFF		SUB R15, #$100
BF16	FFFF		SUB R15, #$100
BF18	FFFF		SUB R15, #$100
BF1A	FFFF		SUB R15, #$100
BF1C	FFFF		SUB R15, #$100
BF1E	FFFF		SUB R15, #$100
BF20	FFFF		SUB R15, #$100
BF22	FFFF		SUB R15, #$100
BF24	FFFF		SUB R15, #$100
BF26	FFFF		SUB R15, #$100
BF28	FFFF		SUB R15, #$100
BF2A	FFFF		SUB R15, #$100
BF2C	FFFF		SUB R15, #$100
BF2E	FFFF		SUB R15, #$100
BF30	FFFF		SUB R15, #$100
BF32	FFFF		SUB R15, #$100
BF34	FFFF		SUB R15, #$100
BF36	FFFF		SUB R15, #$100
BF38	FFFF		SUB R15, #$100
BF3A	FFFF		SUB R15, #$100
BF3C	FFFF		SUB R15, #$100
BF3E	FFFF		SUB R15, #$100
BF40	FFFF		SUB R15, #$100
BF42	FFFF		SUB R15, #$100
BF44	FFFF		SUB R15, #$100
BF46	FFFF		SUB R15, #$100
BF48	FFFF		SUB R15, #$100
BF4A	FFFF		SUB R15, #$100
BF4C	FFFF		SUB R15, #$100
BF4E	FFFF		SUB R15, #$100
BF50	FFFF		SUB R15, #$100
BF52	FFFF		SUB R15, #$100
BF54	FFFF		SUB R15, #$100
BF56	FFFF		SUB R15, #$100
BF58	FFFF		SUB R15, #$100
BF5A	FFFF		SUB R15, #$100
BF5C	FFFF		SUB R15, #$100
BF5E	FFFF		SUB R15, #$100
BF60	FFFF		SUB R15, #$100
BF62	FFFF		SUB R15, #$100
BF64	FFFF		SUB R15, #$100
BF66	FFFF		SUB R15, #$100
BF68	FFFF		SUB R15, #$100
BF6A	FFFF		SUB R15, #$100
BF6C	FFFF		SUB R15, #$100
BF6E	FFFF		SUB R15, #$100
BF70	FFFF		SUB R15, #$100
BF72	FFFF		SUB R15, #$100
BF74	FFFF		SUB R15, #$100
BF76	FFFF		SUB R15, #$100
BF78	FFFF		SUB R15, #$100
BF7A	FFFF		SUB R15, #$100
BF7C	FFFF		SUB R15, #$100
BF7E	FFFF		SUB R15, #$100
BF80	FFFF		SUB R15, #$100
BF82	FFFF		SUB R15, #$100
BF84	FFFF		SUB R15, #$100
BF86	FFFF		SUB R15, #$100
BF88	FFFF		SUB R15, #$100
BF8A	FFFF		SUB R15, #$100
BF8C	FFFF		SUB R15, #$100
BF8E	FFFF		SUB R15, #$100
BF90	FFFF		SUB R15, #$100
BF92	FFFF		SUB R15, #$100
BF94	FFFF		SUB R15, #$100
BF96	FFFF		SUB R15, #$100
BF98	FFFF		SUB R15, #$100
BF9A	FFFF		SUB R15, #$100
BF9C	FFFF		SUB R15, #$100
BF9E	FFFF		SUB R15, #$100
BFA0	FFFF		SUB R15, #$100
BFA2	FFFF		SUB R15, #$100
BFA4	FFFF		SUB R15, #$100
BFA6	FFFF		SUB R15, #$100
BFA8	FFFF		SUB R15, #$100
BFAA	FFFF		SUB R15, #$100
BFAC	FFFF		SUB R15, #$100
BFAE	FFFF		SUB R15, #$100
BFB0	FFFF		SUB R15, #$100
BFB2	FFFF		SUB R15, #$100
BFB4	FFFF		SUB R15, #$100
BFB6	FFFF		SUB R15, #$100
BFB8	FFFF		SUB R15, #$100
BFBA	FFFF		SUB R15, #$100
BFBC	FFFF		SUB R15, #$100
BFBE	FFFF		SUB R15, #$100
BFC0	FFFF		SUB R15, #$100
BFC2	FFFF		SUB R15, #$100
BFC4	FFFF		SUB R15, #$100
BFC6	FFFF		SUB R15, #$100
BFC8	FFFF		SUB R15, #$100
BFCA	FFFF		SUB R15, #$100
BFCC	FFFF		SUB R15, #$100
BFCE	FFFF		SUB R15, #$100
BFD0	FFFF		SUB R15, #$100
BFD2	FFFF		SUB R15, #$100
BFD4	FFFF		SUB R15, #$100
BFD6	FFFF		SUB R15, #$100
BFD8	FFFF		SUB R15, #$100
BFDA	FFFF		SUB R15, #$100
BFDC	FFFF		SUB R15, #$100
BFDE	FFFF		SUB R15, #$100
BFE0	FFFF		SUB R15, #$100
BFE2	FFFF		SUB R15, #$100
BFE4	FFFF		SUB R15, #$100
BFE6	FFFF		SUB R15, #$100
BFE8	FFFF		SUB R15, #$100
BFEA	FFFF		SUB R15, #$100
BFEC	FFFF		SUB R15, #$100
BFEE	FFFF		SUB R15, #$100
BFF0	FFFF		SUB R15, #$100
BFF2	FFFF		SUB R15, #$100
BFF4	FFFF		SUB R15, #$100
BFF6	FFFF		SUB R15, #$100
BFF8	FFFF		SUB R15, #$100
BFFA	FFFF		SUB R15, #$100
BFFC	FFFF		SUB R15, #$100
BFFE	FFFF		SUB R15, #$100
C000	FFFF		SUB R15, #$100
C002	FFFF		SUB R15, #$100
C004	FFFF		SUB R15, #$100
C006	FFFF		SUB R15, #$100
C008	FFFF		SUB R15, #$100
C00A	FFFF		SUB R15, #$100
C00C	FFFF		SUB R15, #$100
C00E	FFFF		SUB R15, #$100
C010	FFFF		SUB R15, #$100
C012	FFFF		SUB R15, #$100
C014	FFFF		SUB R15, #$100
C016	FFFF		SUB R15, #$100
C018	FFFF		SUB R15, #$100
C01A	FFFF		SUB R15, #$100
C01C	FFFF		SUB R15, #$100
C01E	FFFF		SUB R15, #$100
C020	FFFF		SUB R15, #$100
C022	FFFF		SUB R15, #$100
C024	FFFF		SUB R15, #$100
C026	FFFF		SUB R15, #$100
C028	FFFF		SUB R15, #$100
C02A	FFFF		SUB R15, #$100
C02C	FFFF		SUB R15, #$100
C02E	FFFF		SUB R15, #$100
C030	FFFF		SUB R15, #$100
C032	FFFF		SUB R15, #$100
C034	FFFF		SUB R15, #$100
C036	FFFF		SUB R15, #$100
C038	FFFF		SUB R15, #$100
C03A	FFFF		SUB R15, #$100
C03C	FFFF		SUB R15, #$100
C03E	FFFF		SUB R15, #$100
C040	FFFF		SUB R15, #$100
C042	FFFF		SUB R15, #$100
C044	FFFF		SUB R15, #$100
C046	FFFF		SUB R15, #$100
C048	FFFF		SUB R15, #$100
C04A	FFFF		SUB R15, #$100
C04C	FFFF		SUB R15, #$100
C04E	FFFF		SUB R15, #$100
C050	FFFF		SUB R15, #$100
C052	FFFF		SUB R15, #$100
C054	FFFF		SUB R15, #$100
C056	FFFF		SUB R15, #$100
C058	FFFF		SUB R15, #$100
C05A	FFFF		SUB R15, #$100
C05C	FFFF		SUB R15, #$100
C05E	FFFF		SUB R15, #$100
C060	FFFF		SUB R15, #$100
C062	FFFF		SUB R15, #$100
C064	FFFF		SUB R15, #$100
C066	FFFF		SUB R15, #$100
C068	FFFF		SUB R15, #$100
C06A	FFFF		SUB R15, #$100
C06C	FFFF		SUB R15, #$100
C06E	FFFF		SUB R15, #$100
C070	FFFF		SUB R15, #$100
C072	FFFF		SUB R15, #$100
C074	FFFF		SUB R15, #$100
C076	FFFF		SUB R15, #$100
C078	FFFF		SUB R15, #$100
C07A	FFFF		SUB R15, #$100
C07C	FFFF		SUB R15, #$100
C07E	FFFF		SUB R15, #$100
C080	FFFF		SUB R15, #$100
C082	FFFF		SUB R15, #$100
C084	FFFF		SUB R15, #$100
C086	FFFF		SUB R15, #$100
C088	FFFF		SUB R15, #$100
C08A	FFFF		SUB R15, #$100
C08C	FFFF		SUB R15, #$100
C08E	FFFF		SUB R15, #$100
C090	FFFF		SUB R15, #$100
C092	FFFF		SUB R15, #$100
C094	FFFF		SUB R15, #$100
C096	FFFF		SUB R15, #$100
C098	FFFF		SUB R15, #$100
C09A	FFFF		SUB R15, #$100
C09C	FFFF		SUB R15, #$100
C09E	FFFF		SUB R15, #$100
C0A0	FFFF		SUB R15, #$100
C0A2	FFFF		SUB R15, #$100
C0A4	FFFF		SUB R15, #$100
C0A6	FFFF		SUB R15, #$100
C0A8	FFFF		SUB R15, #$100
C0AA	FFFF		SUB R15, #$100
C0AC	FFFF		SUB R15, #$100
C0AE	FFFF		SUB R15, #$100
C0B0	FFFF		SUB R15, #$100
C0B2	FFFF		SUB R15, #$100
C0B4	FFFF		SUB R15, #$100
C0B6	FFFF		SUB R15, #$100
C0B8	FFFF		SUB R15, #$100
C0BA	FFFF		SUB R15, #$100
C0BC	FFFF		SUB R15, #$100
C0BE	FFFF		SUB R15, #$100
C0C0	FFFF		SUB R15, #$100
C0C2	FFFF		SUB R15, #$100
C0C4	FFFF		SUB R15, #$100
C0C6	FFFF		SUB R15, #$100
C0C8	FFFF		SUB R15, #$100
C0CA	FFFF		SUB R15, #$100
C0CC	FFFF		SUB R15, #$100
C0CE	FFFF		SUB R15, #$100
C0D0	FFFF		SUB R15, #$100
C0D2	FFFF		SUB R15, #$100
C0D4	FFFF		SUB R15, #$100
C0D6	FFFF		SUB R15, #$100
C0D8	FFFF		SUB R15, #$100
C0DA	FFFF		SUB R15, #$100
C0DC	FFFF		SUB R15, #$100
C0DE	FFFF		SUB R15, #$100
C0E0	FFFF		SUB R15, #$100
C0E2	FFFF		SUB R15, #$100
C0E4	FFFF		SUB R15, #$100
C0E6	FFFF		SUB R15, #$100
C0E8	FFFF		SUB R15, #$100
C0EA	FFFF		SUB R15, #$100
C0EC	FFFF		SUB R15, #$100
C0EE	FFFF		SUB R15, #$100
C0F0	FFFF		SUB R15, #$100
C0F2	FFFF		SUB R15, #$100
C0F4	FFFF		SUB R15, #$100
C0F6	FFFF		SUB R15, #$100
C0F8	FFFF		SUB R15, #$100
C0FA	FFFF		SUB R15, #$100
C0FC	FFFF		SUB R15, #$100
C0FE	FFFF		SUB R15, #$100
C100	FFFF		SUB R15, #$100
C102	FFFF		SUB R15, #$100
C104	FFFF		SUB R15, #$100
C106	FFFF		SUB R15, #$100
C108	FFFF		SUB R15, #$100
C10A	FFFF		SUB R15, #$100
C10C	FFFF		SUB R15, #$100
C10E	FFFF		SUB R15, #$100
C110	FFFF		SUB R15, #$100
C112	FFFF		SUB R15, #$100
C114	FFFF		SUB R15, #$100
C116	FFFF		SUB R15, #$100
C118	FFFF		SUB R15, #$100
C11A	FFFF		SUB R15, #$100
C11C	FFFF		SUB R15, #$100
C11E	FFFF		SUB R15, #$100
C120	FFFF		SUB R15, #$100
C122	FFFF		SUB R15, #$100
C124	FFFF		SUB R15, #$100
C126	FFFF		SUB R15, #$100
C128	FFFF		SUB R15, #$100
C12A	FFFF		SUB R15, #$100
C12C	FFFF		SUB R15, #$100
C12E	FFFF		SUB R15, #$100
C130	FFFF		SUB R15, #$100
C132	FFFF		SUB R15, #$100
C134	FFFF		SUB R15, #$100
C136	FFFF		SUB R15, #$100
C138	FFFF		SUB R15, #$100
C13A	FFFF		SUB R15, #$100
C13C	FFFF		SUB R15, #$100
C13E	FFFF		SUB R15, #$100
C140	FFFF		SUB R15, #$100
C142	FFFF		SUB R15, #$100
C144	FFFF		SUB R15, #$100
C146	FFFF		SUB R15, #$100
C148	FFFF		SUB R15, #$100
C14A	FFFF		SUB R15, #$100
C14C	FFFF		SUB R15, #$100
C14E	FFFF		SUB R15, #$100
C150	FFFF		SUB R15, #$100
C152	FFFF		SUB R15, #$100
C154	FFFF		SUB R15, #$100
C156	FFFF		SUB R15, #$100
C158	FFFF		SUB R15, #$100
C15A	FFFF		SUB R15, #$100
C15C	FFFF		SUB R15, #$100
C15E	FFFF		SUB R15, #$100
C160	FFFF		SUB R15, #$100
C162	FFFF		SUB R15, #$100
C164	FFFF		SUB R15, #$100
C166	FFFF		SUB R15, #$100
C168	FFFF		SUB R15, #$100
C16A	FFFF		SUB R15, #$100
C16C	FFFF		SUB R15, #$100
C16E	FFFF		SUB R15, #$100
C170	FFFF		SUB R15, #$100
C172	FFFF		SUB R15, #$100
C174	FFFF		SUB R15, #$100
C176	FFFF		SUB R15, #$100
C178	FFFF		SUB R15, #$100
C17A	FFFF		SUB R15, #$100
C17C	FFFF		SUB R15, #$100
C17E	FFFF		SUB R15, #$100
C180	FFFF		SUB R15, #$100
C182	FFFF		SUB R15, #$100
C184	FFFF		SUB R15, #$100
C186	FFFF		SUB R15, #$100
C188	FFFF		SUB R15, #$100
C18A	FFFF		SUB R15, #$100
C18C	FFFF		SUB R15, #$100
C18E	FFFF		SUB R15, #$100
C190	FFFF		SUB R15, #$100
C192	FFFF		SUB R15, #$100
C194	FFFF		SUB R15, #$100
C196	FFFF		SUB R15, #$100
C198	FFFF		SUB R15, #$100
C19A	FFFF		SUB R15, #$100
C19C	FFFF		SUB R15, #$100
C19E	FFFF		SUB R15, #$100
C1A0	FFFF		SUB R15, #$100
C1A2	FFFF		SUB R15, #$100
C1A4	FFFF		SUB R15, #$100
C1A6	FFFF		SUB R15, #$100
C1A8	FFFF		SUB R15, #$100
C1AA	FFFF		SUB R15, #$100
C1AC	FFFF		SUB R15, #$100
C1AE	FFFF		SUB R15, #$100
C1B0	FFFF		SUB R15, #$100
C1B2	FFFF		SUB R15, #$100
C1B4	FFFF		SUB R15, #$100
C1B6	FFFF		SUB R15, #$100
C1B8	FFFF		SUB R15, #$100
C1BA	FFFF		SUB R15, #$100
C1BC	FFFF		SUB R15, #$100
C1BE	FFFF		SUB R15, #$100
C1C0	FFFF		SUB R15, #$100
C1C2	FFFF		SUB R15, #$100
C1C4	FFFF		SUB R15, #$100
C1C6	FFFF		SUB R15, #$100
C1C8	FFFF		SUB R15, #$100
C1CA	FFFF		SUB R15, #$100
C1CC	FFFF		SUB R15, #$100
C1CE	FFFF		SUB R15, #$100
C1D0	FFFF		SUB R15, #$100
C1D2	FFFF		SUB R15, #$100
C1D4	FFFF		SUB R15, #$100
C1D6	FFFF		SUB R15, #$100
C1D8	FFFF		SUB R15, #$100
C1DA	FFFF		SUB R15, #$100
C1DC	FFFF		SUB R15, #$100
C1DE	FFFF		SUB R15, #$100
C1E0	FFFF		SUB R15, #$100
C1E2	FFFF		SUB R15, #$100
C1E4	FFFF		SUB R15, #$100
C1E6	FFFF		SUB R15, #$100
C1E8	FFFF		SUB R15, #$100
C1EA	FFFF		SUB R15, #$100
C1EC	FFFF		SUB R15, #$100
C1EE	FFFF		SUB R15, #$100
C1F0	FFFF		SUB R15, #$100
C1F2	FFFF		SUB R15, #$100
C1F4	FFFF		SUB R15, #$100
C1F6	FFFF		SUB R15, #$100
C1F8	FFFF		SUB R15, #$100
C1FA	FFFF		SUB R15, #$100
C1FC	FFFF		SUB R15, #$100
C1FE	FFFF		SUB R15, #$100
C200	FFFF		SUB R15, #$100
C202	FFFF		SUB R15, #$100
C204	FFFF		SUB R15, #$100
C206	FFFF		SUB R15, #$100
C208	FFFF		SUB R15, #$100
C20A	FFFF		SUB R15, #$100
C20C	FFFF		SUB R15, #$100
C20E	FFFF		SUB R15, #$100
C210	FFFF		SUB R15, #$100
C212	FFFF		SUB R15, #$100
C214	FFFF		SUB R15, #$100
C216	FFFF		SUB R15, #$100
C218	FFFF		SUB R15, #$100
C21A	FFFF		SUB R15, #$100
C21C	FFFF		SUB R15, #$100
C21E	FFFF		SUB R15, #$100
C220	FFFF		SUB R15, #$100
C222	FFFF		SUB R15, #$100
C224	FFFF		SUB R15, #$100
C226	FFFF		SUB R15, #$100
C228	FFFF		SUB R15, #$100
C22A	FFFF		SUB R15, #$100
C22C	FFFF		SUB R15, #$100
C22E	FFFF		SUB R15, #$100
C230	FFFF		SUB R15, #$100
C232	FFFF		SUB R15, #$100
C234	FFFF		SUB R15, #$100
C236	FFFF		SUB R15, #$100
C238	FFFF		SUB R15, #$100
C23A	FFFF		SUB R15, #$100
C23C	FFFF		SUB R15, #$100
C23E	FFFF		SUB R15, #$100
C240	FFFF		SUB R15, #$100
C242	FFFF		SUB R15, #$100
C244	FFFF		SUB R15, #$100
C246	FFFF		SUB R15, #$100
C248	FFFF		SUB R15, #$100
C24A	FFFF		SUB R15, #$100
C24C	FFFF		SUB R15, #$100
C24E	FFFF		SUB R15, #$100
C250	FFFF		SUB R15, #$100
C252	FFFF		SUB R15, #$100
C254	FFFF		SUB R15, #$100
C256	FFFF		SUB R15, #$100
C258	FFFF		SUB R15, #$100
C25A	FFFF		SUB R15, #$100
C25C	FFFF		SUB R15, #$100
C25E	FFFF		SUB R15, #$100
C260	FFFF		SUB R15, #$100
C262	FFFF		SUB R15, #$100
C264	FFFF		SUB R15, #$100
C266	FFFF		SUB R15, #$100
C268	FFFF		SUB R15, #$100
C26A	FFFF		SUB R15, #$100
C26C	FFFF		SUB R15, #$100
C26E	FFFF		SUB R15, #$100
C270	FFFF		SUB R15, #$100
C272	FFFF		SUB R15, #$100
C274	FFFF		SUB R15, #$100
C276	FFFF		SUB R15, #$100
C278	FFFF		SUB R15, #$100
C27A	FFFF		SUB R15, #$100
C27C	FFFF		SUB R15, #$100
C27E	FFFF		SUB R15, #$100
C280	FFFF		SUB R15, #$100
C282	FFFF		SUB R15, #$100
C284	FFFF		SUB R15, #$100
C286	FFFF		SUB R15, #$100
C288	FFFF		SUB R15, #$100
C28A	FFFF		SUB R15, #$100
C28C	FFFF		SUB R15, #$100
C28E	FFFF		SUB R15, #$100
C290	FFFF		SUB R15, #$100
C292	FFFF		SUB R15, #$100
C294	FFFF		SUB R15, #$100
C296	FFFF		SUB R15, #$100
C298	FFFF		SUB R15, #$100
C29A	FFFF		SUB R15, #$100
C29C	FFFF		SUB R15, #$100
C29E	FFFF		SUB R15, #$100
C2A0	FFFF		SUB R15, #$100
C2A2	FFFF		SUB R15, #$100
C2A4	FFFF		SUB R15, #$100
C2A6	FFFF		SUB R15, #$100
C2A8	FFFF		SUB R15, #$100
C2AA	FFFF		SUB R15, #$100
C2AC	FFFF		SUB R15, #$100
C2AE	FFFF		SUB R15, #$100
C2B0	FFFF		SUB R15, #$100
C2B2	FFFF		SUB R15, #$100
C2B4	FFFF		SUB R15, #$100
C2B6	FFFF		SUB R15, #$100
C2B8	FFFF		SUB R15, #$100
C2BA	FFFF		SUB R15, #$100
C2BC	FFFF		SUB R15, #$100
C2BE	FFFF		SUB R15, #$100
C2C0	FFFF		SUB R15, #$100
C2C2	FFFF		SUB R15, #$100
C2C4	FFFF		SUB R15, #$100
C2C6	FFFF		SUB R15, #$100
C2C8	FFFF		SUB R15, #$100
C2CA	FFFF		SUB R15, #$100
C2CC	FFFF		SUB R15, #$100
C2CE	FFFF		SUB R15, #$100
C2D0	FFFF		SUB R15, #$100
C2D2	FFFF		SUB R15, #$100
C2D4	FFFF		SUB R15, #$100
C2D6	FFFF		SUB R15, #$100
C2D8	FFFF		SUB R15, #$100
C2DA	FFFF		SUB R15, #$100
C2DC	FFFF		SUB R15, #$100
C2DE	FFFF		SUB R15, #$100
C2E0	FFFF		SUB R15, #$100
C2E2	FFFF		SUB R15, #$100
C2E4	FFFF		SUB R15, #$100
C2E6	FFFF		SUB R15, #$100
C2E8	FFFF		SUB R15, #$100
C2EA	FFFF		SUB R15, #$100
C2EC	FFFF		SUB R15, #$100
C2EE	FFFF		SUB R15, #$100
C2F0	FFFF		SUB R15, #$100
C2F2	FFFF		SUB R15, #$100
C2F4	FFFF		SUB R15, #$100
C2F6	FFFF		SUB R15, #$100
C2F8	FFFF		SUB R15, #$100
C2FA	FFFF		SUB R15, #$100
C2FC	FFFF		SUB R15, #$100
C2FE	FFFF		SUB R15, #$100
C300	FFFF		SUB R15, #$100
C302	FFFF		SUB R15, #$100
C304	FFFF		SUB R15, #$100
C306	FFFF		SUB R15, #$100
C308	FFFF		SUB R15, #$100
C30A	FFFF		SUB R15, #$100
C30C	FFFF		SUB R15, #$100
C30E	FFFF		SUB R15, #$100
C310	FFFF		SUB R15, #$100
C312	FFFF		SUB R15, #$100
C314	FFFF		SUB R15, #$100
C316	FFFF		SUB R15, #$100
C318	FFFF		SUB R15, #$100
C31A	FFFF		SUB R15, #$100
C31C	FFFF		SUB R15, #$100
C31E	FFFF		SUB R15, #$100
C320	FFFF		SUB R15, #$100
C322	FFFF		SUB R15, #$100
C324	FFFF		SUB R15, #$100
C326	FFFF		SUB R15, #$100
C328	FFFF		SUB R15, #$100
C32A	FFFF		SUB R15, #$100
C32C	FFFF		SUB R15, #$100
C32E	FFFF		SUB R15, #$100
C330	FFFF		SUB R15, #$100
C332	FFFF		SUB R15, #$100
C334	FFFF		SUB R15, #$100
C336	FFFF		SUB R15, #$100
C338	FFFF		SUB R15, #$100
C33A	FFFF		SUB R15, #$100
C33C	FFFF		SUB R15, #$100
C33E	FFFF		SUB R15, #$100
C340	FFFF		SUB R15, #$100
C342	FFFF		SUB R15, #$100
C344	FFFF		SUB R15, #$100
C346	FFFF		SUB R15, #$100
C348	FFFF		SUB R15, #$100
C34A	FFFF		SUB R15, #$100
C34C	FFFF		SUB R15, #$100
C34E	FFFF		SUB R15, #$100
C350	FFFF		SUB R15, #$100
C352	FFFF		SUB R15, #$100
C354	FFFF		SUB R15, #$100
C356	FFFF		SUB R15, #$100
C358	FFFF		SUB R15, #$100
C35A	FFFF		SUB R15, #$100
C35C	FFFF		SUB R15, #$100
C35E	FFFF		SUB R15, #$100
C360	FFFF		SUB R15, #$100
C362	FFFF		SUB R15, #$100
C364	FFFF		SUB R15, #$100
C366	FFFF		SUB R15, #$100
C368	FFFF		SUB R15, #$100
C36A	FFFF		SUB R15, #$100
C36C	FFFF		SUB R15, #$100
C36E	FFFF		SUB R15, #$100
C370	FFFF		SUB R15, #$100
C372	FFFF		SUB R15, #$100
C374	FFFF		SUB R15, #$100
C376	FFFF		SUB R15, #$100
C378	FFFF		SUB R15, #$100
C37A	FFFF		SUB R15, #$100
C37C	FFFF		SUB R15, #$100
C37E	FFFF		SUB R15, #$100
C380	FFFF		SUB R15, #$100
C382	FFFF		SUB R15, #$100
C384	FFFF		SUB R15, #$100
C386	FFFF		SUB R15, #$100
C388	FFFF		SUB R15, #$100
C38A	FFFF		SUB R15, #$100
C38C	FFFF		SUB R15, #$100
C38E	FFFF		SUB R15, #$100
C390	FFFF		SUB R15, #$100
C392	FFFF		SUB R15, #$100
C394	FFFF		SUB R15, #$100
C396	FFFF		SUB R15, #$100
C398	FFFF		SUB R15, #$100
C39A	FFFF		SUB R15, #$100
C39C	FFFF		SUB R15, #$100
C39E	FFFF		SUB R15, #$100
C3A0	FFFF		SUB R15, #$100
C3A2	FFFF		SUB R15, #$100
C3A4	FFFF		SUB R15, #$100
C3A6	FFFF		SUB R15, #$100
C3A8	FFFF		SUB R15, #$100
C3AA	FFFF		SUB R15, #$100
C3AC	FFFF		SUB R15, #$100
C3AE	FFFF		SUB R15, #$100
C3B0	FFFF		SUB R15, #$100
C3B2	FFFF		SUB R15, #$100
C3B4	FFFF		SUB R15, #$100
C3B6	FFFF		SUB R15, #$100
C3B8	FFFF		SUB R15, #$100
C3BA	FFFF		SUB R15, #$100
C3BC	FFFF		SUB R15, #$100
C3BE	FFFF		SUB R15, #$100
C3C0	FFFF		SUB R15, #$100
C3C2	FFFF		SUB R15, #$100
C3C4	FFFF		SUB R15, #$100
C3C6	FFFF		SUB R15, #$100
C3C8	FFFF		SUB R15, #$100
C3CA	FFFF		SUB R15, #$100
C3CC	FFFF		SUB R15, #$100
C3CE	FFFF		SUB R15, #$100
C3D0	FFFF		SUB R15, #$100
C3D2	FFFF		SUB R15, #$100
C3D4	FFFF		SUB R15, #$100
C3D6	FFFF		SUB R15, #$100
C3D8	FFFF		SUB R15, #$100
C3DA	FFFF		SUB R15, #$100
C3DC	FFFF		SUB R15, #$100
C3DE	FFFF		SUB R15, #$100
C3E0	FFFF		SUB R15, #$100
C3E2	FFFF		SUB R15, #$100
C3E4	FFFF		SUB R15, #$100
C3E6	FFFF		SUB R15, #$100
C3E8	FFFF		SUB R15, #$100
C3EA	FFFF		SUB R15, #$100
C3EC	FFFF		SUB R15, #$100
C3EE	FFFF		SUB R15, #$100
C3F0	FFFF		SUB R15, #$100
C3F2	FFFF		SUB R15, #$100
C3F4	FFFF		SUB R15, #$100
C3F6	FFFF		SUB R15, #$100
C3F8	FFFF		SUB R15, #$100
C3FA	FFFF		SUB R15, #$100
C3FC	FFFF		SUB R15, #$100
C3FE	FFFF		SUB R15, #$100
C400	FFFF		SUB R15, #$100
C402	FFFF		SUB R15, #$100
C404	FFFF		SUB R15, #$100
C406	FFFF		SUB R15, #$100
C408	FFFF		SUB R15, #$100
C40A	FFFF		SUB R15, #$100
C40C	FFFF		SUB R15, #$100
C40E	FFFF		SUB R15, #$100
C410	FFFF		SUB R15, #$100
C412	FFFF		SUB R15, #$100
C414	FFFF		SUB R15, #$100
C416	FFFF		SUB R15, #$100
C418	FFFF		SUB R15, #$100
C41A	FFFF		SUB R15, #$100
C41C	FFFF		SUB R15, #$100
C41E	FFFF		SUB R15, #$100
C420	FFFF		SUB R15, #$100
C422	FFFF		SUB R15, #$100
C424	FFFF		SUB R15, #$100
C426	FFFF		SUB R15, #$100
C428	FFFF		SUB R15, #$100
C42A	FFFF		SUB R15, #$100
C42C	FFFF		SUB R15, #$100
C42E	FFFF		SUB R15, #$100
C430	FFFF		SUB R15, #$100
C432	FFFF		SUB R15, #$100
C434	FFFF		SUB R15, #$100
C436	FFFF		SUB R15, #$100
C438	FFFF		SUB R15, #$100
C43A	FFFF		SUB R15, #$100
C43C	FFFF		SUB R15, #$100
C43E	FFFF		SUB R15, #$100
C440	FFFF		SUB R15, #$100
C442	FFFF		SUB R15, #$100
C444	FFFF		SUB R15, #$100
C446	FFFF		SUB R15, #$100
C448	FFFF		SUB R15, #$100
C44A	FFFF		SUB R15, #$100
C44C	FFFF		SUB R15, #$100
C44E	FFFF		SUB R15, #$100
C450	FFFF		SUB R15, #$100
C452	FFFF		SUB R15, #$100
C454	FFFF		SUB R15, #$100
C456	FFFF		SUB R15, #$100
C458	FFFF		SUB R15, #$100
C45A	FFFF		SUB R15, #$100
C45C	FFFF		SUB R15, #$100
C45E	FFFF		SUB R15, #$100
C460	FFFF		SUB R15, #$100
C462	FFFF		SUB R15, #$100
C464	FFFF		SUB R15, #$100
C466	FFFF		SUB R15, #$100
C468	FFFF		SUB R15, #$100
C46A	FFFF		SUB R15, #$100
C46C	FFFF		SUB R15, #$100
C46E	FFFF		SUB R15, #$100
C470	FFFF		SUB R15, #$100
C472	FFFF		SUB R15, #$100
C474	FFFF		SUB R15, #$100
C476	FFFF		SUB R15, #$100
C478	FFFF		SUB R15, #$100
C47A	FFFF		SUB R15, #$100
C47C	FFFF		SUB R15, #$100
C47E	FFFF		SUB R15, #$100
C480	FFFF		SUB R15, #$100
C482	FFFF		SUB R15, #$100
C484	FFFF		SUB R15, #$100
C486	FFFF		SUB R15, #$100
C488	FFFF		SUB R15, #$100
C48A	FFFF		SUB R15, #$100
C48C	FFFF		SUB R15, #$100
C48E	FFFF		SUB R15, #$100
C490	FFFF		SUB R15, #$100
C492	FFFF		SUB R15, #$100
C494	FFFF		SUB R15, #$100
C496	FFFF		SUB R15, #$100
C498	FFFF		SUB R15, #$100
C49A	FFFF		SUB R15, #$100
C49C	FFFF		SUB R15, #$100
C49E	FFFF		SUB R15, #$100
C4A0	FFFF		SUB R15, #$100
C4A2	FFFF		SUB R15, #$100
C4A4	FFFF		SUB R15, #$100
C4A6	FFFF		SUB R15, #$100
C4A8	FFFF		SUB R15, #$100
C4AA	FFFF		SUB R15, #$100
C4AC	FFFF		SUB R15, #$100
C4AE	FFFF		SUB R15, #$100
C4B0	FFFF		SUB R15, #$100
C4B2	FFFF		SUB R15, #$100
C4B4	FFFF		SUB R15, #$100
C4B6	FFFF		SUB R15, #$100
C4B8	FFFF		SUB R15, #$100
C4BA	FFFF		SUB R15, #$100
C4BC	FFFF		SUB R15, #$100
C4BE	FFFF		SUB R15, #$100
C4C0	FFFF		SUB R15, #$100
C4C2	FFFF		SUB R15, #$100
C4C4	FFFF		SUB R15, #$100
C4C6	FFFF		SUB R15, #$100
C4C8	FFFF		SUB R15, #$100
C4CA	FFFF		SUB R15, #$100
C4CC	FFFF		SUB R15, #$100
C4CE	FFFF		SUB R15, #$100
C4D0	FFFF		SUB R15, #$100
C4D2	FFFF		SUB R15, #$100
C4D4	FFFF		SUB R15, #$100
C4D6	FFFF		SUB R15, #$100
C4D8	FFFF		SUB R15, #$100
C4DA	FFFF		SUB R15, #$100
C4DC	FFFF		SUB R15, #$100
C4DE	FFFF		SUB R15, #$100
C4E0	FFFF		SUB R15, #$100
C4E2	FFFF		SUB R15, #$100
C4E4	FFFF		SUB R15, #$100
C4E6	FFFF		SUB R15, #$100
C4E8	FFFF		SUB R15, #$100
C4EA	FFFF		SUB R15, #$100
C4EC	FFFF		SUB R15, #$100
C4EE	FFFF		SUB R15, #$100
C4F0	FFFF		SUB R15, #$100
C4F2	FFFF		SUB R15, #$100
C4F4	FFFF		SUB R15, #$100
C4F6	FFFF		SUB R15, #$100
C4F8	FFFF		SUB R15, #$100
C4FA	FFFF		SUB R15, #$100
C4FC	FFFF		SUB R15, #$100
C4FE	FFFF		SUB R15, #$100
C500	FFFF		SUB R15, #$100
C502	FFFF		SUB R15, #$100
C504	FFFF		SUB R15, #$100
C506	FFFF		SUB R15, #$100
C508	FFFF		SUB R15, #$100
C50A	FFFF		SUB R15, #$100
C50C	FFFF		SUB R15, #$100
C50E	FFFF		SUB R15, #$100
C510	FFFF		SUB R15, #$100
C512	FFFF		SUB R15, #$100
C514	FFFF		SUB R15, #$100
C516	FFFF		SUB R15, #$100
C518	FFFF		SUB R15, #$100
C51A	FFFF		SUB R15, #$100
C51C	FFFF		SUB R15, #$100
C51E	FFFF		SUB R15, #$100
C520	FFFF		SUB R15, #$100
C522	FFFF		SUB R15, #$100
C524	FFFF		SUB R15, #$100
C526	FFFF		SUB R15, #$100
C528	FFFF		SUB R15, #$100
C52A	FFFF		SUB R15, #$100
C52C	FFFF		SUB R15, #$100
C52E	FFFF		SUB R15, #$100
C530	FFFF		SUB R15, #$100
C532	FFFF		SUB R15, #$100
C534	FFFF		SUB R15, #$100
C536	FFFF		SUB R15, #$100
C538	FFFF		SUB R15, #$100
C53A	FFFF		SUB R15, #$100
C53C	FFFF		SUB R15, #$100
C53E	FFFF		SUB R15, #$100
C540	FFFF		SUB R15, #$100
C542	FFFF		SUB R15, #$100
C544	FFFF		SUB R15, #$100
C546	FFFF		SUB R15, #$100
C548	FFFF		SUB R15, #$100
C54A	FFFF		SUB R15, #$100
C54C	FFFF		SUB R15, #$100
C54E	FFFF		SUB R15, #$100
C550	FFFF		SUB R15, #$100
C552	FFFF		SUB R15, #$100
C554	FFFF		SUB R15, #$100
C556	FFFF		SUB R15, #$100
C558	FFFF		SUB R15, #$100
C55A	FFFF		SUB R15, #$100
C55C	FFFF		SUB R15, #$100
C55E	FFFF		SUB R15, #$100
C560	FFFF		SUB R15, #$100
C562	FFFF		SUB R15, #$100
C564	FFFF		SUB R15, #$100
C566	FFFF		SUB R15, #$100
C568	FFFF		SUB R15, #$100
C56A	FFFF		SUB R15, #$100
C56C	FFFF		SUB R15, #$100
C56E	FFFF		SUB R15, #$100
C570	FFFF		SUB R15, #$100
C572	FFFF		SUB R15, #$100
C574	FFFF		SUB R15, #$100
C576	FFFF		SUB R15, #$100
C578	FFFF		SUB R15, #$100
C57A	FFFF		SUB R15, #$100
C57C	FFFF		SUB R15, #$100
C57E	FFFF		SUB R15, #$100
C580	FFFF		SUB R15, #$100
C582	FFFF		SUB R15, #$100
C584	FFFF		SUB R15, #$100
C586	FFFF		SUB R15, #$100
C588	FFFF		SUB R15, #$100
C58A	FFFF		SUB R15, #$100
C58C	FFFF		SUB R15, #$100
C58E	FFFF		SUB R15, #$100
C590	FFFF		SUB R15, #$100
C592	FFFF		SUB R15, #$100
C594	FFFF		SUB R15, #$100
C596	FFFF		SUB R15, #$100
C598	FFFF		SUB R15, #$100
C59A	FFFF		SUB R15, #$100
C59C	FFFF		SUB R15, #$100
C59E	FFFF		SUB R15, #$100
C5A0	FFFF		SUB R15, #$100
C5A2	FFFF		SUB R15, #$100
C5A4	FFFF		SUB R15, #$100
C5A6	FFFF		SUB R15, #$100
C5A8	FFFF		SUB R15, #$100
C5AA	FFFF		SUB R15, #$100
C5AC	FFFF		SUB R15, #$100
C5AE	FFFF		SUB R15, #$100
C5B0	FFFF		SUB R15, #$100
C5B2	FFFF		SUB R15, #$100
C5B4	FFFF		SUB R15, #$100
C5B6	FFFF		SUB R15, #$100
C5B8	FFFF		SUB R15, #$100
C5BA	FFFF		SUB R15, #$100
C5BC	FFFF		SUB R15, #$100
C5BE	FFFF		SUB R15, #$100
C5C0	FFFF		SUB R15, #$100
C5C2	FFFF		SUB R15, #$100
C5C4	FFFF		SUB R15, #$100
C5C6	FFFF		SUB R15, #$100
C5C8	FFFF		SUB R15, #$100
C5CA	FFFF		SUB R15, #$100
C5CC	FFFF		SUB R15, #$100
C5CE	FFFF		SUB R15, #$100
C5D0	FFFF		SUB R15, #$100
C5D2	FFFF		SUB R15, #$100
C5D4	FFFF		SUB R15, #$100
C5D6	FFFF		SUB R15, #$100
C5D8	FFFF		SUB R15, #$100
C5DA	FFFF		SUB R15, #$100
C5DC	FFFF		SUB R15, #$100
C5DE	FFFF		SUB R15, #$100
C5E0	FFFF		SUB R15, #$100
C5E2	FFFF		SUB R15, #$100
C5E4	FFFF		SUB R15, #$100
C5E6	FFFF		SUB R15, #$100
C5E8	FFFF		SUB R15, #$100
C5EA	FFFF		SUB R15, #$100
C5EC	FFFF		SUB R15, #$100
C5EE	FFFF		SUB R15, #$100
C5F0	FFFF		SUB R15, #$100
C5F2	FFFF		SUB R15, #$100
C5F4	FFFF		SUB R15, #$100
C5F6	FFFF		SUB R15, #$100
C5F8	FFFF		SUB R15, #$100
C5FA	FFFF		SUB R15, #$100
C5FC	FFFF		SUB R15, #$100
C5FE	FFFF		SUB R15, #$100
C600	FFFF		SUB R15, #$100
C602	FFFF		SUB R15, #$100
C604	FFFF		SUB R15, #$100
C606	FFFF		SUB R15, #$100
C608	FFFF		SUB R15, #$100
C60A	FFFF		SUB R15, #$100
C60C	FFFF		SUB R15, #$100
C60E	FFFF		SUB R15, #$100
C610	FFFF		SUB R15, #$100
C612	FFFF		SUB R15, #$100
C614	FFFF		SUB R15, #$100
C616	FFFF		SUB R15, #$100
C618	FFFF		SUB R15, #$100
C61A	FFFF		SUB R15, #$100
C61C	FFFF		SUB R15, #$100
C61E	FFFF		SUB R15, #$100
C620	FFFF		SUB R15, #$100
C622	FFFF		SUB R15, #$100
C624	FFFF		SUB R15, #$100
C626	FFFF		SUB R15, #$100
C628	FFFF		SUB R15, #$100
C62A	FFFF		SUB R15, #$100
C62C	FFFF		SUB R15, #$100
C62E	FFFF		SUB R15, #$100
C630	FFFF		SUB R15, #$100
C632	FFFF		SUB R15, #$100
C634	FFFF		SUB R15, #$100
C636	FFFF		SUB R15, #$100
C638	FFFF		SUB R15, #$100
C63A	FFFF		SUB R15, #$100
C63C	FFFF		SUB R15, #$100
C63E	FFFF		SUB R15, #$100
C640	FFFF		SUB R15, #$100
C642	FFFF		SUB R15, #$100
C644	FFFF		SUB R15, #$100
C646	FFFF		SUB R15, #$100
C648	FFFF		SUB R15, #$100
C64A	FFFF		SUB R15, #$100
C64C	FFFF		SUB R15, #$100
C64E	FFFF		SUB R15, #$100
C650	FFFF		SUB R15, #$100
C652	FFFF		SUB R15, #$100
C654	FFFF		SUB R15, #$100
C656	FFFF		SUB R15, #$100
C658	FFFF		SUB R15, #$100
C65A	FFFF		SUB R15, #$100
C65C	FFFF		SUB R15, #$100
C65E	FFFF		SUB R15, #$100
C660	FFFF		SUB R15, #$100
C662	FFFF		SUB R15, #$100
C664	FFFF		SUB R15, #$100
C666	FFFF		SUB R15, #$100
C668	FFFF		SUB R15, #$100
C66A	FFFF		SUB R15, #$100
C66C	FFFF		SUB R15, #$100
C66E	FFFF		SUB R15, #$100
C670	FFFF		SUB R15, #$100
C672	FFFF		SUB R15, #$100
C674	FFFF		SUB R15, #$100
C676	FFFF		SUB R15, #$100
C678	FFFF		SUB R15, #$100
C67A	FFFF		SUB R15, #$100
C67C	FFFF		SUB R15, #$100
C67E	FFFF		SUB R15, #$100
C680	FFFF		SUB R15, #$100
C682	FFFF		SUB R15, #$100
C684	FFFF		SUB R15, #$100
C686	FFFF		SUB R15, #$100
C688	FFFF		SUB R15, #$100
C68A	FFFF		SUB R15, #$100
C68C	FFFF		SUB R15, #$100
C68E	FFFF		SUB R15, #$100
C690	FFFF		SUB R15, #$100
C692	FFFF		SUB R15, #$100
C694	FFFF		SUB R15, #$100
C696	FFFF		SUB R15, #$100
C698	FFFF		SUB R15, #$100
C69A	FFFF		SUB R15, #$100
C69C	FFFF		SUB R15, #$100
C69E	FFFF		SUB R15, #$100
C6A0	FFFF		SUB R15, #$100
C6A2	FFFF		SUB R15, #$100
C6A4	FFFF		SUB R15, #$100
C6A6	FFFF		SUB R15, #$100
C6A8	FFFF		SUB R15, #$100
C6AA	FFFF		SUB R15, #$100
C6AC	FFFF		SUB R15, #$100
C6AE	FFFF		SUB R15, #$100
C6B0	FFFF		SUB R15, #$100
C6B2	FFFF		SUB R15, #$100
C6B4	FFFF		SUB R15, #$100
C6B6	FFFF		SUB R15, #$100
C6B8	FFFF		SUB R15, #$100
C6BA	FFFF		SUB R15, #$100
C6BC	FFFF		SUB R15, #$100
C6BE	FFFF		SUB R15, #$100
C6C0	FFFF		SUB R15, #$100
C6C2	FFFF		SUB R15, #$100
C6C4	FFFF		SUB R15, #$100
C6C6	FFFF		SUB R15, #$100
C6C8	FFFF		SUB R15, #$100
C6CA	FFFF		SUB R15, #$100
C6CC	FFFF		SUB R15, #$100
C6CE	FFFF		SUB R15, #$100
C6D0	FFFF		SUB R15, #$100
C6D2	FFFF		SUB R15, #$100
C6D4	FFFF		SUB R15, #$100
C6D6	FFFF		SUB R15, #$100
C6D8	FFFF		SUB R15, #$100
C6DA	FFFF		SUB R15, #$100
C6DC	FFFF		SUB R15, #$100
C6DE	FFFF		SUB R15, #$100
C6E0	FFFF		SUB R15, #$100
C6E2	FFFF		SUB R15, #$100
C6E4	FFFF		SUB R15, #$100
C6E6	FFFF		SUB R15, #$100
C6E8	FFFF		SUB R15, #$100
C6EA	FFFF		SUB R15, #$100
C6EC	FFFF		SUB R15, #$100
C6EE	FFFF		SUB R15, #$100
C6F0	FFFF		SUB R15, #$100
C6F2	FFFF		SUB R15, #$100
C6F4	FFFF		SUB R15, #$100
C6F6	FFFF		SUB R15, #$100
C6F8	FFFF		SUB R15, #$100
C6FA	FFFF		SUB R15, #$100
C6FC	FFFF		SUB R15, #$100
C6FE	FFFF		SUB R15, #$100
C700	FFFF		SUB R15, #$100
C702	FFFF		SUB R15, #$100
C704	FFFF		SUB R15, #$100
C706	FFFF		SUB R15, #$100
C708	FFFF		SUB R15, #$100
C70A	FFFF		SUB R15, #$100
C70C	FFFF		SUB R15, #$100
C70E	FFFF		SUB R15, #$100
C710	FFFF		SUB R15, #$100
C712	FFFF		SUB R15, #$100
C714	FFFF		SUB R15, #$100
C716	FFFF		SUB R15, #$100
C718	FFFF		SUB R15, #$100
C71A	FFFF		SUB R15, #$100
C71C	FFFF		SUB R15, #$100
C71E	FFFF		SUB R15, #$100
C720	FFFF		SUB R15, #$100
C722	FFFF		SUB R15, #$100
C724	FFFF		SUB R15, #$100
C726	FFFF		SUB R15, #$100
C728	FFFF		SUB R15, #$100
C72A	FFFF		SUB R15, #$100
C72C	FFFF		SUB R15, #$100
C72E	FFFF		SUB R15, #$100
C730	FFFF		SUB R15, #$100
C732	FFFF		SUB R15, #$100
C734	FFFF		SUB R15, #$100
C736	FFFF		SUB R15, #$100
C738	FFFF		SUB R15, #$100
C73A	FFFF		SUB R15, #$100
C73C	FFFF		SUB R15, #$100
C73E	FFFF		SUB R15, #$100
C740	FFFF		SUB R15, #$100
C742	FFFF		SUB R15, #$100
C744	FFFF		SUB R15, #$100
C746	FFFF		SUB R15, #$100
C748	FFFF		SUB R15, #$100
C74A	FFFF		SUB R15, #$100
C74C	FFFF		SUB R15, #$100
C74E	FFFF		SUB R15, #$100
C750	FFFF		SUB R15, #$100
C752	FFFF		SUB R15, #$100
C754	FFFF		SUB R15, #$100
C756	FFFF		SUB R15, #$100
C758	FFFF		SUB R15, #$100
C75A	FFFF		SUB R15, #$100
C75C	FFFF		SUB R15, #$100
C75E	FFFF		SUB R15, #$100
C760	FFFF		SUB R15, #$100
C762	FFFF		SUB R15, #$100
C764	FFFF		SUB R15, #$100
C766	FFFF		SUB R15, #$100
C768	FFFF		SUB R15, #$100
C76A	FFFF		SUB R15, #$100
C76C	FFFF		SUB R15, #$100
C76E	FFFF		SUB R15, #$100
C770	FFFF		SUB R15, #$100
C772	FFFF		SUB R15, #$100
C774	FFFF		SUB R15, #$100
C776	FFFF		SUB R15, #$100
C778	FFFF		SUB R15, #$100
C77A	FFFF		SUB R15, #$100
C77C	FFFF		SUB R15, #$100
C77E	FFFF		SUB R15, #$100
C780	FFFF		SUB R15, #$100
C782	FFFF		SUB R15, #$100
C784	FFFF		SUB R15, #$100
C786	FFFF		SUB R15, #$100
C788	FFFF		SUB R15, #$100
C78A	FFFF		SUB R15, #$100
C78C	FFFF		SUB R15, #$100
C78E	FFFF		SUB R15, #$100
C790	FFFF		SUB R15, #$100
C792	FFFF		SUB R15, #$100
C794	FFFF		SUB R15, #$100
C796	FFFF		SUB R15, #$100
C798	FFFF		SUB R15, #$100
C79A	FFFF		SUB R15, #$100
C79C	FFFF		SUB R15, #$100
C79E	FFFF		SUB R15, #$100
C7A0	FFFF		SUB R15, #$100
C7A2	FFFF		SUB R15, #$100
C7A4	FFFF		SUB R15, #$100
C7A6	FFFF		SUB R15, #$100
C7A8	FFFF		SUB R15, #$100
C7AA	FFFF		SUB R15, #$100
C7AC	FFFF		SUB R15, #$100
C7AE	FFFF		SUB R15, #$100
C7B0	FFFF		SUB R15, #$100
C7B2	FFFF		SUB R15, #$100
C7B4	FFFF		SUB R15, #$100
C7B6	FFFF		SUB R15, #$100
C7B8	FFFF		SUB R15, #$100
C7BA	FFFF		SUB R15, #$100
C7BC	FFFF		SUB R15, #$100
C7BE	FFFF		SUB R15, #$100
C7C0	FFFF		SUB R15, #$100
C7C2	FFFF		SUB R15, #$100
C7C4	FFFF		SUB R15, #$100
C7C6	FFFF		SUB R15, #$100
C7C8	FFFF		SUB R15, #$100
C7CA	FFFF		SUB R15, #$100
C7CC	FFFF		SUB R15, #$100
C7CE	FFFF		SUB R15, #$100
C7D0	FFFF		SUB R15, #$100
C7D2	FFFF		SUB R15, #$100
C7D4	FFFF		SUB R15, #$100
C7D6	FFFF		SUB R15, #$100
C7D8	FFFF		SUB R15, #$100
C7DA	FFFF		SUB R15, #$100
C7DC	FFFF		SUB R15, #$100
C7DE	FFFF		SUB R15, #$100
C7E0	FFFF		SUB R15, #$100
C7E2	FFFF		SUB R15, #$100
C7E4	FFFF		SUB R15, #$100
C7E6	FFFF		SUB R15, #$100
C7E8	FFFF		SUB R15, #$100
C7EA	FFFF		SUB R15, #$100
C7EC	FFFF		SUB R15, #$100
C7EE	FFFF		SUB R15, #$100
C7F0	FFFF		SUB R15, #$100
C7F2	FFFF		SUB R15, #$100
C7F4	FFFF		SUB R15, #$100
C7F6	FFFF		SUB R15, #$100
C7F8	FFFF		SUB R15, #$100
C7FA	FFFF		SUB R15, #$100
C7FC	FFFF		SUB R15, #$100
C7FE	FFFF		SUB R15, #$100
C800	FFFF		SUB R15, #$100
C802	FFFF		SUB R15, #$100
C804	FFFF		SUB R15, #$100
C806	FFFF		SUB R15, #$100
C808	FFFF		SUB R15, #$100
C80A	FFFF		SUB R15, #$100
C80C	FFFF		SUB R15, #$100
C80E	FFFF		SUB R15, #$100
C810	FFFF		SUB R15, #$100
C812	FFFF		SUB R15, #$100
C814	FFFF		SUB R15, #$100
C816	FFFF		SUB R15, #$100
C818	FFFF		SUB R15, #$100
C81A	FFFF		SUB R15, #$100
C81C	FFFF		SUB R15, #$100
C81E	FFFF		SUB R15, #$100
C820	FFFF		SUB R15, #$100
C822	FFFF		SUB R15, #$100
C824	FFFF		SUB R15, #$100
C826	FFFF		SUB R15, #$100
C828	FFFF		SUB R15, #$100
C82A	FFFF		SUB R15, #$100
C82C	FFFF		SUB R15, #$100
C82E	FFFF		SUB R15, #$100
C830	FFFF		SUB R15, #$100
C832	FFFF		SUB R15, #$100
C834	FFFF		SUB R15, #$100
C836	FFFF		SUB R15, #$100
C838	FFFF		SUB R15, #$100
C83A	FFFF		SUB R15, #$100
C83C	FFFF		SUB R15, #$100
C83E	FFFF		SUB R15, #$100
C840	FFFF		SUB R15, #$100
C842	FFFF		SUB R15, #$100
C844	FFFF		SUB R15, #$100
C846	FFFF		SUB R15, #$100
C848	FFFF		SUB R15, #$100
C84A	FFFF		SUB R15, #$100
C84C	FFFF		SUB R15, #$100
C84E	FFFF		SUB R15, #$100
C850	FFFF		SUB R15, #$100
C852	FFFF		SUB R15, #$100
C854	FFFF		SUB R15, #$100
C856	FFFF		SUB R15, #$100
C858	FFFF		SUB R15, #$100
C85A	FFFF		SUB R15, #$100
C85C	FFFF		SUB R15, #$100
C85E	FFFF		SUB R15, #$100
C860	FFFF		SUB R15, #$100
C862	FFFF		SUB R15, #$100
C864	FFFF		SUB R15, #$100
C866	FFFF		SUB R15, #$100
C868	FFFF		SUB R15, #$100
C86A	FFFF		SUB R15, #$100
C86C	FFFF		SUB R15, #$100
C86E	FFFF		SUB R15, #$100
C870	FFFF		SUB R15, #$100
C872	FFFF		SUB R15, #$100
C874	FFFF		SUB R15, #$100
C876	FFFF		SUB R15, #$100
C878	FFFF		SUB R15, #$100
C87A	FFFF		SUB R15, #$100
C87C	FFFF		SUB R15, #$100
C87E	FFFF		SUB R15, #$100
C880	FFFF		SUB R15, #$100
C882	FFFF		SUB R15, #$100
C884	FFFF		SUB R15, #$100
C886	FFFF		SUB R15, #$100
C888	FFFF		SUB R15, #$100
C88A	FFFF		SUB R15, #$100
C88C	FFFF		SUB R15, #$100
C88E	FFFF		SUB R15, #$100
C890	FFFF		SUB R15, #$100
C892	FFFF		SUB R15, #$100
C894	FFFF		SUB R15, #$100
C896	FFFF		SUB R15, #$100
C898	FFFF		SUB R15, #$100
C89A	FFFF		SUB R15, #$100
C89C	FFFF		SUB R15, #$100
C89E	FFFF		SUB R15, #$100
C8A0	FFFF		SUB R15, #$100
C8A2	FFFF		SUB R15, #$100
C8A4	FFFF		SUB R15, #$100
C8A6	FFFF		SUB R15, #$100
C8A8	FFFF		SUB R15, #$100
C8AA	FFFF		SUB R15, #$100
C8AC	FFFF		SUB R15, #$100
C8AE	FFFF		SUB R15, #$100
C8B0	FFFF		SUB R15, #$100
C8B2	FFFF		SUB R15, #$100
C8B4	FFFF		SUB R15, #$100
C8B6	FFFF		SUB R15, #$100
C8B8	FFFF		SUB R15, #$100
C8BA	FFFF		SUB R15, #$100
C8BC	FFFF		SUB R15, #$100
C8BE	FFFF		SUB R15, #$100
C8C0	FFFF		SUB R15, #$100
C8C2	FFFF		SUB R15, #$100
C8C4	FFFF		SUB R15, #$100
C8C6	FFFF		SUB R15, #$100
C8C8	FFFF		SUB R15, #$100
C8CA	FFFF		SUB R15, #$100
C8CC	FFFF		SUB R15, #$100
C8CE	FFFF		SUB R15, #$100
C8D0	FFFF		SUB R15, #$100
C8D2	FFFF		SUB R15, #$100
C8D4	FFFF		SUB R15, #$100
C8D6	FFFF		SUB R15, #$100
C8D8	FFFF		SUB R15, #$100
C8DA	FFFF		SUB R15, #$100
C8DC	FFFF		SUB R15, #$100
C8DE	FFFF		SUB R15, #$100
C8E0	FFFF		SUB R15, #$100
C8E2	FFFF		SUB R15, #$100
C8E4	FFFF		SUB R15, #$100
C8E6	FFFF		SUB R15, #$100
C8E8	FFFF		SUB R15, #$100
C8EA	FFFF		SUB R15, #$100
C8EC	FFFF		SUB R15, #$100
C8EE	FFFF		SUB R15, #$100
C8F0	FFFF		SUB R15, #$100
C8F2	FFFF		SUB R15, #$100
C8F4	FFFF		SUB R15, #$100
C8F6	FFFF		SUB R15, #$100
C8F8	FFFF		SUB R15, #$100
C8FA	FFFF		SUB R15, #$100
C8FC	FFFF		SUB R15, #$100
C8FE	FFFF		SUB R15, #$100
C900	FFFF		SUB R15, #$100
C902	FFFF		SUB R15, #$100
C904	FFFF		SUB R15, #$100
C906	FFFF		SUB R15, #$100
C908	FFFF		SUB R15, #$100
C90A	FFFF		SUB R15, #$100
C90C	FFFF		SUB R15, #$100
C90E	FFFF		SUB R15, #$100
C910	FFFF		SUB R15, #$100
C912	FFFF		SUB R15, #$100
C914	FFFF		SUB R15, #$100
C916	FFFF		SUB R15, #$100
C918	FFFF		SUB R15, #$100
C91A	FFFF		SUB R15, #$100
C91C	FFFF		SUB R15, #$100
C91E	FFFF		SUB R15, #$100
C920	FFFF		SUB R15, #$100
C922	FFFF		SUB R15, #$100
C924	FFFF		SUB R15, #$100
C926	FFFF		SUB R15, #$100
C928	FFFF		SUB R15, #$100
C92A	FFFF		SUB R15, #$100
C92C	FFFF		SUB R15, #$100
C92E	FFFF		SUB R15, #$100
C930	FFFF		SUB R15, #$100
C932	FFFF		SUB R15, #$100
C934	FFFF		SUB R15, #$100
C936	FFFF		SUB R15, #$100
C938	FFFF		SUB R15, #$100
C93A	FFFF		SUB R15, #$100
C93C	FFFF		SUB R15, #$100
C93E	FFFF		SUB R15, #$100
C940	FFFF		SUB R15, #$100
C942	FFFF		SUB R15, #$100
C944	FFFF		SUB R15, #$100
C946	FFFF		SUB R15, #$100
C948	FFFF		SUB R15, #$100
C94A	FFFF		SUB R15, #$100
C94C	FFFF		SUB R15, #$100
C94E	FFFF		SUB R15, #$100
C950	FFFF		SUB R15, #$100
C952	FFFF		SUB R15, #$100
C954	FFFF		SUB R15, #$100
C956	FFFF		SUB R15, #$100
C958	FFFF		SUB R15, #$100
C95A	FFFF		SUB R15, #$100
C95C	FFFF		SUB R15, #$100
C95E	FFFF		SUB R15, #$100
C960	FFFF		SUB R15, #$100
C962	FFFF		SUB R15, #$100
C964	FFFF		SUB R15, #$100
C966	FFFF		SUB R15, #$100
C968	FFFF		SUB R15, #$100
C96A	FFFF		SUB R15, #$100
C96C	FFFF		SUB R15, #$100
C96E	FFFF		SUB R15, #$100
C970	FFFF		SUB R15, #$100
C972	FFFF		SUB R15, #$100
C974	FFFF		SUB R15, #$100
C976	FFFF		SUB R15, #$100
C978	FFFF		SUB R15, #$100
C97A	FFFF		SUB R15, #$100
C97C	FFFF		SUB R15, #$100
C97E	FFFF		SUB R15, #$100
C980	FFFF		SUB R15, #$100
C982	FFFF		SUB R15, #$100
C984	FFFF		SUB R15, #$100
C986	FFFF		SUB R15, #$100
C988	FFFF		SUB R15, #$100
C98A	FFFF		SUB R15, #$100
C98C	FFFF		SUB R15, #$100
C98E	FFFF		SUB R15, #$100
C990	FFFF		SUB R15, #$100
C992	FFFF		SUB R15, #$100
C994	FFFF		SUB R15, #$100
C996	FFFF		SUB R15, #$100
C998	FFFF		SUB R15, #$100
C99A	FFFF		SUB R15, #$100
C99C	FFFF		SUB R15, #$100
C99E	FFFF		SUB R15, #$100
C9A0	FFFF		SUB R15, #$100
C9A2	FFFF		SUB R15, #$100
C9A4	FFFF		SUB R15, #$100
C9A6	FFFF		SUB R15, #$100
C9A8	FFFF		SUB R15, #$100
C9AA	FFFF		SUB R15, #$100
C9AC	FFFF		SUB R15, #$100
C9AE	FFFF		SUB R15, #$100
C9B0	FFFF		SUB R15, #$100
C9B2	FFFF		SUB R15, #$100
C9B4	FFFF		SUB R15, #$100
C9B6	FFFF		SUB R15, #$100
C9B8	FFFF		SUB R15, #$100
C9BA	FFFF		SUB R15, #$100
C9BC	FFFF		SUB R15, #$100
C9BE	FFFF		SUB R15, #$100
C9C0	FFFF		SUB R15, #$100
C9C2	FFFF		SUB R15, #$100
C9C4	FFFF		SUB R15, #$100
C9C6	FFFF		SUB R15, #$100
C9C8	FFFF		SUB R15, #$100
C9CA	FFFF		SUB R15, #$100
C9CC	FFFF		SUB R15, #$100
C9CE	FFFF		SUB R15, #$100
C9D0	FFFF		SUB R15, #$100
C9D2	FFFF		SUB R15, #$100
C9D4	FFFF		SUB R15, #$100
C9D6	FFFF		SUB R15, #$100
C9D8	FFFF		SUB R15, #$100
C9DA	FFFF		SUB R15, #$100
C9DC	FFFF		SUB R15, #$100
C9DE	FFFF		SUB R15, #$100
C9E0	FFFF		SUB R15, #$100
C9E2	FFFF		SUB R15, #$100
C9E4	FFFF		SUB R15, #$100
C9E6	FFFF		SUB R15, #$100
C9E8	FFFF		SUB R15, #$100
C9EA	FFFF		SUB R15, #$100
C9EC	FFFF		SUB R15, #$100
C9EE	FFFF		SUB R15, #$100
C9F0	FFFF		SUB R15, #$100
C9F2	FFFF		SUB R15, #$100
C9F4	FFFF		SUB R15, #$100
C9F6	FFFF		SUB R15, #$100
C9F8	FFFF		SUB R15, #$100
C9FA	FFFF		SUB R15, #$100
C9FC	FFFF		SUB R15, #$100
C9FE	FFFF		SUB R15, #$100
CA00	FFFF		SUB R15, #$100
CA02	FFFF		SUB R15, #$100
CA04	FFFF		SUB R15, #$100
CA06	FFFF		SUB R15, #$100
CA08	FFFF		SUB R15, #$100
CA0A	FFFF		SUB R15, #$100
CA0C	FFFF		SUB R15, #$100
CA0E	FFFF		SUB R15, #$100
CA10	FFFF		SUB R15, #$100
CA12	FFFF		SUB R15, #$100
CA14	FFFF		SUB R15, #$100
CA16	FFFF		SUB R15, #$100
CA18	FFFF		SUB R15, #$100
CA1A	FFFF		SUB R15, #$100
CA1C	FFFF		SUB R15, #$100
CA1E	FFFF		SUB R15, #$100
CA20	FFFF		SUB R15, #$100
CA22	FFFF		SUB R15, #$100
CA24	FFFF		SUB R15, #$100
CA26	FFFF		SUB R15, #$100
CA28	FFFF		SUB R15, #$100
CA2A	FFFF		SUB R15, #$100
CA2C	FFFF		SUB R15, #$100
CA2E	FFFF		SUB R15, #$100
CA30	FFFF		SUB R15, #$100
CA32	FFFF		SUB R15, #$100
CA34	FFFF		SUB R15, #$100
CA36	FFFF		SUB R15, #$100
CA38	FFFF		SUB R15, #$100
CA3A	FFFF		SUB R15, #$100
CA3C	FFFF		SUB R15, #$100
CA3E	FFFF		SUB R15, #$100
CA40	FFFF		SUB R15, #$100
CA42	FFFF		SUB R15, #$100
CA44	FFFF		SUB R15, #$100
CA46	FFFF		SUB R15, #$100
CA48	FFFF		SUB R15, #$100
CA4A	FFFF		SUB R15, #$100
CA4C	FFFF		SUB R15, #$100
CA4E	FFFF		SUB R15, #$100
CA50	FFFF		SUB R15, #$100
CA52	FFFF		SUB R15, #$100
CA54	FFFF		SUB R15, #$100
CA56	FFFF		SUB R15, #$100
CA58	FFFF		SUB R15, #$100
CA5A	FFFF		SUB R15, #$100
CA5C	FFFF		SUB R15, #$100
CA5E	FFFF		SUB R15, #$100
CA60	FFFF		SUB R15, #$100
CA62	FFFF		SUB R15, #$100
CA64	FFFF		SUB R15, #$100
CA66	FFFF		SUB R15, #$100
CA68	FFFF		SUB R15, #$100
CA6A	FFFF		SUB R15, #$100
CA6C	FFFF		SUB R15, #$100
CA6E	FFFF		SUB R15, #$100
CA70	FFFF		SUB R15, #$100
CA72	FFFF		SUB R15, #$100
CA74	FFFF		SUB R15, #$100
CA76	FFFF		SUB R15, #$100
CA78	FFFF		SUB R15, #$100
CA7A	FFFF		SUB R15, #$100
CA7C	FFFF		SUB R15, #$100
CA7E	FFFF		SUB R15, #$100
CA80	FFFF		SUB R15, #$100
CA82	FFFF		SUB R15, #$100
CA84	FFFF		SUB R15, #$100
CA86	FFFF		SUB R15, #$100
CA88	FFFF		SUB R15, #$100
CA8A	FFFF		SUB R15, #$100
CA8C	FFFF		SUB R15, #$100
CA8E	FFFF		SUB R15, #$100
CA90	FFFF		SUB R15, #$100
CA92	FFFF		SUB R15, #$100
CA94	FFFF		SUB R15, #$100
CA96	FFFF		SUB R15, #$100
CA98	FFFF		SUB R15, #$100
CA9A	FFFF		SUB R15, #$100
CA9C	FFFF		SUB R15, #$100
CA9E	FFFF		SUB R15, #$100
CAA0	FFFF		SUB R15, #$100
CAA2	FFFF		SUB R15, #$100
CAA4	FFFF		SUB R15, #$100
CAA6	FFFF		SUB R15, #$100
CAA8	FFFF		SUB R15, #$100
CAAA	FFFF		SUB R15, #$100
CAAC	FFFF		SUB R15, #$100
CAAE	FFFF		SUB R15, #$100
CAB0	FFFF		SUB R15, #$100
CAB2	FFFF		SUB R15, #$100
CAB4	FFFF		SUB R15, #$100
CAB6	FFFF		SUB R15, #$100
CAB8	FFFF		SUB R15, #$100
CABA	FFFF		SUB R15, #$100
CABC	FFFF		SUB R15, #$100
CABE	FFFF		SUB R15, #$100
CAC0	FFFF		SUB R15, #$100
CAC2	FFFF		SUB R15, #$100
CAC4	FFFF		SUB R15, #$100
CAC6	FFFF		SUB R15, #$100
CAC8	FFFF		SUB R15, #$100
CACA	FFFF		SUB R15, #$100
CACC	FFFF		SUB R15, #$100
CACE	FFFF		SUB R15, #$100
CAD0	FFFF		SUB R15, #$100
CAD2	FFFF		SUB R15, #$100
CAD4	FFFF		SUB R15, #$100
CAD6	FFFF		SUB R15, #$100
CAD8	FFFF		SUB R15, #$100
CADA	FFFF		SUB R15, #$100
CADC	FFFF		SUB R15, #$100
CADE	FFFF		SUB R15, #$100
CAE0	FFFF		SUB R15, #$100
CAE2	FFFF		SUB R15, #$100
CAE4	FFFF		SUB R15, #$100
CAE6	FFFF		SUB R15, #$100
CAE8	FFFF		SUB R15, #$100
CAEA	FFFF		SUB R15, #$100
CAEC	FFFF		SUB R15, #$100
CAEE	FFFF		SUB R15, #$100
CAF0	FFFF		SUB R15, #$100
CAF2	FFFF		SUB R15, #$100
CAF4	FFFF		SUB R15, #$100
CAF6	FFFF		SUB R15, #$100
CAF8	FFFF		SUB R15, #$100
CAFA	FFFF		SUB R15, #$100
CAFC	FFFF		SUB R15, #$100
CAFE	FFFF		SUB R15, #$100
CB00	FFFF		SUB R15, #$100
CB02	FFFF		SUB R15, #$100
CB04	FFFF		SUB R15, #$100
CB06	FFFF		SUB R15, #$100
CB08	FFFF		SUB R15, #$100
CB0A	FFFF		SUB R15, #$100
CB0C	FFFF		SUB R15, #$100
CB0E	FFFF		SUB R15, #$100
CB10	FFFF		SUB R15, #$100
CB12	FFFF		SUB R15, #$100
CB14	FFFF		SUB R15, #$100
CB16	FFFF		SUB R15, #$100
CB18	FFFF		SUB R15, #$100
CB1A	FFFF		SUB R15, #$100
CB1C	FFFF		SUB R15, #$100
CB1E	FFFF		SUB R15, #$100
CB20	FFFF		SUB R15, #$100
CB22	FFFF		SUB R15, #$100
CB24	FFFF		SUB R15, #$100
CB26	FFFF		SUB R15, #$100
CB28	FFFF		SUB R15, #$100
CB2A	FFFF		SUB R15, #$100
CB2C	FFFF		SUB R15, #$100
CB2E	FFFF		SUB R15, #$100
CB30	FFFF		SUB R15, #$100
CB32	FFFF		SUB R15, #$100
CB34	FFFF		SUB R15, #$100
CB36	FFFF		SUB R15, #$100
CB38	FFFF		SUB R15, #$100
CB3A	FFFF		SUB R15, #$100
CB3C	FFFF		SUB R15, #$100
CB3E	FFFF		SUB R15, #$100
CB40	FFFF		SUB R15, #$100
CB42	FFFF		SUB R15, #$100
CB44	FFFF		SUB R15, #$100
CB46	FFFF		SUB R15, #$100
CB48	FFFF		SUB R15, #$100
CB4A	FFFF		SUB R15, #$100
CB4C	FFFF		SUB R15, #$100
CB4E	FFFF		SUB R15, #$100
CB50	FFFF		SUB R15, #$100
CB52	FFFF		SUB R15, #$100
CB54	FFFF		SUB R15, #$100
CB56	FFFF		SUB R15, #$100
CB58	FFFF		SUB R15, #$100
CB5A	FFFF		SUB R15, #$100
CB5C	FFFF		SUB R15, #$100
CB5E	FFFF		SUB R15, #$100
CB60	FFFF		SUB R15, #$100
CB62	FFFF		SUB R15, #$100
CB64	FFFF		SUB R15, #$100
CB66	FFFF		SUB R15, #$100
CB68	FFFF		SUB R15, #$100
CB6A	FFFF		SUB R15, #$100
CB6C	FFFF		SUB R15, #$100
CB6E	FFFF		SUB R15, #$100
CB70	FFFF		SUB R15, #$100
CB72	FFFF		SUB R15, #$100
CB74	FFFF		SUB R15, #$100
CB76	FFFF		SUB R15, #$100
CB78	FFFF		SUB R15, #$100
CB7A	FFFF		SUB R15, #$100
CB7C	FFFF		SUB R15, #$100
CB7E	FFFF		SUB R15, #$100
CB80	FFFF		SUB R15, #$100
CB82	FFFF		SUB R15, #$100
CB84	FFFF		SUB R15, #$100
CB86	FFFF		SUB R15, #$100
CB88	FFFF		SUB R15, #$100
CB8A	FFFF		SUB R15, #$100
CB8C	FFFF		SUB R15, #$100
CB8E	FFFF		SUB R15, #$100
CB90	FFFF		SUB R15, #$100
CB92	FFFF		SUB R15, #$100
CB94	FFFF		SUB R15, #$100
CB96	FFFF		SUB R15, #$100
CB98	FFFF		SUB R15, #$100
CB9A	FFFF		SUB R15, #$100
CB9C	FFFF		SUB R15, #$100
CB9E	FFFF		SUB R15, #$100
CBA0	FFFF		SUB R15, #$100
CBA2	FFFF		SUB R15, #$100
CBA4	FFFF		SUB R15, #$100
CBA6	FFFF		SUB R15, #$100
CBA8	FFFF		SUB R15, #$100
CBAA	FFFF		SUB R15, #$100
CBAC	FFFF		SUB R15, #$100
CBAE	FFFF		SUB R15, #$100
CBB0	FFFF		SUB R15, #$100
CBB2	FFFF		SUB R15, #$100
CBB4	FFFF		SUB R15, #$100
CBB6	FFFF		SUB R15, #$100
CBB8	FFFF		SUB R15, #$100
CBBA	FFFF		SUB R15, #$100
CBBC	FFFF		SUB R15, #$100
CBBE	FFFF		SUB R15, #$100
CBC0	FFFF		SUB R15, #$100
CBC2	FFFF		SUB R15, #$100
CBC4	FFFF		SUB R15, #$100
CBC6	FFFF		SUB R15, #$100
CBC8	FFFF		SUB R15, #$100
CBCA	FFFF		SUB R15, #$100
CBCC	FFFF		SUB R15, #$100
CBCE	FFFF		SUB R15, #$100
CBD0	FFFF		SUB R15, #$100
CBD2	FFFF		SUB R15, #$100
CBD4	FFFF		SUB R15, #$100
CBD6	FFFF		SUB R15, #$100
CBD8	FFFF		SUB R15, #$100
CBDA	FFFF		SUB R15, #$100
CBDC	FFFF		SUB R15, #$100
CBDE	FFFF		SUB R15, #$100
CBE0	FFFF		SUB R15, #$100
CBE2	FFFF		SUB R15, #$100
CBE4	FFFF		SUB R15, #$100
CBE6	FFFF		SUB R15, #$100
CBE8	FFFF		SUB R15, #$100
CBEA	FFFF		SUB R15, #$100
CBEC	FFFF		SUB R15, #$100
CBEE	FFFF		SUB R15, #$100
CBF0	FFFF		SUB R15, #$100
CBF2	FFFF		SUB R15, #$100
CBF4	FFFF		SUB R15, #$100
CBF6	FFFF		SUB R15, #$100
CBF8	FFFF		SUB R15, #$100
CBFA	FFFF		SUB R15, #$100
CBFC	FFFF		SUB R15, #$100
CBFE	FFFF		SUB R15, #$100
CC00	FFFF		SUB R15, #$100
CC02	FFFF		SUB R15, #$100
CC04	FFFF		SUB R15, #$100
CC06	FFFF		SUB R15, #$100
CC08	FFFF		SUB R15, #$100
CC0A	FFFF		SUB R15, #$100
CC0C	FFFF		SUB R15, #$100
CC0E	FFFF		SUB R15, #$100
CC10	FFFF		SUB R15, #$100
CC12	FFFF		SUB R15, #$100
CC14	FFFF		SUB R15, #$100
CC16	FFFF		SUB R15, #$100
CC18	FFFF		SUB R15, #$100
CC1A	FFFF		SUB R15, #$100
CC1C	FFFF		SUB R15, #$100
CC1E	FFFF		SUB R15, #$100
CC20	FFFF		SUB R15, #$100
CC22	FFFF		SUB R15, #$100
CC24	FFFF		SUB R15, #$100
CC26	FFFF		SUB R15, #$100
CC28	FFFF		SUB R15, #$100
CC2A	FFFF		SUB R15, #$100
CC2C	FFFF		SUB R15, #$100
CC2E	FFFF		SUB R15, #$100
CC30	FFFF		SUB R15, #$100
CC32	FFFF		SUB R15, #$100
CC34	FFFF		SUB R15, #$100
CC36	FFFF		SUB R15, #$100
CC38	FFFF		SUB R15, #$100
CC3A	FFFF		SUB R15, #$100
CC3C	FFFF		SUB R15, #$100
CC3E	FFFF		SUB R15, #$100
CC40	FFFF		SUB R15, #$100
CC42	FFFF		SUB R15, #$100
CC44	FFFF		SUB R15, #$100
CC46	FFFF		SUB R15, #$100
CC48	FFFF		SUB R15, #$100
CC4A	FFFF		SUB R15, #$100
CC4C	FFFF		SUB R15, #$100
CC4E	FFFF		SUB R15, #$100
CC50	FFFF		SUB R15, #$100
CC52	FFFF		SUB R15, #$100
CC54	FFFF		SUB R15, #$100
CC56	FFFF		SUB R15, #$100
CC58	FFFF		SUB R15, #$100
CC5A	FFFF		SUB R15, #$100
CC5C	FFFF		SUB R15, #$100
CC5E	FFFF		SUB R15, #$100
CC60	FFFF		SUB R15, #$100
CC62	FFFF		SUB R15, #$100
CC64	FFFF		SUB R15, #$100
CC66	FFFF		SUB R15, #$100
CC68	FFFF		SUB R15, #$100
CC6A	FFFF		SUB R15, #$100
CC6C	FFFF		SUB R15, #$100
CC6E	FFFF		SUB R15, #$100
CC70	FFFF		SUB R15, #$100
CC72	FFFF		SUB R15, #$100
CC74	FFFF		SUB R15, #$100
CC76	FFFF		SUB R15, #$100
CC78	FFFF		SUB R15, #$100
CC7A	FFFF		SUB R15, #$100
CC7C	FFFF		SUB R15, #$100
CC7E	FFFF		SUB R15, #$100
CC80	FFFF		SUB R15, #$100
CC82	FFFF		SUB R15, #$100
CC84	FFFF		SUB R15, #$100
CC86	FFFF		SUB R15, #$100
CC88	FFFF		SUB R15, #$100
CC8A	FFFF		SUB R15, #$100
CC8C	FFFF		SUB R15, #$100
CC8E	FFFF		SUB R15, #$100
CC90	FFFF		SUB R15, #$100
CC92	FFFF		SUB R15, #$100
CC94	FFFF		SUB R15, #$100
CC96	FFFF		SUB R15, #$100
CC98	FFFF		SUB R15, #$100
CC9A	FFFF		SUB R15, #$100
CC9C	FFFF		SUB R15, #$100
CC9E	FFFF		SUB R15, #$100
CCA0	FFFF		SUB R15, #$100
CCA2	FFFF		SUB R15, #$100
CCA4	FFFF		SUB R15, #$100
CCA6	FFFF		SUB R15, #$100
CCA8	FFFF		SUB R15, #$100
CCAA	FFFF		SUB R15, #$100
CCAC	FFFF		SUB R15, #$100
CCAE	FFFF		SUB R15, #$100
CCB0	FFFF		SUB R15, #$100
CCB2	FFFF		SUB R15, #$100
CCB4	FFFF		SUB R15, #$100
CCB6	FFFF		SUB R15, #$100
CCB8	FFFF		SUB R15, #$100
CCBA	FFFF		SUB R15, #$100
CCBC	FFFF		SUB R15, #$100
CCBE	FFFF		SUB R15, #$100
CCC0	FFFF		SUB R15, #$100
CCC2	FFFF		SUB R15, #$100
CCC4	FFFF		SUB R15, #$100
CCC6	FFFF		SUB R15, #$100
CCC8	FFFF		SUB R15, #$100
CCCA	FFFF		SUB R15, #$100
CCCC	FFFF		SUB R15, #$100
CCCE	FFFF		SUB R15, #$100
CCD0	FFFF		SUB R15, #$100
CCD2	FFFF		SUB R15, #$100
CCD4	FFFF		SUB R15, #$100
CCD6	FFFF		SUB R15, #$100
CCD8	FFFF		SUB R15, #$100
CCDA	FFFF		SUB R15, #$100
CCDC	FFFF		SUB R15, #$100
CCDE	FFFF		SUB R15, #$100
CCE0	FFFF		SUB R15, #$100
CCE2	FFFF		SUB R15, #$100
CCE4	FFFF		SUB R15, #$100
CCE6	FFFF		SUB R15, #$100
CCE8	FFFF		SUB R15, #$100
CCEA	FFFF		SUB R15, #$100
CCEC	FFFF		SUB R15, #$100
CCEE	FFFF		SUB R15, #$100
CCF0	FFFF		SUB R15, #$100
CCF2	FFFF		SUB R15, #$100
CCF4	FFFF		SUB R15, #$100
CCF6	FFFF		SUB R15, #$100
CCF8	FFFF		SUB R15, #$100
CCFA	FFFF		SUB R15, #$100
CCFC	FFFF		SUB R15, #$100
CCFE	FFFF		SUB R15, #$100
CD00	FFFF		SUB R15, #$100
CD02	FFFF		SUB R15, #$100
CD04	FFFF		SUB R15, #$100
CD06	FFFF		SUB R15, #$100
CD08	FFFF		SUB R15, #$100
CD0A	FFFF		SUB R15, #$100
CD0C	FFFF		SUB R15, #$100
CD0E	FFFF		SUB R15, #$100
CD10	FFFF		SUB R15, #$100
CD12	FFFF		SUB R15, #$100
CD14	FFFF		SUB R15, #$100
CD16	FFFF		SUB R15, #$100
CD18	FFFF		SUB R15, #$100
CD1A	FFFF		SUB R15, #$100
CD1C	FFFF		SUB R15, #$100
CD1E	FFFF		SUB R15, #$100
CD20	FFFF		SUB R15, #$100
CD22	FFFF		SUB R15, #$100
CD24	FFFF		SUB R15, #$100
CD26	FFFF		SUB R15, #$100
CD28	FFFF		SUB R15, #$100
CD2A	FFFF		SUB R15, #$100
CD2C	FFFF		SUB R15, #$100
CD2E	FFFF		SUB R15, #$100
CD30	FFFF		SUB R15, #$100
CD32	FFFF		SUB R15, #$100
CD34	FFFF		SUB R15, #$100
CD36	FFFF		SUB R15, #$100
CD38	FFFF		SUB R15, #$100
CD3A	FFFF		SUB R15, #$100
CD3C	FFFF		SUB R15, #$100
CD3E	FFFF		SUB R15, #$100
CD40	FFFF		SUB R15, #$100
CD42	FFFF		SUB R15, #$100
CD44	FFFF		SUB R15, #$100
CD46	FFFF		SUB R15, #$100
CD48	FFFF		SUB R15, #$100
CD4A	FFFF		SUB R15, #$100
CD4C	FFFF		SUB R15, #$100
CD4E	FFFF		SUB R15, #$100
CD50	FFFF		SUB R15, #$100
CD52	FFFF		SUB R15, #$100
CD54	FFFF		SUB R15, #$100
CD56	FFFF		SUB R15, #$100
CD58	FFFF		SUB R15, #$100
CD5A	FFFF		SUB R15, #$100
CD5C	FFFF		SUB R15, #$100
CD5E	FFFF		SUB R15, #$100
CD60	FFFF		SUB R15, #$100
CD62	FFFF		SUB R15, #$100
CD64	FFFF		SUB R15, #$100
CD66	FFFF		SUB R15, #$100
CD68	FFFF		SUB R15, #$100
CD6A	FFFF		SUB R15, #$100
CD6C	FFFF		SUB R15, #$100
CD6E	FFFF		SUB R15, #$100
CD70	FFFF		SUB R15, #$100
CD72	FFFF		SUB R15, #$100
CD74	FFFF		SUB R15, #$100
CD76	FFFF		SUB R15, #$100
CD78	FFFF		SUB R15, #$100
CD7A	FFFF		SUB R15, #$100
CD7C	FFFF		SUB R15, #$100
CD7E	FFFF		SUB R15, #$100
CD80	FFFF		SUB R15, #$100
CD82	FFFF		SUB R15, #$100
CD84	FFFF		SUB R15, #$100
CD86	FFFF		SUB R15, #$100
CD88	FFFF		SUB R15, #$100
CD8A	FFFF		SUB R15, #$100
CD8C	FFFF		SUB R15, #$100
CD8E	FFFF		SUB R15, #$100
CD90	FFFF		SUB R15, #$100
CD92	FFFF		SUB R15, #$100
CD94	FFFF		SUB R15, #$100
CD96	FFFF		SUB R15, #$100
CD98	FFFF		SUB R15, #$100
CD9A	FFFF		SUB R15, #$100
CD9C	FFFF		SUB R15, #$100
CD9E	FFFF		SUB R15, #$100
CDA0	FFFF		SUB R15, #$100
CDA2	FFFF		SUB R15, #$100
CDA4	FFFF		SUB R15, #$100
CDA6	FFFF		SUB R15, #$100
CDA8	FFFF		SUB R15, #$100
CDAA	FFFF		SUB R15, #$100
CDAC	FFFF		SUB R15, #$100
CDAE	FFFF		SUB R15, #$100
CDB0	FFFF		SUB R15, #$100
CDB2	FFFF		SUB R15, #$100
CDB4	FFFF		SUB R15, #$100
CDB6	FFFF		SUB R15, #$100
CDB8	FFFF		SUB R15, #$100
CDBA	FFFF		SUB R15, #$100
CDBC	FFFF		SUB R15, #$100
CDBE	FFFF		SUB R15, #$100
CDC0	FFFF		SUB R15, #$100
CDC2	FFFF		SUB R15, #$100
CDC4	FFFF		SUB R15, #$100
CDC6	FFFF		SUB R15, #$100
CDC8	FFFF		SUB R15, #$100
CDCA	FFFF		SUB R15, #$100
CDCC	FFFF		SUB R15, #$100
CDCE	FFFF		SUB R15, #$100
CDD0	FFFF		SUB R15, #$100
CDD2	FFFF		SUB R15, #$100
CDD4	FFFF		SUB R15, #$100
CDD6	FFFF		SUB R15, #$100
CDD8	FFFF		SUB R15, #$100
CDDA	FFFF		SUB R15, #$100
CDDC	FFFF		SUB R15, #$100
CDDE	FFFF		SUB R15, #$100
CDE0	FFFF		SUB R15, #$100
CDE2	FFFF		SUB R15, #$100
CDE4	FFFF		SUB R15, #$100
CDE6	FFFF		SUB R15, #$100
CDE8	FFFF		SUB R15, #$100
CDEA	FFFF		SUB R15, #$100
CDEC	FFFF		SUB R15, #$100
CDEE	FFFF		SUB R15, #$100
CDF0	FFFF		SUB R15, #$100
CDF2	FFFF		SUB R15, #$100
CDF4	FFFF		SUB R15, #$100
CDF6	FFFF		SUB R15, #$100
CDF8	FFFF		SUB R15, #$100
CDFA	FFFF		SUB R15, #$100
CDFC	FFFF		SUB R15, #$100
CDFE	FFFF		SUB R15, #$100
CE00	FFFF		SUB R15, #$100
CE02	FFFF		SUB R15, #$100
CE04	FFFF		SUB R15, #$100
CE06	FFFF		SUB R15, #$100
CE08	FFFF		SUB R15, #$100
CE0A	FFFF		SUB R15, #$100
CE0C	FFFF		SUB R15, #$100
CE0E	FFFF		SUB R15, #$100
CE10	FFFF		SUB R15, #$100
CE12	FFFF		SUB R15, #$100
CE14	FFFF		SUB R15, #$100
CE16	FFFF		SUB R15, #$100
CE18	FFFF		SUB R15, #$100
CE1A	FFFF		SUB R15, #$100
CE1C	FFFF		SUB R15, #$100
CE1E	FFFF		SUB R15, #$100
CE20	FFFF		SUB R15, #$100
CE22	FFFF		SUB R15, #$100
CE24	FFFF		SUB R15, #$100
CE26	FFFF		SUB R15, #$100
CE28	FFFF		SUB R15, #$100
CE2A	FFFF		SUB R15, #$100
CE2C	FFFF		SUB R15, #$100
CE2E	FFFF		SUB R15, #$100
CE30	FFFF		SUB R15, #$100
CE32	FFFF		SUB R15, #$100
CE34	FFFF		SUB R15, #$100
CE36	FFFF		SUB R15, #$100
CE38	FFFF		SUB R15, #$100
CE3A	FFFF		SUB R15, #$100
CE3C	FFFF		SUB R15, #$100
CE3E	FFFF		SUB R15, #$100
CE40	FFFF		SUB R15, #$100
CE42	FFFF		SUB R15, #$100
CE44	FFFF		SUB R15, #$100
CE46	FFFF		SUB R15, #$100
CE48	FFFF		SUB R15, #$100
CE4A	FFFF		SUB R15, #$100
CE4C	FFFF		SUB R15, #$100
CE4E	FFFF		SUB R15, #$100
CE50	FFFF		SUB R15, #$100
CE52	FFFF		SUB R15, #$100
CE54	FFFF		SUB R15, #$100
CE56	FFFF		SUB R15, #$100
CE58	FFFF		SUB R15, #$100
CE5A	FFFF		SUB R15, #$100
CE5C	FFFF		SUB R15, #$100
CE5E	FFFF		SUB R15, #$100
CE60	FFFF		SUB R15, #$100
CE62	FFFF		SUB R15, #$100
CE64	FFFF		SUB R15, #$100
CE66	FFFF		SUB R15, #$100
CE68	FFFF		SUB R15, #$100
CE6A	FFFF		SUB R15, #$100
CE6C	FFFF		SUB R15, #$100
CE6E	FFFF		SUB R15, #$100
CE70	FFFF		SUB R15, #$100
CE72	FFFF		SUB R15, #$100
CE74	FFFF		SUB R15, #$100
CE76	FFFF		SUB R15, #$100
CE78	FFFF		SUB R15, #$100
CE7A	FFFF		SUB R15, #$100
CE7C	FFFF		SUB R15, #$100
CE7E	FFFF		SUB R15, #$100
CE80	FFFF		SUB R15, #$100
CE82	FFFF		SUB R15, #$100
CE84	FFFF		SUB R15, #$100
CE86	FFFF		SUB R15, #$100
CE88	FFFF		SUB R15, #$100
CE8A	FFFF		SUB R15, #$100
CE8C	FFFF		SUB R15, #$100
CE8E	FFFF		SUB R15, #$100
CE90	FFFF		SUB R15, #$100
CE92	FFFF		SUB R15, #$100
CE94	FFFF		SUB R15, #$100
CE96	FFFF		SUB R15, #$100
CE98	FFFF		SUB R15, #$100
CE9A	FFFF		SUB R15, #$100
CE9C	FFFF		SUB R15, #$100
CE9E	FFFF		SUB R15, #$100
CEA0	FFFF		SUB R15, #$100
CEA2	FFFF		SUB R15, #$100
CEA4	FFFF		SUB R15, #$100
CEA6	FFFF		SUB R15, #$100
CEA8	FFFF		SUB R15, #$100
CEAA	FFFF		SUB R15, #$100
CEAC	FFFF		SUB R15, #$100
CEAE	FFFF		SUB R15, #$100
CEB0	FFFF		SUB R15, #$100
CEB2	FFFF		SUB R15, #$100
CEB4	FFFF		SUB R15, #$100
CEB6	FFFF		SUB R15, #$100
CEB8	FFFF		SUB R15, #$100
CEBA	FFFF		SUB R15, #$100
CEBC	FFFF		SUB R15, #$100
CEBE	FFFF		SUB R15, #$100
CEC0	FFFF		SUB R15, #$100
CEC2	FFFF		SUB R15, #$100
CEC4	FFFF		SUB R15, #$100
CEC6	FFFF		SUB R15, #$100
CEC8	FFFF		SUB R15, #$100
CECA	FFFF		SUB R15, #$100
CECC	FFFF		SUB R15, #$100
CECE	FFFF		SUB R15, #$100
CED0	FFFF		SUB R15, #$100
CED2	FFFF		SUB R15, #$100
CED4	FFFF		SUB R15, #$100
CED6	FFFF		SUB R15, #$100
CED8	FFFF		SUB R15, #$100
CEDA	FFFF		SUB R15, #$100
CEDC	FFFF		SUB R15, #$100
CEDE	FFFF		SUB R15, #$100
CEE0	FFFF		SUB R15, #$100
CEE2	FFFF		SUB R15, #$100
CEE4	FFFF		SUB R15, #$100
CEE6	FFFF		SUB R15, #$100
CEE8	FFFF		SUB R15, #$100
CEEA	FFFF		SUB R15, #$100
CEEC	FFFF		SUB R15, #$100
CEEE	FFFF		SUB R15, #$100
CEF0	FFFF		SUB R15, #$100
CEF2	FFFF		SUB R15, #$100
CEF4	FFFF		SUB R15, #$100
CEF6	FFFF		SUB R15, #$100
CEF8	FFFF		SUB R15, #$100
CEFA	FFFF		SUB R15, #$100
CEFC	FFFF		SUB R15, #$100
CEFE	FFFF		SUB R15, #$100
CF00	FFFF		SUB R15, #$100
CF02	FFFF		SUB R15, #$100
CF04	FFFF		SUB R15, #$100
CF06	FFFF		SUB R15, #$100
CF08	FFFF		SUB R15, #$100
CF0A	FFFF		SUB R15, #$100
CF0C	FFFF		SUB R15, #$100
CF0E	FFFF		SUB R15, #$100
CF10	FFFF		SUB R15, #$100
CF12	FFFF		SUB R15, #$100
CF14	FFFF		SUB R15, #$100
CF16	FFFF		SUB R15, #$100
CF18	FFFF		SUB R15, #$100
CF1A	FFFF		SUB R15, #$100
CF1C	FFFF		SUB R15, #$100
CF1E	FFFF		SUB R15, #$100
CF20	FFFF		SUB R15, #$100
CF22	FFFF		SUB R15, #$100
CF24	FFFF		SUB R15, #$100
CF26	FFFF		SUB R15, #$100
CF28	FFFF		SUB R15, #$100
CF2A	FFFF		SUB R15, #$100
CF2C	FFFF		SUB R15, #$100
CF2E	FFFF		SUB R15, #$100
CF30	FFFF		SUB R15, #$100
CF32	FFFF		SUB R15, #$100
CF34	FFFF		SUB R15, #$100
CF36	FFFF		SUB R15, #$100
CF38	FFFF		SUB R15, #$100
CF3A	FFFF		SUB R15, #$100
CF3C	FFFF		SUB R15, #$100
CF3E	FFFF		SUB R15, #$100
CF40	FFFF		SUB R15, #$100
CF42	FFFF		SUB R15, #$100
CF44	FFFF		SUB R15, #$100
CF46	FFFF		SUB R15, #$100
CF48	FFFF		SUB R15, #$100
CF4A	FFFF		SUB R15, #$100
CF4C	FFFF		SUB R15, #$100
CF4E	FFFF		SUB R15, #$100
CF50	FFFF		SUB R15, #$100
CF52	FFFF		SUB R15, #$100
CF54	FFFF		SUB R15, #$100
CF56	FFFF		SUB R15, #$100
CF58	FFFF		SUB R15, #$100
CF5A	FFFF		SUB R15, #$100
CF5C	FFFF		SUB R15, #$100
CF5E	FFFF		SUB R15, #$100
CF60	FFFF		SUB R15, #$100
CF62	FFFF		SUB R15, #$100
CF64	FFFF		SUB R15, #$100
CF66	FFFF		SUB R15, #$100
CF68	FFFF		SUB R15, #$100
CF6A	FFFF		SUB R15, #$100
CF6C	FFFF		SUB R15, #$100
CF6E	FFFF		SUB R15, #$100
CF70	FFFF		SUB R15, #$100
CF72	FFFF		SUB R15, #$100
CF74	FFFF		SUB R15, #$100
CF76	FFFF		SUB R15, #$100
CF78	FFFF		SUB R15, #$100
CF7A	FFFF		SUB R15, #$100
CF7C	FFFF		SUB R15, #$100
CF7E	FFFF		SUB R15, #$100
CF80	FFFF		SUB R15, #$100
CF82	FFFF		SUB R15, #$100
CF84	FFFF		SUB R15, #$100
CF86	FFFF		SUB R15, #$100
CF88	FFFF		SUB R15, #$100
CF8A	FFFF		SUB R15, #$100
CF8C	FFFF		SUB R15, #$100
CF8E	FFFF		SUB R15, #$100
CF90	FFFF		SUB R15, #$100
CF92	FFFF		SUB R15, #$100
CF94	FFFF		SUB R15, #$100
CF96	FFFF		SUB R15, #$100
CF98	FFFF		SUB R15, #$100
CF9A	FFFF		SUB R15, #$100
CF9C	FFFF		SUB R15, #$100
CF9E	FFFF		SUB R15, #$100
CFA0	FFFF		SUB R15, #$100
CFA2	FFFF		SUB R15, #$100
CFA4	FFFF		SUB R15, #$100
CFA6	FFFF		SUB R15, #$100
CFA8	FFFF		SUB R15, #$100
CFAA	FFFF		SUB R15, #$100
CFAC	FFFF		SUB R15, #$100
CFAE	FFFF		SUB R15, #$100
CFB0	FFFF		SUB R15, #$100
CFB2	FFFF		SUB R15, #$100
CFB4	FFFF		SUB R15, #$100
CFB6	FFFF		SUB R15, #$100
CFB8	FFFF		SUB R15, #$100
CFBA	FFFF		SUB R15, #$100
CFBC	FFFF		SUB R15, #$100
CFBE	FFFF		SUB R15, #$100
CFC0	FFFF		SUB R15, #$100
CFC2	FFFF		SUB R15, #$100
CFC4	FFFF		SUB R15, #$100
CFC6	FFFF		SUB R15, #$100
CFC8	FFFF		SUB R15, #$100
CFCA	FFFF		SUB R15, #$100
CFCC	FFFF		SUB R15, #$100
CFCE	FFFF		SUB R15, #$100
CFD0	FFFF		SUB R15, #$100
CFD2	FFFF		SUB R15, #$100
CFD4	FFFF		SUB R15, #$100
CFD6	FFFF		SUB R15, #$100
CFD8	FFFF		SUB R15, #$100
CFDA	FFFF		SUB R15, #$100
CFDC	FFFF		SUB R15, #$100
CFDE	FFFF		SUB R15, #$100
CFE0	FFFF		SUB R15, #$100
CFE2	FFFF		SUB R15, #$100
CFE4	FFFF		SUB R15, #$100
CFE6	FFFF		SUB R15, #$100
CFE8	FFFF		SUB R15, #$100
CFEA	FFFF		SUB R15, #$100
CFEC	FFFF		SUB R15, #$100
CFEE	FFFF		SUB R15, #$100
CFF0	FFFF		SUB R15, #$100
CFF2	FFFF		SUB R15, #$100
CFF4	FFFF		SUB R15, #$100
CFF6	FFFF		SUB R15, #$100
CFF8	FFFF		SUB R15, #$100
CFFA	FFFF		SUB R15, #$100
CFFC	FFFF		SUB R15, #$100
CFFE	FFFF		SUB R15, #$100
D000	FFFF		SUB R15, #$100
D002	FFFF		SUB R15, #$100
D004	FFFF		SUB R15, #$100
D006	FFFF		SUB R15, #$100
D008	FFFF		SUB R15, #$100
D00A	FFFF		SUB R15, #$100
D00C	FFFF		SUB R15, #$100
D00E	FFFF		SUB R15, #$100
D010	FFFF		SUB R15, #$100
D012	FFFF		SUB R15, #$100
D014	FFFF		SUB R15, #$100
D016	FFFF		SUB R15, #$100
D018	FFFF		SUB R15, #$100
D01A	FFFF		SUB R15, #$100
D01C	FFFF		SUB R15, #$100
D01E	FFFF		SUB R15, #$100
D020	FFFF		SUB R15, #$100
D022	FFFF		SUB R15, #$100
D024	FFFF		SUB R15, #$100
D026	FFFF		SUB R15, #$100
D028	FFFF		SUB R15, #$100
D02A	FFFF		SUB R15, #$100
D02C	FFFF		SUB R15, #$100
D02E	FFFF		SUB R15, #$100
D030	FFFF		SUB R15, #$100
D032	FFFF		SUB R15, #$100
D034	FFFF		SUB R15, #$100
D036	FFFF		SUB R15, #$100
D038	FFFF		SUB R15, #$100
D03A	FFFF		SUB R15, #$100
D03C	FFFF		SUB R15, #$100
D03E	FFFF		SUB R15, #$100
D040	FFFF		SUB R15, #$100
D042	FFFF		SUB R15, #$100
D044	FFFF		SUB R15, #$100
D046	FFFF		SUB R15, #$100
D048	FFFF		SUB R15, #$100
D04A	FFFF		SUB R15, #$100
D04C	FFFF		SUB R15, #$100
D04E	FFFF		SUB R15, #$100
D050	FFFF		SUB R15, #$100
D052	FFFF		SUB R15, #$100
D054	FFFF		SUB R15, #$100
D056	FFFF		SUB R15, #$100
D058	FFFF		SUB R15, #$100
D05A	FFFF		SUB R15, #$100
D05C	FFFF		SUB R15, #$100
D05E	FFFF		SUB R15, #$100
D060	FFFF		SUB R15, #$100
D062	FFFF		SUB R15, #$100
D064	FFFF		SUB R15, #$100
D066	FFFF		SUB R15, #$100
D068	FFFF		SUB R15, #$100
D06A	FFFF		SUB R15, #$100
D06C	FFFF		SUB R15, #$100
D06E	FFFF		SUB R15, #$100
D070	FFFF		SUB R15, #$100
D072	FFFF		SUB R15, #$100
D074	FFFF		SUB R15, #$100
D076	FFFF		SUB R15, #$100
D078	FFFF		SUB R15, #$100
D07A	FFFF		SUB R15, #$100
D07C	FFFF		SUB R15, #$100
D07E	FFFF		SUB R15, #$100
D080	FFFF		SUB R15, #$100
D082	FFFF		SUB R15, #$100
D084	FFFF		SUB R15, #$100
D086	FFFF		SUB R15, #$100
D088	FFFF		SUB R15, #$100
D08A	FFFF		SUB R15, #$100
D08C	FFFF		SUB R15, #$100
D08E	FFFF		SUB R15, #$100
D090	FFFF		SUB R15, #$100
D092	FFFF		SUB R15, #$100
D094	FFFF		SUB R15, #$100
D096	FFFF		SUB R15, #$100
D098	FFFF		SUB R15, #$100
D09A	FFFF		SUB R15, #$100
D09C	FFFF		SUB R15, #$100
D09E	FFFF		SUB R15, #$100
D0A0	FFFF		SUB R15, #$100
D0A2	FFFF		SUB R15, #$100
D0A4	FFFF		SUB R15, #$100
D0A6	FFFF		SUB R15, #$100
D0A8	FFFF		SUB R15, #$100
D0AA	FFFF		SUB R15, #$100
D0AC	FFFF		SUB R15, #$100
D0AE	FFFF		SUB R15, #$100
D0B0	FFFF		SUB R15, #$100
D0B2	FFFF		SUB R15, #$100
D0B4	FFFF		SUB R15, #$100
D0B6	FFFF		SUB R15, #$100
D0B8	FFFF		SUB R15, #$100
D0BA	FFFF		SUB R15, #$100
D0BC	FFFF		SUB R15, #$100
D0BE	FFFF		SUB R15, #$100
D0C0	FFFF		SUB R15, #$100
D0C2	FFFF		SUB R15, #$100
D0C4	FFFF		SUB R15, #$100
D0C6	FFFF		SUB R15, #$100
D0C8	FFFF		SUB R15, #$100
D0CA	FFFF		SUB R15, #$100
D0CC	FFFF		SUB R15, #$100
D0CE	FFFF		SUB R15, #$100
D0D0	FFFF		SUB R15, #$100
D0D2	FFFF		SUB R15, #$100
D0D4	FFFF		SUB R15, #$100
D0D6	FFFF		SUB R15, #$100
D0D8	FFFF		SUB R15, #$100
D0DA	FFFF		SUB R15, #$100
D0DC	FFFF		SUB R15, #$100
D0DE	FFFF		SUB R15, #$100
D0E0	FFFF		SUB R15, #$100
D0E2	FFFF		SUB R15, #$100
D0E4	FFFF		SUB R15, #$100
D0E6	FFFF		SUB R15, #$100
D0E8	FFFF		SUB R15, #$100
D0EA	FFFF		SUB R15, #$100
D0EC	FFFF		SUB R15, #$100
D0EE	FFFF		SUB R15, #$100
D0F0	FFFF		SUB R15, #$100
D0F2	FFFF		SUB R15, #$100
D0F4	FFFF		SUB R15, #$100
D0F6	FFFF		SUB R15, #$100
D0F8	FFFF		SUB R15, #$100
D0FA	FFFF		SUB R15, #$100
D0FC	FFFF		SUB R15, #$100
D0FE	FFFF		SUB R15, #$100
D100	FFFF		SUB R15, #$100
D102	FFFF		SUB R15, #$100
D104	FFFF		SUB R15, #$100
D106	FFFF		SUB R15, #$100
D108	FFFF		SUB R15, #$100
D10A	FFFF		SUB R15, #$100
D10C	FFFF		SUB R15, #$100
D10E	FFFF		SUB R15, #$100
D110	FFFF		SUB R15, #$100
D112	FFFF		SUB R15, #$100
D114	FFFF		SUB R15, #$100
D116	FFFF		SUB R15, #$100
D118	FFFF		SUB R15, #$100
D11A	FFFF		SUB R15, #$100
D11C	FFFF		SUB R15, #$100
D11E	FFFF		SUB R15, #$100
D120	FFFF		SUB R15, #$100
D122	FFFF		SUB R15, #$100
D124	FFFF		SUB R15, #$100
D126	FFFF		SUB R15, #$100
D128	FFFF		SUB R15, #$100
D12A	FFFF		SUB R15, #$100
D12C	FFFF		SUB R15, #$100
D12E	FFFF		SUB R15, #$100
D130	FFFF		SUB R15, #$100
D132	FFFF		SUB R15, #$100
D134	FFFF		SUB R15, #$100
D136	FFFF		SUB R15, #$100
D138	FFFF		SUB R15, #$100
D13A	FFFF		SUB R15, #$100
D13C	FFFF		SUB R15, #$100
D13E	FFFF		SUB R15, #$100
D140	FFFF		SUB R15, #$100
D142	FFFF		SUB R15, #$100
D144	FFFF		SUB R15, #$100
D146	FFFF		SUB R15, #$100
D148	FFFF		SUB R15, #$100
D14A	FFFF		SUB R15, #$100
D14C	FFFF		SUB R15, #$100
D14E	FFFF		SUB R15, #$100
D150	FFFF		SUB R15, #$100
D152	FFFF		SUB R15, #$100
D154	FFFF		SUB R15, #$100
D156	FFFF		SUB R15, #$100
D158	FFFF		SUB R15, #$100
D15A	FFFF		SUB R15, #$100
D15C	FFFF		SUB R15, #$100
D15E	FFFF		SUB R15, #$100
D160	FFFF		SUB R15, #$100
D162	FFFF		SUB R15, #$100
D164	FFFF		SUB R15, #$100
D166	FFFF		SUB R15, #$100
D168	FFFF		SUB R15, #$100
D16A	FFFF		SUB R15, #$100
D16C	FFFF		SUB R15, #$100
D16E	FFFF		SUB R15, #$100
D170	FFFF		SUB R15, #$100
D172	FFFF		SUB R15, #$100
D174	FFFF		SUB R15, #$100
D176	FFFF		SUB R15, #$100
D178	FFFF		SUB R15, #$100
D17A	FFFF		SUB R15, #$100
D17C	FFFF		SUB R15, #$100
D17E	FFFF		SUB R15, #$100
D180	FFFF		SUB R15, #$100
D182	FFFF		SUB R15, #$100
D184	FFFF		SUB R15, #$100
D186	FFFF		SUB R15, #$100
D188	FFFF		SUB R15, #$100
D18A	FFFF		SUB R15, #$100
D18C	FFFF		SUB R15, #$100
D18E	FFFF		SUB R15, #$100
D190	FFFF		SUB R15, #$100
D192	FFFF		SUB R15, #$100
D194	FFFF		SUB R15, #$100
D196	FFFF		SUB R15, #$100
D198	FFFF		SUB R15, #$100
D19A	FFFF		SUB R15, #$100
D19C	FFFF		SUB R15, #$100
D19E	FFFF		SUB R15, #$100
D1A0	FFFF		SUB R15, #$100
D1A2	FFFF		SUB R15, #$100
D1A4	FFFF		SUB R15, #$100
D1A6	FFFF		SUB R15, #$100
D1A8	FFFF		SUB R15, #$100
D1AA	FFFF		SUB R15, #$100
D1AC	FFFF		SUB R15, #$100
D1AE	FFFF		SUB R15, #$100
D1B0	FFFF		SUB R15, #$100
D1B2	FFFF		SUB R15, #$100
D1B4	FFFF		SUB R15, #$100
D1B6	FFFF		SUB R15, #$100
D1B8	FFFF		SUB R15, #$100
D1BA	FFFF		SUB R15, #$100
D1BC	FFFF		SUB R15, #$100
D1BE	FFFF		SUB R15, #$100
D1C0	FFFF		SUB R15, #$100
D1C2	FFFF		SUB R15, #$100
D1C4	FFFF		SUB R15, #$100
D1C6	FFFF		SUB R15, #$100
D1C8	FFFF		SUB R15, #$100
D1CA	FFFF		SUB R15, #$100
D1CC	FFFF		SUB R15, #$100
D1CE	FFFF		SUB R15, #$100
D1D0	FFFF		SUB R15, #$100
D1D2	FFFF		SUB R15, #$100
D1D4	FFFF		SUB R15, #$100
D1D6	FFFF		SUB R15, #$100
D1D8	FFFF		SUB R15, #$100
D1DA	FFFF		SUB R15, #$100
D1DC	FFFF		SUB R15, #$100
D1DE	FFFF		SUB R15, #$100
D1E0	FFFF		SUB R15, #$100
D1E2	FFFF		SUB R15, #$100
D1E4	FFFF		SUB R15, #$100
D1E6	FFFF		SUB R15, #$100
D1E8	FFFF		SUB R15, #$100
D1EA	FFFF		SUB R15, #$100
D1EC	FFFF		SUB R15, #$100
D1EE	FFFF		SUB R15, #$100
D1F0	FFFF		SUB R15, #$100
D1F2	FFFF		SUB R15, #$100
D1F4	FFFF		SUB R15, #$100
D1F6	FFFF		SUB R15, #$100
D1F8	FFFF		SUB R15, #$100
D1FA	FFFF		SUB R15, #$100
D1FC	FFFF		SUB R15, #$100
D1FE	FFFF		SUB R15, #$100
D200	FFFF		SUB R15, #$100
D202	FFFF		SUB R15, #$100
D204	FFFF		SUB R15, #$100
D206	FFFF		SUB R15, #$100
D208	FFFF		SUB R15, #$100
D20A	FFFF		SUB R15, #$100
D20C	FFFF		SUB R15, #$100
D20E	FFFF		SUB R15, #$100
D210	FFFF		SUB R15, #$100
D212	FFFF		SUB R15, #$100
D214	FFFF		SUB R15, #$100
D216	FFFF		SUB R15, #$100
D218	FFFF		SUB R15, #$100
D21A	FFFF		SUB R15, #$100
D21C	FFFF		SUB R15, #$100
D21E	FFFF		SUB R15, #$100
D220	FFFF		SUB R15, #$100
D222	FFFF		SUB R15, #$100
D224	FFFF		SUB R15, #$100
D226	FFFF		SUB R15, #$100
D228	FFFF		SUB R15, #$100
D22A	FFFF		SUB R15, #$100
D22C	FFFF		SUB R15, #$100
D22E	FFFF		SUB R15, #$100
D230	FFFF		SUB R15, #$100
D232	FFFF		SUB R15, #$100
D234	FFFF		SUB R15, #$100
D236	FFFF		SUB R15, #$100
D238	FFFF		SUB R15, #$100
D23A	FFFF		SUB R15, #$100
D23C	FFFF		SUB R15, #$100
D23E	FFFF		SUB R15, #$100
D240	FFFF		SUB R15, #$100
D242	FFFF		SUB R15, #$100
D244	FFFF		SUB R15, #$100
D246	FFFF		SUB R15, #$100
D248	FFFF		SUB R15, #$100
D24A	FFFF		SUB R15, #$100
D24C	FFFF		SUB R15, #$100
D24E	FFFF		SUB R15, #$100
D250	FFFF		SUB R15, #$100
D252	FFFF		SUB R15, #$100
D254	FFFF		SUB R15, #$100
D256	FFFF		SUB R15, #$100
D258	FFFF		SUB R15, #$100
D25A	FFFF		SUB R15, #$100
D25C	FFFF		SUB R15, #$100
D25E	FFFF		SUB R15, #$100
D260	FFFF		SUB R15, #$100
D262	FFFF		SUB R15, #$100
D264	FFFF		SUB R15, #$100
D266	FFFF		SUB R15, #$100
D268	FFFF		SUB R15, #$100
D26A	FFFF		SUB R15, #$100
D26C	FFFF		SUB R15, #$100
D26E	FFFF		SUB R15, #$100
D270	FFFF		SUB R15, #$100
D272	FFFF		SUB R15, #$100
D274	FFFF		SUB R15, #$100
D276	FFFF		SUB R15, #$100
D278	FFFF		SUB R15, #$100
D27A	FFFF		SUB R15, #$100
D27C	FFFF		SUB R15, #$100
D27E	FFFF		SUB R15, #$100
D280	FFFF		SUB R15, #$100
D282	FFFF		SUB R15, #$100
D284	FFFF		SUB R15, #$100
D286	FFFF		SUB R15, #$100
D288	FFFF		SUB R15, #$100
D28A	FFFF		SUB R15, #$100
D28C	FFFF		SUB R15, #$100
D28E	FFFF		SUB R15, #$100
D290	FFFF		SUB R15, #$100
D292	FFFF		SUB R15, #$100
D294	FFFF		SUB R15, #$100
D296	FFFF		SUB R15, #$100
D298	FFFF		SUB R15, #$100
D29A	FFFF		SUB R15, #$100
D29C	FFFF		SUB R15, #$100
D29E	FFFF		SUB R15, #$100
D2A0	FFFF		SUB R15, #$100
D2A2	FFFF		SUB R15, #$100
D2A4	FFFF		SUB R15, #$100
D2A6	FFFF		SUB R15, #$100
D2A8	FFFF		SUB R15, #$100
D2AA	FFFF		SUB R15, #$100
D2AC	FFFF		SUB R15, #$100
D2AE	FFFF		SUB R15, #$100
D2B0	FFFF		SUB R15, #$100
D2B2	FFFF		SUB R15, #$100
D2B4	FFFF		SUB R15, #$100
D2B6	FFFF		SUB R15, #$100
D2B8	FFFF		SUB R15, #$100
D2BA	FFFF		SUB R15, #$100
D2BC	FFFF		SUB R15, #$100
D2BE	FFFF		SUB R15, #$100
D2C0	FFFF		SUB R15, #$100
D2C2	FFFF		SUB R15, #$100
D2C4	FFFF		SUB R15, #$100
D2C6	FFFF		SUB R15, #$100
D2C8	FFFF		SUB R15, #$100
D2CA	FFFF		SUB R15, #$100
D2CC	FFFF		SUB R15, #$100
D2CE	FFFF		SUB R15, #$100
D2D0	FFFF		SUB R15, #$100
D2D2	FFFF		SUB R15, #$100
D2D4	FFFF		SUB R15, #$100
D2D6	FFFF		SUB R15, #$100
D2D8	FFFF		SUB R15, #$100
D2DA	FFFF		SUB R15, #$100
D2DC	FFFF		SUB R15, #$100
D2DE	FFFF		SUB R15, #$100
D2E0	FFFF		SUB R15, #$100
D2E2	FFFF		SUB R15, #$100
D2E4	FFFF		SUB R15, #$100
D2E6	FFFF		SUB R15, #$100
D2E8	FFFF		SUB R15, #$100
D2EA	FFFF		SUB R15, #$100
D2EC	FFFF		SUB R15, #$100
D2EE	FFFF		SUB R15, #$100
D2F0	FFFF		SUB R15, #$100
D2F2	FFFF		SUB R15, #$100
D2F4	FFFF		SUB R15, #$100
D2F6	FFFF		SUB R15, #$100
D2F8	FFFF		SUB R15, #$100
D2FA	FFFF		SUB R15, #$100
D2FC	FFFF		SUB R15, #$100
D2FE	FFFF		SUB R15, #$100
D300	FFFF		SUB R15, #$100
D302	FFFF		SUB R15, #$100
D304	FFFF		SUB R15, #$100
D306	FFFF		SUB R15, #$100
D308	FFFF		SUB R15, #$100
D30A	FFFF		SUB R15, #$100
D30C	FFFF		SUB R15, #$100
D30E	FFFF		SUB R15, #$100
D310	FFFF		SUB R15, #$100
D312	FFFF		SUB R15, #$100
D314	FFFF		SUB R15, #$100
D316	FFFF		SUB R15, #$100
D318	FFFF		SUB R15, #$100
D31A	FFFF		SUB R15, #$100
D31C	FFFF		SUB R15, #$100
D31E	FFFF		SUB R15, #$100
D320	FFFF		SUB R15, #$100
D322	FFFF		SUB R15, #$100
D324	FFFF		SUB R15, #$100
D326	FFFF		SUB R15, #$100
D328	FFFF		SUB R15, #$100
D32A	FFFF		SUB R15, #$100
D32C	FFFF		SUB R15, #$100
D32E	FFFF		SUB R15, #$100
D330	FFFF		SUB R15, #$100
D332	FFFF		SUB R15, #$100
D334	FFFF		SUB R15, #$100
D336	FFFF		SUB R15, #$100
D338	FFFF		SUB R15, #$100
D33A	FFFF		SUB R15, #$100
D33C	FFFF		SUB R15, #$100
D33E	FFFF		SUB R15, #$100
D340	FFFF		SUB R15, #$100
D342	FFFF		SUB R15, #$100
D344	FFFF		SUB R15, #$100
D346	FFFF		SUB R15, #$100
D348	FFFF		SUB R15, #$100
D34A	FFFF		SUB R15, #$100
D34C	FFFF		SUB R15, #$100
D34E	FFFF		SUB R15, #$100
D350	FFFF		SUB R15, #$100
D352	FFFF		SUB R15, #$100
D354	FFFF		SUB R15, #$100
D356	FFFF		SUB R15, #$100
D358	FFFF		SUB R15, #$100
D35A	FFFF		SUB R15, #$100
D35C	FFFF		SUB R15, #$100
D35E	FFFF		SUB R15, #$100
D360	FFFF		SUB R15, #$100
D362	FFFF		SUB R15, #$100
D364	FFFF		SUB R15, #$100
D366	FFFF		SUB R15, #$100
D368	FFFF		SUB R15, #$100
D36A	FFFF		SUB R15, #$100
D36C	FFFF		SUB R15, #$100
D36E	FFFF		SUB R15, #$100
D370	FFFF		SUB R15, #$100
D372	FFFF		SUB R15, #$100
D374	FFFF		SUB R15, #$100
D376	FFFF		SUB R15, #$100
D378	FFFF		SUB R15, #$100
D37A	FFFF		SUB R15, #$100
D37C	FFFF		SUB R15, #$100
D37E	FFFF		SUB R15, #$100
D380	FFFF		SUB R15, #$100
D382	FFFF		SUB R15, #$100
D384	FFFF		SUB R15, #$100
D386	FFFF		SUB R15, #$100
D388	FFFF		SUB R15, #$100
D38A	FFFF		SUB R15, #$100
D38C	FFFF		SUB R15, #$100
D38E	FFFF		SUB R15, #$100
D390	FFFF		SUB R15, #$100
D392	FFFF		SUB R15, #$100
D394	FFFF		SUB R15, #$100
D396	FFFF		SUB R15, #$100
D398	FFFF		SUB R15, #$100
D39A	FFFF		SUB R15, #$100
D39C	FFFF		SUB R15, #$100
D39E	FFFF		SUB R15, #$100
D3A0	FFFF		SUB R15, #$100
D3A2	FFFF		SUB R15, #$100
D3A4	FFFF		SUB R15, #$100
D3A6	FFFF		SUB R15, #$100
D3A8	FFFF		SUB R15, #$100
D3AA	FFFF		SUB R15, #$100
D3AC	FFFF		SUB R15, #$100
D3AE	FFFF		SUB R15, #$100
D3B0	FFFF		SUB R15, #$100
D3B2	FFFF		SUB R15, #$100
D3B4	FFFF		SUB R15, #$100
D3B6	FFFF		SUB R15, #$100
D3B8	FFFF		SUB R15, #$100
D3BA	FFFF		SUB R15, #$100
D3BC	FFFF		SUB R15, #$100
D3BE	FFFF		SUB R15, #$100
D3C0	FFFF		SUB R15, #$100
D3C2	FFFF		SUB R15, #$100
D3C4	FFFF		SUB R15, #$100
D3C6	FFFF		SUB R15, #$100
D3C8	FFFF		SUB R15, #$100
D3CA	FFFF		SUB R15, #$100
D3CC	FFFF		SUB R15, #$100
D3CE	FFFF		SUB R15, #$100
D3D0	FFFF		SUB R15, #$100
D3D2	FFFF		SUB R15, #$100
D3D4	FFFF		SUB R15, #$100
D3D6	FFFF		SUB R15, #$100
D3D8	FFFF		SUB R15, #$100
D3DA	FFFF		SUB R15, #$100
D3DC	FFFF		SUB R15, #$100
D3DE	FFFF		SUB R15, #$100
D3E0	FFFF		SUB R15, #$100
D3E2	FFFF		SUB R15, #$100
D3E4	FFFF		SUB R15, #$100
D3E6	FFFF		SUB R15, #$100
D3E8	FFFF		SUB R15, #$100
D3EA	FFFF		SUB R15, #$100
D3EC	FFFF		SUB R15, #$100
D3EE	FFFF		SUB R15, #$100
D3F0	FFFF		SUB R15, #$100
D3F2	FFFF		SUB R15, #$100
D3F4	FFFF		SUB R15, #$100
D3F6	FFFF		SUB R15, #$100
D3F8	FFFF		SUB R15, #$100
D3FA	FFFF		SUB R15, #$100
D3FC	FFFF		SUB R15, #$100
D3FE	FFFF		SUB R15, #$100
D400	FFFF		SUB R15, #$100
D402	FFFF		SUB R15, #$100
D404	FFFF		SUB R15, #$100
D406	FFFF		SUB R15, #$100
D408	FFFF		SUB R15, #$100
D40A	FFFF		SUB R15, #$100
D40C	FFFF		SUB R15, #$100
D40E	FFFF		SUB R15, #$100
D410	FFFF		SUB R15, #$100
D412	FFFF		SUB R15, #$100
D414	FFFF		SUB R15, #$100
D416	FFFF		SUB R15, #$100
D418	FFFF		SUB R15, #$100
D41A	FFFF		SUB R15, #$100
D41C	FFFF		SUB R15, #$100
D41E	FFFF		SUB R15, #$100
D420	FFFF		SUB R15, #$100
D422	FFFF		SUB R15, #$100
D424	FFFF		SUB R15, #$100
D426	FFFF		SUB R15, #$100
D428	FFFF		SUB R15, #$100
D42A	FFFF		SUB R15, #$100
D42C	FFFF		SUB R15, #$100
D42E	FFFF		SUB R15, #$100
D430	FFFF		SUB R15, #$100
D432	FFFF		SUB R15, #$100
D434	FFFF		SUB R15, #$100
D436	FFFF		SUB R15, #$100
D438	FFFF		SUB R15, #$100
D43A	FFFF		SUB R15, #$100
D43C	FFFF		SUB R15, #$100
D43E	FFFF		SUB R15, #$100
D440	FFFF		SUB R15, #$100
D442	FFFF		SUB R15, #$100
D444	FFFF		SUB R15, #$100
D446	FFFF		SUB R15, #$100
D448	FFFF		SUB R15, #$100
D44A	FFFF		SUB R15, #$100
D44C	FFFF		SUB R15, #$100
D44E	FFFF		SUB R15, #$100
D450	FFFF		SUB R15, #$100
D452	FFFF		SUB R15, #$100
D454	FFFF		SUB R15, #$100
D456	FFFF		SUB R15, #$100
D458	FFFF		SUB R15, #$100
D45A	FFFF		SUB R15, #$100
D45C	FFFF		SUB R15, #$100
D45E	FFFF		SUB R15, #$100
D460	FFFF		SUB R15, #$100
D462	FFFF		SUB R15, #$100
D464	FFFF		SUB R15, #$100
D466	FFFF		SUB R15, #$100
D468	FFFF		SUB R15, #$100
D46A	FFFF		SUB R15, #$100
D46C	FFFF		SUB R15, #$100
D46E	FFFF		SUB R15, #$100
D470	FFFF		SUB R15, #$100
D472	FFFF		SUB R15, #$100
D474	FFFF		SUB R15, #$100
D476	FFFF		SUB R15, #$100
D478	FFFF		SUB R15, #$100
D47A	FFFF		SUB R15, #$100
D47C	FFFF		SUB R15, #$100
D47E	FFFF		SUB R15, #$100
D480	FFFF		SUB R15, #$100
D482	FFFF		SUB R15, #$100
D484	FFFF		SUB R15, #$100
D486	FFFF		SUB R15, #$100
D488	FFFF		SUB R15, #$100
D48A	FFFF		SUB R15, #$100
D48C	FFFF		SUB R15, #$100
D48E	FFFF		SUB R15, #$100
D490	FFFF		SUB R15, #$100
D492	FFFF		SUB R15, #$100
D494	FFFF		SUB R15, #$100
D496	FFFF		SUB R15, #$100
D498	FFFF		SUB R15, #$100
D49A	FFFF		SUB R15, #$100
D49C	FFFF		SUB R15, #$100
D49E	FFFF		SUB R15, #$100
D4A0	FFFF		SUB R15, #$100
D4A2	FFFF		SUB R15, #$100
D4A4	FFFF		SUB R15, #$100
D4A6	FFFF		SUB R15, #$100
D4A8	FFFF		SUB R15, #$100
D4AA	FFFF		SUB R15, #$100
D4AC	FFFF		SUB R15, #$100
D4AE	FFFF		SUB R15, #$100
D4B0	FFFF		SUB R15, #$100
D4B2	FFFF		SUB R15, #$100
D4B4	FFFF		SUB R15, #$100
D4B6	FFFF		SUB R15, #$100
D4B8	FFFF		SUB R15, #$100
D4BA	FFFF		SUB R15, #$100
D4BC	FFFF		SUB R15, #$100
D4BE	FFFF		SUB R15, #$100
D4C0	FFFF		SUB R15, #$100
D4C2	FFFF		SUB R15, #$100
D4C4	FFFF		SUB R15, #$100
D4C6	FFFF		SUB R15, #$100
D4C8	FFFF		SUB R15, #$100
D4CA	FFFF		SUB R15, #$100
D4CC	FFFF		SUB R15, #$100
D4CE	FFFF		SUB R15, #$100
D4D0	FFFF		SUB R15, #$100
D4D2	FFFF		SUB R15, #$100
D4D4	FFFF		SUB R15, #$100
D4D6	FFFF		SUB R15, #$100
D4D8	FFFF		SUB R15, #$100
D4DA	FFFF		SUB R15, #$100
D4DC	FFFF		SUB R15, #$100
D4DE	FFFF		SUB R15, #$100
D4E0	FFFF		SUB R15, #$100
D4E2	FFFF		SUB R15, #$100
D4E4	FFFF		SUB R15, #$100
D4E6	FFFF		SUB R15, #$100
D4E8	FFFF		SUB R15, #$100
D4EA	FFFF		SUB R15, #$100
D4EC	FFFF		SUB R15, #$100
D4EE	FFFF		SUB R15, #$100
D4F0	FFFF		SUB R15, #$100
D4F2	FFFF		SUB R15, #$100
D4F4	FFFF		SUB R15, #$100
D4F6	FFFF		SUB R15, #$100
D4F8	FFFF		SUB R15, #$100
D4FA	FFFF		SUB R15, #$100
D4FC	FFFF		SUB R15, #$100
D4FE	FFFF		SUB R15, #$100
D500	FFFF		SUB R15, #$100
D502	FFFF		SUB R15, #$100
D504	FFFF		SUB R15, #$100
D506	FFFF		SUB R15, #$100
D508	FFFF		SUB R15, #$100
D50A	FFFF		SUB R15, #$100
D50C	FFFF		SUB R15, #$100
D50E	FFFF		SUB R15, #$100
D510	FFFF		SUB R15, #$100
D512	FFFF		SUB R15, #$100
D514	FFFF		SUB R15, #$100
D516	FFFF		SUB R15, #$100
D518	FFFF		SUB R15, #$100
D51A	FFFF		SUB R15, #$100
D51C	FFFF		SUB R15, #$100
D51E	FFFF		SUB R15, #$100
D520	FFFF		SUB R15, #$100
D522	FFFF		SUB R15, #$100
D524	FFFF		SUB R15, #$100
D526	FFFF		SUB R15, #$100
D528	FFFF		SUB R15, #$100
D52A	FFFF		SUB R15, #$100
D52C	FFFF		SUB R15, #$100
D52E	FFFF		SUB R15, #$100
D530	FFFF		SUB R15, #$100
D532	FFFF		SUB R15, #$100
D534	FFFF		SUB R15, #$100
D536	FFFF		SUB R15, #$100
D538	FFFF		SUB R15, #$100
D53A	FFFF		SUB R15, #$100
D53C	FFFF		SUB R15, #$100
D53E	FFFF		SUB R15, #$100
D540	FFFF		SUB R15, #$100
D542	FFFF		SUB R15, #$100
D544	FFFF		SUB R15, #$100
D546	FFFF		SUB R15, #$100
D548	FFFF		SUB R15, #$100
D54A	FFFF		SUB R15, #$100
D54C	FFFF		SUB R15, #$100
D54E	FFFF		SUB R15, #$100
D550	FFFF		SUB R15, #$100
D552	FFFF		SUB R15, #$100
D554	FFFF		SUB R15, #$100
D556	FFFF		SUB R15, #$100
D558	FFFF		SUB R15, #$100
D55A	FFFF		SUB R15, #$100
D55C	FFFF		SUB R15, #$100
D55E	FFFF		SUB R15, #$100
D560	FFFF		SUB R15, #$100
D562	FFFF		SUB R15, #$100
D564	FFFF		SUB R15, #$100
D566	FFFF		SUB R15, #$100
D568	FFFF		SUB R15, #$100
D56A	FFFF		SUB R15, #$100
D56C	FFFF		SUB R15, #$100
D56E	FFFF		SUB R15, #$100
D570	FFFF		SUB R15, #$100
D572	FFFF		SUB R15, #$100
D574	FFFF		SUB R15, #$100
D576	FFFF		SUB R15, #$100
D578	FFFF		SUB R15, #$100
D57A	FFFF		SUB R15, #$100
D57C	FFFF		SUB R15, #$100
D57E	FFFF		SUB R15, #$100
D580	FFFF		SUB R15, #$100
D582	FFFF		SUB R15, #$100
D584	FFFF		SUB R15, #$100
D586	FFFF		SUB R15, #$100
D588	FFFF		SUB R15, #$100
D58A	FFFF		SUB R15, #$100
D58C	FFFF		SUB R15, #$100
D58E	FFFF		SUB R15, #$100
D590	FFFF		SUB R15, #$100
D592	FFFF		SUB R15, #$100
D594	FFFF		SUB R15, #$100
D596	FFFF		SUB R15, #$100
D598	FFFF		SUB R15, #$100
D59A	FFFF		SUB R15, #$100
D59C	FFFF		SUB R15, #$100
D59E	FFFF		SUB R15, #$100
D5A0	FFFF		SUB R15, #$100
D5A2	FFFF		SUB R15, #$100
D5A4	FFFF		SUB R15, #$100
D5A6	FFFF		SUB R15, #$100
D5A8	FFFF		SUB R15, #$100
D5AA	FFFF		SUB R15, #$100
D5AC	FFFF		SUB R15, #$100
D5AE	FFFF		SUB R15, #$100
D5B0	FFFF		SUB R15, #$100
D5B2	FFFF		SUB R15, #$100
D5B4	FFFF		SUB R15, #$100
D5B6	FFFF		SUB R15, #$100
D5B8	FFFF		SUB R15, #$100
D5BA	FFFF		SUB R15, #$100
D5BC	FFFF		SUB R15, #$100
D5BE	FFFF		SUB R15, #$100
D5C0	FFFF		SUB R15, #$100
D5C2	FFFF		SUB R15, #$100
D5C4	FFFF		SUB R15, #$100
D5C6	FFFF		SUB R15, #$100
D5C8	FFFF		SUB R15, #$100
D5CA	FFFF		SUB R15, #$100
D5CC	FFFF		SUB R15, #$100
D5CE	FFFF		SUB R15, #$100
D5D0	FFFF		SUB R15, #$100
D5D2	FFFF		SUB R15, #$100
D5D4	FFFF		SUB R15, #$100
D5D6	FFFF		SUB R15, #$100
D5D8	FFFF		SUB R15, #$100
D5DA	FFFF		SUB R15, #$100
D5DC	FFFF		SUB R15, #$100
D5DE	FFFF		SUB R15, #$100
D5E0	FFFF		SUB R15, #$100
D5E2	FFFF		SUB R15, #$100
D5E4	FFFF		SUB R15, #$100
D5E6	FFFF		SUB R15, #$100
D5E8	FFFF		SUB R15, #$100
D5EA	FFFF		SUB R15, #$100
D5EC	FFFF		SUB R15, #$100
D5EE	FFFF		SUB R15, #$100
D5F0	FFFF		SUB R15, #$100
D5F2	FFFF		SUB R15, #$100
D5F4	FFFF		SUB R15, #$100
D5F6	FFFF		SUB R15, #$100
D5F8	FFFF		SUB R15, #$100
D5FA	FFFF		SUB R15, #$100
D5FC	FFFF		SUB R15, #$100
D5FE	FFFF		SUB R15, #$100
D600	FFFF		SUB R15, #$100
D602	FFFF		SUB R15, #$100
D604	FFFF		SUB R15, #$100
D606	FFFF		SUB R15, #$100
D608	FFFF		SUB R15, #$100
D60A	FFFF		SUB R15, #$100
D60C	FFFF		SUB R15, #$100
D60E	FFFF		SUB R15, #$100
D610	FFFF		SUB R15, #$100
D612	FFFF		SUB R15, #$100
D614	FFFF		SUB R15, #$100
D616	FFFF		SUB R15, #$100
D618	FFFF		SUB R15, #$100
D61A	FFFF		SUB R15, #$100
D61C	FFFF		SUB R15, #$100
D61E	FFFF		SUB R15, #$100
D620	FFFF		SUB R15, #$100
D622	FFFF		SUB R15, #$100
D624	FFFF		SUB R15, #$100
D626	FFFF		SUB R15, #$100
D628	FFFF		SUB R15, #$100
D62A	FFFF		SUB R15, #$100
D62C	FFFF		SUB R15, #$100
D62E	FFFF		SUB R15, #$100
D630	FFFF		SUB R15, #$100
D632	FFFF		SUB R15, #$100
D634	FFFF		SUB R15, #$100
D636	FFFF		SUB R15, #$100
D638	FFFF		SUB R15, #$100
D63A	FFFF		SUB R15, #$100
D63C	FFFF		SUB R15, #$100
D63E	FFFF		SUB R15, #$100
D640	FFFF		SUB R15, #$100
D642	FFFF		SUB R15, #$100
D644	FFFF		SUB R15, #$100
D646	FFFF		SUB R15, #$100
D648	FFFF		SUB R15, #$100
D64A	FFFF		SUB R15, #$100
D64C	FFFF		SUB R15, #$100
D64E	FFFF		SUB R15, #$100
D650	FFFF		SUB R15, #$100
D652	FFFF		SUB R15, #$100
D654	FFFF		SUB R15, #$100
D656	FFFF		SUB R15, #$100
D658	FFFF		SUB R15, #$100
D65A	FFFF		SUB R15, #$100
D65C	FFFF		SUB R15, #$100
D65E	FFFF		SUB R15, #$100
D660	FFFF		SUB R15, #$100
D662	FFFF		SUB R15, #$100
D664	FFFF		SUB R15, #$100
D666	FFFF		SUB R15, #$100
D668	FFFF		SUB R15, #$100
D66A	FFFF		SUB R15, #$100
D66C	FFFF		SUB R15, #$100
D66E	FFFF		SUB R15, #$100
D670	FFFF		SUB R15, #$100
D672	FFFF		SUB R15, #$100
D674	FFFF		SUB R15, #$100
D676	FFFF		SUB R15, #$100
D678	FFFF		SUB R15, #$100
D67A	FFFF		SUB R15, #$100
D67C	FFFF		SUB R15, #$100
D67E	FFFF		SUB R15, #$100
D680	FFFF		SUB R15, #$100
D682	FFFF		SUB R15, #$100
D684	FFFF		SUB R15, #$100
D686	FFFF		SUB R15, #$100
D688	FFFF		SUB R15, #$100
D68A	FFFF		SUB R15, #$100
D68C	FFFF		SUB R15, #$100
D68E	FFFF		SUB R15, #$100
D690	FFFF		SUB R15, #$100
D692	FFFF		SUB R15, #$100
D694	FFFF		SUB R15, #$100
D696	FFFF		SUB R15, #$100
D698	FFFF		SUB R15, #$100
D69A	FFFF		SUB R15, #$100
D69C	FFFF		SUB R15, #$100
D69E	FFFF		SUB R15, #$100
D6A0	FFFF		SUB R15, #$100
D6A2	FFFF		SUB R15, #$100
D6A4	FFFF		SUB R15, #$100
D6A6	FFFF		SUB R15, #$100
D6A8	FFFF		SUB R15, #$100
D6AA	FFFF		SUB R15, #$100
D6AC	FFFF		SUB R15, #$100
D6AE	FFFF		SUB R15, #$100
D6B0	FFFF		SUB R15, #$100
D6B2	FFFF		SUB R15, #$100
D6B4	FFFF		SUB R15, #$100
D6B6	FFFF		SUB R15, #$100
D6B8	FFFF		SUB R15, #$100
D6BA	FFFF		SUB R15, #$100
D6BC	FFFF		SUB R15, #$100
D6BE	FFFF		SUB R15, #$100
D6C0	FFFF		SUB R15, #$100
D6C2	FFFF		SUB R15, #$100
D6C4	FFFF		SUB R15, #$100
D6C6	FFFF		SUB R15, #$100
D6C8	FFFF		SUB R15, #$100
D6CA	FFFF		SUB R15, #$100
D6CC	FFFF		SUB R15, #$100
D6CE	FFFF		SUB R15, #$100
D6D0	FFFF		SUB R15, #$100
D6D2	FFFF		SUB R15, #$100
D6D4	FFFF		SUB R15, #$100
D6D6	FFFF		SUB R15, #$100
D6D8	FFFF		SUB R15, #$100
D6DA	FFFF		SUB R15, #$100
D6DC	FFFF		SUB R15, #$100
D6DE	FFFF		SUB R15, #$100
D6E0	FFFF		SUB R15, #$100
D6E2	FFFF		SUB R15, #$100
D6E4	FFFF		SUB R15, #$100
D6E6	FFFF		SUB R15, #$100
D6E8	FFFF		SUB R15, #$100
D6EA	FFFF		SUB R15, #$100
D6EC	FFFF		SUB R15, #$100
D6EE	FFFF		SUB R15, #$100
D6F0	FFFF		SUB R15, #$100
D6F2	FFFF		SUB R15, #$100
D6F4	FFFF		SUB R15, #$100
D6F6	FFFF		SUB R15, #$100
D6F8	FFFF		SUB R15, #$100
D6FA	FFFF		SUB R15, #$100
D6FC	FFFF		SUB R15, #$100
D6FE	FFFF		SUB R15, #$100
D700	FFFF		SUB R15, #$100
D702	FFFF		SUB R15, #$100
D704	FFFF		SUB R15, #$100
D706	FFFF		SUB R15, #$100
D708	FFFF		SUB R15, #$100
D70A	FFFF		SUB R15, #$100
D70C	FFFF		SUB R15, #$100
D70E	FFFF		SUB R15, #$100
D710	FFFF		SUB R15, #$100
D712	FFFF		SUB R15, #$100
D714	FFFF		SUB R15, #$100
D716	FFFF		SUB R15, #$100
D718	FFFF		SUB R15, #$100
D71A	FFFF		SUB R15, #$100
D71C	FFFF		SUB R15, #$100
D71E	FFFF		SUB R15, #$100
D720	FFFF		SUB R15, #$100
D722	FFFF		SUB R15, #$100
D724	FFFF		SUB R15, #$100
D726	FFFF		SUB R15, #$100
D728	FFFF		SUB R15, #$100
D72A	FFFF		SUB R15, #$100
D72C	FFFF		SUB R15, #$100
D72E	FFFF		SUB R15, #$100
D730	FFFF		SUB R15, #$100
D732	FFFF		SUB R15, #$100
D734	FFFF		SUB R15, #$100
D736	FFFF		SUB R15, #$100
D738	FFFF		SUB R15, #$100
D73A	FFFF		SUB R15, #$100
D73C	FFFF		SUB R15, #$100
D73E	FFFF		SUB R15, #$100
D740	FFFF		SUB R15, #$100
D742	FFFF		SUB R15, #$100
D744	FFFF		SUB R15, #$100
D746	FFFF		SUB R15, #$100
D748	FFFF		SUB R15, #$100
D74A	FFFF		SUB R15, #$100
D74C	FFFF		SUB R15, #$100
D74E	FFFF		SUB R15, #$100
D750	FFFF		SUB R15, #$100
D752	FFFF		SUB R15, #$100
D754	FFFF		SUB R15, #$100
D756	FFFF		SUB R15, #$100
D758	FFFF		SUB R15, #$100
D75A	FFFF		SUB R15, #$100
D75C	FFFF		SUB R15, #$100
D75E	FFFF		SUB R15, #$100
D760	FFFF		SUB R15, #$100
D762	FFFF		SUB R15, #$100
D764	FFFF		SUB R15, #$100
D766	FFFF		SUB R15, #$100
D768	FFFF		SUB R15, #$100
D76A	FFFF		SUB R15, #$100
D76C	FFFF		SUB R15, #$100
D76E	FFFF		SUB R15, #$100
D770	FFFF		SUB R15, #$100
D772	FFFF		SUB R15, #$100
D774	FFFF		SUB R15, #$100
D776	FFFF		SUB R15, #$100
D778	FFFF		SUB R15, #$100
D77A	FFFF		SUB R15, #$100
D77C	FFFF		SUB R15, #$100
D77E	FFFF		SUB R15, #$100
D780	FFFF		SUB R15, #$100
D782	FFFF		SUB R15, #$100
D784	FFFF		SUB R15, #$100
D786	FFFF		SUB R15, #$100
D788	FFFF		SUB R15, #$100
D78A	FFFF		SUB R15, #$100
D78C	FFFF		SUB R15, #$100
D78E	FFFF		SUB R15, #$100
D790	FFFF		SUB R15, #$100
D792	FFFF		SUB R15, #$100
D794	FFFF		SUB R15, #$100
D796	FFFF		SUB R15, #$100
D798	FFFF		SUB R15, #$100
D79A	FFFF		SUB R15, #$100
D79C	FFFF		SUB R15, #$100
D79E	FFFF		SUB R15, #$100
D7A0	FFFF		SUB R15, #$100
D7A2	FFFF		SUB R15, #$100
D7A4	FFFF		SUB R15, #$100
D7A6	FFFF		SUB R15, #$100
D7A8	FFFF		SUB R15, #$100
D7AA	FFFF		SUB R15, #$100
D7AC	FFFF		SUB R15, #$100
D7AE	FFFF		SUB R15, #$100
D7B0	FFFF		SUB R15, #$100
D7B2	FFFF		SUB R15, #$100
D7B4	FFFF		SUB R15, #$100
D7B6	FFFF		SUB R15, #$100
D7B8	FFFF		SUB R15, #$100
D7BA	FFFF		SUB R15, #$100
D7BC	FFFF		SUB R15, #$100
D7BE	FFFF		SUB R15, #$100
D7C0	FFFF		SUB R15, #$100
D7C2	FFFF		SUB R15, #$100
D7C4	FFFF		SUB R15, #$100
D7C6	FFFF		SUB R15, #$100
D7C8	FFFF		SUB R15, #$100
D7CA	FFFF		SUB R15, #$100
D7CC	FFFF		SUB R15, #$100
D7CE	FFFF		SUB R15, #$100
D7D0	FFFF		SUB R15, #$100
D7D2	FFFF		SUB R15, #$100
D7D4	FFFF		SUB R15, #$100
D7D6	FFFF		SUB R15, #$100
D7D8	FFFF		SUB R15, #$100
D7DA	FFFF		SUB R15, #$100
D7DC	FFFF		SUB R15, #$100
D7DE	FFFF		SUB R15, #$100
D7E0	FFFF		SUB R15, #$100
D7E2	FFFF		SUB R15, #$100
D7E4	FFFF		SUB R15, #$100
D7E6	FFFF		SUB R15, #$100
D7E8	FFFF		SUB R15, #$100
D7EA	FFFF		SUB R15, #$100
D7EC	FFFF		SUB R15, #$100
D7EE	FFFF		SUB R15, #$100
D7F0	FFFF		SUB R15, #$100
D7F2	FFFF		SUB R15, #$100
D7F4	FFFF		SUB R15, #$100
D7F6	FFFF		SUB R15, #$100
D7F8	FFFF		SUB R15, #$100
D7FA	FFFF		SUB R15, #$100
D7FC	FFFF		SUB R15, #$100
D7FE	FFFF		SUB R15, #$100
D800	FFFF		SUB R15, #$100
D802	FFFF		SUB R15, #$100
D804	FFFF		SUB R15, #$100
D806	FFFF		SUB R15, #$100
D808	FFFF		SUB R15, #$100
D80A	FFFF		SUB R15, #$100
D80C	FFFF		SUB R15, #$100
D80E	FFFF		SUB R15, #$100
D810	FFFF		SUB R15, #$100
D812	FFFF		SUB R15, #$100
D814	FFFF		SUB R15, #$100
D816	FFFF		SUB R15, #$100
D818	FFFF		SUB R15, #$100
D81A	FFFF		SUB R15, #$100
D81C	FFFF		SUB R15, #$100
D81E	FFFF		SUB R15, #$100
D820	FFFF		SUB R15, #$100
D822	FFFF		SUB R15, #$100
D824	FFFF		SUB R15, #$100
D826	FFFF		SUB R15, #$100
D828	FFFF		SUB R15, #$100
D82A	FFFF		SUB R15, #$100
D82C	FFFF		SUB R15, #$100
D82E	FFFF		SUB R15, #$100
D830	FFFF		SUB R15, #$100
D832	FFFF		SUB R15, #$100
D834	FFFF		SUB R15, #$100
D836	FFFF		SUB R15, #$100
D838	FFFF		SUB R15, #$100
D83A	FFFF		SUB R15, #$100
D83C	FFFF		SUB R15, #$100
D83E	FFFF		SUB R15, #$100
D840	FFFF		SUB R15, #$100
D842	FFFF		SUB R15, #$100
D844	FFFF		SUB R15, #$100
D846	FFFF		SUB R15, #$100
D848	FFFF		SUB R15, #$100
D84A	FFFF		SUB R15, #$100
D84C	FFFF		SUB R15, #$100
D84E	FFFF		SUB R15, #$100
D850	FFFF		SUB R15, #$100
D852	FFFF		SUB R15, #$100
D854	FFFF		SUB R15, #$100
D856	FFFF		SUB R15, #$100
D858	FFFF		SUB R15, #$100
D85A	FFFF		SUB R15, #$100
D85C	FFFF		SUB R15, #$100
D85E	FFFF		SUB R15, #$100
D860	FFFF		SUB R15, #$100
D862	FFFF		SUB R15, #$100
D864	FFFF		SUB R15, #$100
D866	FFFF		SUB R15, #$100
D868	FFFF		SUB R15, #$100
D86A	FFFF		SUB R15, #$100
D86C	FFFF		SUB R15, #$100
D86E	FFFF		SUB R15, #$100
D870	FFFF		SUB R15, #$100
D872	FFFF		SUB R15, #$100
D874	FFFF		SUB R15, #$100
D876	FFFF		SUB R15, #$100
D878	FFFF		SUB R15, #$100
D87A	FFFF		SUB R15, #$100
D87C	FFFF		SUB R15, #$100
D87E	FFFF		SUB R15, #$100
D880	FFFF		SUB R15, #$100
D882	FFFF		SUB R15, #$100
D884	FFFF		SUB R15, #$100
D886	FFFF		SUB R15, #$100
D888	FFFF		SUB R15, #$100
D88A	FFFF		SUB R15, #$100
D88C	FFFF		SUB R15, #$100
D88E	FFFF		SUB R15, #$100
D890	FFFF		SUB R15, #$100
D892	FFFF		SUB R15, #$100
D894	FFFF		SUB R15, #$100
D896	FFFF		SUB R15, #$100
D898	FFFF		SUB R15, #$100
D89A	FFFF		SUB R15, #$100
D89C	FFFF		SUB R15, #$100
D89E	FFFF		SUB R15, #$100
D8A0	FFFF		SUB R15, #$100
D8A2	FFFF		SUB R15, #$100
D8A4	FFFF		SUB R15, #$100
D8A6	FFFF		SUB R15, #$100
D8A8	FFFF		SUB R15, #$100
D8AA	FFFF		SUB R15, #$100
D8AC	FFFF		SUB R15, #$100
D8AE	FFFF		SUB R15, #$100
D8B0	FFFF		SUB R15, #$100
D8B2	FFFF		SUB R15, #$100
D8B4	FFFF		SUB R15, #$100
D8B6	FFFF		SUB R15, #$100
D8B8	FFFF		SUB R15, #$100
D8BA	FFFF		SUB R15, #$100
D8BC	FFFF		SUB R15, #$100
D8BE	FFFF		SUB R15, #$100
D8C0	FFFF		SUB R15, #$100
D8C2	FFFF		SUB R15, #$100
D8C4	FFFF		SUB R15, #$100
D8C6	FFFF		SUB R15, #$100
D8C8	FFFF		SUB R15, #$100
D8CA	FFFF		SUB R15, #$100
D8CC	FFFF		SUB R15, #$100
D8CE	FFFF		SUB R15, #$100
D8D0	FFFF		SUB R15, #$100
D8D2	FFFF		SUB R15, #$100
D8D4	FFFF		SUB R15, #$100
D8D6	FFFF		SUB R15, #$100
D8D8	FFFF		SUB R15, #$100
D8DA	FFFF		SUB R15, #$100
D8DC	FFFF		SUB R15, #$100
D8DE	FFFF		SUB R15, #$100
D8E0	FFFF		SUB R15, #$100
D8E2	FFFF		SUB R15, #$100
D8E4	FFFF		SUB R15, #$100
D8E6	FFFF		SUB R15, #$100
D8E8	FFFF		SUB R15, #$100
D8EA	FFFF		SUB R15, #$100
D8EC	FFFF		SUB R15, #$100
D8EE	FFFF		SUB R15, #$100
D8F0	FFFF		SUB R15, #$100
D8F2	FFFF		SUB R15, #$100
D8F4	FFFF		SUB R15, #$100
D8F6	FFFF		SUB R15, #$100
D8F8	FFFF		SUB R15, #$100
D8FA	FFFF		SUB R15, #$100
D8FC	FFFF		SUB R15, #$100
D8FE	FFFF		SUB R15, #$100
D900	FFFF		SUB R15, #$100
D902	FFFF		SUB R15, #$100
D904	FFFF		SUB R15, #$100
D906	FFFF		SUB R15, #$100
D908	FFFF		SUB R15, #$100
D90A	FFFF		SUB R15, #$100
D90C	FFFF		SUB R15, #$100
D90E	FFFF		SUB R15, #$100
D910	FFFF		SUB R15, #$100
D912	FFFF		SUB R15, #$100
D914	FFFF		SUB R15, #$100
D916	FFFF		SUB R15, #$100
D918	FFFF		SUB R15, #$100
D91A	FFFF		SUB R15, #$100
D91C	FFFF		SUB R15, #$100
D91E	FFFF		SUB R15, #$100
D920	FFFF		SUB R15, #$100
D922	FFFF		SUB R15, #$100
D924	FFFF		SUB R15, #$100
D926	FFFF		SUB R15, #$100
D928	FFFF		SUB R15, #$100
D92A	FFFF		SUB R15, #$100
D92C	FFFF		SUB R15, #$100
D92E	FFFF		SUB R15, #$100
D930	FFFF		SUB R15, #$100
D932	FFFF		SUB R15, #$100
D934	FFFF		SUB R15, #$100
D936	FFFF		SUB R15, #$100
D938	FFFF		SUB R15, #$100
D93A	FFFF		SUB R15, #$100
D93C	FFFF		SUB R15, #$100
D93E	FFFF		SUB R15, #$100
D940	FFFF		SUB R15, #$100
D942	FFFF		SUB R15, #$100
D944	FFFF		SUB R15, #$100
D946	FFFF		SUB R15, #$100
D948	FFFF		SUB R15, #$100
D94A	FFFF		SUB R15, #$100
D94C	FFFF		SUB R15, #$100
D94E	FFFF		SUB R15, #$100
D950	FFFF		SUB R15, #$100
D952	FFFF		SUB R15, #$100
D954	FFFF		SUB R15, #$100
D956	FFFF		SUB R15, #$100
D958	FFFF		SUB R15, #$100
D95A	FFFF		SUB R15, #$100
D95C	FFFF		SUB R15, #$100
D95E	FFFF		SUB R15, #$100
D960	FFFF		SUB R15, #$100
D962	FFFF		SUB R15, #$100
D964	FFFF		SUB R15, #$100
D966	FFFF		SUB R15, #$100
D968	FFFF		SUB R15, #$100
D96A	FFFF		SUB R15, #$100
D96C	FFFF		SUB R15, #$100
D96E	FFFF		SUB R15, #$100
D970	FFFF		SUB R15, #$100
D972	FFFF		SUB R15, #$100
D974	FFFF		SUB R15, #$100
D976	FFFF		SUB R15, #$100
D978	FFFF		SUB R15, #$100
D97A	FFFF		SUB R15, #$100
D97C	FFFF		SUB R15, #$100
D97E	FFFF		SUB R15, #$100
D980	FFFF		SUB R15, #$100
D982	FFFF		SUB R15, #$100
D984	FFFF		SUB R15, #$100
D986	FFFF		SUB R15, #$100
D988	FFFF		SUB R15, #$100
D98A	FFFF		SUB R15, #$100
D98C	FFFF		SUB R15, #$100
D98E	FFFF		SUB R15, #$100
D990	FFFF		SUB R15, #$100
D992	FFFF		SUB R15, #$100
D994	FFFF		SUB R15, #$100
D996	FFFF		SUB R15, #$100
D998	FFFF		SUB R15, #$100
D99A	FFFF		SUB R15, #$100
D99C	FFFF		SUB R15, #$100
D99E	FFFF		SUB R15, #$100
D9A0	FFFF		SUB R15, #$100
D9A2	FFFF		SUB R15, #$100
D9A4	FFFF		SUB R15, #$100
D9A6	FFFF		SUB R15, #$100
D9A8	FFFF		SUB R15, #$100
D9AA	FFFF		SUB R15, #$100
D9AC	FFFF		SUB R15, #$100
D9AE	FFFF		SUB R15, #$100
D9B0	FFFF		SUB R15, #$100
D9B2	FFFF		SUB R15, #$100
D9B4	FFFF		SUB R15, #$100
D9B6	FFFF		SUB R15, #$100
D9B8	FFFF		SUB R15, #$100
D9BA	FFFF		SUB R15, #$100
D9BC	FFFF		SUB R15, #$100
D9BE	FFFF		SUB R15, #$100
D9C0	FFFF		SUB R15, #$100
D9C2	FFFF		SUB R15, #$100
D9C4	FFFF		SUB R15, #$100
D9C6	FFFF		SUB R15, #$100
D9C8	FFFF		SUB R15, #$100
D9CA	FFFF		SUB R15, #$100
D9CC	FFFF		SUB R15, #$100
D9CE	FFFF		SUB R15, #$100
D9D0	FFFF		SUB R15, #$100
D9D2	FFFF		SUB R15, #$100
D9D4	FFFF		SUB R15, #$100
D9D6	FFFF		SUB R15, #$100
D9D8	FFFF		SUB R15, #$100
D9DA	FFFF		SUB R15, #$100
D9DC	FFFF		SUB R15, #$100
D9DE	FFFF		SUB R15, #$100
D9E0	FFFF		SUB R15, #$100
D9E2	FFFF		SUB R15, #$100
D9E4	FFFF		SUB R15, #$100
D9E6	FFFF		SUB R15, #$100
D9E8	FFFF		SUB R15, #$100
D9EA	FFFF		SUB R15, #$100
D9EC	FFFF		SUB R15, #$100
D9EE	FFFF		SUB R15, #$100
D9F0	FFFF		SUB R15, #$100
D9F2	FFFF		SUB R15, #$100
D9F4	FFFF		SUB R15, #$100
D9F6	FFFF		SUB R15, #$100
D9F8	FFFF		SUB R15, #$100
D9FA	FFFF		SUB R15, #$100
D9FC	FFFF		SUB R15, #$100
D9FE	FFFF		SUB R15, #$100
DA00	FFFF		SUB R15, #$100
DA02	FFFF		SUB R15, #$100
DA04	FFFF		SUB R15, #$100
DA06	FFFF		SUB R15, #$100
DA08	FFFF		SUB R15, #$100
DA0A	FFFF		SUB R15, #$100
DA0C	FFFF		SUB R15, #$100
DA0E	FFFF		SUB R15, #$100
DA10	FFFF		SUB R15, #$100
DA12	FFFF		SUB R15, #$100
DA14	FFFF		SUB R15, #$100
DA16	FFFF		SUB R15, #$100
DA18	FFFF		SUB R15, #$100
DA1A	FFFF		SUB R15, #$100
DA1C	FFFF		SUB R15, #$100
DA1E	FFFF		SUB R15, #$100
DA20	FFFF		SUB R15, #$100
DA22	FFFF		SUB R15, #$100
DA24	FFFF		SUB R15, #$100
DA26	FFFF		SUB R15, #$100
DA28	FFFF		SUB R15, #$100
DA2A	FFFF		SUB R15, #$100
DA2C	FFFF		SUB R15, #$100
DA2E	FFFF		SUB R15, #$100
DA30	FFFF		SUB R15, #$100
DA32	FFFF		SUB R15, #$100
DA34	FFFF		SUB R15, #$100
DA36	FFFF		SUB R15, #$100
DA38	FFFF		SUB R15, #$100
DA3A	FFFF		SUB R15, #$100
DA3C	FFFF		SUB R15, #$100
DA3E	FFFF		SUB R15, #$100
DA40	FFFF		SUB R15, #$100
DA42	FFFF		SUB R15, #$100
DA44	FFFF		SUB R15, #$100
DA46	FFFF		SUB R15, #$100
DA48	FFFF		SUB R15, #$100
DA4A	FFFF		SUB R15, #$100
DA4C	FFFF		SUB R15, #$100
DA4E	FFFF		SUB R15, #$100
DA50	FFFF		SUB R15, #$100
DA52	FFFF		SUB R15, #$100
DA54	FFFF		SUB R15, #$100
DA56	FFFF		SUB R15, #$100
DA58	FFFF		SUB R15, #$100
DA5A	FFFF		SUB R15, #$100
DA5C	FFFF		SUB R15, #$100
DA5E	FFFF		SUB R15, #$100
DA60	FFFF		SUB R15, #$100
DA62	FFFF		SUB R15, #$100
DA64	FFFF		SUB R15, #$100
DA66	FFFF		SUB R15, #$100
DA68	FFFF		SUB R15, #$100
DA6A	FFFF		SUB R15, #$100
DA6C	FFFF		SUB R15, #$100
DA6E	FFFF		SUB R15, #$100
DA70	FFFF		SUB R15, #$100
DA72	FFFF		SUB R15, #$100
DA74	FFFF		SUB R15, #$100
DA76	FFFF		SUB R15, #$100
DA78	FFFF		SUB R15, #$100
DA7A	FFFF		SUB R15, #$100
DA7C	FFFF		SUB R15, #$100
DA7E	FFFF		SUB R15, #$100
DA80	FFFF		SUB R15, #$100
DA82	FFFF		SUB R15, #$100
DA84	FFFF		SUB R15, #$100
DA86	FFFF		SUB R15, #$100
DA88	FFFF		SUB R15, #$100
DA8A	FFFF		SUB R15, #$100
DA8C	FFFF		SUB R15, #$100
DA8E	FFFF		SUB R15, #$100
DA90	FFFF		SUB R15, #$100
DA92	FFFF		SUB R15, #$100
DA94	FFFF		SUB R15, #$100
DA96	FFFF		SUB R15, #$100
DA98	FFFF		SUB R15, #$100
DA9A	FFFF		SUB R15, #$100
DA9C	FFFF		SUB R15, #$100
DA9E	FFFF		SUB R15, #$100
DAA0	FFFF		SUB R15, #$100
DAA2	FFFF		SUB R15, #$100
DAA4	FFFF		SUB R15, #$100
DAA6	FFFF		SUB R15, #$100
DAA8	FFFF		SUB R15, #$100
DAAA	FFFF		SUB R15, #$100
DAAC	FFFF		SUB R15, #$100
DAAE	FFFF		SUB R15, #$100
DAB0	FFFF		SUB R15, #$100
DAB2	FFFF		SUB R15, #$100
DAB4	FFFF		SUB R15, #$100
DAB6	FFFF		SUB R15, #$100
DAB8	FFFF		SUB R15, #$100
DABA	FFFF		SUB R15, #$100
DABC	FFFF		SUB R15, #$100
DABE	FFFF		SUB R15, #$100
DAC0	FFFF		SUB R15, #$100
DAC2	FFFF		SUB R15, #$100
DAC4	FFFF		SUB R15, #$100
DAC6	FFFF		SUB R15, #$100
DAC8	FFFF		SUB R15, #$100
DACA	FFFF		SUB R15, #$100
DACC	FFFF		SUB R15, #$100
DACE	FFFF		SUB R15, #$100
DAD0	FFFF		SUB R15, #$100
DAD2	FFFF		SUB R15, #$100
DAD4	FFFF		SUB R15, #$100
DAD6	FFFF		SUB R15, #$100
DAD8	FFFF		SUB R15, #$100
DADA	FFFF		SUB R15, #$100
DADC	FFFF		SUB R15, #$100
DADE	FFFF		SUB R15, #$100
DAE0	FFFF		SUB R15, #$100
DAE2	FFFF		SUB R15, #$100
DAE4	FFFF		SUB R15, #$100
DAE6	FFFF		SUB R15, #$100
DAE8	FFFF		SUB R15, #$100
DAEA	FFFF		SUB R15, #$100
DAEC	FFFF		SUB R15, #$100
DAEE	FFFF		SUB R15, #$100
DAF0	FFFF		SUB R15, #$100
DAF2	FFFF		SUB R15, #$100
DAF4	FFFF		SUB R15, #$100
DAF6	FFFF		SUB R15, #$100
DAF8	FFFF		SUB R15, #$100
DAFA	FFFF		SUB R15, #$100
DAFC	FFFF		SUB R15, #$100
DAFE	FFFF		SUB R15, #$100
DB00	FFFF		SUB R15, #$100
DB02	FFFF		SUB R15, #$100
DB04	FFFF		SUB R15, #$100
DB06	FFFF		SUB R15, #$100
DB08	FFFF		SUB R15, #$100
DB0A	FFFF		SUB R15, #$100
DB0C	FFFF		SUB R15, #$100
DB0E	FFFF		SUB R15, #$100
DB10	FFFF		SUB R15, #$100
DB12	FFFF		SUB R15, #$100
DB14	FFFF		SUB R15, #$100
DB16	FFFF		SUB R15, #$100
DB18	FFFF		SUB R15, #$100
DB1A	FFFF		SUB R15, #$100
DB1C	FFFF		SUB R15, #$100
DB1E	FFFF		SUB R15, #$100
DB20	FFFF		SUB R15, #$100
DB22	FFFF		SUB R15, #$100
DB24	FFFF		SUB R15, #$100
DB26	FFFF		SUB R15, #$100
DB28	FFFF		SUB R15, #$100
DB2A	FFFF		SUB R15, #$100
DB2C	FFFF		SUB R15, #$100
DB2E	FFFF		SUB R15, #$100
DB30	FFFF		SUB R15, #$100
DB32	FFFF		SUB R15, #$100
DB34	FFFF		SUB R15, #$100
DB36	FFFF		SUB R15, #$100
DB38	FFFF		SUB R15, #$100
DB3A	FFFF		SUB R15, #$100
DB3C	FFFF		SUB R15, #$100
DB3E	FFFF		SUB R15, #$100
DB40	FFFF		SUB R15, #$100
DB42	FFFF		SUB R15, #$100
DB44	FFFF		SUB R15, #$100
DB46	FFFF		SUB R15, #$100
DB48	FFFF		SUB R15, #$100
DB4A	FFFF		SUB R15, #$100
DB4C	FFFF		SUB R15, #$100
DB4E	FFFF		SUB R15, #$100
DB50	FFFF		SUB R15, #$100
DB52	FFFF		SUB R15, #$100
DB54	FFFF		SUB R15, #$100
DB56	FFFF		SUB R15, #$100
DB58	FFFF		SUB R15, #$100
DB5A	FFFF		SUB R15, #$100
DB5C	FFFF		SUB R15, #$100
DB5E	FFFF		SUB R15, #$100
DB60	FFFF		SUB R15, #$100
DB62	FFFF		SUB R15, #$100
DB64	FFFF		SUB R15, #$100
DB66	FFFF		SUB R15, #$100
DB68	FFFF		SUB R15, #$100
DB6A	FFFF		SUB R15, #$100
DB6C	FFFF		SUB R15, #$100
DB6E	FFFF		SUB R15, #$100
DB70	FFFF		SUB R15, #$100
DB72	FFFF		SUB R15, #$100
DB74	FFFF		SUB R15, #$100
DB76	FFFF		SUB R15, #$100
DB78	FFFF		SUB R15, #$100
DB7A	FFFF		SUB R15, #$100
DB7C	FFFF		SUB R15, #$100
DB7E	FFFF		SUB R15, #$100
DB80	FFFF		SUB R15, #$100
DB82	FFFF		SUB R15, #$100
DB84	FFFF		SUB R15, #$100
DB86	FFFF		SUB R15, #$100
DB88	FFFF		SUB R15, #$100
DB8A	FFFF		SUB R15, #$100
DB8C	FFFF		SUB R15, #$100
DB8E	FFFF		SUB R15, #$100
DB90	FFFF		SUB R15, #$100
DB92	FFFF		SUB R15, #$100
DB94	FFFF		SUB R15, #$100
DB96	FFFF		SUB R15, #$100
DB98	FFFF		SUB R15, #$100
DB9A	FFFF		SUB R15, #$100
DB9C	FFFF		SUB R15, #$100
DB9E	FFFF		SUB R15, #$100
DBA0	FFFF		SUB R15, #$100
DBA2	FFFF		SUB R15, #$100
DBA4	FFFF		SUB R15, #$100
DBA6	FFFF		SUB R15, #$100
DBA8	FFFF		SUB R15, #$100
DBAA	FFFF		SUB R15, #$100
DBAC	FFFF		SUB R15, #$100
DBAE	FFFF		SUB R15, #$100
DBB0	FFFF		SUB R15, #$100
DBB2	FFFF		SUB R15, #$100
DBB4	FFFF		SUB R15, #$100
DBB6	FFFF		SUB R15, #$100
DBB8	FFFF		SUB R15, #$100
DBBA	FFFF		SUB R15, #$100
DBBC	FFFF		SUB R15, #$100
DBBE	FFFF		SUB R15, #$100
DBC0	FFFF		SUB R15, #$100
DBC2	FFFF		SUB R15, #$100
DBC4	FFFF		SUB R15, #$100
DBC6	FFFF		SUB R15, #$100
DBC8	FFFF		SUB R15, #$100
DBCA	FFFF		SUB R15, #$100
DBCC	FFFF		SUB R15, #$100
DBCE	FFFF		SUB R15, #$100
DBD0	FFFF		SUB R15, #$100
DBD2	FFFF		SUB R15, #$100
DBD4	FFFF		SUB R15, #$100
DBD6	FFFF		SUB R15, #$100
DBD8	FFFF		SUB R15, #$100
DBDA	FFFF		SUB R15, #$100
DBDC	FFFF		SUB R15, #$100
DBDE	FFFF		SUB R15, #$100
DBE0	FFFF		SUB R15, #$100
DBE2	FFFF		SUB R15, #$100
DBE4	FFFF		SUB R15, #$100
DBE6	FFFF		SUB R15, #$100
DBE8	FFFF		SUB R15, #$100
DBEA	FFFF		SUB R15, #$100
DBEC	FFFF		SUB R15, #$100
DBEE	FFFF		SUB R15, #$100
DBF0	FFFF		SUB R15, #$100
DBF2	FFFF		SUB R15, #$100
DBF4	FFFF		SUB R15, #$100
DBF6	FFFF		SUB R15, #$100
DBF8	FFFF		SUB R15, #$100
DBFA	FFFF		SUB R15, #$100
DBFC	FFFF		SUB R15, #$100
DBFE	FFFF		SUB R15, #$100
DC00	FFFF		SUB R15, #$100
DC02	FFFF		SUB R15, #$100
DC04	FFFF		SUB R15, #$100
DC06	FFFF		SUB R15, #$100
DC08	FFFF		SUB R15, #$100
DC0A	FFFF		SUB R15, #$100
DC0C	FFFF		SUB R15, #$100
DC0E	FFFF		SUB R15, #$100
DC10	FFFF		SUB R15, #$100
DC12	FFFF		SUB R15, #$100
DC14	FFFF		SUB R15, #$100
DC16	FFFF		SUB R15, #$100
DC18	FFFF		SUB R15, #$100
DC1A	FFFF		SUB R15, #$100
DC1C	FFFF		SUB R15, #$100
DC1E	FFFF		SUB R15, #$100
DC20	FFFF		SUB R15, #$100
DC22	FFFF		SUB R15, #$100
DC24	FFFF		SUB R15, #$100
DC26	FFFF		SUB R15, #$100
DC28	FFFF		SUB R15, #$100
DC2A	FFFF		SUB R15, #$100
DC2C	FFFF		SUB R15, #$100
DC2E	FFFF		SUB R15, #$100
DC30	FFFF		SUB R15, #$100
DC32	FFFF		SUB R15, #$100
DC34	FFFF		SUB R15, #$100
DC36	FFFF		SUB R15, #$100
DC38	FFFF		SUB R15, #$100
DC3A	FFFF		SUB R15, #$100
DC3C	FFFF		SUB R15, #$100
DC3E	FFFF		SUB R15, #$100
DC40	FFFF		SUB R15, #$100
DC42	FFFF		SUB R15, #$100
DC44	FFFF		SUB R15, #$100
DC46	FFFF		SUB R15, #$100
DC48	FFFF		SUB R15, #$100
DC4A	FFFF		SUB R15, #$100
DC4C	FFFF		SUB R15, #$100
DC4E	FFFF		SUB R15, #$100
DC50	FFFF		SUB R15, #$100
DC52	FFFF		SUB R15, #$100
DC54	FFFF		SUB R15, #$100
DC56	FFFF		SUB R15, #$100
DC58	FFFF		SUB R15, #$100
DC5A	FFFF		SUB R15, #$100
DC5C	FFFF		SUB R15, #$100
DC5E	FFFF		SUB R15, #$100
DC60	FFFF		SUB R15, #$100
DC62	FFFF		SUB R15, #$100
DC64	FFFF		SUB R15, #$100
DC66	FFFF		SUB R15, #$100
DC68	FFFF		SUB R15, #$100
DC6A	FFFF		SUB R15, #$100
DC6C	FFFF		SUB R15, #$100
DC6E	FFFF		SUB R15, #$100
DC70	FFFF		SUB R15, #$100
DC72	FFFF		SUB R15, #$100
DC74	FFFF		SUB R15, #$100
DC76	FFFF		SUB R15, #$100
DC78	FFFF		SUB R15, #$100
DC7A	FFFF		SUB R15, #$100
DC7C	FFFF		SUB R15, #$100
DC7E	FFFF		SUB R15, #$100
DC80	FFFF		SUB R15, #$100
DC82	FFFF		SUB R15, #$100
DC84	FFFF		SUB R15, #$100
DC86	FFFF		SUB R15, #$100
DC88	FFFF		SUB R15, #$100
DC8A	FFFF		SUB R15, #$100
DC8C	FFFF		SUB R15, #$100
DC8E	FFFF		SUB R15, #$100
DC90	FFFF		SUB R15, #$100
DC92	FFFF		SUB R15, #$100
DC94	FFFF		SUB R15, #$100
DC96	FFFF		SUB R15, #$100
DC98	FFFF		SUB R15, #$100
DC9A	FFFF		SUB R15, #$100
DC9C	FFFF		SUB R15, #$100
DC9E	FFFF		SUB R15, #$100
DCA0	FFFF		SUB R15, #$100
DCA2	FFFF		SUB R15, #$100
DCA4	FFFF		SUB R15, #$100
DCA6	FFFF		SUB R15, #$100
DCA8	FFFF		SUB R15, #$100
DCAA	FFFF		SUB R15, #$100
DCAC	FFFF		SUB R15, #$100
DCAE	FFFF		SUB R15, #$100
DCB0	FFFF		SUB R15, #$100
DCB2	FFFF		SUB R15, #$100
DCB4	FFFF		SUB R15, #$100
DCB6	FFFF		SUB R15, #$100
DCB8	FFFF		SUB R15, #$100
DCBA	FFFF		SUB R15, #$100
DCBC	FFFF		SUB R15, #$100
DCBE	FFFF		SUB R15, #$100
DCC0	FFFF		SUB R15, #$100
DCC2	FFFF		SUB R15, #$100
DCC4	FFFF		SUB R15, #$100
DCC6	FFFF		SUB R15, #$100
DCC8	FFFF		SUB R15, #$100
DCCA	FFFF		SUB R15, #$100
DCCC	FFFF		SUB R15, #$100
DCCE	FFFF		SUB R15, #$100
DCD0	FFFF		SUB R15, #$100
DCD2	FFFF		SUB R15, #$100
DCD4	FFFF		SUB R15, #$100
DCD6	FFFF		SUB R15, #$100
DCD8	FFFF		SUB R15, #$100
DCDA	FFFF		SUB R15, #$100
DCDC	FFFF		SUB R15, #$100
DCDE	FFFF		SUB R15, #$100
DCE0	FFFF		SUB R15, #$100
DCE2	FFFF		SUB R15, #$100
DCE4	FFFF		SUB R15, #$100
DCE6	FFFF		SUB R15, #$100
DCE8	FFFF		SUB R15, #$100
DCEA	FFFF		SUB R15, #$100
DCEC	FFFF		SUB R15, #$100
DCEE	FFFF		SUB R15, #$100
DCF0	FFFF		SUB R15, #$100
DCF2	FFFF		SUB R15, #$100
DCF4	FFFF		SUB R15, #$100
DCF6	FFFF		SUB R15, #$100
DCF8	FFFF		SUB R15, #$100
DCFA	FFFF		SUB R15, #$100
DCFC	FFFF		SUB R15, #$100
DCFE	FFFF		SUB R15, #$100
DD00	FFFF		SUB R15, #$100
DD02	FFFF		SUB R15, #$100
DD04	FFFF		SUB R15, #$100
DD06	FFFF		SUB R15, #$100
DD08	FFFF		SUB R15, #$100
DD0A	FFFF		SUB R15, #$100
DD0C	FFFF		SUB R15, #$100
DD0E	FFFF		SUB R15, #$100
DD10	FFFF		SUB R15, #$100
DD12	FFFF		SUB R15, #$100
DD14	FFFF		SUB R15, #$100
DD16	FFFF		SUB R15, #$100
DD18	FFFF		SUB R15, #$100
DD1A	FFFF		SUB R15, #$100
DD1C	FFFF		SUB R15, #$100
DD1E	FFFF		SUB R15, #$100
DD20	FFFF		SUB R15, #$100
DD22	FFFF		SUB R15, #$100
DD24	FFFF		SUB R15, #$100
DD26	FFFF		SUB R15, #$100
DD28	FFFF		SUB R15, #$100
DD2A	FFFF		SUB R15, #$100
DD2C	FFFF		SUB R15, #$100
DD2E	FFFF		SUB R15, #$100
DD30	FFFF		SUB R15, #$100
DD32	FFFF		SUB R15, #$100
DD34	FFFF		SUB R15, #$100
DD36	FFFF		SUB R15, #$100
DD38	FFFF		SUB R15, #$100
DD3A	FFFF		SUB R15, #$100
DD3C	FFFF		SUB R15, #$100
DD3E	FFFF		SUB R15, #$100
DD40	FFFF		SUB R15, #$100
DD42	FFFF		SUB R15, #$100
DD44	FFFF		SUB R15, #$100
DD46	FFFF		SUB R15, #$100
DD48	FFFF		SUB R15, #$100
DD4A	FFFF		SUB R15, #$100
DD4C	FFFF		SUB R15, #$100
DD4E	FFFF		SUB R15, #$100
DD50	FFFF		SUB R15, #$100
DD52	FFFF		SUB R15, #$100
DD54	FFFF		SUB R15, #$100
DD56	FFFF		SUB R15, #$100
DD58	FFFF		SUB R15, #$100
DD5A	FFFF		SUB R15, #$100
DD5C	FFFF		SUB R15, #$100
DD5E	FFFF		SUB R15, #$100
DD60	FFFF		SUB R15, #$100
DD62	FFFF		SUB R15, #$100
DD64	FFFF		SUB R15, #$100
DD66	FFFF		SUB R15, #$100
DD68	FFFF		SUB R15, #$100
DD6A	FFFF		SUB R15, #$100
DD6C	FFFF		SUB R15, #$100
DD6E	FFFF		SUB R15, #$100
DD70	FFFF		SUB R15, #$100
DD72	FFFF		SUB R15, #$100
DD74	FFFF		SUB R15, #$100
DD76	FFFF		SUB R15, #$100
DD78	FFFF		SUB R15, #$100
DD7A	FFFF		SUB R15, #$100
DD7C	FFFF		SUB R15, #$100
DD7E	FFFF		SUB R15, #$100
DD80	FFFF		SUB R15, #$100
DD82	FFFF		SUB R15, #$100
DD84	FFFF		SUB R15, #$100
DD86	FFFF		SUB R15, #$100
DD88	FFFF		SUB R15, #$100
DD8A	FFFF		SUB R15, #$100
DD8C	FFFF		SUB R15, #$100
DD8E	FFFF		SUB R15, #$100
DD90	FFFF		SUB R15, #$100
DD92	FFFF		SUB R15, #$100
DD94	FFFF		SUB R15, #$100
DD96	FFFF		SUB R15, #$100
DD98	FFFF		SUB R15, #$100
DD9A	FFFF		SUB R15, #$100
DD9C	FFFF		SUB R15, #$100
DD9E	FFFF		SUB R15, #$100
DDA0	FFFF		SUB R15, #$100
DDA2	FFFF		SUB R15, #$100
DDA4	FFFF		SUB R15, #$100
DDA6	FFFF		SUB R15, #$100
DDA8	FFFF		SUB R15, #$100
DDAA	FFFF		SUB R15, #$100
DDAC	FFFF		SUB R15, #$100
DDAE	FFFF		SUB R15, #$100
DDB0	FFFF		SUB R15, #$100
DDB2	FFFF		SUB R15, #$100
DDB4	FFFF		SUB R15, #$100
DDB6	FFFF		SUB R15, #$100
DDB8	FFFF		SUB R15, #$100
DDBA	FFFF		SUB R15, #$100
DDBC	FFFF		SUB R15, #$100
DDBE	FFFF		SUB R15, #$100
DDC0	FFFF		SUB R15, #$100
DDC2	FFFF		SUB R15, #$100
DDC4	FFFF		SUB R15, #$100
DDC6	FFFF		SUB R15, #$100
DDC8	FFFF		SUB R15, #$100
DDCA	FFFF		SUB R15, #$100
DDCC	FFFF		SUB R15, #$100
DDCE	FFFF		SUB R15, #$100
DDD0	FFFF		SUB R15, #$100
DDD2	FFFF		SUB R15, #$100
DDD4	FFFF		SUB R15, #$100
DDD6	FFFF		SUB R15, #$100
DDD8	FFFF		SUB R15, #$100
DDDA	FFFF		SUB R15, #$100
DDDC	FFFF		SUB R15, #$100
DDDE	FFFF		SUB R15, #$100
DDE0	FFFF		SUB R15, #$100
DDE2	FFFF		SUB R15, #$100
DDE4	FFFF		SUB R15, #$100
DDE6	FFFF		SUB R15, #$100
DDE8	FFFF		SUB R15, #$100
DDEA	FFFF		SUB R15, #$100
DDEC	FFFF		SUB R15, #$100
DDEE	FFFF		SUB R15, #$100
DDF0	FFFF		SUB R15, #$100
DDF2	FFFF		SUB R15, #$100
DDF4	FFFF		SUB R15, #$100
DDF6	FFFF		SUB R15, #$100
DDF8	FFFF		SUB R15, #$100
DDFA	FFFF		SUB R15, #$100
DDFC	FFFF		SUB R15, #$100
DDFE	FFFF		SUB R15, #$100
DE00	FFFF		SUB R15, #$100
DE02	FFFF		SUB R15, #$100
DE04	FFFF		SUB R15, #$100
DE06	FFFF		SUB R15, #$100
DE08	FFFF		SUB R15, #$100
DE0A	FFFF		SUB R15, #$100
DE0C	FFFF		SUB R15, #$100
DE0E	FFFF		SUB R15, #$100
DE10	FFFF		SUB R15, #$100
DE12	FFFF		SUB R15, #$100
DE14	FFFF		SUB R15, #$100
DE16	FFFF		SUB R15, #$100
DE18	FFFF		SUB R15, #$100
DE1A	FFFF		SUB R15, #$100
DE1C	FFFF		SUB R15, #$100
DE1E	FFFF		SUB R15, #$100
DE20	FFFF		SUB R15, #$100
DE22	FFFF		SUB R15, #$100
DE24	FFFF		SUB R15, #$100
DE26	FFFF		SUB R15, #$100
DE28	FFFF		SUB R15, #$100
DE2A	FFFF		SUB R15, #$100
DE2C	FFFF		SUB R15, #$100
DE2E	FFFF		SUB R15, #$100
DE30	FFFF		SUB R15, #$100
DE32	FFFF		SUB R15, #$100
DE34	FFFF		SUB R15, #$100
DE36	FFFF		SUB R15, #$100
DE38	FFFF		SUB R15, #$100
DE3A	FFFF		SUB R15, #$100
DE3C	FFFF		SUB R15, #$100
DE3E	FFFF		SUB R15, #$100
DE40	FFFF		SUB R15, #$100
DE42	FFFF		SUB R15, #$100
DE44	FFFF		SUB R15, #$100
DE46	FFFF		SUB R15, #$100
DE48	FFFF		SUB R15, #$100
DE4A	FFFF		SUB R15, #$100
DE4C	FFFF		SUB R15, #$100
DE4E	FFFF		SUB R15, #$100
DE50	FFFF		SUB R15, #$100
DE52	FFFF		SUB R15, #$100
DE54	FFFF		SUB R15, #$100
DE56	FFFF		SUB R15, #$100
DE58	FFFF		SUB R15, #$100
DE5A	FFFF		SUB R15, #$100
DE5C	FFFF		SUB R15, #$100
DE5E	FFFF		SUB R15, #$100
DE60	FFFF		SUB R15, #$100
DE62	FFFF		SUB R15, #$100
DE64	FFFF		SUB R15, #$100
DE66	FFFF		SUB R15, #$100
DE68	FFFF		SUB R15, #$100
DE6A	FFFF		SUB R15, #$100
DE6C	FFFF		SUB R15, #$100
DE6E	FFFF		SUB R15, #$100
DE70	FFFF		SUB R15, #$100
DE72	FFFF		SUB R15, #$100
DE74	FFFF		SUB R15, #$100
DE76	FFFF		SUB R15, #$100
DE78	FFFF		SUB R15, #$100
DE7A	FFFF		SUB R15, #$100
DE7C	FFFF		SUB R15, #$100
DE7E	FFFF		SUB R15, #$100
DE80	FFFF		SUB R15, #$100
DE82	FFFF		SUB R15, #$100
DE84	FFFF		SUB R15, #$100
DE86	FFFF		SUB R15, #$100
DE88	FFFF		SUB R15, #$100
DE8A	FFFF		SUB R15, #$100
DE8C	FFFF		SUB R15, #$100
DE8E	FFFF		SUB R15, #$100
DE90	FFFF		SUB R15, #$100
DE92	FFFF		SUB R15, #$100
DE94	FFFF		SUB R15, #$100
DE96	FFFF		SUB R15, #$100
DE98	FFFF		SUB R15, #$100
DE9A	FFFF		SUB R15, #$100
DE9C	FFFF		SUB R15, #$100
DE9E	FFFF		SUB R15, #$100
DEA0	FFFF		SUB R15, #$100
DEA2	FFFF		SUB R15, #$100
DEA4	FFFF		SUB R15, #$100
DEA6	FFFF		SUB R15, #$100
DEA8	FFFF		SUB R15, #$100
DEAA	FFFF		SUB R15, #$100
DEAC	FFFF		SUB R15, #$100
DEAE	FFFF		SUB R15, #$100
DEB0	FFFF		SUB R15, #$100
DEB2	FFFF		SUB R15, #$100
DEB4	FFFF		SUB R15, #$100
DEB6	FFFF		SUB R15, #$100
DEB8	FFFF		SUB R15, #$100
DEBA	FFFF		SUB R15, #$100
DEBC	FFFF		SUB R15, #$100
DEBE	FFFF		SUB R15, #$100
DEC0	FFFF		SUB R15, #$100
DEC2	FFFF		SUB R15, #$100
DEC4	FFFF		SUB R15, #$100
DEC6	FFFF		SUB R15, #$100
DEC8	FFFF		SUB R15, #$100
DECA	FFFF		SUB R15, #$100
DECC	FFFF		SUB R15, #$100
DECE	FFFF		SUB R15, #$100
DED0	FFFF		SUB R15, #$100
DED2	FFFF		SUB R15, #$100
DED4	FFFF		SUB R15, #$100
DED6	FFFF		SUB R15, #$100
DED8	FFFF		SUB R15, #$100
DEDA	FFFF		SUB R15, #$100
DEDC	FFFF		SUB R15, #$100
DEDE	FFFF		SUB R15, #$100
DEE0	FFFF		SUB R15, #$100
DEE2	FFFF		SUB R15, #$100
DEE4	FFFF		SUB R15, #$100
DEE6	FFFF		SUB R15, #$100
DEE8	FFFF		SUB R15, #$100
DEEA	FFFF		SUB R15, #$100
DEEC	FFFF		SUB R15, #$100
DEEE	FFFF		SUB R15, #$100
DEF0	FFFF		SUB R15, #$100
DEF2	FFFF		SUB R15, #$100
DEF4	FFFF		SUB R15, #$100
DEF6	FFFF		SUB R15, #$100
DEF8	FFFF		SUB R15, #$100
DEFA	FFFF		SUB R15, #$100
DEFC	FFFF		SUB R15, #$100
DEFE	FFFF		SUB R15, #$100
DF00	FFFF		SUB R15, #$100
DF02	FFFF		SUB R15, #$100
DF04	FFFF		SUB R15, #$100
DF06	FFFF		SUB R15, #$100
DF08	FFFF		SUB R15, #$100
DF0A	FFFF		SUB R15, #$100
DF0C	FFFF		SUB R15, #$100
DF0E	FFFF		SUB R15, #$100
DF10	FFFF		SUB R15, #$100
DF12	FFFF		SUB R15, #$100
DF14	FFFF		SUB R15, #$100
DF16	FFFF		SUB R15, #$100
DF18	FFFF		SUB R15, #$100
DF1A	FFFF		SUB R15, #$100
DF1C	FFFF		SUB R15, #$100
DF1E	FFFF		SUB R15, #$100
DF20	FFFF		SUB R15, #$100
DF22	FFFF		SUB R15, #$100
DF24	FFFF		SUB R15, #$100
DF26	FFFF		SUB R15, #$100
DF28	FFFF		SUB R15, #$100
DF2A	FFFF		SUB R15, #$100
DF2C	FFFF		SUB R15, #$100
DF2E	FFFF		SUB R15, #$100
DF30	FFFF		SUB R15, #$100
DF32	FFFF		SUB R15, #$100
DF34	FFFF		SUB R15, #$100
DF36	FFFF		SUB R15, #$100
DF38	FFFF		SUB R15, #$100
DF3A	FFFF		SUB R15, #$100
DF3C	FFFF		SUB R15, #$100
DF3E	FFFF		SUB R15, #$100
DF40	FFFF		SUB R15, #$100
DF42	FFFF		SUB R15, #$100
DF44	FFFF		SUB R15, #$100
DF46	FFFF		SUB R15, #$100
DF48	FFFF		SUB R15, #$100
DF4A	FFFF		SUB R15, #$100
DF4C	FFFF		SUB R15, #$100
DF4E	FFFF		SUB R15, #$100
DF50	FFFF		SUB R15, #$100
DF52	FFFF		SUB R15, #$100
DF54	FFFF		SUB R15, #$100
DF56	FFFF		SUB R15, #$100
DF58	FFFF		SUB R15, #$100
DF5A	FFFF		SUB R15, #$100
DF5C	FFFF		SUB R15, #$100
DF5E	FFFF		SUB R15, #$100
DF60	FFFF		SUB R15, #$100
DF62	FFFF		SUB R15, #$100
DF64	FFFF		SUB R15, #$100
DF66	FFFF		SUB R15, #$100
DF68	FFFF		SUB R15, #$100
DF6A	FFFF		SUB R15, #$100
DF6C	FFFF		SUB R15, #$100
DF6E	FFFF		SUB R15, #$100
DF70	FFFF		SUB R15, #$100
DF72	FFFF		SUB R15, #$100
DF74	FFFF		SUB R15, #$100
DF76	FFFF		SUB R15, #$100
DF78	FFFF		SUB R15, #$100
DF7A	FFFF		SUB R15, #$100
DF7C	FFFF		SUB R15, #$100
DF7E	FFFF		SUB R15, #$100
DF80	FFFF		SUB R15, #$100
DF82	FFFF		SUB R15, #$100
DF84	FFFF		SUB R15, #$100
DF86	FFFF		SUB R15, #$100
DF88	FFFF		SUB R15, #$100
DF8A	FFFF		SUB R15, #$100
DF8C	FFFF		SUB R15, #$100
DF8E	FFFF		SUB R15, #$100
DF90	FFFF		SUB R15, #$100
DF92	FFFF		SUB R15, #$100
DF94	FFFF		SUB R15, #$100
DF96	FFFF		SUB R15, #$100
DF98	FFFF		SUB R15, #$100
DF9A	FFFF		SUB R15, #$100
DF9C	FFFF		SUB R15, #$100
DF9E	FFFF		SUB R15, #$100
DFA0	FFFF		SUB R15, #$100
DFA2	FFFF		SUB R15, #$100
DFA4	FFFF		SUB R15, #$100
DFA6	FFFF		SUB R15, #$100
DFA8	FFFF		SUB R15, #$100
DFAA	FFFF		SUB R15, #$100
DFAC	FFFF		SUB R15, #$100
DFAE	FFFF		SUB R15, #$100
DFB0	FFFF		SUB R15, #$100
DFB2	FFFF		SUB R15, #$100
DFB4	FFFF		SUB R15, #$100
DFB6	FFFF		SUB R15, #$100
DFB8	FFFF		SUB R15, #$100
DFBA	FFFF		SUB R15, #$100
DFBC	FFFF		SUB R15, #$100
DFBE	FFFF		SUB R15, #$100
DFC0	FFFF		SUB R15, #$100
DFC2	FFFF		SUB R15, #$100
DFC4	FFFF		SUB R15, #$100
DFC6	FFFF		SUB R15, #$100
DFC8	FFFF		SUB R15, #$100
DFCA	FFFF		SUB R15, #$100
DFCC	FFFF		SUB R15, #$100
DFCE	FFFF		SUB R15, #$100
DFD0	FFFF		SUB R15, #$100
DFD2	FFFF		SUB R15, #$100
DFD4	FFFF		SUB R15, #$100
DFD6	FFFF		SUB R15, #$100
DFD8	FFFF		SUB R15, #$100
DFDA	FFFF		SUB R15, #$100
DFDC	FFFF		SUB R15, #$100
DFDE	FFFF		SUB R15, #$100
DFE0	FFFF		SUB R15, #$100
DFE2	FFFF		SUB R15, #$100
DFE4	FFFF		SUB R15, #$100
DFE6	FFFF		SUB R15, #$100
DFE8	FFFF		SUB R15, #$100
DFEA	FFFF		SUB R15, #$100
DFEC	FFFF		SUB R15, #$100
DFEE	FFFF		SUB R15, #$100
DFF0	FFFF		SUB R15, #$100
DFF2	FFFF		SUB R15, #$100
DFF4	FFFF		SUB R15, #$100
DFF6	FFFF		SUB R15, #$100
DFF8	FFFF		SUB R15, #$100
DFFA	FFFF		SUB R15, #$100
DFFC	FFFF		SUB R15, #$100
DFFE	FFFF		SUB R15, #$100
E000	FFFF		SUB R15, #$100
E002	FFFF		SUB R15, #$100
E004	FFFF		SUB R15, #$100
E006	FFFF		SUB R15, #$100
E008	FFFF		SUB R15, #$100
E00A	FFFF		SUB R15, #$100
E00C	FFFF		SUB R15, #$100
E00E	FFFF		SUB R15, #$100
E010	FFFF		SUB R15, #$100
E012	FFFF		SUB R15, #$100
E014	FFFF		SUB R15, #$100
E016	FFFF		SUB R15, #$100
E018	FFFF		SUB R15, #$100
E01A	FFFF		SUB R15, #$100
E01C	FFFF		SUB R15, #$100
E01E	FFFF		SUB R15, #$100
E020	FFFF		SUB R15, #$100
E022	FFFF		SUB R15, #$100
E024	FFFF		SUB R15, #$100
E026	FFFF		SUB R15, #$100
E028	FFFF		SUB R15, #$100
E02A	FFFF		SUB R15, #$100
E02C	FFFF		SUB R15, #$100
E02E	FFFF		SUB R15, #$100
E030	FFFF		SUB R15, #$100
E032	FFFF		SUB R15, #$100
E034	FFFF		SUB R15, #$100
E036	FFFF		SUB R15, #$100
E038	FFFF		SUB R15, #$100
E03A	FFFF		SUB R15, #$100
E03C	FFFF		SUB R15, #$100
E03E	FFFF		SUB R15, #$100
E040	FFFF		SUB R15, #$100
E042	FFFF		SUB R15, #$100
E044	FFFF		SUB R15, #$100
E046	FFFF		SUB R15, #$100
E048	FFFF		SUB R15, #$100
E04A	FFFF		SUB R15, #$100
E04C	FFFF		SUB R15, #$100
E04E	FFFF		SUB R15, #$100
E050	FFFF		SUB R15, #$100
E052	FFFF		SUB R15, #$100
E054	FFFF		SUB R15, #$100
E056	FFFF		SUB R15, #$100
E058	FFFF		SUB R15, #$100
E05A	FFFF		SUB R15, #$100
E05C	FFFF		SUB R15, #$100
E05E	FFFF		SUB R15, #$100
E060	FFFF		SUB R15, #$100
E062	FFFF		SUB R15, #$100
E064	FFFF		SUB R15, #$100
E066	FFFF		SUB R15, #$100
E068	FFFF		SUB R15, #$100
E06A	FFFF		SUB R15, #$100
E06C	FFFF		SUB R15, #$100
E06E	FFFF		SUB R15, #$100
E070	FFFF		SUB R15, #$100
E072	FFFF		SUB R15, #$100
E074	FFFF		SUB R15, #$100
E076	FFFF		SUB R15, #$100
E078	FFFF		SUB R15, #$100
E07A	FFFF		SUB R15, #$100
E07C	FFFF		SUB R15, #$100
E07E	FFFF		SUB R15, #$100
E080	FFFF		SUB R15, #$100
E082	FFFF		SUB R15, #$100
E084	FFFF		SUB R15, #$100
E086	FFFF		SUB R15, #$100
E088	FFFF		SUB R15, #$100
E08A	FFFF		SUB R15, #$100
E08C	FFFF		SUB R15, #$100
E08E	FFFF		SUB R15, #$100
E090	FFFF		SUB R15, #$100
E092	FFFF		SUB R15, #$100
E094	FFFF		SUB R15, #$100
E096	FFFF		SUB R15, #$100
E098	FFFF		SUB R15, #$100
E09A	FFFF		SUB R15, #$100
E09C	FFFF		SUB R15, #$100
E09E	FFFF		SUB R15, #$100
E0A0	FFFF		SUB R15, #$100
E0A2	FFFF		SUB R15, #$100
E0A4	FFFF		SUB R15, #$100
E0A6	FFFF		SUB R15, #$100
E0A8	FFFF		SUB R15, #$100
E0AA	FFFF		SUB R15, #$100
E0AC	FFFF		SUB R15, #$100
E0AE	FFFF		SUB R15, #$100
E0B0	FFFF		SUB R15, #$100
E0B2	FFFF		SUB R15, #$100
E0B4	FFFF		SUB R15, #$100
E0B6	FFFF		SUB R15, #$100
E0B8	FFFF		SUB R15, #$100
E0BA	FFFF		SUB R15, #$100
E0BC	FFFF		SUB R15, #$100
E0BE	FFFF		SUB R15, #$100
E0C0	FFFF		SUB R15, #$100
E0C2	FFFF		SUB R15, #$100
E0C4	FFFF		SUB R15, #$100
E0C6	FFFF		SUB R15, #$100
E0C8	FFFF		SUB R15, #$100
E0CA	FFFF		SUB R15, #$100
E0CC	FFFF		SUB R15, #$100
E0CE	FFFF		SUB R15, #$100
E0D0	FFFF		SUB R15, #$100
E0D2	FFFF		SUB R15, #$100
E0D4	FFFF		SUB R15, #$100
E0D6	FFFF		SUB R15, #$100
E0D8	FFFF		SUB R15, #$100
E0DA	FFFF		SUB R15, #$100
E0DC	FFFF		SUB R15, #$100
E0DE	FFFF		SUB R15, #$100
E0E0	FFFF		SUB R15, #$100
E0E2	FFFF		SUB R15, #$100
E0E4	FFFF		SUB R15, #$100
E0E6	FFFF		SUB R15, #$100
E0E8	FFFF		SUB R15, #$100
E0EA	FFFF		SUB R15, #$100
E0EC	FFFF		SUB R15, #$100
E0EE	FFFF		SUB R15, #$100
E0F0	FFFF		SUB R15, #$100
E0F2	FFFF		SUB R15, #$100
E0F4	FFFF		SUB R15, #$100
E0F6	FFFF		SUB R15, #$100
E0F8	FFFF		SUB R15, #$100
E0FA	FFFF		SUB R15, #$100
E0FC	FFFF		SUB R15, #$100
E0FE	FFFF		SUB R15, #$100
E100	FFFF		SUB R15, #$100
E102	FFFF		SUB R15, #$100
E104	FFFF		SUB R15, #$100
E106	FFFF		SUB R15, #$100
E108	FFFF		SUB R15, #$100
E10A	FFFF		SUB R15, #$100
E10C	FFFF		SUB R15, #$100
E10E	FFFF		SUB R15, #$100
E110	FFFF		SUB R15, #$100
E112	FFFF		SUB R15, #$100
E114	FFFF		SUB R15, #$100
E116	FFFF		SUB R15, #$100
E118	FFFF		SUB R15, #$100
E11A	FFFF		SUB R15, #$100
E11C	FFFF		SUB R15, #$100
E11E	FFFF		SUB R15, #$100
E120	FFFF		SUB R15, #$100
E122	FFFF		SUB R15, #$100
E124	FFFF		SUB R15, #$100
E126	FFFF		SUB R15, #$100
E128	FFFF		SUB R15, #$100
E12A	FFFF		SUB R15, #$100
E12C	FFFF		SUB R15, #$100
E12E	FFFF		SUB R15, #$100
E130	FFFF		SUB R15, #$100
E132	FFFF		SUB R15, #$100
E134	FFFF		SUB R15, #$100
E136	FFFF		SUB R15, #$100
E138	FFFF		SUB R15, #$100
E13A	FFFF		SUB R15, #$100
E13C	FFFF		SUB R15, #$100
E13E	FFFF		SUB R15, #$100
E140	FFFF		SUB R15, #$100
E142	FFFF		SUB R15, #$100
E144	FFFF		SUB R15, #$100
E146	FFFF		SUB R15, #$100
E148	FFFF		SUB R15, #$100
E14A	FFFF		SUB R15, #$100
E14C	FFFF		SUB R15, #$100
E14E	FFFF		SUB R15, #$100
E150	FFFF		SUB R15, #$100
E152	FFFF		SUB R15, #$100
E154	FFFF		SUB R15, #$100
E156	FFFF		SUB R15, #$100
E158	FFFF		SUB R15, #$100
E15A	FFFF		SUB R15, #$100
E15C	FFFF		SUB R15, #$100
E15E	FFFF		SUB R15, #$100
E160	FFFF		SUB R15, #$100
E162	FFFF		SUB R15, #$100
E164	FFFF		SUB R15, #$100
E166	FFFF		SUB R15, #$100
E168	FFFF		SUB R15, #$100
E16A	FFFF		SUB R15, #$100
E16C	FFFF		SUB R15, #$100
E16E	FFFF		SUB R15, #$100
E170	FFFF		SUB R15, #$100
E172	FFFF		SUB R15, #$100
E174	FFFF		SUB R15, #$100
E176	FFFF		SUB R15, #$100
E178	FFFF		SUB R15, #$100
E17A	FFFF		SUB R15, #$100
E17C	FFFF		SUB R15, #$100
E17E	FFFF		SUB R15, #$100
E180	FFFF		SUB R15, #$100
E182	FFFF		SUB R15, #$100
E184	FFFF		SUB R15, #$100
E186	FFFF		SUB R15, #$100
E188	FFFF		SUB R15, #$100
E18A	FFFF		SUB R15, #$100
E18C	FFFF		SUB R15, #$100
E18E	FFFF		SUB R15, #$100
E190	FFFF		SUB R15, #$100
E192	FFFF		SUB R15, #$100
E194	FFFF		SUB R15, #$100
E196	FFFF		SUB R15, #$100
E198	FFFF		SUB R15, #$100
E19A	FFFF		SUB R15, #$100
E19C	FFFF		SUB R15, #$100
E19E	FFFF		SUB R15, #$100
E1A0	FFFF		SUB R15, #$100
E1A2	FFFF		SUB R15, #$100
E1A4	FFFF		SUB R15, #$100
E1A6	FFFF		SUB R15, #$100
E1A8	FFFF		SUB R15, #$100
E1AA	FFFF		SUB R15, #$100
E1AC	FFFF		SUB R15, #$100
E1AE	FFFF		SUB R15, #$100
E1B0	FFFF		SUB R15, #$100
E1B2	FFFF		SUB R15, #$100
E1B4	FFFF		SUB R15, #$100
E1B6	FFFF		SUB R15, #$100
E1B8	FFFF		SUB R15, #$100
E1BA	FFFF		SUB R15, #$100
E1BC	FFFF		SUB R15, #$100
E1BE	FFFF		SUB R15, #$100
E1C0	FFFF		SUB R15, #$100
E1C2	FFFF		SUB R15, #$100
E1C4	FFFF		SUB R15, #$100
E1C6	FFFF		SUB R15, #$100
E1C8	FFFF		SUB R15, #$100
E1CA	FFFF		SUB R15, #$100
E1CC	FFFF		SUB R15, #$100
E1CE	FFFF		SUB R15, #$100
E1D0	FFFF		SUB R15, #$100
E1D2	FFFF		SUB R15, #$100
E1D4	FFFF		SUB R15, #$100
E1D6	FFFF		SUB R15, #$100
E1D8	FFFF		SUB R15, #$100
E1DA	FFFF		SUB R15, #$100
E1DC	FFFF		SUB R15, #$100
E1DE	FFFF		SUB R15, #$100
E1E0	FFFF		SUB R15, #$100
E1E2	FFFF		SUB R15, #$100
E1E4	FFFF		SUB R15, #$100
E1E6	FFFF		SUB R15, #$100
E1E8	FFFF		SUB R15, #$100
E1EA	FFFF		SUB R15, #$100
E1EC	FFFF		SUB R15, #$100
E1EE	FFFF		SUB R15, #$100
E1F0	FFFF		SUB R15, #$100
E1F2	FFFF		SUB R15, #$100
E1F4	FFFF		SUB R15, #$100
E1F6	FFFF		SUB R15, #$100
E1F8	FFFF		SUB R15, #$100
E1FA	FFFF		SUB R15, #$100
E1FC	FFFF		SUB R15, #$100
E1FE	FFFF		SUB R15, #$100
E200	FFFF		SUB R15, #$100
E202	FFFF		SUB R15, #$100
E204	FFFF		SUB R15, #$100
E206	FFFF		SUB R15, #$100
E208	FFFF		SUB R15, #$100
E20A	FFFF		SUB R15, #$100
E20C	FFFF		SUB R15, #$100
E20E	FFFF		SUB R15, #$100
E210	FFFF		SUB R15, #$100
E212	FFFF		SUB R15, #$100
E214	FFFF		SUB R15, #$100
E216	FFFF		SUB R15, #$100
E218	FFFF		SUB R15, #$100
E21A	FFFF		SUB R15, #$100
E21C	FFFF		SUB R15, #$100
E21E	FFFF		SUB R15, #$100
E220	FFFF		SUB R15, #$100
E222	FFFF		SUB R15, #$100
E224	FFFF		SUB R15, #$100
E226	FFFF		SUB R15, #$100
E228	FFFF		SUB R15, #$100
E22A	FFFF		SUB R15, #$100
E22C	FFFF		SUB R15, #$100
E22E	FFFF		SUB R15, #$100
E230	FFFF		SUB R15, #$100
E232	FFFF		SUB R15, #$100
E234	FFFF		SUB R15, #$100
E236	FFFF		SUB R15, #$100
E238	FFFF		SUB R15, #$100
E23A	FFFF		SUB R15, #$100
E23C	FFFF		SUB R15, #$100
E23E	FFFF		SUB R15, #$100
E240	FFFF		SUB R15, #$100
E242	FFFF		SUB R15, #$100
E244	FFFF		SUB R15, #$100
E246	FFFF		SUB R15, #$100
E248	FFFF		SUB R15, #$100
E24A	FFFF		SUB R15, #$100
E24C	FFFF		SUB R15, #$100
E24E	FFFF		SUB R15, #$100
E250	FFFF		SUB R15, #$100
E252	FFFF		SUB R15, #$100
E254	FFFF		SUB R15, #$100
E256	FFFF		SUB R15, #$100
E258	FFFF		SUB R15, #$100
E25A	FFFF		SUB R15, #$100
E25C	FFFF		SUB R15, #$100
E25E	FFFF		SUB R15, #$100
E260	FFFF		SUB R15, #$100
E262	FFFF		SUB R15, #$100
E264	FFFF		SUB R15, #$100
E266	FFFF		SUB R15, #$100
E268	FFFF		SUB R15, #$100
E26A	FFFF		SUB R15, #$100
E26C	FFFF		SUB R15, #$100
E26E	FFFF		SUB R15, #$100
E270	FFFF		SUB R15, #$100
E272	FFFF		SUB R15, #$100
E274	FFFF		SUB R15, #$100
E276	FFFF		SUB R15, #$100
E278	FFFF		SUB R15, #$100
E27A	FFFF		SUB R15, #$100
E27C	FFFF		SUB R15, #$100
E27E	FFFF		SUB R15, #$100
E280	FFFF		SUB R15, #$100
E282	FFFF		SUB R15, #$100
E284	FFFF		SUB R15, #$100
E286	FFFF		SUB R15, #$100
E288	FFFF		SUB R15, #$100
E28A	FFFF		SUB R15, #$100
E28C	FFFF		SUB R15, #$100
E28E	FFFF		SUB R15, #$100
E290	FFFF		SUB R15, #$100
E292	FFFF		SUB R15, #$100
E294	FFFF		SUB R15, #$100
E296	FFFF		SUB R15, #$100
E298	FFFF		SUB R15, #$100
E29A	FFFF		SUB R15, #$100
E29C	FFFF		SUB R15, #$100
E29E	FFFF		SUB R15, #$100
E2A0	FFFF		SUB R15, #$100
E2A2	FFFF		SUB R15, #$100
E2A4	FFFF		SUB R15, #$100
E2A6	FFFF		SUB R15, #$100
E2A8	FFFF		SUB R15, #$100
E2AA	FFFF		SUB R15, #$100
E2AC	FFFF		SUB R15, #$100
E2AE	FFFF		SUB R15, #$100
E2B0	FFFF		SUB R15, #$100
E2B2	FFFF		SUB R15, #$100
E2B4	FFFF		SUB R15, #$100
E2B6	FFFF		SUB R15, #$100
E2B8	FFFF		SUB R15, #$100
E2BA	FFFF		SUB R15, #$100
E2BC	FFFF		SUB R15, #$100
E2BE	FFFF		SUB R15, #$100
E2C0	FFFF		SUB R15, #$100
E2C2	FFFF		SUB R15, #$100
E2C4	FFFF		SUB R15, #$100
E2C6	FFFF		SUB R15, #$100
E2C8	FFFF		SUB R15, #$100
E2CA	FFFF		SUB R15, #$100
E2CC	FFFF		SUB R15, #$100
E2CE	FFFF		SUB R15, #$100
E2D0	FFFF		SUB R15, #$100
E2D2	FFFF		SUB R15, #$100
E2D4	FFFF		SUB R15, #$100
E2D6	FFFF		SUB R15, #$100
E2D8	FFFF		SUB R15, #$100
E2DA	FFFF		SUB R15, #$100
E2DC	FFFF		SUB R15, #$100
E2DE	FFFF		SUB R15, #$100
E2E0	FFFF		SUB R15, #$100
E2E2	FFFF		SUB R15, #$100
E2E4	FFFF		SUB R15, #$100
E2E6	FFFF		SUB R15, #$100
E2E8	FFFF		SUB R15, #$100
E2EA	FFFF		SUB R15, #$100
E2EC	FFFF		SUB R15, #$100
E2EE	FFFF		SUB R15, #$100
E2F0	FFFF		SUB R15, #$100
E2F2	FFFF		SUB R15, #$100
E2F4	FFFF		SUB R15, #$100
E2F6	FFFF		SUB R15, #$100
E2F8	FFFF		SUB R15, #$100
E2FA	FFFF		SUB R15, #$100
E2FC	FFFF		SUB R15, #$100
E2FE	FFFF		SUB R15, #$100
E300	FFFF		SUB R15, #$100
E302	FFFF		SUB R15, #$100
E304	FFFF		SUB R15, #$100
E306	FFFF		SUB R15, #$100
E308	FFFF		SUB R15, #$100
E30A	FFFF		SUB R15, #$100
E30C	FFFF		SUB R15, #$100
E30E	FFFF		SUB R15, #$100
E310	FFFF		SUB R15, #$100
E312	FFFF		SUB R15, #$100
E314	FFFF		SUB R15, #$100
E316	FFFF		SUB R15, #$100
E318	FFFF		SUB R15, #$100
E31A	FFFF		SUB R15, #$100
E31C	FFFF		SUB R15, #$100
E31E	FFFF		SUB R15, #$100
E320	FFFF		SUB R15, #$100
E322	FFFF		SUB R15, #$100
E324	FFFF		SUB R15, #$100
E326	FFFF		SUB R15, #$100
E328	FFFF		SUB R15, #$100
E32A	FFFF		SUB R15, #$100
E32C	FFFF		SUB R15, #$100
E32E	FFFF		SUB R15, #$100
E330	FFFF		SUB R15, #$100
E332	FFFF		SUB R15, #$100
E334	FFFF		SUB R15, #$100
E336	FFFF		SUB R15, #$100
E338	FFFF		SUB R15, #$100
E33A	FFFF		SUB R15, #$100
E33C	FFFF		SUB R15, #$100
E33E	FFFF		SUB R15, #$100
E340	FFFF		SUB R15, #$100
E342	FFFF		SUB R15, #$100
E344	FFFF		SUB R15, #$100
E346	FFFF		SUB R15, #$100
E348	FFFF		SUB R15, #$100
E34A	FFFF		SUB R15, #$100
E34C	FFFF		SUB R15, #$100
E34E	FFFF		SUB R15, #$100
E350	FFFF		SUB R15, #$100
E352	FFFF		SUB R15, #$100
E354	FFFF		SUB R15, #$100
E356	FFFF		SUB R15, #$100
E358	FFFF		SUB R15, #$100
E35A	FFFF		SUB R15, #$100
E35C	FFFF		SUB R15, #$100
E35E	FFFF		SUB R15, #$100
E360	FFFF		SUB R15, #$100
E362	FFFF		SUB R15, #$100
E364	FFFF		SUB R15, #$100
E366	FFFF		SUB R15, #$100
E368	FFFF		SUB R15, #$100
E36A	FFFF		SUB R15, #$100
E36C	FFFF		SUB R15, #$100
E36E	FFFF		SUB R15, #$100
E370	FFFF		SUB R15, #$100
E372	FFFF		SUB R15, #$100
E374	FFFF		SUB R15, #$100
E376	FFFF		SUB R15, #$100
E378	FFFF		SUB R15, #$100
E37A	FFFF		SUB R15, #$100
E37C	FFFF		SUB R15, #$100
E37E	FFFF		SUB R15, #$100
E380	FFFF		SUB R15, #$100
E382	FFFF		SUB R15, #$100
E384	FFFF		SUB R15, #$100
E386	FFFF		SUB R15, #$100
E388	FFFF		SUB R15, #$100
E38A	FFFF		SUB R15, #$100
E38C	FFFF		SUB R15, #$100
E38E	FFFF		SUB R15, #$100
E390	FFFF		SUB R15, #$100
E392	FFFF		SUB R15, #$100
E394	FFFF		SUB R15, #$100
E396	FFFF		SUB R15, #$100
E398	FFFF		SUB R15, #$100
E39A	FFFF		SUB R15, #$100
E39C	FFFF		SUB R15, #$100
E39E	FFFF		SUB R15, #$100
E3A0	FFFF		SUB R15, #$100
E3A2	FFFF		SUB R15, #$100
E3A4	FFFF		SUB R15, #$100
E3A6	FFFF		SUB R15, #$100
E3A8	FFFF		SUB R15, #$100
E3AA	FFFF		SUB R15, #$100
E3AC	FFFF		SUB R15, #$100
E3AE	FFFF		SUB R15, #$100
E3B0	FFFF		SUB R15, #$100
E3B2	FFFF		SUB R15, #$100
E3B4	FFFF		SUB R15, #$100
E3B6	FFFF		SUB R15, #$100
E3B8	FFFF		SUB R15, #$100
E3BA	FFFF		SUB R15, #$100
E3BC	FFFF		SUB R15, #$100
E3BE	FFFF		SUB R15, #$100
E3C0	FFFF		SUB R15, #$100
E3C2	FFFF		SUB R15, #$100
E3C4	FFFF		SUB R15, #$100
E3C6	FFFF		SUB R15, #$100
E3C8	FFFF		SUB R15, #$100
E3CA	FFFF		SUB R15, #$100
E3CC	FFFF		SUB R15, #$100
E3CE	FFFF		SUB R15, #$100
E3D0	FFFF		SUB R15, #$100
E3D2	FFFF		SUB R15, #$100
E3D4	FFFF		SUB R15, #$100
E3D6	FFFF		SUB R15, #$100
E3D8	FFFF		SUB R15, #$100
E3DA	FFFF		SUB R15, #$100
E3DC	FFFF		SUB R15, #$100
E3DE	FFFF		SUB R15, #$100
E3E0	FFFF		SUB R15, #$100
E3E2	FFFF		SUB R15, #$100
E3E4	FFFF		SUB R15, #$100
E3E6	FFFF		SUB R15, #$100
E3E8	FFFF		SUB R15, #$100
E3EA	FFFF		SUB R15, #$100
E3EC	FFFF		SUB R15, #$100
E3EE	FFFF		SUB R15, #$100
E3F0	FFFF		SUB R15, #$100
E3F2	FFFF		SUB R15, #$100
E3F4	FFFF		SUB R15, #$100
E3F6	FFFF		SUB R15, #$100
E3F8	FFFF		SUB R15, #$100
E3FA	FFFF		SUB R15, #$100
E3FC	FFFF		SUB R15, #$100
E3FE	FFFF		SUB R15, #$100
E400	FFFF		SUB R15, #$100
E402	FFFF		SUB R15, #$100
E404	FFFF		SUB R15, #$100
E406	FFFF		SUB R15, #$100
E408	FFFF		SUB R15, #$100
E40A	FFFF		SUB R15, #$100
E40C	FFFF		SUB R15, #$100
E40E	FFFF		SUB R15, #$100
E410	FFFF		SUB R15, #$100
E412	FFFF		SUB R15, #$100
E414	FFFF		SUB R15, #$100
E416	FFFF		SUB R15, #$100
E418	FFFF		SUB R15, #$100
E41A	FFFF		SUB R15, #$100
E41C	FFFF		SUB R15, #$100
E41E	FFFF		SUB R15, #$100
E420	FFFF		SUB R15, #$100
E422	FFFF		SUB R15, #$100
E424	FFFF		SUB R15, #$100
E426	FFFF		SUB R15, #$100
E428	FFFF		SUB R15, #$100
E42A	FFFF		SUB R15, #$100
E42C	FFFF		SUB R15, #$100
E42E	FFFF		SUB R15, #$100
E430	FFFF		SUB R15, #$100
E432	FFFF		SUB R15, #$100
E434	FFFF		SUB R15, #$100
E436	FFFF		SUB R15, #$100
E438	FFFF		SUB R15, #$100
E43A	FFFF		SUB R15, #$100
E43C	FFFF		SUB R15, #$100
E43E	FFFF		SUB R15, #$100
E440	FFFF		SUB R15, #$100
E442	FFFF		SUB R15, #$100
E444	FFFF		SUB R15, #$100
E446	FFFF		SUB R15, #$100
E448	FFFF		SUB R15, #$100
E44A	FFFF		SUB R15, #$100
E44C	FFFF		SUB R15, #$100
E44E	FFFF		SUB R15, #$100
E450	FFFF		SUB R15, #$100
E452	FFFF		SUB R15, #$100
E454	FFFF		SUB R15, #$100
E456	FFFF		SUB R15, #$100
E458	FFFF		SUB R15, #$100
E45A	FFFF		SUB R15, #$100
E45C	FFFF		SUB R15, #$100
E45E	FFFF		SUB R15, #$100
E460	FFFF		SUB R15, #$100
E462	FFFF		SUB R15, #$100
E464	FFFF		SUB R15, #$100
E466	FFFF		SUB R15, #$100
E468	FFFF		SUB R15, #$100
E46A	FFFF		SUB R15, #$100
E46C	FFFF		SUB R15, #$100
E46E	FFFF		SUB R15, #$100
E470	FFFF		SUB R15, #$100
E472	FFFF		SUB R15, #$100
E474	FFFF		SUB R15, #$100
E476	FFFF		SUB R15, #$100
E478	FFFF		SUB R15, #$100
E47A	FFFF		SUB R15, #$100
E47C	FFFF		SUB R15, #$100
E47E	FFFF		SUB R15, #$100
E480	FFFF		SUB R15, #$100
E482	FFFF		SUB R15, #$100
E484	FFFF		SUB R15, #$100
E486	FFFF		SUB R15, #$100
E488	FFFF		SUB R15, #$100
E48A	FFFF		SUB R15, #$100
E48C	FFFF		SUB R15, #$100
E48E	FFFF		SUB R15, #$100
E490	FFFF		SUB R15, #$100
E492	FFFF		SUB R15, #$100
E494	FFFF		SUB R15, #$100
E496	FFFF		SUB R15, #$100
E498	FFFF		SUB R15, #$100
E49A	FFFF		SUB R15, #$100
E49C	FFFF		SUB R15, #$100
E49E	FFFF		SUB R15, #$100
E4A0	FFFF		SUB R15, #$100
E4A2	FFFF		SUB R15, #$100
E4A4	FFFF		SUB R15, #$100
E4A6	FFFF		SUB R15, #$100
E4A8	FFFF		SUB R15, #$100
E4AA	FFFF		SUB R15, #$100
E4AC	FFFF		SUB R15, #$100
E4AE	FFFF		SUB R15, #$100
E4B0	FFFF		SUB R15, #$100
E4B2	FFFF		SUB R15, #$100
E4B4	FFFF		SUB R15, #$100
E4B6	FFFF		SUB R15, #$100
E4B8	FFFF		SUB R15, #$100
E4BA	FFFF		SUB R15, #$100
E4BC	FFFF		SUB R15, #$100
E4BE	FFFF		SUB R15, #$100
E4C0	FFFF		SUB R15, #$100
E4C2	FFFF		SUB R15, #$100
E4C4	FFFF		SUB R15, #$100
E4C6	FFFF		SUB R15, #$100
E4C8	FFFF		SUB R15, #$100
E4CA	FFFF		SUB R15, #$100
E4CC	FFFF		SUB R15, #$100
E4CE	FFFF		SUB R15, #$100
E4D0	FFFF		SUB R15, #$100
E4D2	FFFF		SUB R15, #$100
E4D4	FFFF		SUB R15, #$100
E4D6	FFFF		SUB R15, #$100
E4D8	FFFF		SUB R15, #$100
E4DA	FFFF		SUB R15, #$100
E4DC	FFFF		SUB R15, #$100
E4DE	FFFF		SUB R15, #$100
E4E0	FFFF		SUB R15, #$100
E4E2	FFFF		SUB R15, #$100
E4E4	FFFF		SUB R15, #$100
E4E6	FFFF		SUB R15, #$100
E4E8	FFFF		SUB R15, #$100
E4EA	FFFF		SUB R15, #$100
E4EC	FFFF		SUB R15, #$100
E4EE	FFFF		SUB R15, #$100
E4F0	FFFF		SUB R15, #$100
E4F2	FFFF		SUB R15, #$100
E4F4	FFFF		SUB R15, #$100
E4F6	FFFF		SUB R15, #$100
E4F8	FFFF		SUB R15, #$100
E4FA	FFFF		SUB R15, #$100
E4FC	FFFF		SUB R15, #$100
E4FE	FFFF		SUB R15, #$100
E500	FFFF		SUB R15, #$100
E502	FFFF		SUB R15, #$100
E504	FFFF		SUB R15, #$100
E506	FFFF		SUB R15, #$100
E508	FFFF		SUB R15, #$100
E50A	FFFF		SUB R15, #$100
E50C	FFFF		SUB R15, #$100
E50E	FFFF		SUB R15, #$100
E510	FFFF		SUB R15, #$100
E512	FFFF		SUB R15, #$100
E514	FFFF		SUB R15, #$100
E516	FFFF		SUB R15, #$100
E518	FFFF		SUB R15, #$100
E51A	FFFF		SUB R15, #$100
E51C	FFFF		SUB R15, #$100
E51E	FFFF		SUB R15, #$100
E520	FFFF		SUB R15, #$100
E522	FFFF		SUB R15, #$100
E524	FFFF		SUB R15, #$100
E526	FFFF		SUB R15, #$100
E528	FFFF		SUB R15, #$100
E52A	FFFF		SUB R15, #$100
E52C	FFFF		SUB R15, #$100
E52E	FFFF		SUB R15, #$100
E530	FFFF		SUB R15, #$100
E532	FFFF		SUB R15, #$100
E534	FFFF		SUB R15, #$100
E536	FFFF		SUB R15, #$100
E538	FFFF		SUB R15, #$100
E53A	FFFF		SUB R15, #$100
E53C	FFFF		SUB R15, #$100
E53E	FFFF		SUB R15, #$100
E540	FFFF		SUB R15, #$100
E542	FFFF		SUB R15, #$100
E544	FFFF		SUB R15, #$100
E546	FFFF		SUB R15, #$100
E548	FFFF		SUB R15, #$100
E54A	FFFF		SUB R15, #$100
E54C	FFFF		SUB R15, #$100
E54E	FFFF		SUB R15, #$100
E550	FFFF		SUB R15, #$100
E552	FFFF		SUB R15, #$100
E554	FFFF		SUB R15, #$100
E556	FFFF		SUB R15, #$100
E558	FFFF		SUB R15, #$100
E55A	FFFF		SUB R15, #$100
E55C	FFFF		SUB R15, #$100
E55E	FFFF		SUB R15, #$100
E560	FFFF		SUB R15, #$100
E562	FFFF		SUB R15, #$100
E564	FFFF		SUB R15, #$100
E566	FFFF		SUB R15, #$100
E568	FFFF		SUB R15, #$100
E56A	FFFF		SUB R15, #$100
E56C	FFFF		SUB R15, #$100
E56E	FFFF		SUB R15, #$100
E570	FFFF		SUB R15, #$100
E572	FFFF		SUB R15, #$100
E574	FFFF		SUB R15, #$100
E576	FFFF		SUB R15, #$100
E578	FFFF		SUB R15, #$100
E57A	FFFF		SUB R15, #$100
E57C	FFFF		SUB R15, #$100
E57E	FFFF		SUB R15, #$100
E580	FFFF		SUB R15, #$100
E582	FFFF		SUB R15, #$100
E584	FFFF		SUB R15, #$100
E586	FFFF		SUB R15, #$100
E588	FFFF		SUB R15, #$100
E58A	FFFF		SUB R15, #$100
E58C	FFFF		SUB R15, #$100
E58E	FFFF		SUB R15, #$100
E590	FFFF		SUB R15, #$100
E592	FFFF		SUB R15, #$100
E594	FFFF		SUB R15, #$100
E596	FFFF		SUB R15, #$100
E598	FFFF		SUB R15, #$100
E59A	FFFF		SUB R15, #$100
E59C	FFFF		SUB R15, #$100
E59E	FFFF		SUB R15, #$100
E5A0	FFFF		SUB R15, #$100
E5A2	FFFF		SUB R15, #$100
E5A4	FFFF		SUB R15, #$100
E5A6	FFFF		SUB R15, #$100
E5A8	FFFF		SUB R15, #$100
E5AA	FFFF		SUB R15, #$100
E5AC	FFFF		SUB R15, #$100
E5AE	FFFF		SUB R15, #$100
E5B0	FFFF		SUB R15, #$100
E5B2	FFFF		SUB R15, #$100
E5B4	FFFF		SUB R15, #$100
E5B6	FFFF		SUB R15, #$100
E5B8	FFFF		SUB R15, #$100
E5BA	FFFF		SUB R15, #$100
E5BC	FFFF		SUB R15, #$100
E5BE	FFFF		SUB R15, #$100
E5C0	FFFF		SUB R15, #$100
E5C2	FFFF		SUB R15, #$100
E5C4	FFFF		SUB R15, #$100
E5C6	FFFF		SUB R15, #$100
E5C8	FFFF		SUB R15, #$100
E5CA	FFFF		SUB R15, #$100
E5CC	FFFF		SUB R15, #$100
E5CE	FFFF		SUB R15, #$100
E5D0	FFFF		SUB R15, #$100
E5D2	FFFF		SUB R15, #$100
E5D4	FFFF		SUB R15, #$100
E5D6	FFFF		SUB R15, #$100
E5D8	FFFF		SUB R15, #$100
E5DA	FFFF		SUB R15, #$100
E5DC	FFFF		SUB R15, #$100
E5DE	FFFF		SUB R15, #$100
E5E0	FFFF		SUB R15, #$100
E5E2	FFFF		SUB R15, #$100
E5E4	FFFF		SUB R15, #$100
E5E6	FFFF		SUB R15, #$100
E5E8	FFFF		SUB R15, #$100
E5EA	FFFF		SUB R15, #$100
E5EC	FFFF		SUB R15, #$100
E5EE	FFFF		SUB R15, #$100
E5F0	FFFF		SUB R15, #$100
E5F2	FFFF		SUB R15, #$100
E5F4	FFFF		SUB R15, #$100
E5F6	FFFF		SUB R15, #$100
E5F8	FFFF		SUB R15, #$100
E5FA	FFFF		SUB R15, #$100
E5FC	FFFF		SUB R15, #$100
E5FE	FFFF		SUB R15, #$100
E600	FFFF		SUB R15, #$100
E602	FFFF		SUB R15, #$100
E604	FFFF		SUB R15, #$100
E606	FFFF		SUB R15, #$100
E608	FFFF		SUB R15, #$100
E60A	FFFF		SUB R15, #$100
E60C	FFFF		SUB R15, #$100
E60E	FFFF		SUB R15, #$100
E610	FFFF		SUB R15, #$100
E612	FFFF		SUB R15, #$100
E614	FFFF		SUB R15, #$100
E616	FFFF		SUB R15, #$100
E618	FFFF		SUB R15, #$100
E61A	FFFF		SUB R15, #$100
E61C	FFFF		SUB R15, #$100
E61E	FFFF		SUB R15, #$100
E620	FFFF		SUB R15, #$100
E622	FFFF		SUB R15, #$100
E624	FFFF		SUB R15, #$100
E626	FFFF		SUB R15, #$100
E628	FFFF		SUB R15, #$100
E62A	FFFF		SUB R15, #$100
E62C	FFFF		SUB R15, #$100
E62E	FFFF		SUB R15, #$100
E630	FFFF		SUB R15, #$100
E632	FFFF		SUB R15, #$100
E634	FFFF		SUB R15, #$100
E636	FFFF		SUB R15, #$100
E638	FFFF		SUB R15, #$100
E63A	FFFF		SUB R15, #$100
E63C	FFFF		SUB R15, #$100
E63E	FFFF		SUB R15, #$100
E640	FFFF		SUB R15, #$100
E642	FFFF		SUB R15, #$100
E644	FFFF		SUB R15, #$100
E646	FFFF		SUB R15, #$100
E648	FFFF		SUB R15, #$100
E64A	FFFF		SUB R15, #$100
E64C	FFFF		SUB R15, #$100
E64E	FFFF		SUB R15, #$100
E650	FFFF		SUB R15, #$100
E652	FFFF		SUB R15, #$100
E654	FFFF		SUB R15, #$100
E656	FFFF		SUB R15, #$100
E658	FFFF		SUB R15, #$100
E65A	FFFF		SUB R15, #$100
E65C	FFFF		SUB R15, #$100
E65E	FFFF		SUB R15, #$100
E660	FFFF		SUB R15, #$100
E662	FFFF		SUB R15, #$100
E664	FFFF		SUB R15, #$100
E666	FFFF		SUB R15, #$100
E668	FFFF		SUB R15, #$100
E66A	FFFF		SUB R15, #$100
E66C	FFFF		SUB R15, #$100
E66E	FFFF		SUB R15, #$100
E670	FFFF		SUB R15, #$100
E672	FFFF		SUB R15, #$100
E674	FFFF		SUB R15, #$100
E676	FFFF		SUB R15, #$100
E678	FFFF		SUB R15, #$100
E67A	FFFF		SUB R15, #$100
E67C	FFFF		SUB R15, #$100
E67E	FFFF		SUB R15, #$100
E680	FFFF		SUB R15, #$100
E682	FFFF		SUB R15, #$100
E684	FFFF		SUB R15, #$100
E686	FFFF		SUB R15, #$100
E688	FFFF		SUB R15, #$100
E68A	FFFF		SUB R15, #$100
E68C	FFFF		SUB R15, #$100
E68E	FFFF		SUB R15, #$100
E690	FFFF		SUB R15, #$100
E692	FFFF		SUB R15, #$100
E694	FFFF		SUB R15, #$100
E696	FFFF		SUB R15, #$100
E698	FFFF		SUB R15, #$100
E69A	FFFF		SUB R15, #$100
E69C	FFFF		SUB R15, #$100
E69E	FFFF		SUB R15, #$100
E6A0	FFFF		SUB R15, #$100
E6A2	FFFF		SUB R15, #$100
E6A4	FFFF		SUB R15, #$100
E6A6	FFFF		SUB R15, #$100
E6A8	FFFF		SUB R15, #$100
E6AA	FFFF		SUB R15, #$100
E6AC	FFFF		SUB R15, #$100
E6AE	FFFF		SUB R15, #$100
E6B0	FFFF		SUB R15, #$100
E6B2	FFFF		SUB R15, #$100
E6B4	FFFF		SUB R15, #$100
E6B6	FFFF		SUB R15, #$100
E6B8	FFFF		SUB R15, #$100
E6BA	FFFF		SUB R15, #$100
E6BC	FFFF		SUB R15, #$100
E6BE	FFFF		SUB R15, #$100
E6C0	FFFF		SUB R15, #$100
E6C2	FFFF		SUB R15, #$100
E6C4	FFFF		SUB R15, #$100
E6C6	FFFF		SUB R15, #$100
E6C8	FFFF		SUB R15, #$100
E6CA	FFFF		SUB R15, #$100
E6CC	FFFF		SUB R15, #$100
E6CE	FFFF		SUB R15, #$100
E6D0	FFFF		SUB R15, #$100
E6D2	FFFF		SUB R15, #$100
E6D4	FFFF		SUB R15, #$100
E6D6	FFFF		SUB R15, #$100
E6D8	FFFF		SUB R15, #$100
E6DA	FFFF		SUB R15, #$100
E6DC	FFFF		SUB R15, #$100
E6DE	FFFF		SUB R15, #$100
E6E0	FFFF		SUB R15, #$100
E6E2	FFFF		SUB R15, #$100
E6E4	FFFF		SUB R15, #$100
E6E6	FFFF		SUB R15, #$100
E6E8	FFFF		SUB R15, #$100
E6EA	FFFF		SUB R15, #$100
E6EC	FFFF		SUB R15, #$100
E6EE	FFFF		SUB R15, #$100
E6F0	FFFF		SUB R15, #$100
E6F2	FFFF		SUB R15, #$100
E6F4	FFFF		SUB R15, #$100
E6F6	FFFF		SUB R15, #$100
E6F8	FFFF		SUB R15, #$100
E6FA	FFFF		SUB R15, #$100
E6FC	FFFF		SUB R15, #$100
E6FE	FFFF		SUB R15, #$100
E700	FFFF		SUB R15, #$100
E702	FFFF		SUB R15, #$100
E704	FFFF		SUB R15, #$100
E706	FFFF		SUB R15, #$100
E708	FFFF		SUB R15, #$100
E70A	FFFF		SUB R15, #$100
E70C	FFFF		SUB R15, #$100
E70E	FFFF		SUB R15, #$100
E710	FFFF		SUB R15, #$100
E712	FFFF		SUB R15, #$100
E714	FFFF		SUB R15, #$100
E716	FFFF		SUB R15, #$100
E718	FFFF		SUB R15, #$100
E71A	FFFF		SUB R15, #$100
E71C	FFFF		SUB R15, #$100
E71E	FFFF		SUB R15, #$100
E720	FFFF		SUB R15, #$100
E722	FFFF		SUB R15, #$100
E724	FFFF		SUB R15, #$100
E726	FFFF		SUB R15, #$100
E728	FFFF		SUB R15, #$100
E72A	FFFF		SUB R15, #$100
E72C	FFFF		SUB R15, #$100
E72E	FFFF		SUB R15, #$100
E730	FFFF		SUB R15, #$100
E732	FFFF		SUB R15, #$100
E734	FFFF		SUB R15, #$100
E736	FFFF		SUB R15, #$100
E738	FFFF		SUB R15, #$100
E73A	FFFF		SUB R15, #$100
E73C	FFFF		SUB R15, #$100
E73E	FFFF		SUB R15, #$100
E740	FFFF		SUB R15, #$100
E742	FFFF		SUB R15, #$100
E744	FFFF		SUB R15, #$100
E746	FFFF		SUB R15, #$100
E748	FFFF		SUB R15, #$100
E74A	FFFF		SUB R15, #$100
E74C	FFFF		SUB R15, #$100
E74E	FFFF		SUB R15, #$100
E750	FFFF		SUB R15, #$100
E752	FFFF		SUB R15, #$100
E754	FFFF		SUB R15, #$100
E756	FFFF		SUB R15, #$100
E758	FFFF		SUB R15, #$100
E75A	FFFF		SUB R15, #$100
E75C	FFFF		SUB R15, #$100
E75E	FFFF		SUB R15, #$100
E760	FFFF		SUB R15, #$100
E762	FFFF		SUB R15, #$100
E764	FFFF		SUB R15, #$100
E766	FFFF		SUB R15, #$100
E768	FFFF		SUB R15, #$100
E76A	FFFF		SUB R15, #$100
E76C	FFFF		SUB R15, #$100
E76E	FFFF		SUB R15, #$100
E770	FFFF		SUB R15, #$100
E772	FFFF		SUB R15, #$100
E774	FFFF		SUB R15, #$100
E776	FFFF		SUB R15, #$100
E778	FFFF		SUB R15, #$100
E77A	FFFF		SUB R15, #$100
E77C	FFFF		SUB R15, #$100
E77E	FFFF		SUB R15, #$100
E780	FFFF		SUB R15, #$100
E782	FFFF		SUB R15, #$100
E784	FFFF		SUB R15, #$100
E786	FFFF		SUB R15, #$100
E788	FFFF		SUB R15, #$100
E78A	FFFF		SUB R15, #$100
E78C	FFFF		SUB R15, #$100
E78E	FFFF		SUB R15, #$100
E790	FFFF		SUB R15, #$100
E792	FFFF		SUB R15, #$100
E794	FFFF		SUB R15, #$100
E796	FFFF		SUB R15, #$100
E798	FFFF		SUB R15, #$100
E79A	FFFF		SUB R15, #$100
E79C	FFFF		SUB R15, #$100
E79E	FFFF		SUB R15, #$100
E7A0	FFFF		SUB R15, #$100
E7A2	FFFF		SUB R15, #$100
E7A4	FFFF		SUB R15, #$100
E7A6	FFFF		SUB R15, #$100
E7A8	FFFF		SUB R15, #$100
E7AA	FFFF		SUB R15, #$100
E7AC	FFFF		SUB R15, #$100
E7AE	FFFF		SUB R15, #$100
E7B0	FFFF		SUB R15, #$100
E7B2	FFFF		SUB R15, #$100
E7B4	FFFF		SUB R15, #$100
E7B6	FFFF		SUB R15, #$100
E7B8	FFFF		SUB R15, #$100
E7BA	FFFF		SUB R15, #$100
E7BC	FFFF		SUB R15, #$100
E7BE	FFFF		SUB R15, #$100
E7C0	FFFF		SUB R15, #$100
E7C2	FFFF		SUB R15, #$100
E7C4	FFFF		SUB R15, #$100
E7C6	FFFF		SUB R15, #$100
E7C8	FFFF		SUB R15, #$100
E7CA	FFFF		SUB R15, #$100
E7CC	FFFF		SUB R15, #$100
E7CE	FFFF		SUB R15, #$100
E7D0	FFFF		SUB R15, #$100
E7D2	FFFF		SUB R15, #$100
E7D4	FFFF		SUB R15, #$100
E7D6	FFFF		SUB R15, #$100
E7D8	FFFF		SUB R15, #$100
E7DA	FFFF		SUB R15, #$100
E7DC	FFFF		SUB R15, #$100
E7DE	FFFF		SUB R15, #$100
E7E0	FFFF		SUB R15, #$100
E7E2	FFFF		SUB R15, #$100
E7E4	FFFF		SUB R15, #$100
E7E6	FFFF		SUB R15, #$100
E7E8	FFFF		SUB R15, #$100
E7EA	FFFF		SUB R15, #$100
E7EC	FFFF		SUB R15, #$100
E7EE	FFFF		SUB R15, #$100
E7F0	FFFF		SUB R15, #$100
E7F2	FFFF		SUB R15, #$100
E7F4	FFFF		SUB R15, #$100
E7F6	FFFF		SUB R15, #$100
E7F8	FFFF		SUB R15, #$100
E7FA	FFFF		SUB R15, #$100
E7FC	FFFF		SUB R15, #$100
E7FE	FFFF		SUB R15, #$100
E800	FFFF		SUB R15, #$100
E802	FFFF		SUB R15, #$100
E804	FFFF		SUB R15, #$100
E806	FFFF		SUB R15, #$100
E808	FFFF		SUB R15, #$100
E80A	FFFF		SUB R15, #$100
E80C	FFFF		SUB R15, #$100
E80E	FFFF		SUB R15, #$100
E810	FFFF		SUB R15, #$100
E812	FFFF		SUB R15, #$100
E814	FFFF		SUB R15, #$100
E816	FFFF		SUB R15, #$100
E818	FFFF		SUB R15, #$100
E81A	FFFF		SUB R15, #$100
E81C	FFFF		SUB R15, #$100
E81E	FFFF		SUB R15, #$100
E820	FFFF		SUB R15, #$100
E822	FFFF		SUB R15, #$100
E824	FFFF		SUB R15, #$100
E826	FFFF		SUB R15, #$100
E828	FFFF		SUB R15, #$100
E82A	FFFF		SUB R15, #$100
E82C	FFFF		SUB R15, #$100
E82E	FFFF		SUB R15, #$100
E830	FFFF		SUB R15, #$100
E832	FFFF		SUB R15, #$100
E834	FFFF		SUB R15, #$100
E836	FFFF		SUB R15, #$100
E838	FFFF		SUB R15, #$100
E83A	FFFF		SUB R15, #$100
E83C	FFFF		SUB R15, #$100
E83E	FFFF		SUB R15, #$100
E840	FFFF		SUB R15, #$100
E842	FFFF		SUB R15, #$100
E844	FFFF		SUB R15, #$100
E846	FFFF		SUB R15, #$100
E848	FFFF		SUB R15, #$100
E84A	FFFF		SUB R15, #$100
E84C	FFFF		SUB R15, #$100
E84E	FFFF		SUB R15, #$100
E850	FFFF		SUB R15, #$100
E852	FFFF		SUB R15, #$100
E854	FFFF		SUB R15, #$100
E856	FFFF		SUB R15, #$100
E858	FFFF		SUB R15, #$100
E85A	FFFF		SUB R15, #$100
E85C	FFFF		SUB R15, #$100
E85E	FFFF		SUB R15, #$100
E860	FFFF		SUB R15, #$100
E862	FFFF		SUB R15, #$100
E864	FFFF		SUB R15, #$100
E866	FFFF		SUB R15, #$100
E868	FFFF		SUB R15, #$100
E86A	FFFF		SUB R15, #$100
E86C	FFFF		SUB R15, #$100
E86E	FFFF		SUB R15, #$100
E870	FFFF		SUB R15, #$100
E872	FFFF		SUB R15, #$100
E874	FFFF		SUB R15, #$100
E876	FFFF		SUB R15, #$100
E878	FFFF		SUB R15, #$100
E87A	FFFF		SUB R15, #$100
E87C	FFFF		SUB R15, #$100
E87E	FFFF		SUB R15, #$100
E880	FFFF		SUB R15, #$100
E882	FFFF		SUB R15, #$100
E884	FFFF		SUB R15, #$100
E886	FFFF		SUB R15, #$100
E888	FFFF		SUB R15, #$100
E88A	FFFF		SUB R15, #$100
E88C	FFFF		SUB R15, #$100
E88E	FFFF		SUB R15, #$100
E890	FFFF		SUB R15, #$100
E892	FFFF		SUB R15, #$100
E894	FFFF		SUB R15, #$100
E896	FFFF		SUB R15, #$100
E898	FFFF		SUB R15, #$100
E89A	FFFF		SUB R15, #$100
E89C	FFFF		SUB R15, #$100
E89E	FFFF		SUB R15, #$100
E8A0	FFFF		SUB R15, #$100
E8A2	FFFF		SUB R15, #$100
E8A4	FFFF		SUB R15, #$100
E8A6	FFFF		SUB R15, #$100
E8A8	FFFF		SUB R15, #$100
E8AA	FFFF		SUB R15, #$100
E8AC	FFFF		SUB R15, #$100
E8AE	FFFF		SUB R15, #$100
E8B0	FFFF		SUB R15, #$100
E8B2	FFFF		SUB R15, #$100
E8B4	FFFF		SUB R15, #$100
E8B6	FFFF		SUB R15, #$100
E8B8	FFFF		SUB R15, #$100
E8BA	FFFF		SUB R15, #$100
E8BC	FFFF		SUB R15, #$100
E8BE	FFFF		SUB R15, #$100
E8C0	FFFF		SUB R15, #$100
E8C2	FFFF		SUB R15, #$100
E8C4	FFFF		SUB R15, #$100
E8C6	FFFF		SUB R15, #$100
E8C8	FFFF		SUB R15, #$100
E8CA	FFFF		SUB R15, #$100
E8CC	FFFF		SUB R15, #$100
E8CE	FFFF		SUB R15, #$100
E8D0	FFFF		SUB R15, #$100
E8D2	FFFF		SUB R15, #$100
E8D4	FFFF		SUB R15, #$100
E8D6	FFFF		SUB R15, #$100
E8D8	FFFF		SUB R15, #$100
E8DA	FFFF		SUB R15, #$100
E8DC	FFFF		SUB R15, #$100
E8DE	FFFF		SUB R15, #$100
E8E0	FFFF		SUB R15, #$100
E8E2	FFFF		SUB R15, #$100
E8E4	FFFF		SUB R15, #$100
E8E6	FFFF		SUB R15, #$100
E8E8	FFFF		SUB R15, #$100
E8EA	FFFF		SUB R15, #$100
E8EC	FFFF		SUB R15, #$100
E8EE	FFFF		SUB R15, #$100
E8F0	FFFF		SUB R15, #$100
E8F2	FFFF		SUB R15, #$100
E8F4	FFFF		SUB R15, #$100
E8F6	FFFF		SUB R15, #$100
E8F8	FFFF		SUB R15, #$100
E8FA	FFFF		SUB R15, #$100
E8FC	FFFF		SUB R15, #$100
E8FE	FFFF		SUB R15, #$100
E900	FFFF		SUB R15, #$100
E902	FFFF		SUB R15, #$100
E904	FFFF		SUB R15, #$100
E906	FFFF		SUB R15, #$100
E908	FFFF		SUB R15, #$100
E90A	FFFF		SUB R15, #$100
E90C	FFFF		SUB R15, #$100
E90E	FFFF		SUB R15, #$100
E910	FFFF		SUB R15, #$100
E912	FFFF		SUB R15, #$100
E914	FFFF		SUB R15, #$100
E916	FFFF		SUB R15, #$100
E918	FFFF		SUB R15, #$100
E91A	FFFF		SUB R15, #$100
E91C	FFFF		SUB R15, #$100
E91E	FFFF		SUB R15, #$100
E920	FFFF		SUB R15, #$100
E922	FFFF		SUB R15, #$100
E924	FFFF		SUB R15, #$100
E926	FFFF		SUB R15, #$100
E928	FFFF		SUB R15, #$100
E92A	FFFF		SUB R15, #$100
E92C	FFFF		SUB R15, #$100
E92E	FFFF		SUB R15, #$100
E930	FFFF		SUB R15, #$100
E932	FFFF		SUB R15, #$100
E934	FFFF		SUB R15, #$100
E936	FFFF		SUB R15, #$100
E938	FFFF		SUB R15, #$100
E93A	FFFF		SUB R15, #$100
E93C	FFFF		SUB R15, #$100
E93E	FFFF		SUB R15, #$100
E940	FFFF		SUB R15, #$100
E942	FFFF		SUB R15, #$100
E944	FFFF		SUB R15, #$100
E946	FFFF		SUB R15, #$100
E948	FFFF		SUB R15, #$100
E94A	FFFF		SUB R15, #$100
E94C	FFFF		SUB R15, #$100
E94E	FFFF		SUB R15, #$100
E950	FFFF		SUB R15, #$100
E952	FFFF		SUB R15, #$100
E954	FFFF		SUB R15, #$100
E956	FFFF		SUB R15, #$100
E958	FFFF		SUB R15, #$100
E95A	FFFF		SUB R15, #$100
E95C	FFFF		SUB R15, #$100
E95E	FFFF		SUB R15, #$100
E960	FFFF		SUB R15, #$100
E962	FFFF		SUB R15, #$100
E964	FFFF		SUB R15, #$100
E966	FFFF		SUB R15, #$100
E968	FFFF		SUB R15, #$100
E96A	FFFF		SUB R15, #$100
E96C	FFFF		SUB R15, #$100
E96E	FFFF		SUB R15, #$100
E970	FFFF		SUB R15, #$100
E972	FFFF		SUB R15, #$100
E974	FFFF		SUB R15, #$100
E976	FFFF		SUB R15, #$100
E978	FFFF		SUB R15, #$100
E97A	FFFF		SUB R15, #$100
E97C	FFFF		SUB R15, #$100
E97E	FFFF		SUB R15, #$100
E980	FFFF		SUB R15, #$100
E982	FFFF		SUB R15, #$100
E984	FFFF		SUB R15, #$100
E986	FFFF		SUB R15, #$100
E988	FFFF		SUB R15, #$100
E98A	FFFF		SUB R15, #$100
E98C	FFFF		SUB R15, #$100
E98E	FFFF		SUB R15, #$100
E990	FFFF		SUB R15, #$100
E992	FFFF		SUB R15, #$100
E994	FFFF		SUB R15, #$100
E996	FFFF		SUB R15, #$100
E998	FFFF		SUB R15, #$100
E99A	FFFF		SUB R15, #$100
E99C	FFFF		SUB R15, #$100
E99E	FFFF		SUB R15, #$100
E9A0	FFFF		SUB R15, #$100
E9A2	FFFF		SUB R15, #$100
E9A4	FFFF		SUB R15, #$100
E9A6	FFFF		SUB R15, #$100
E9A8	FFFF		SUB R15, #$100
E9AA	FFFF		SUB R15, #$100
E9AC	FFFF		SUB R15, #$100
E9AE	FFFF		SUB R15, #$100
E9B0	FFFF		SUB R15, #$100
E9B2	FFFF		SUB R15, #$100
E9B4	FFFF		SUB R15, #$100
E9B6	FFFF		SUB R15, #$100
E9B8	FFFF		SUB R15, #$100
E9BA	FFFF		SUB R15, #$100
E9BC	FFFF		SUB R15, #$100
E9BE	FFFF		SUB R15, #$100
E9C0	FFFF		SUB R15, #$100
E9C2	FFFF		SUB R15, #$100
E9C4	FFFF		SUB R15, #$100
E9C6	FFFF		SUB R15, #$100
E9C8	FFFF		SUB R15, #$100
E9CA	FFFF		SUB R15, #$100
E9CC	FFFF		SUB R15, #$100
E9CE	FFFF		SUB R15, #$100
E9D0	FFFF		SUB R15, #$100
E9D2	FFFF		SUB R15, #$100
E9D4	FFFF		SUB R15, #$100
E9D6	FFFF		SUB R15, #$100
E9D8	FFFF		SUB R15, #$100
E9DA	FFFF		SUB R15, #$100
E9DC	FFFF		SUB R15, #$100
E9DE	FFFF		SUB R15, #$100
E9E0	FFFF		SUB R15, #$100
E9E2	FFFF		SUB R15, #$100
E9E4	FFFF		SUB R15, #$100
E9E6	FFFF		SUB R15, #$100
E9E8	FFFF		SUB R15, #$100
E9EA	FFFF		SUB R15, #$100
E9EC	FFFF		SUB R15, #$100
E9EE	FFFF		SUB R15, #$100
E9F0	FFFF		SUB R15, #$100
E9F2	FFFF		SUB R15, #$100
E9F4	FFFF		SUB R15, #$100
E9F6	FFFF		SUB R15, #$100
E9F8	FFFF		SUB R15, #$100
E9FA	FFFF		SUB R15, #$100
E9FC	FFFF		SUB R15, #$100
E9FE	FFFF		SUB R15, #$100
EA00	FFFF		SUB R15, #$100
EA02	FFFF		SUB R15, #$100
EA04	FFFF		SUB R15, #$100
EA06	FFFF		SUB R15, #$100
EA08	FFFF		SUB R15, #$100
EA0A	FFFF		SUB R15, #$100
EA0C	FFFF		SUB R15, #$100
EA0E	FFFF		SUB R15, #$100
EA10	FFFF		SUB R15, #$100
EA12	FFFF		SUB R15, #$100
EA14	FFFF		SUB R15, #$100
EA16	FFFF		SUB R15, #$100
EA18	FFFF		SUB R15, #$100
EA1A	FFFF		SUB R15, #$100
EA1C	FFFF		SUB R15, #$100
EA1E	FFFF		SUB R15, #$100
EA20	FFFF		SUB R15, #$100
EA22	FFFF		SUB R15, #$100
EA24	FFFF		SUB R15, #$100
EA26	FFFF		SUB R15, #$100
EA28	FFFF		SUB R15, #$100
EA2A	FFFF		SUB R15, #$100
EA2C	FFFF		SUB R15, #$100
EA2E	FFFF		SUB R15, #$100
EA30	FFFF		SUB R15, #$100
EA32	FFFF		SUB R15, #$100
EA34	FFFF		SUB R15, #$100
EA36	FFFF		SUB R15, #$100
EA38	FFFF		SUB R15, #$100
EA3A	FFFF		SUB R15, #$100
EA3C	FFFF		SUB R15, #$100
EA3E	FFFF		SUB R15, #$100
EA40	FFFF		SUB R15, #$100
EA42	FFFF		SUB R15, #$100
EA44	FFFF		SUB R15, #$100
EA46	FFFF		SUB R15, #$100
EA48	FFFF		SUB R15, #$100
EA4A	FFFF		SUB R15, #$100
EA4C	FFFF		SUB R15, #$100
EA4E	FFFF		SUB R15, #$100
EA50	FFFF		SUB R15, #$100
EA52	FFFF		SUB R15, #$100
EA54	FFFF		SUB R15, #$100
EA56	FFFF		SUB R15, #$100
EA58	FFFF		SUB R15, #$100
EA5A	FFFF		SUB R15, #$100
EA5C	FFFF		SUB R15, #$100
EA5E	FFFF		SUB R15, #$100
EA60	FFFF		SUB R15, #$100
EA62	FFFF		SUB R15, #$100
EA64	FFFF		SUB R15, #$100
EA66	FFFF		SUB R15, #$100
EA68	FFFF		SUB R15, #$100
EA6A	FFFF		SUB R15, #$100
EA6C	FFFF		SUB R15, #$100
EA6E	FFFF		SUB R15, #$100
EA70	FFFF		SUB R15, #$100
EA72	FFFF		SUB R15, #$100
EA74	FFFF		SUB R15, #$100
EA76	FFFF		SUB R15, #$100
EA78	FFFF		SUB R15, #$100
EA7A	FFFF		SUB R15, #$100
EA7C	FFFF		SUB R15, #$100
EA7E	FFFF		SUB R15, #$100
EA80	FFFF		SUB R15, #$100
EA82	FFFF		SUB R15, #$100
EA84	FFFF		SUB R15, #$100
EA86	FFFF		SUB R15, #$100
EA88	FFFF		SUB R15, #$100
EA8A	FFFF		SUB R15, #$100
EA8C	FFFF		SUB R15, #$100
EA8E	FFFF		SUB R15, #$100
EA90	FFFF		SUB R15, #$100
EA92	FFFF		SUB R15, #$100
EA94	FFFF		SUB R15, #$100
EA96	FFFF		SUB R15, #$100
EA98	FFFF		SUB R15, #$100
EA9A	FFFF		SUB R15, #$100
EA9C	FFFF		SUB R15, #$100
EA9E	FFFF		SUB R15, #$100
EAA0	FFFF		SUB R15, #$100
EAA2	FFFF		SUB R15, #$100
EAA4	FFFF		SUB R15, #$100
EAA6	FFFF		SUB R15, #$100
EAA8	FFFF		SUB R15, #$100
EAAA	FFFF		SUB R15, #$100
EAAC	FFFF		SUB R15, #$100
EAAE	FFFF		SUB R15, #$100
EAB0	FFFF		SUB R15, #$100
EAB2	FFFF		SUB R15, #$100
EAB4	FFFF		SUB R15, #$100
EAB6	FFFF		SUB R15, #$100
EAB8	FFFF		SUB R15, #$100
EABA	FFFF		SUB R15, #$100
EABC	FFFF		SUB R15, #$100
EABE	FFFF		SUB R15, #$100
EAC0	FFFF		SUB R15, #$100
EAC2	FFFF		SUB R15, #$100
EAC4	FFFF		SUB R15, #$100
EAC6	FFFF		SUB R15, #$100
EAC8	FFFF		SUB R15, #$100
EACA	FFFF		SUB R15, #$100
EACC	FFFF		SUB R15, #$100
EACE	FFFF		SUB R15, #$100
EAD0	FFFF		SUB R15, #$100
EAD2	FFFF		SUB R15, #$100
EAD4	FFFF		SUB R15, #$100
EAD6	FFFF		SUB R15, #$100
EAD8	FFFF		SUB R15, #$100
EADA	FFFF		SUB R15, #$100
EADC	FFFF		SUB R15, #$100
EADE	FFFF		SUB R15, #$100
EAE0	FFFF		SUB R15, #$100
EAE2	FFFF		SUB R15, #$100
EAE4	FFFF		SUB R15, #$100
EAE6	FFFF		SUB R15, #$100
EAE8	FFFF		SUB R15, #$100
EAEA	FFFF		SUB R15, #$100
EAEC	FFFF		SUB R15, #$100
EAEE	FFFF		SUB R15, #$100
EAF0	FFFF		SUB R15, #$100
EAF2	FFFF		SUB R15, #$100
EAF4	FFFF		SUB R15, #$100
EAF6	FFFF		SUB R15, #$100
EAF8	FFFF		SUB R15, #$100
EAFA	FFFF		SUB R15, #$100
EAFC	FFFF		SUB R15, #$100
EAFE	FFFF		SUB R15, #$100
EB00	FFFF		SUB R15, #$100
EB02	FFFF		SUB R15, #$100
EB04	FFFF		SUB R15, #$100
EB06	FFFF		SUB R15, #$100
EB08	FFFF		SUB R15, #$100
EB0A	FFFF		SUB R15, #$100
EB0C	FFFF		SUB R15, #$100
EB0E	FFFF		SUB R15, #$100
EB10	FFFF		SUB R15, #$100
EB12	FFFF		SUB R15, #$100
EB14	FFFF		SUB R15, #$100
EB16	FFFF		SUB R15, #$100
EB18	FFFF		SUB R15, #$100
EB1A	FFFF		SUB R15, #$100
EB1C	FFFF		SUB R15, #$100
EB1E	FFFF		SUB R15, #$100
EB20	FFFF		SUB R15, #$100
EB22	FFFF		SUB R15, #$100
EB24	FFFF		SUB R15, #$100
EB26	FFFF		SUB R15, #$100
EB28	FFFF		SUB R15, #$100
EB2A	FFFF		SUB R15, #$100
EB2C	FFFF		SUB R15, #$100
EB2E	FFFF		SUB R15, #$100
EB30	FFFF		SUB R15, #$100
EB32	FFFF		SUB R15, #$100
EB34	FFFF		SUB R15, #$100
EB36	FFFF		SUB R15, #$100
EB38	FFFF		SUB R15, #$100
EB3A	FFFF		SUB R15, #$100
EB3C	FFFF		SUB R15, #$100
EB3E	FFFF		SUB R15, #$100
EB40	FFFF		SUB R15, #$100
EB42	FFFF		SUB R15, #$100
EB44	FFFF		SUB R15, #$100
EB46	FFFF		SUB R15, #$100
EB48	FFFF		SUB R15, #$100
EB4A	FFFF		SUB R15, #$100
EB4C	FFFF		SUB R15, #$100
EB4E	FFFF		SUB R15, #$100
EB50	FFFF		SUB R15, #$100
EB52	FFFF		SUB R15, #$100
EB54	FFFF		SUB R15, #$100
EB56	FFFF		SUB R15, #$100
EB58	FFFF		SUB R15, #$100
EB5A	FFFF		SUB R15, #$100
EB5C	FFFF		SUB R15, #$100
EB5E	FFFF		SUB R15, #$100
EB60	FFFF		SUB R15, #$100
EB62	FFFF		SUB R15, #$100
EB64	FFFF		SUB R15, #$100
EB66	FFFF		SUB R15, #$100
EB68	FFFF		SUB R15, #$100
EB6A	FFFF		SUB R15, #$100
EB6C	FFFF		SUB R15, #$100
EB6E	FFFF		SUB R15, #$100
EB70	FFFF		SUB R15, #$100
EB72	FFFF		SUB R15, #$100
EB74	FFFF		SUB R15, #$100
EB76	FFFF		SUB R15, #$100
EB78	FFFF		SUB R15, #$100
EB7A	FFFF		SUB R15, #$100
EB7C	FFFF		SUB R15, #$100
EB7E	FFFF		SUB R15, #$100
EB80	FFFF		SUB R15, #$100
EB82	FFFF		SUB R15, #$100
EB84	FFFF		SUB R15, #$100
EB86	FFFF		SUB R15, #$100
EB88	FFFF		SUB R15, #$100
EB8A	FFFF		SUB R15, #$100
EB8C	FFFF		SUB R15, #$100
EB8E	FFFF		SUB R15, #$100
EB90	FFFF		SUB R15, #$100
EB92	FFFF		SUB R15, #$100
EB94	FFFF		SUB R15, #$100
EB96	FFFF		SUB R15, #$100
EB98	FFFF		SUB R15, #$100
EB9A	FFFF		SUB R15, #$100
EB9C	FFFF		SUB R15, #$100
EB9E	FFFF		SUB R15, #$100
EBA0	FFFF		SUB R15, #$100
EBA2	FFFF		SUB R15, #$100
EBA4	FFFF		SUB R15, #$100
EBA6	FFFF		SUB R15, #$100
EBA8	FFFF		SUB R15, #$100
EBAA	FFFF		SUB R15, #$100
EBAC	FFFF		SUB R15, #$100
EBAE	FFFF		SUB R15, #$100
EBB0	FFFF		SUB R15, #$100
EBB2	FFFF		SUB R15, #$100
EBB4	FFFF		SUB R15, #$100
EBB6	FFFF		SUB R15, #$100
EBB8	FFFF		SUB R15, #$100
EBBA	FFFF		SUB R15, #$100
EBBC	FFFF		SUB R15, #$100
EBBE	FFFF		SUB R15, #$100
EBC0	FFFF		SUB R15, #$100
EBC2	FFFF		SUB R15, #$100
EBC4	FFFF		SUB R15, #$100
EBC6	FFFF		SUB R15, #$100
EBC8	FFFF		SUB R15, #$100
EBCA	FFFF		SUB R15, #$100
EBCC	FFFF		SUB R15, #$100
EBCE	FFFF		SUB R15, #$100
EBD0	FFFF		SUB R15, #$100
EBD2	FFFF		SUB R15, #$100
EBD4	FFFF		SUB R15, #$100
EBD6	FFFF		SUB R15, #$100
EBD8	FFFF		SUB R15, #$100
EBDA	FFFF		SUB R15, #$100
EBDC	FFFF		SUB R15, #$100
EBDE	FFFF		SUB R15, #$100
EBE0	FFFF		SUB R15, #$100
EBE2	FFFF		SUB R15, #$100
EBE4	FFFF		SUB R15, #$100
EBE6	FFFF		SUB R15, #$100
EBE8	FFFF		SUB R15, #$100
EBEA	FFFF		SUB R15, #$100
EBEC	FFFF		SUB R15, #$100
EBEE	FFFF		SUB R15, #$100
EBF0	FFFF		SUB R15, #$100
EBF2	FFFF		SUB R15, #$100
EBF4	FFFF		SUB R15, #$100
EBF6	FFFF		SUB R15, #$100
EBF8	FFFF		SUB R15, #$100
EBFA	FFFF		SUB R15, #$100
EBFC	FFFF		SUB R15, #$100
EBFE	FFFF		SUB R15, #$100
EC00	FFFF		SUB R15, #$100
EC02	FFFF		SUB R15, #$100
EC04	FFFF		SUB R15, #$100
EC06	FFFF		SUB R15, #$100
EC08	FFFF		SUB R15, #$100
EC0A	FFFF		SUB R15, #$100
EC0C	FFFF		SUB R15, #$100
EC0E	FFFF		SUB R15, #$100
EC10	FFFF		SUB R15, #$100
EC12	FFFF		SUB R15, #$100
EC14	FFFF		SUB R15, #$100
EC16	FFFF		SUB R15, #$100
EC18	FFFF		SUB R15, #$100
EC1A	FFFF		SUB R15, #$100
EC1C	FFFF		SUB R15, #$100
EC1E	FFFF		SUB R15, #$100
EC20	FFFF		SUB R15, #$100
EC22	FFFF		SUB R15, #$100
EC24	FFFF		SUB R15, #$100
EC26	FFFF		SUB R15, #$100
EC28	FFFF		SUB R15, #$100
EC2A	FFFF		SUB R15, #$100
EC2C	FFFF		SUB R15, #$100
EC2E	FFFF		SUB R15, #$100
EC30	FFFF		SUB R15, #$100
EC32	FFFF		SUB R15, #$100
EC34	FFFF		SUB R15, #$100
EC36	FFFF		SUB R15, #$100
EC38	FFFF		SUB R15, #$100
EC3A	FFFF		SUB R15, #$100
EC3C	FFFF		SUB R15, #$100
EC3E	FFFF		SUB R15, #$100
EC40	FFFF		SUB R15, #$100
EC42	FFFF		SUB R15, #$100
EC44	FFFF		SUB R15, #$100
EC46	FFFF		SUB R15, #$100
EC48	FFFF		SUB R15, #$100
EC4A	FFFF		SUB R15, #$100
EC4C	FFFF		SUB R15, #$100
EC4E	FFFF		SUB R15, #$100
EC50	FFFF		SUB R15, #$100
EC52	FFFF		SUB R15, #$100
EC54	FFFF		SUB R15, #$100
EC56	FFFF		SUB R15, #$100
EC58	FFFF		SUB R15, #$100
EC5A	FFFF		SUB R15, #$100
EC5C	FFFF		SUB R15, #$100
EC5E	FFFF		SUB R15, #$100
EC60	FFFF		SUB R15, #$100
EC62	FFFF		SUB R15, #$100
EC64	FFFF		SUB R15, #$100
EC66	FFFF		SUB R15, #$100
EC68	FFFF		SUB R15, #$100
EC6A	FFFF		SUB R15, #$100
EC6C	FFFF		SUB R15, #$100
EC6E	FFFF		SUB R15, #$100
EC70	FFFF		SUB R15, #$100
EC72	FFFF		SUB R15, #$100
EC74	FFFF		SUB R15, #$100
EC76	FFFF		SUB R15, #$100
EC78	FFFF		SUB R15, #$100
EC7A	FFFF		SUB R15, #$100
EC7C	FFFF		SUB R15, #$100
EC7E	FFFF		SUB R15, #$100
EC80	FFFF		SUB R15, #$100
EC82	FFFF		SUB R15, #$100
EC84	FFFF		SUB R15, #$100
EC86	FFFF		SUB R15, #$100
EC88	FFFF		SUB R15, #$100
EC8A	FFFF		SUB R15, #$100
EC8C	FFFF		SUB R15, #$100
EC8E	FFFF		SUB R15, #$100
EC90	FFFF		SUB R15, #$100
EC92	FFFF		SUB R15, #$100
EC94	FFFF		SUB R15, #$100
EC96	FFFF		SUB R15, #$100
EC98	FFFF		SUB R15, #$100
EC9A	FFFF		SUB R15, #$100
EC9C	FFFF		SUB R15, #$100
EC9E	FFFF		SUB R15, #$100
ECA0	FFFF		SUB R15, #$100
ECA2	FFFF		SUB R15, #$100
ECA4	FFFF		SUB R15, #$100
ECA6	FFFF		SUB R15, #$100
ECA8	FFFF		SUB R15, #$100
ECAA	FFFF		SUB R15, #$100
ECAC	FFFF		SUB R15, #$100
ECAE	FFFF		SUB R15, #$100
ECB0	FFFF		SUB R15, #$100
ECB2	FFFF		SUB R15, #$100
ECB4	FFFF		SUB R15, #$100
ECB6	FFFF		SUB R15, #$100
ECB8	FFFF		SUB R15, #$100
ECBA	FFFF		SUB R15, #$100
ECBC	FFFF		SUB R15, #$100
ECBE	FFFF		SUB R15, #$100
ECC0	FFFF		SUB R15, #$100
ECC2	FFFF		SUB R15, #$100
ECC4	FFFF		SUB R15, #$100
ECC6	FFFF		SUB R15, #$100
ECC8	FFFF		SUB R15, #$100
ECCA	FFFF		SUB R15, #$100
ECCC	FFFF		SUB R15, #$100
ECCE	FFFF		SUB R15, #$100
ECD0	FFFF		SUB R15, #$100
ECD2	FFFF		SUB R15, #$100
ECD4	FFFF		SUB R15, #$100
ECD6	FFFF		SUB R15, #$100
ECD8	FFFF		SUB R15, #$100
ECDA	FFFF		SUB R15, #$100
ECDC	FFFF		SUB R15, #$100
ECDE	FFFF		SUB R15, #$100
ECE0	FFFF		SUB R15, #$100
ECE2	FFFF		SUB R15, #$100
ECE4	FFFF		SUB R15, #$100
ECE6	FFFF		SUB R15, #$100
ECE8	FFFF		SUB R15, #$100
ECEA	FFFF		SUB R15, #$100
ECEC	FFFF		SUB R15, #$100
ECEE	FFFF		SUB R15, #$100
ECF0	FFFF		SUB R15, #$100
ECF2	FFFF		SUB R15, #$100
ECF4	FFFF		SUB R15, #$100
ECF6	FFFF		SUB R15, #$100
ECF8	FFFF		SUB R15, #$100
ECFA	FFFF		SUB R15, #$100
ECFC	FFFF		SUB R15, #$100
ECFE	FFFF		SUB R15, #$100
ED00	FFFF		SUB R15, #$100
ED02	FFFF		SUB R15, #$100
ED04	FFFF		SUB R15, #$100
ED06	FFFF		SUB R15, #$100
ED08	FFFF		SUB R15, #$100
ED0A	FFFF		SUB R15, #$100
ED0C	FFFF		SUB R15, #$100
ED0E	FFFF		SUB R15, #$100
ED10	FFFF		SUB R15, #$100
ED12	FFFF		SUB R15, #$100
ED14	FFFF		SUB R15, #$100
ED16	FFFF		SUB R15, #$100
ED18	FFFF		SUB R15, #$100
ED1A	FFFF		SUB R15, #$100
ED1C	FFFF		SUB R15, #$100
ED1E	FFFF		SUB R15, #$100
ED20	FFFF		SUB R15, #$100
ED22	FFFF		SUB R15, #$100
ED24	FFFF		SUB R15, #$100
ED26	FFFF		SUB R15, #$100
ED28	FFFF		SUB R15, #$100
ED2A	FFFF		SUB R15, #$100
ED2C	FFFF		SUB R15, #$100
ED2E	FFFF		SUB R15, #$100
ED30	FFFF		SUB R15, #$100
ED32	FFFF		SUB R15, #$100
ED34	FFFF		SUB R15, #$100
ED36	FFFF		SUB R15, #$100
ED38	FFFF		SUB R15, #$100
ED3A	FFFF		SUB R15, #$100
ED3C	FFFF		SUB R15, #$100
ED3E	FFFF		SUB R15, #$100
ED40	FFFF		SUB R15, #$100
ED42	FFFF		SUB R15, #$100
ED44	FFFF		SUB R15, #$100
ED46	FFFF		SUB R15, #$100
ED48	FFFF		SUB R15, #$100
ED4A	FFFF		SUB R15, #$100
ED4C	FFFF		SUB R15, #$100
ED4E	FFFF		SUB R15, #$100
ED50	FFFF		SUB R15, #$100
ED52	FFFF		SUB R15, #$100
ED54	FFFF		SUB R15, #$100
ED56	FFFF		SUB R15, #$100
ED58	FFFF		SUB R15, #$100
ED5A	FFFF		SUB R15, #$100
ED5C	FFFF		SUB R15, #$100
ED5E	FFFF		SUB R15, #$100
ED60	FFFF		SUB R15, #$100
ED62	FFFF		SUB R15, #$100
ED64	FFFF		SUB R15, #$100
ED66	FFFF		SUB R15, #$100
ED68	FFFF		SUB R15, #$100
ED6A	FFFF		SUB R15, #$100
ED6C	FFFF		SUB R15, #$100
ED6E	FFFF		SUB R15, #$100
ED70	FFFF		SUB R15, #$100
ED72	FFFF		SUB R15, #$100
ED74	FFFF		SUB R15, #$100
ED76	FFFF		SUB R15, #$100
ED78	FFFF		SUB R15, #$100
ED7A	FFFF		SUB R15, #$100
ED7C	FFFF		SUB R15, #$100
ED7E	FFFF		SUB R15, #$100
ED80	FFFF		SUB R15, #$100
ED82	FFFF		SUB R15, #$100
ED84	FFFF		SUB R15, #$100
ED86	FFFF		SUB R15, #$100
ED88	FFFF		SUB R15, #$100
ED8A	FFFF		SUB R15, #$100
ED8C	FFFF		SUB R15, #$100
ED8E	FFFF		SUB R15, #$100
ED90	FFFF		SUB R15, #$100
ED92	FFFF		SUB R15, #$100
ED94	FFFF		SUB R15, #$100
ED96	FFFF		SUB R15, #$100
ED98	FFFF		SUB R15, #$100
ED9A	FFFF		SUB R15, #$100
ED9C	FFFF		SUB R15, #$100
ED9E	FFFF		SUB R15, #$100
EDA0	FFFF		SUB R15, #$100
EDA2	FFFF		SUB R15, #$100
EDA4	FFFF		SUB R15, #$100
EDA6	FFFF		SUB R15, #$100
EDA8	FFFF		SUB R15, #$100
EDAA	FFFF		SUB R15, #$100
EDAC	FFFF		SUB R15, #$100
EDAE	FFFF		SUB R15, #$100
EDB0	FFFF		SUB R15, #$100
EDB2	FFFF		SUB R15, #$100
EDB4	FFFF		SUB R15, #$100
EDB6	FFFF		SUB R15, #$100
EDB8	FFFF		SUB R15, #$100
EDBA	FFFF		SUB R15, #$100
EDBC	FFFF		SUB R15, #$100
EDBE	FFFF		SUB R15, #$100
EDC0	FFFF		SUB R15, #$100
EDC2	FFFF		SUB R15, #$100
EDC4	FFFF		SUB R15, #$100
EDC6	FFFF		SUB R15, #$100
EDC8	FFFF		SUB R15, #$100
EDCA	FFFF		SUB R15, #$100
EDCC	FFFF		SUB R15, #$100
EDCE	FFFF		SUB R15, #$100
EDD0	FFFF		SUB R15, #$100
EDD2	FFFF		SUB R15, #$100
EDD4	FFFF		SUB R15, #$100
EDD6	FFFF		SUB R15, #$100
EDD8	FFFF		SUB R15, #$100
EDDA	FFFF		SUB R15, #$100
EDDC	FFFF		SUB R15, #$100
EDDE	FFFF		SUB R15, #$100
EDE0	FFFF		SUB R15, #$100
EDE2	FFFF		SUB R15, #$100
EDE4	FFFF		SUB R15, #$100
EDE6	FFFF		SUB R15, #$100
EDE8	FFFF		SUB R15, #$100
EDEA	FFFF		SUB R15, #$100
EDEC	FFFF		SUB R15, #$100
EDEE	FFFF		SUB R15, #$100
EDF0	FFFF		SUB R15, #$100
EDF2	FFFF		SUB R15, #$100
EDF4	FFFF		SUB R15, #$100
EDF6	FFFF		SUB R15, #$100
EDF8	FFFF		SUB R15, #$100
EDFA	FFFF		SUB R15, #$100
EDFC	FFFF		SUB R15, #$100
EDFE	FFFF		SUB R15, #$100
EE00	FFFF		SUB R15, #$100
EE02	FFFF		SUB R15, #$100
EE04	FFFF		SUB R15, #$100
EE06	FFFF		SUB R15, #$100
EE08	FFFF		SUB R15, #$100
EE0A	FFFF		SUB R15, #$100
EE0C	FFFF		SUB R15, #$100
EE0E	FFFF		SUB R15, #$100
EE10	FFFF		SUB R15, #$100
EE12	FFFF		SUB R15, #$100
EE14	FFFF		SUB R15, #$100
EE16	FFFF		SUB R15, #$100
EE18	FFFF		SUB R15, #$100
EE1A	FFFF		SUB R15, #$100
EE1C	FFFF		SUB R15, #$100
EE1E	FFFF		SUB R15, #$100
EE20	FFFF		SUB R15, #$100
EE22	FFFF		SUB R15, #$100
EE24	FFFF		SUB R15, #$100
EE26	FFFF		SUB R15, #$100
EE28	FFFF		SUB R15, #$100
EE2A	FFFF		SUB R15, #$100
EE2C	FFFF		SUB R15, #$100
EE2E	FFFF		SUB R15, #$100
EE30	FFFF		SUB R15, #$100
EE32	FFFF		SUB R15, #$100
EE34	FFFF		SUB R15, #$100
EE36	FFFF		SUB R15, #$100
EE38	FFFF		SUB R15, #$100
EE3A	FFFF		SUB R15, #$100
EE3C	FFFF		SUB R15, #$100
EE3E	FFFF		SUB R15, #$100
EE40	FFFF		SUB R15, #$100
EE42	FFFF		SUB R15, #$100
EE44	FFFF		SUB R15, #$100
EE46	FFFF		SUB R15, #$100
EE48	FFFF		SUB R15, #$100
EE4A	FFFF		SUB R15, #$100
EE4C	FFFF		SUB R15, #$100
EE4E	FFFF		SUB R15, #$100
EE50	FFFF		SUB R15, #$100
EE52	FFFF		SUB R15, #$100
EE54	FFFF		SUB R15, #$100
EE56	FFFF		SUB R15, #$100
EE58	FFFF		SUB R15, #$100
EE5A	FFFF		SUB R15, #$100
EE5C	FFFF		SUB R15, #$100
EE5E	FFFF		SUB R15, #$100
EE60	FFFF		SUB R15, #$100
EE62	FFFF		SUB R15, #$100
EE64	FFFF		SUB R15, #$100
EE66	FFFF		SUB R15, #$100
EE68	FFFF		SUB R15, #$100
EE6A	FFFF		SUB R15, #$100
EE6C	FFFF		SUB R15, #$100
EE6E	FFFF		SUB R15, #$100
EE70	FFFF		SUB R15, #$100
EE72	FFFF		SUB R15, #$100
EE74	FFFF		SUB R15, #$100
EE76	FFFF		SUB R15, #$100
EE78	FFFF		SUB R15, #$100
EE7A	FFFF		SUB R15, #$100
EE7C	FFFF		SUB R15, #$100
EE7E	FFFF		SUB R15, #$100
EE80	FFFF		SUB R15, #$100
EE82	FFFF		SUB R15, #$100
EE84	FFFF		SUB R15, #$100
EE86	FFFF		SUB R15, #$100
EE88	FFFF		SUB R15, #$100
EE8A	FFFF		SUB R15, #$100
EE8C	FFFF		SUB R15, #$100
EE8E	FFFF		SUB R15, #$100
EE90	FFFF		SUB R15, #$100
EE92	FFFF		SUB R15, #$100
EE94	FFFF		SUB R15, #$100
EE96	FFFF		SUB R15, #$100
EE98	FFFF		SUB R15, #$100
EE9A	FFFF		SUB R15, #$100
EE9C	FFFF		SUB R15, #$100
EE9E	FFFF		SUB R15, #$100
EEA0	FFFF		SUB R15, #$100
EEA2	FFFF		SUB R15, #$100
EEA4	FFFF		SUB R15, #$100
EEA6	FFFF		SUB R15, #$100
EEA8	FFFF		SUB R15, #$100
EEAA	FFFF		SUB R15, #$100
EEAC	FFFF		SUB R15, #$100
EEAE	FFFF		SUB R15, #$100
EEB0	FFFF		SUB R15, #$100
EEB2	FFFF		SUB R15, #$100
EEB4	FFFF		SUB R15, #$100
EEB6	FFFF		SUB R15, #$100
EEB8	FFFF		SUB R15, #$100
EEBA	FFFF		SUB R15, #$100
EEBC	FFFF		SUB R15, #$100
EEBE	FFFF		SUB R15, #$100
EEC0	FFFF		SUB R15, #$100
EEC2	FFFF		SUB R15, #$100
EEC4	FFFF		SUB R15, #$100
EEC6	FFFF		SUB R15, #$100
EEC8	FFFF		SUB R15, #$100
EECA	FFFF		SUB R15, #$100
EECC	FFFF		SUB R15, #$100
EECE	FFFF		SUB R15, #$100
EED0	FFFF		SUB R15, #$100
EED2	FFFF		SUB R15, #$100
EED4	FFFF		SUB R15, #$100
EED6	FFFF		SUB R15, #$100
EED8	FFFF		SUB R15, #$100
EEDA	FFFF		SUB R15, #$100
EEDC	FFFF		SUB R15, #$100
EEDE	FFFF		SUB R15, #$100
EEE0	FFFF		SUB R15, #$100
EEE2	FFFF		SUB R15, #$100
EEE4	FFFF		SUB R15, #$100
EEE6	FFFF		SUB R15, #$100
EEE8	FFFF		SUB R15, #$100
EEEA	FFFF		SUB R15, #$100
EEEC	FFFF		SUB R15, #$100
EEEE	FFFF		SUB R15, #$100
EEF0	FFFF		SUB R15, #$100
EEF2	FFFF		SUB R15, #$100
EEF4	FFFF		SUB R15, #$100
EEF6	FFFF		SUB R15, #$100
EEF8	FFFF		SUB R15, #$100
EEFA	FFFF		SUB R15, #$100
EEFC	FFFF		SUB R15, #$100
EEFE	FFFF		SUB R15, #$100
EF00	FFFF		SUB R15, #$100
EF02	FFFF		SUB R15, #$100
EF04	FFFF		SUB R15, #$100
EF06	FFFF		SUB R15, #$100
EF08	FFFF		SUB R15, #$100
EF0A	FFFF		SUB R15, #$100
EF0C	FFFF		SUB R15, #$100
EF0E	FFFF		SUB R15, #$100
EF10	FFFF		SUB R15, #$100
EF12	FFFF		SUB R15, #$100
EF14	FFFF		SUB R15, #$100
EF16	FFFF		SUB R15, #$100
EF18	FFFF		SUB R15, #$100
EF1A	FFFF		SUB R15, #$100
EF1C	FFFF		SUB R15, #$100
EF1E	FFFF		SUB R15, #$100
EF20	FFFF		SUB R15, #$100
EF22	FFFF		SUB R15, #$100
EF24	FFFF		SUB R15, #$100
EF26	FFFF		SUB R15, #$100
EF28	FFFF		SUB R15, #$100
EF2A	FFFF		SUB R15, #$100
EF2C	FFFF		SUB R15, #$100
EF2E	FFFF		SUB R15, #$100
EF30	FFFF		SUB R15, #$100
EF32	FFFF		SUB R15, #$100
EF34	FFFF		SUB R15, #$100
EF36	FFFF		SUB R15, #$100
EF38	FFFF		SUB R15, #$100
EF3A	FFFF		SUB R15, #$100
EF3C	FFFF		SUB R15, #$100
EF3E	FFFF		SUB R15, #$100
EF40	FFFF		SUB R15, #$100
EF42	FFFF		SUB R15, #$100
EF44	FFFF		SUB R15, #$100
EF46	FFFF		SUB R15, #$100
EF48	FFFF		SUB R15, #$100
EF4A	FFFF		SUB R15, #$100
EF4C	FFFF		SUB R15, #$100
EF4E	FFFF		SUB R15, #$100
EF50	FFFF		SUB R15, #$100
EF52	FFFF		SUB R15, #$100
EF54	FFFF		SUB R15, #$100
EF56	FFFF		SUB R15, #$100
EF58	FFFF		SUB R15, #$100
EF5A	FFFF		SUB R15, #$100
EF5C	FFFF		SUB R15, #$100
EF5E	FFFF		SUB R15, #$100
EF60	FFFF		SUB R15, #$100
EF62	FFFF		SUB R15, #$100
EF64	FFFF		SUB R15, #$100
EF66	FFFF		SUB R15, #$100
EF68	FFFF		SUB R15, #$100
EF6A	FFFF		SUB R15, #$100
EF6C	FFFF		SUB R15, #$100
EF6E	FFFF		SUB R15, #$100
EF70	FFFF		SUB R15, #$100
EF72	FFFF		SUB R15, #$100
EF74	FFFF		SUB R15, #$100
EF76	FFFF		SUB R15, #$100
EF78	FFFF		SUB R15, #$100
EF7A	FFFF		SUB R15, #$100
EF7C	FFFF		SUB R15, #$100
EF7E	FFFF		SUB R15, #$100
EF80	FFFF		SUB R15, #$100
EF82	FFFF		SUB R15, #$100
EF84	FFFF		SUB R15, #$100
EF86	FFFF		SUB R15, #$100
EF88	FFFF		SUB R15, #$100
EF8A	FFFF		SUB R15, #$100
EF8C	FFFF		SUB R15, #$100
EF8E	FFFF		SUB R15, #$100
EF90	FFFF		SUB R15, #$100
EF92	FFFF		SUB R15, #$100
EF94	FFFF		SUB R15, #$100
EF96	FFFF		SUB R15, #$100
EF98	FFFF		SUB R15, #$100
EF9A	FFFF		SUB R15, #$100
EF9C	FFFF		SUB R15, #$100
EF9E	FFFF		SUB R15, #$100
EFA0	FFFF		SUB R15, #$100
EFA2	FFFF		SUB R15, #$100
EFA4	FFFF		SUB R15, #$100
EFA6	FFFF		SUB R15, #$100
EFA8	FFFF		SUB R15, #$100
EFAA	FFFF		SUB R15, #$100
EFAC	FFFF		SUB R15, #$100
EFAE	FFFF		SUB R15, #$100
EFB0	FFFF		SUB R15, #$100
EFB2	FFFF		SUB R15, #$100
EFB4	FFFF		SUB R15, #$100
EFB6	FFFF		SUB R15, #$100
EFB8	FFFF		SUB R15, #$100
EFBA	FFFF		SUB R15, #$100
EFBC	FFFF		SUB R15, #$100
EFBE	FFFF		SUB R15, #$100
EFC0	FFFF		SUB R15, #$100
EFC2	FFFF		SUB R15, #$100
EFC4	FFFF		SUB R15, #$100
EFC6	FFFF		SUB R15, #$100
EFC8	FFFF		SUB R15, #$100
EFCA	FFFF		SUB R15, #$100
EFCC	FFFF		SUB R15, #$100
EFCE	FFFF		SUB R15, #$100
EFD0	FFFF		SUB R15, #$100
EFD2	FFFF		SUB R15, #$100
EFD4	FFFF		SUB R15, #$100
EFD6	FFFF		SUB R15, #$100
EFD8	FFFF		SUB R15, #$100
EFDA	FFFF		SUB R15, #$100
EFDC	FFFF		SUB R15, #$100
EFDE	FFFF		SUB R15, #$100
EFE0	FFFF		SUB R15, #$100
EFE2	FFFF		SUB R15, #$100
EFE4	FFFF		SUB R15, #$100
EFE6	FFFF		SUB R15, #$100
EFE8	FFFF		SUB R15, #$100
EFEA	FFFF		SUB R15, #$100
EFEC	FFFF		SUB R15, #$100
EFEE	FFFF		SUB R15, #$100
EFF0	FFFF		SUB R15, #$100
EFF2	FFFF		SUB R15, #$100
EFF4	FFFF		SUB R15, #$100
EFF6	FFFF		SUB R15, #$100
EFF8	FFFF		SUB R15, #$100
EFFA	FFFF		SUB R15, #$100
EFFC	FFFF		SUB R15, #$100
EFFE	FFFF		SUB R15, #$100
F000	FFFF		SUB R15, #$100
F002	FFFF		SUB R15, #$100
F004	FFFF		SUB R15, #$100
F006	FFFF		SUB R15, #$100
F008	FFFF		SUB R15, #$100
F00A	FFFF		SUB R15, #$100
F00C	FFFF		SUB R15, #$100
F00E	FFFF		SUB R15, #$100
F010	FFFF		SUB R15, #$100
F012	FFFF		SUB R15, #$100
F014	FFFF		SUB R15, #$100
F016	FFFF		SUB R15, #$100
F018	FFFF		SUB R15, #$100
F01A	FFFF		SUB R15, #$100
F01C	FFFF		SUB R15, #$100
F01E	FFFF		SUB R15, #$100
F020	FFFF		SUB R15, #$100
F022	FFFF		SUB R15, #$100
F024	FFFF		SUB R15, #$100
F026	FFFF		SUB R15, #$100
F028	FFFF		SUB R15, #$100
F02A	FFFF		SUB R15, #$100
F02C	FFFF		SUB R15, #$100
F02E	FFFF		SUB R15, #$100
F030	FFFF		SUB R15, #$100
F032	FFFF		SUB R15, #$100
F034	FFFF		SUB R15, #$100
F036	FFFF		SUB R15, #$100
F038	FFFF		SUB R15, #$100
F03A	FFFF		SUB R15, #$100
F03C	FFFF		SUB R15, #$100
F03E	FFFF		SUB R15, #$100
F040	FFFF		SUB R15, #$100
F042	FFFF		SUB R15, #$100
F044	FFFF		SUB R15, #$100
F046	FFFF		SUB R15, #$100
F048	FFFF		SUB R15, #$100
F04A	FFFF		SUB R15, #$100
F04C	FFFF		SUB R15, #$100
F04E	FFFF		SUB R15, #$100
F050	FFFF		SUB R15, #$100
F052	FFFF		SUB R15, #$100
F054	FFFF		SUB R15, #$100
F056	FFFF		SUB R15, #$100
F058	FFFF		SUB R15, #$100
F05A	FFFF		SUB R15, #$100
F05C	FFFF		SUB R15, #$100
F05E	FFFF		SUB R15, #$100
F060	FFFF		SUB R15, #$100
F062	FFFF		SUB R15, #$100
F064	FFFF		SUB R15, #$100
F066	FFFF		SUB R15, #$100
F068	FFFF		SUB R15, #$100
F06A	FFFF		SUB R15, #$100
F06C	FFFF		SUB R15, #$100
F06E	FFFF		SUB R15, #$100
F070	FFFF		SUB R15, #$100
F072	FFFF		SUB R15, #$100
F074	FFFF		SUB R15, #$100
F076	FFFF		SUB R15, #$100
F078	FFFF		SUB R15, #$100
F07A	FFFF		SUB R15, #$100
F07C	FFFF		SUB R15, #$100
F07E	FFFF		SUB R15, #$100
F080	FFFF		SUB R15, #$100
F082	FFFF		SUB R15, #$100
F084	FFFF		SUB R15, #$100
F086	FFFF		SUB R15, #$100
F088	FFFF		SUB R15, #$100
F08A	FFFF		SUB R15, #$100
F08C	FFFF		SUB R15, #$100
F08E	FFFF		SUB R15, #$100
F090	FFFF		SUB R15, #$100
F092	FFFF		SUB R15, #$100
F094	FFFF		SUB R15, #$100
F096	FFFF		SUB R15, #$100
F098	FFFF		SUB R15, #$100
F09A	FFFF		SUB R15, #$100
F09C	FFFF		SUB R15, #$100
F09E	FFFF		SUB R15, #$100
F0A0	FFFF		SUB R15, #$100
F0A2	FFFF		SUB R15, #$100
F0A4	FFFF		SUB R15, #$100
F0A6	FFFF		SUB R15, #$100
F0A8	FFFF		SUB R15, #$100
F0AA	FFFF		SUB R15, #$100
F0AC	FFFF		SUB R15, #$100
F0AE	FFFF		SUB R15, #$100
F0B0	FFFF		SUB R15, #$100
F0B2	FFFF		SUB R15, #$100
F0B4	FFFF		SUB R15, #$100
F0B6	FFFF		SUB R15, #$100
F0B8	FFFF		SUB R15, #$100
F0BA	FFFF		SUB R15, #$100
F0BC	FFFF		SUB R15, #$100
F0BE	FFFF		SUB R15, #$100
F0C0	FFFF		SUB R15, #$100
F0C2	FFFF		SUB R15, #$100
F0C4	FFFF		SUB R15, #$100
F0C6	FFFF		SUB R15, #$100
F0C8	FFFF		SUB R15, #$100
F0CA	FFFF		SUB R15, #$100
F0CC	FFFF		SUB R15, #$100
F0CE	FFFF		SUB R15, #$100
F0D0	FFFF		SUB R15, #$100
F0D2	FFFF		SUB R15, #$100
F0D4	FFFF		SUB R15, #$100
F0D6	FFFF		SUB R15, #$100
F0D8	FFFF		SUB R15, #$100
F0DA	FFFF		SUB R15, #$100
F0DC	FFFF		SUB R15, #$100
F0DE	FFFF		SUB R15, #$100
F0E0	FFFF		SUB R15, #$100
F0E2	FFFF		SUB R15, #$100
F0E4	FFFF		SUB R15, #$100
F0E6	FFFF		SUB R15, #$100
F0E8	FFFF		SUB R15, #$100
F0EA	FFFF		SUB R15, #$100
F0EC	FFFF		SUB R15, #$100
F0EE	FFFF		SUB R15, #$100
F0F0	FFFF		SUB R15, #$100
F0F2	FFFF		SUB R15, #$100
F0F4	FFFF		SUB R15, #$100
F0F6	FFFF		SUB R15, #$100
F0F8	FFFF		SUB R15, #$100
F0FA	FFFF		SUB R15, #$100
F0FC	FFFF		SUB R15, #$100
F0FE	FFFF		SUB R15, #$100
F100	FFFF		SUB R15, #$100
F102	FFFF		SUB R15, #$100
F104	FFFF		SUB R15, #$100
F106	FFFF		SUB R15, #$100
F108	FFFF		SUB R15, #$100
F10A	FFFF		SUB R15, #$100
F10C	FFFF		SUB R15, #$100
F10E	FFFF		SUB R15, #$100
F110	FFFF		SUB R15, #$100
F112	FFFF		SUB R15, #$100
F114	FFFF		SUB R15, #$100
F116	FFFF		SUB R15, #$100
F118	FFFF		SUB R15, #$100
F11A	FFFF		SUB R15, #$100
F11C	FFFF		SUB R15, #$100
F11E	FFFF		SUB R15, #$100
F120	FFFF		SUB R15, #$100
F122	FFFF		SUB R15, #$100
F124	FFFF		SUB R15, #$100
F126	FFFF		SUB R15, #$100
F128	FFFF		SUB R15, #$100
F12A	FFFF		SUB R15, #$100
F12C	FFFF		SUB R15, #$100
F12E	FFFF		SUB R15, #$100
F130	FFFF		SUB R15, #$100
F132	FFFF		SUB R15, #$100
F134	FFFF		SUB R15, #$100
F136	FFFF		SUB R15, #$100
F138	FFFF		SUB R15, #$100
F13A	FFFF		SUB R15, #$100
F13C	FFFF		SUB R15, #$100
F13E	FFFF		SUB R15, #$100
F140	FFFF		SUB R15, #$100
F142	FFFF		SUB R15, #$100
F144	FFFF		SUB R15, #$100
F146	FFFF		SUB R15, #$100
F148	FFFF		SUB R15, #$100
F14A	FFFF		SUB R15, #$100
F14C	FFFF		SUB R15, #$100
F14E	FFFF		SUB R15, #$100
F150	FFFF		SUB R15, #$100
F152	FFFF		SUB R15, #$100
F154	FFFF		SUB R15, #$100
F156	FFFF		SUB R15, #$100
F158	FFFF		SUB R15, #$100
F15A	FFFF		SUB R15, #$100
F15C	FFFF		SUB R15, #$100
F15E	FFFF		SUB R15, #$100
F160	FFFF		SUB R15, #$100
F162	FFFF		SUB R15, #$100
F164	FFFF		SUB R15, #$100
F166	FFFF		SUB R15, #$100
F168	FFFF		SUB R15, #$100
F16A	FFFF		SUB R15, #$100
F16C	FFFF		SUB R15, #$100
F16E	FFFF		SUB R15, #$100
F170	FFFF		SUB R15, #$100
F172	FFFF		SUB R15, #$100
F174	FFFF		SUB R15, #$100
F176	FFFF		SUB R15, #$100
F178	FFFF		SUB R15, #$100
F17A	FFFF		SUB R15, #$100
F17C	FFFF		SUB R15, #$100
F17E	FFFF		SUB R15, #$100
F180	FFFF		SUB R15, #$100
F182	FFFF		SUB R15, #$100
F184	FFFF		SUB R15, #$100
F186	FFFF		SUB R15, #$100
F188	FFFF		SUB R15, #$100
F18A	FFFF		SUB R15, #$100
F18C	FFFF		SUB R15, #$100
F18E	FFFF		SUB R15, #$100
F190	FFFF		SUB R15, #$100
F192	FFFF		SUB R15, #$100
F194	FFFF		SUB R15, #$100
F196	FFFF		SUB R15, #$100
F198	FFFF		SUB R15, #$100
F19A	FFFF		SUB R15, #$100
F19C	FFFF		SUB R15, #$100
F19E	FFFF		SUB R15, #$100
F1A0	FFFF		SUB R15, #$100
F1A2	FFFF		SUB R15, #$100
F1A4	FFFF		SUB R15, #$100
F1A6	FFFF		SUB R15, #$100
F1A8	FFFF		SUB R15, #$100
F1AA	FFFF		SUB R15, #$100
F1AC	FFFF		SUB R15, #$100
F1AE	FFFF		SUB R15, #$100
F1B0	FFFF		SUB R15, #$100
F1B2	FFFF		SUB R15, #$100
F1B4	FFFF		SUB R15, #$100
F1B6	FFFF		SUB R15, #$100
F1B8	FFFF		SUB R15, #$100
F1BA	FFFF		SUB R15, #$100
F1BC	FFFF		SUB R15, #$100
F1BE	FFFF		SUB R15, #$100
F1C0	FFFF		SUB R15, #$100
F1C2	FFFF		SUB R15, #$100
F1C4	FFFF		SUB R15, #$100
F1C6	FFFF		SUB R15, #$100
F1C8	FFFF		SUB R15, #$100
F1CA	FFFF		SUB R15, #$100
F1CC	FFFF		SUB R15, #$100
F1CE	FFFF		SUB R15, #$100
F1D0	FFFF		SUB R15, #$100
F1D2	FFFF		SUB R15, #$100
F1D4	FFFF		SUB R15, #$100
F1D6	FFFF		SUB R15, #$100
F1D8	FFFF		SUB R15, #$100
F1DA	FFFF		SUB R15, #$100
F1DC	FFFF		SUB R15, #$100
F1DE	FFFF		SUB R15, #$100
F1E0	FFFF		SUB R15, #$100
F1E2	FFFF		SUB R15, #$100
F1E4	FFFF		SUB R15, #$100
F1E6	FFFF		SUB R15, #$100
F1E8	FFFF		SUB R15, #$100
F1EA	FFFF		SUB R15, #$100
F1EC	FFFF		SUB R15, #$100
F1EE	FFFF		SUB R15, #$100
F1F0	FFFF		SUB R15, #$100
F1F2	FFFF		SUB R15, #$100
F1F4	FFFF		SUB R15, #$100
F1F6	FFFF		SUB R15, #$100
F1F8	FFFF		SUB R15, #$100
F1FA	FFFF		SUB R15, #$100
F1FC	FFFF		SUB R15, #$100
F1FE	FFFF		SUB R15, #$100
F200	FFFF		SUB R15, #$100
F202	FFFF		SUB R15, #$100
F204	FFFF		SUB R15, #$100
F206	FFFF		SUB R15, #$100
F208	FFFF		SUB R15, #$100
F20A	FFFF		SUB R15, #$100
F20C	FFFF		SUB R15, #$100
F20E	FFFF		SUB R15, #$100
F210	FFFF		SUB R15, #$100
F212	FFFF		SUB R15, #$100
F214	FFFF		SUB R15, #$100
F216	FFFF		SUB R15, #$100
F218	FFFF		SUB R15, #$100
F21A	FFFF		SUB R15, #$100
F21C	FFFF		SUB R15, #$100
F21E	FFFF		SUB R15, #$100
F220	FFFF		SUB R15, #$100
F222	FFFF		SUB R15, #$100
F224	FFFF		SUB R15, #$100
F226	FFFF		SUB R15, #$100
F228	FFFF		SUB R15, #$100
F22A	FFFF		SUB R15, #$100
F22C	FFFF		SUB R15, #$100
F22E	FFFF		SUB R15, #$100
F230	FFFF		SUB R15, #$100
F232	FFFF		SUB R15, #$100
F234	FFFF		SUB R15, #$100
F236	FFFF		SUB R15, #$100
F238	FFFF		SUB R15, #$100
F23A	FFFF		SUB R15, #$100
F23C	FFFF		SUB R15, #$100
F23E	FFFF		SUB R15, #$100
F240	FFFF		SUB R15, #$100
F242	FFFF		SUB R15, #$100
F244	FFFF		SUB R15, #$100
F246	FFFF		SUB R15, #$100
F248	FFFF		SUB R15, #$100
F24A	FFFF		SUB R15, #$100
F24C	FFFF		SUB R15, #$100
F24E	FFFF		SUB R15, #$100
F250	FFFF		SUB R15, #$100
F252	FFFF		SUB R15, #$100
F254	FFFF		SUB R15, #$100
F256	FFFF		SUB R15, #$100
F258	FFFF		SUB R15, #$100
F25A	FFFF		SUB R15, #$100
F25C	FFFF		SUB R15, #$100
F25E	FFFF		SUB R15, #$100
F260	FFFF		SUB R15, #$100
F262	FFFF		SUB R15, #$100
F264	FFFF		SUB R15, #$100
F266	FFFF		SUB R15, #$100
F268	FFFF		SUB R15, #$100
F26A	FFFF		SUB R15, #$100
F26C	FFFF		SUB R15, #$100
F26E	FFFF		SUB R15, #$100
F270	FFFF		SUB R15, #$100
F272	FFFF		SUB R15, #$100
F274	FFFF		SUB R15, #$100
F276	FFFF		SUB R15, #$100
F278	FFFF		SUB R15, #$100
F27A	FFFF		SUB R15, #$100
F27C	FFFF		SUB R15, #$100
F27E	FFFF		SUB R15, #$100
F280	FFFF		SUB R15, #$100
F282	FFFF		SUB R15, #$100
F284	FFFF		SUB R15, #$100
F286	FFFF		SUB R15, #$100
F288	FFFF		SUB R15, #$100
F28A	FFFF		SUB R15, #$100
F28C	FFFF		SUB R15, #$100
F28E	FFFF		SUB R15, #$100
F290	FFFF		SUB R15, #$100
F292	FFFF		SUB R15, #$100
F294	FFFF		SUB R15, #$100
F296	FFFF		SUB R15, #$100
F298	FFFF		SUB R15, #$100
F29A	FFFF		SUB R15, #$100
F29C	FFFF		SUB R15, #$100
F29E	FFFF		SUB R15, #$100
F2A0	FFFF		SUB R15, #$100
F2A2	FFFF		SUB R15, #$100
F2A4	FFFF		SUB R15, #$100
F2A6	FFFF		SUB R15, #$100
F2A8	FFFF		SUB R15, #$100
F2AA	FFFF		SUB R15, #$100
F2AC	FFFF		SUB R15, #$100
F2AE	FFFF		SUB R15, #$100
F2B0	FFFF		SUB R15, #$100
F2B2	FFFF		SUB R15, #$100
F2B4	FFFF		SUB R15, #$100
F2B6	FFFF		SUB R15, #$100
F2B8	FFFF		SUB R15, #$100
F2BA	FFFF		SUB R15, #$100
F2BC	FFFF		SUB R15, #$100
F2BE	FFFF		SUB R15, #$100
F2C0	FFFF		SUB R15, #$100
F2C2	FFFF		SUB R15, #$100
F2C4	FFFF		SUB R15, #$100
F2C6	FFFF		SUB R15, #$100
F2C8	FFFF		SUB R15, #$100
F2CA	FFFF		SUB R15, #$100
F2CC	FFFF		SUB R15, #$100
F2CE	FFFF		SUB R15, #$100
F2D0	FFFF		SUB R15, #$100
F2D2	FFFF		SUB R15, #$100
F2D4	FFFF		SUB R15, #$100
F2D6	FFFF		SUB R15, #$100
F2D8	FFFF		SUB R15, #$100
F2DA	FFFF		SUB R15, #$100
F2DC	FFFF		SUB R15, #$100
F2DE	FFFF		SUB R15, #$100
F2E0	FFFF		SUB R15, #$100
F2E2	FFFF		SUB R15, #$100
F2E4	FFFF		SUB R15, #$100
F2E6	FFFF		SUB R15, #$100
F2E8	FFFF		SUB R15, #$100
F2EA	FFFF		SUB R15, #$100
F2EC	FFFF		SUB R15, #$100
F2EE	FFFF		SUB R15, #$100
F2F0	FFFF		SUB R15, #$100
F2F2	FFFF		SUB R15, #$100
F2F4	FFFF		SUB R15, #$100
F2F6	FFFF		SUB R15, #$100
F2F8	FFFF		SUB R15, #$100
F2FA	FFFF		SUB R15, #$100
F2FC	FFFF		SUB R15, #$100
F2FE	FFFF		SUB R15, #$100
F300	FFFF		SUB R15, #$100
F302	FFFF		SUB R15, #$100
F304	FFFF		SUB R15, #$100
F306	FFFF		SUB R15, #$100
F308	FFFF		SUB R15, #$100
F30A	FFFF		SUB R15, #$100
F30C	FFFF		SUB R15, #$100
F30E	FFFF		SUB R15, #$100
F310	FFFF		SUB R15, #$100
F312	FFFF		SUB R15, #$100
F314	FFFF		SUB R15, #$100
F316	FFFF		SUB R15, #$100
F318	FFFF		SUB R15, #$100
F31A	FFFF		SUB R15, #$100
F31C	FFFF		SUB R15, #$100
F31E	FFFF		SUB R15, #$100
F320	FFFF		SUB R15, #$100
F322	FFFF		SUB R15, #$100
F324	FFFF		SUB R15, #$100
F326	FFFF		SUB R15, #$100
F328	FFFF		SUB R15, #$100
F32A	FFFF		SUB R15, #$100
F32C	FFFF		SUB R15, #$100
F32E	FFFF		SUB R15, #$100
F330	FFFF		SUB R15, #$100
F332	FFFF		SUB R15, #$100
F334	FFFF		SUB R15, #$100
F336	FFFF		SUB R15, #$100
F338	FFFF		SUB R15, #$100
F33A	FFFF		SUB R15, #$100
F33C	FFFF		SUB R15, #$100
F33E	FFFF		SUB R15, #$100
F340	FFFF		SUB R15, #$100
F342	FFFF		SUB R15, #$100
F344	FFFF		SUB R15, #$100
F346	FFFF		SUB R15, #$100
F348	FFFF		SUB R15, #$100
F34A	FFFF		SUB R15, #$100
F34C	FFFF		SUB R15, #$100
F34E	FFFF		SUB R15, #$100
F350	FFFF		SUB R15, #$100
F352	FFFF		SUB R15, #$100
F354	FFFF		SUB R15, #$100
F356	FFFF		SUB R15, #$100
F358	FFFF		SUB R15, #$100
F35A	FFFF		SUB R15, #$100
F35C	FFFF		SUB R15, #$100
F35E	FFFF		SUB R15, #$100
F360	FFFF		SUB R15, #$100
F362	FFFF		SUB R15, #$100
F364	FFFF		SUB R15, #$100
F366	FFFF		SUB R15, #$100
F368	FFFF		SUB R15, #$100
F36A	FFFF		SUB R15, #$100
F36C	FFFF		SUB R15, #$100
F36E	FFFF		SUB R15, #$100
F370	FFFF		SUB R15, #$100
F372	FFFF		SUB R15, #$100
F374	FFFF		SUB R15, #$100
F376	FFFF		SUB R15, #$100
F378	FFFF		SUB R15, #$100
F37A	FFFF		SUB R15, #$100
F37C	FFFF		SUB R15, #$100
F37E	FFFF		SUB R15, #$100
F380	FFFF		SUB R15, #$100
F382	FFFF		SUB R15, #$100
F384	FFFF		SUB R15, #$100
F386	FFFF		SUB R15, #$100
F388	FFFF		SUB R15, #$100
F38A	FFFF		SUB R15, #$100
F38C	FFFF		SUB R15, #$100
F38E	FFFF		SUB R15, #$100
F390	FFFF		SUB R15, #$100
F392	FFFF		SUB R15, #$100
F394	FFFF		SUB R15, #$100
F396	FFFF		SUB R15, #$100
F398	FFFF		SUB R15, #$100
F39A	FFFF		SUB R15, #$100
F39C	FFFF		SUB R15, #$100
F39E	FFFF		SUB R15, #$100
F3A0	FFFF		SUB R15, #$100
F3A2	FFFF		SUB R15, #$100
F3A4	FFFF		SUB R15, #$100
F3A6	FFFF		SUB R15, #$100
F3A8	FFFF		SUB R15, #$100
F3AA	FFFF		SUB R15, #$100
F3AC	FFFF		SUB R15, #$100
F3AE	FFFF		SUB R15, #$100
F3B0	FFFF		SUB R15, #$100
F3B2	FFFF		SUB R15, #$100
F3B4	FFFF		SUB R15, #$100
F3B6	FFFF		SUB R15, #$100
F3B8	FFFF		SUB R15, #$100
F3BA	FFFF		SUB R15, #$100
F3BC	FFFF		SUB R15, #$100
F3BE	FFFF		SUB R15, #$100
F3C0	FFFF		SUB R15, #$100
F3C2	FFFF		SUB R15, #$100
F3C4	FFFF		SUB R15, #$100
F3C6	FFFF		SUB R15, #$100
F3C8	FFFF		SUB R15, #$100
F3CA	FFFF		SUB R15, #$100
F3CC	FFFF		SUB R15, #$100
F3CE	FFFF		SUB R15, #$100
F3D0	FFFF		SUB R15, #$100
F3D2	FFFF		SUB R15, #$100
F3D4	FFFF		SUB R15, #$100
F3D6	FFFF		SUB R15, #$100
F3D8	FFFF		SUB R15, #$100
F3DA	FFFF		SUB R15, #$100
F3DC	FFFF		SUB R15, #$100
F3DE	FFFF		SUB R15, #$100
F3E0	FFFF		SUB R15, #$100
F3E2	FFFF		SUB R15, #$100
F3E4	FFFF		SUB R15, #$100
F3E6	FFFF		SUB R15, #$100
F3E8	FFFF		SUB R15, #$100
F3EA	FFFF		SUB R15, #$100
F3EC	FFFF		SUB R15, #$100
F3EE	FFFF		SUB R15, #$100
F3F0	FFFF		SUB R15, #$100
F3F2	FFFF		SUB R15, #$100
F3F4	FFFF		SUB R15, #$100
F3F6	FFFF		SUB R15, #$100
F3F8	FFFF		SUB R15, #$100
F3FA	FFFF		SUB R15, #$100
F3FC	FFFF		SUB R15, #$100
F3FE	FFFF		SUB R15, #$100
F400	FFFF		SUB R15, #$100
F402	FFFF		SUB R15, #$100
F404	FFFF		SUB R15, #$100
F406	FFFF		SUB R15, #$100
F408	FFFF		SUB R15, #$100
F40A	FFFF		SUB R15, #$100
F40C	FFFF		SUB R15, #$100
F40E	FFFF		SUB R15, #$100
F410	FFFF		SUB R15, #$100
F412	FFFF		SUB R15, #$100
F414	FFFF		SUB R15, #$100
F416	FFFF		SUB R15, #$100
F418	FFFF		SUB R15, #$100
F41A	FFFF		SUB R15, #$100
F41C	FFFF		SUB R15, #$100
F41E	FFFF		SUB R15, #$100
F420	FFFF		SUB R15, #$100
F422	FFFF		SUB R15, #$100
F424	FFFF		SUB R15, #$100
F426	FFFF		SUB R15, #$100
F428	FFFF		SUB R15, #$100
F42A	FFFF		SUB R15, #$100
F42C	FFFF		SUB R15, #$100
F42E	FFFF		SUB R15, #$100
F430	FFFF		SUB R15, #$100
F432	FFFF		SUB R15, #$100
F434	FFFF		SUB R15, #$100
F436	FFFF		SUB R15, #$100
F438	FFFF		SUB R15, #$100
F43A	FFFF		SUB R15, #$100
F43C	FFFF		SUB R15, #$100
F43E	FFFF		SUB R15, #$100
F440	FFFF		SUB R15, #$100
F442	FFFF		SUB R15, #$100
F444	FFFF		SUB R15, #$100
F446	FFFF		SUB R15, #$100
F448	FFFF		SUB R15, #$100
F44A	FFFF		SUB R15, #$100
F44C	FFFF		SUB R15, #$100
F44E	FFFF		SUB R15, #$100
F450	FFFF		SUB R15, #$100
F452	FFFF		SUB R15, #$100
F454	FFFF		SUB R15, #$100
F456	FFFF		SUB R15, #$100
F458	FFFF		SUB R15, #$100
F45A	FFFF		SUB R15, #$100
F45C	FFFF		SUB R15, #$100
F45E	FFFF		SUB R15, #$100
F460	FFFF		SUB R15, #$100
F462	FFFF		SUB R15, #$100
F464	FFFF		SUB R15, #$100
F466	FFFF		SUB R15, #$100
F468	FFFF		SUB R15, #$100
F46A	FFFF		SUB R15, #$100
F46C	FFFF		SUB R15, #$100
F46E	FFFF		SUB R15, #$100
F470	FFFF		SUB R15, #$100
F472	FFFF		SUB R15, #$100
F474	FFFF		SUB R15, #$100
F476	FFFF		SUB R15, #$100
F478	FFFF		SUB R15, #$100
F47A	FFFF		SUB R15, #$100
F47C	FFFF		SUB R15, #$100
F47E	FFFF		SUB R15, #$100
F480	FFFF		SUB R15, #$100
F482	FFFF		SUB R15, #$100
F484	FFFF		SUB R15, #$100
F486	FFFF		SUB R15, #$100
F488	FFFF		SUB R15, #$100
F48A	FFFF		SUB R15, #$100
F48C	FFFF		SUB R15, #$100
F48E	FFFF		SUB R15, #$100
F490	FFFF		SUB R15, #$100
F492	FFFF		SUB R15, #$100
F494	FFFF		SUB R15, #$100
F496	FFFF		SUB R15, #$100
F498	FFFF		SUB R15, #$100
F49A	FFFF		SUB R15, #$100
F49C	FFFF		SUB R15, #$100
F49E	FFFF		SUB R15, #$100
F4A0	FFFF		SUB R15, #$100
F4A2	FFFF		SUB R15, #$100
F4A4	FFFF		SUB R15, #$100
F4A6	FFFF		SUB R15, #$100
F4A8	FFFF		SUB R15, #$100
F4AA	FFFF		SUB R15, #$100
F4AC	FFFF		SUB R15, #$100
F4AE	FFFF		SUB R15, #$100
F4B0	FFFF		SUB R15, #$100
F4B2	FFFF		SUB R15, #$100
F4B4	FFFF		SUB R15, #$100
F4B6	FFFF		SUB R15, #$100
F4B8	FFFF		SUB R15, #$100
F4BA	FFFF		SUB R15, #$100
F4BC	FFFF		SUB R15, #$100
F4BE	FFFF		SUB R15, #$100
F4C0	FFFF		SUB R15, #$100
F4C2	FFFF		SUB R15, #$100
F4C4	FFFF		SUB R15, #$100
F4C6	FFFF		SUB R15, #$100
F4C8	FFFF		SUB R15, #$100
F4CA	FFFF		SUB R15, #$100
F4CC	FFFF		SUB R15, #$100
F4CE	FFFF		SUB R15, #$100
F4D0	FFFF		SUB R15, #$100
F4D2	FFFF		SUB R15, #$100
F4D4	FFFF		SUB R15, #$100
F4D6	FFFF		SUB R15, #$100
F4D8	FFFF		SUB R15, #$100
F4DA	FFFF		SUB R15, #$100
F4DC	FFFF		SUB R15, #$100
F4DE	FFFF		SUB R15, #$100
F4E0	FFFF		SUB R15, #$100
F4E2	FFFF		SUB R15, #$100
F4E4	FFFF		SUB R15, #$100
F4E6	FFFF		SUB R15, #$100
F4E8	FFFF		SUB R15, #$100
F4EA	FFFF		SUB R15, #$100
F4EC	FFFF		SUB R15, #$100
F4EE	FFFF		SUB R15, #$100
F4F0	FFFF		SUB R15, #$100
F4F2	FFFF		SUB R15, #$100
F4F4	FFFF		SUB R15, #$100
F4F6	FFFF		SUB R15, #$100
F4F8	FFFF		SUB R15, #$100
F4FA	FFFF		SUB R15, #$100
F4FC	FFFF		SUB R15, #$100
F4FE	FFFF		SUB R15, #$100
F500	FFFF		SUB R15, #$100
F502	FFFF		SUB R15, #$100
F504	FFFF		SUB R15, #$100
F506	FFFF		SUB R15, #$100
F508	FFFF		SUB R15, #$100
F50A	FFFF		SUB R15, #$100
F50C	FFFF		SUB R15, #$100
F50E	FFFF		SUB R15, #$100
F510	FFFF		SUB R15, #$100
F512	FFFF		SUB R15, #$100
F514	FFFF		SUB R15, #$100
F516	FFFF		SUB R15, #$100
F518	FFFF		SUB R15, #$100
F51A	FFFF		SUB R15, #$100
F51C	FFFF		SUB R15, #$100
F51E	FFFF		SUB R15, #$100
F520	FFFF		SUB R15, #$100
F522	FFFF		SUB R15, #$100
F524	FFFF		SUB R15, #$100
F526	FFFF		SUB R15, #$100
F528	FFFF		SUB R15, #$100
F52A	FFFF		SUB R15, #$100
F52C	FFFF		SUB R15, #$100
F52E	FFFF		SUB R15, #$100
F530	FFFF		SUB R15, #$100
F532	FFFF		SUB R15, #$100
F534	FFFF		SUB R15, #$100
F536	FFFF		SUB R15, #$100
F538	FFFF		SUB R15, #$100
F53A	FFFF		SUB R15, #$100
F53C	FFFF		SUB R15, #$100
F53E	FFFF		SUB R15, #$100
F540	FFFF		SUB R15, #$100
F542	FFFF		SUB R15, #$100
F544	FFFF		SUB R15, #$100
F546	FFFF		SUB R15, #$100
F548	FFFF		SUB R15, #$100
F54A	FFFF		SUB R15, #$100
F54C	FFFF		SUB R15, #$100
F54E	FFFF		SUB R15, #$100
F550	FFFF		SUB R15, #$100
F552	FFFF		SUB R15, #$100
F554	FFFF		SUB R15, #$100
F556	FFFF		SUB R15, #$100
F558	FFFF		SUB R15, #$100
F55A	FFFF		SUB R15, #$100
F55C	FFFF		SUB R15, #$100
F55E	FFFF		SUB R15, #$100
F560	FFFF		SUB R15, #$100
F562	FFFF		SUB R15, #$100
F564	FFFF		SUB R15, #$100
F566	FFFF		SUB R15, #$100
F568	FFFF		SUB R15, #$100
F56A	FFFF		SUB R15, #$100
F56C	FFFF		SUB R15, #$100
F56E	FFFF		SUB R15, #$100
F570	FFFF		SUB R15, #$100
F572	FFFF		SUB R15, #$100
F574	FFFF		SUB R15, #$100
F576	FFFF		SUB R15, #$100
F578	FFFF		SUB R15, #$100
F57A	FFFF		SUB R15, #$100
F57C	FFFF		SUB R15, #$100
F57E	FFFF		SUB R15, #$100
F580	FFFF		SUB R15, #$100
F582	FFFF		SUB R15, #$100
F584	FFFF		SUB R15, #$100
F586	FFFF		SUB R15, #$100
F588	FFFF		SUB R15, #$100
F58A	FFFF		SUB R15, #$100
F58C	FFFF		SUB R15, #$100
F58E	FFFF		SUB R15, #$100
F590	FFFF		SUB R15, #$100
F592	FFFF		SUB R15, #$100
F594	FFFF		SUB R15, #$100
F596	FFFF		SUB R15, #$100
F598	FFFF		SUB R15, #$100
F59A	FFFF		SUB R15, #$100
F59C	FFFF		SUB R15, #$100
F59E	FFFF		SUB R15, #$100
F5A0	FFFF		SUB R15, #$100
F5A2	FFFF		SUB R15, #$100
F5A4	FFFF		SUB R15, #$100
F5A6	FFFF		SUB R15, #$100
F5A8	FFFF		SUB R15, #$100
F5AA	FFFF		SUB R15, #$100
F5AC	FFFF		SUB R15, #$100
F5AE	FFFF		SUB R15, #$100
F5B0	FFFF		SUB R15, #$100
F5B2	FFFF		SUB R15, #$100
F5B4	FFFF		SUB R15, #$100
F5B6	FFFF		SUB R15, #$100
F5B8	FFFF		SUB R15, #$100
F5BA	FFFF		SUB R15, #$100
F5BC	FFFF		SUB R15, #$100
F5BE	FFFF		SUB R15, #$100
F5C0	FFFF		SUB R15, #$100
F5C2	FFFF		SUB R15, #$100
F5C4	FFFF		SUB R15, #$100
F5C6	FFFF		SUB R15, #$100
F5C8	FFFF		SUB R15, #$100
F5CA	FFFF		SUB R15, #$100
F5CC	FFFF		SUB R15, #$100
F5CE	FFFF		SUB R15, #$100
F5D0	FFFF		SUB R15, #$100
F5D2	FFFF		SUB R15, #$100
F5D4	FFFF		SUB R15, #$100
F5D6	FFFF		SUB R15, #$100
F5D8	FFFF		SUB R15, #$100
F5DA	FFFF		SUB R15, #$100
F5DC	FFFF		SUB R15, #$100
F5DE	FFFF		SUB R15, #$100
F5E0	FFFF		SUB R15, #$100
F5E2	FFFF		SUB R15, #$100
F5E4	FFFF		SUB R15, #$100
F5E6	FFFF		SUB R15, #$100
F5E8	FFFF		SUB R15, #$100
F5EA	FFFF		SUB R15, #$100
F5EC	FFFF		SUB R15, #$100
F5EE	FFFF		SUB R15, #$100
F5F0	FFFF		SUB R15, #$100
F5F2	FFFF		SUB R15, #$100
F5F4	FFFF		SUB R15, #$100
F5F6	FFFF		SUB R15, #$100
F5F8	FFFF		SUB R15, #$100
F5FA	FFFF		SUB R15, #$100
F5FC	FFFF		SUB R15, #$100
F5FE	FFFF		SUB R15, #$100
F600	FFFF		SUB R15, #$100
F602	FFFF		SUB R15, #$100
F604	FFFF		SUB R15, #$100
F606	FFFF		SUB R15, #$100
F608	FFFF		SUB R15, #$100
F60A	FFFF		SUB R15, #$100
F60C	FFFF		SUB R15, #$100
F60E	FFFF		SUB R15, #$100
F610	FFFF		SUB R15, #$100
F612	FFFF		SUB R15, #$100
F614	FFFF		SUB R15, #$100
F616	FFFF		SUB R15, #$100
F618	FFFF		SUB R15, #$100
F61A	FFFF		SUB R15, #$100
F61C	FFFF		SUB R15, #$100
F61E	FFFF		SUB R15, #$100
F620	FFFF		SUB R15, #$100
F622	FFFF		SUB R15, #$100
F624	FFFF		SUB R15, #$100
F626	FFFF		SUB R15, #$100
F628	FFFF		SUB R15, #$100
F62A	FFFF		SUB R15, #$100
F62C	FFFF		SUB R15, #$100
F62E	FFFF		SUB R15, #$100
F630	FFFF		SUB R15, #$100
F632	FFFF		SUB R15, #$100
F634	FFFF		SUB R15, #$100
F636	FFFF		SUB R15, #$100
F638	FFFF		SUB R15, #$100
F63A	FFFF		SUB R15, #$100
F63C	FFFF		SUB R15, #$100
F63E	FFFF		SUB R15, #$100
F640	FFFF		SUB R15, #$100
F642	FFFF		SUB R15, #$100
F644	FFFF		SUB R15, #$100
F646	FFFF		SUB R15, #$100
F648	FFFF		SUB R15, #$100
F64A	FFFF		SUB R15, #$100
F64C	FFFF		SUB R15, #$100
F64E	FFFF		SUB R15, #$100
F650	FFFF		SUB R15, #$100
F652	FFFF		SUB R15, #$100
F654	FFFF		SUB R15, #$100
F656	FFFF		SUB R15, #$100
F658	FFFF		SUB R15, #$100
F65A	FFFF		SUB R15, #$100
F65C	FFFF		SUB R15, #$100
F65E	FFFF		SUB R15, #$100
F660	FFFF		SUB R15, #$100
F662	FFFF		SUB R15, #$100
F664	FFFF		SUB R15, #$100
F666	FFFF		SUB R15, #$100
F668	FFFF		SUB R15, #$100
F66A	FFFF		SUB R15, #$100
F66C	FFFF		SUB R15, #$100
F66E	FFFF		SUB R15, #$100
F670	FFFF		SUB R15, #$100
F672	FFFF		SUB R15, #$100
F674	FFFF		SUB R15, #$100
F676	FFFF		SUB R15, #$100
F678	FFFF		SUB R15, #$100
F67A	FFFF		SUB R15, #$100
F67C	FFFF		SUB R15, #$100
F67E	FFFF		SUB R15, #$100
F680	FFFF		SUB R15, #$100
F682	FFFF		SUB R15, #$100
F684	FFFF		SUB R15, #$100
F686	FFFF		SUB R15, #$100
F688	FFFF		SUB R15, #$100
F68A	FFFF		SUB R15, #$100
F68C	FFFF		SUB R15, #$100
F68E	FFFF		SUB R15, #$100
F690	FFFF		SUB R15, #$100
F692	FFFF		SUB R15, #$100
F694	FFFF		SUB R15, #$100
F696	FFFF		SUB R15, #$100
F698	FFFF		SUB R15, #$100
F69A	FFFF		SUB R15, #$100
F69C	FFFF		SUB R15, #$100
F69E	FFFF		SUB R15, #$100
F6A0	FFFF		SUB R15, #$100
F6A2	FFFF		SUB R15, #$100
F6A4	FFFF		SUB R15, #$100
F6A6	FFFF		SUB R15, #$100
F6A8	FFFF		SUB R15, #$100
F6AA	FFFF		SUB R15, #$100
F6AC	FFFF		SUB R15, #$100
F6AE	FFFF		SUB R15, #$100
F6B0	FFFF		SUB R15, #$100
F6B2	FFFF		SUB R15, #$100
F6B4	FFFF		SUB R15, #$100
F6B6	FFFF		SUB R15, #$100
F6B8	FFFF		SUB R15, #$100
F6BA	FFFF		SUB R15, #$100
F6BC	FFFF		SUB R15, #$100
F6BE	FFFF		SUB R15, #$100
F6C0	FFFF		SUB R15, #$100
F6C2	FFFF		SUB R15, #$100
F6C4	FFFF		SUB R15, #$100
F6C6	FFFF		SUB R15, #$100
F6C8	FFFF		SUB R15, #$100
F6CA	FFFF		SUB R15, #$100
F6CC	FFFF		SUB R15, #$100
F6CE	FFFF		SUB R15, #$100
F6D0	FFFF		SUB R15, #$100
F6D2	FFFF		SUB R15, #$100
F6D4	FFFF		SUB R15, #$100
F6D6	FFFF		SUB R15, #$100
F6D8	FFFF		SUB R15, #$100
F6DA	FFFF		SUB R15, #$100
F6DC	FFFF		SUB R15, #$100
F6DE	FFFF		SUB R15, #$100
F6E0	FFFF		SUB R15, #$100
F6E2	FFFF		SUB R15, #$100
F6E4	FFFF		SUB R15, #$100
F6E6	FFFF		SUB R15, #$100
F6E8	FFFF		SUB R15, #$100
F6EA	FFFF		SUB R15, #$100
F6EC	FFFF		SUB R15, #$100
F6EE	FFFF		SUB R15, #$100
F6F0	FFFF		SUB R15, #$100
F6F2	FFFF		SUB R15, #$100
F6F4	FFFF		SUB R15, #$100
F6F6	FFFF		SUB R15, #$100
F6F8	FFFF		SUB R15, #$100
F6FA	FFFF		SUB R15, #$100
F6FC	FFFF		SUB R15, #$100
F6FE	FFFF		SUB R15, #$100
F700	FFFF		SUB R15, #$100
F702	FFFF		SUB R15, #$100
F704	FFFF		SUB R15, #$100
F706	FFFF		SUB R15, #$100
F708	FFFF		SUB R15, #$100
F70A	FFFF		SUB R15, #$100
F70C	FFFF		SUB R15, #$100
F70E	FFFF		SUB R15, #$100
F710	FFFF		SUB R15, #$100
F712	FFFF		SUB R15, #$100
F714	FFFF		SUB R15, #$100
F716	FFFF		SUB R15, #$100
F718	FFFF		SUB R15, #$100
F71A	FFFF		SUB R15, #$100
F71C	FFFF		SUB R15, #$100
F71E	FFFF		SUB R15, #$100
F720	FFFF		SUB R15, #$100
F722	FFFF		SUB R15, #$100
F724	FFFF		SUB R15, #$100
F726	FFFF		SUB R15, #$100
F728	FFFF		SUB R15, #$100
F72A	FFFF		SUB R15, #$100
F72C	FFFF		SUB R15, #$100
F72E	FFFF		SUB R15, #$100
F730	FFFF		SUB R15, #$100
F732	FFFF		SUB R15, #$100
F734	FFFF		SUB R15, #$100
F736	FFFF		SUB R15, #$100
F738	FFFF		SUB R15, #$100
F73A	FFFF		SUB R15, #$100
F73C	FFFF		SUB R15, #$100
F73E	FFFF		SUB R15, #$100
F740	FFFF		SUB R15, #$100
F742	FFFF		SUB R15, #$100
F744	FFFF		SUB R15, #$100
F746	FFFF		SUB R15, #$100
F748	FFFF		SUB R15, #$100
F74A	FFFF		SUB R15, #$100
F74C	FFFF		SUB R15, #$100
F74E	FFFF		SUB R15, #$100
F750	FFFF		SUB R15, #$100
F752	FFFF		SUB R15, #$100
F754	FFFF		SUB R15, #$100
F756	FFFF		SUB R15, #$100
F758	FFFF		SUB R15, #$100
F75A	FFFF		SUB R15, #$100
F75C	FFFF		SUB R15, #$100
F75E	FFFF		SUB R15, #$100
F760	FFFF		SUB R15, #$100
F762	FFFF		SUB R15, #$100
F764	FFFF		SUB R15, #$100
F766	FFFF		SUB R15, #$100
F768	FFFF		SUB R15, #$100
F76A	FFFF		SUB R15, #$100
F76C	FFFF		SUB R15, #$100
F76E	FFFF		SUB R15, #$100
F770	FFFF		SUB R15, #$100
F772	FFFF		SUB R15, #$100
F774	FFFF		SUB R15, #$100
F776	FFFF		SUB R15, #$100
F778	FFFF		SUB R15, #$100
F77A	FFFF		SUB R15, #$100
F77C	FFFF		SUB R15, #$100
F77E	FFFF		SUB R15, #$100
F780	FFFF		SUB R15, #$100
F782	FFFF		SUB R15, #$100
F784	FFFF		SUB R15, #$100
F786	FFFF		SUB R15, #$100
F788	FFFF		SUB R15, #$100
F78A	FFFF		SUB R15, #$100
F78C	FFFF		SUB R15, #$100
F78E	FFFF		SUB R15, #$100
F790	FFFF		SUB R15, #$100
F792	FFFF		SUB R15, #$100
F794	FFFF		SUB R15, #$100
F796	FFFF		SUB R15, #$100
F798	FFFF		SUB R15, #$100
F79A	FFFF		SUB R15, #$100
F79C	FFFF		SUB R15, #$100
F79E	FFFF		SUB R15, #$100
F7A0	FFFF		SUB R15, #$100
F7A2	FFFF		SUB R15, #$100
F7A4	FFFF		SUB R15, #$100
F7A6	FFFF		SUB R15, #$100
F7A8	FFFF		SUB R15, #$100
F7AA	FFFF		SUB R15, #$100
F7AC	FFFF		SUB R15, #$100
F7AE	FFFF		SUB R15, #$100
F7B0	FFFF		SUB R15, #$100
F7B2	FFFF		SUB R15, #$100
F7B4	FFFF		SUB R15, #$100
F7B6	FFFF		SUB R15, #$100
F7B8	FFFF		SUB R15, #$100
F7BA	FFFF		SUB R15, #$100
F7BC	FFFF		SUB R15, #$100
F7BE	FFFF		SUB R15, #$100
F7C0	FFFF		SUB R15, #$100
F7C2	FFFF		SUB R15, #$100
F7C4	FFFF		SUB R15, #$100
F7C6	FFFF		SUB R15, #$100
F7C8	FFFF		SUB R15, #$100
F7CA	FFFF		SUB R15, #$100
F7CC	FFFF		SUB R15, #$100
F7CE	FFFF		SUB R15, #$100
F7D0	FFFF		SUB R15, #$100
F7D2	FFFF		SUB R15, #$100
F7D4	FFFF		SUB R15, #$100
F7D6	FFFF		SUB R15, #$100
F7D8	FFFF		SUB R15, #$100
F7DA	FFFF		SUB R15, #$100
F7DC	FFFF		SUB R15, #$100
F7DE	FFFF		SUB R15, #$100
F7E0	FFFF		SUB R15, #$100
F7E2	FFFF		SUB R15, #$100
F7E4	FFFF		SUB R15, #$100
F7E6	FFFF		SUB R15, #$100
F7E8	FFFF		SUB R15, #$100
F7EA	FFFF		SUB R15, #$100
F7EC	FFFF		SUB R15, #$100
F7EE	FFFF		SUB R15, #$100
F7F0	FFFF		SUB R15, #$100
F7F2	FFFF		SUB R15, #$100
F7F4	FFFF		SUB R15, #$100
F7F6	FFFF		SUB R15, #$100
F7F8	FFFF		SUB R15, #$100
F7FA	FFFF		SUB R15, #$100
F7FC	FFFF		SUB R15, #$100
F7FE	FFFF		SUB R15, #$100
F800	FFFF		SUB R15, #$100
F802	FFFF		SUB R15, #$100
F804	FFFF		SUB R15, #$100
F806	FFFF		SUB R15, #$100
F808	FFFF		SUB R15, #$100
F80A	FFFF		SUB R15, #$100
F80C	FFFF		SUB R15, #$100
F80E	FFFF		SUB R15, #$100
F810	FFFF		SUB R15, #$100
F812	FFFF		SUB R15, #$100
F814	FFFF		SUB R15, #$100
F816	FFFF		SUB R15, #$100
F818	FFFF		SUB R15, #$100
F81A	FFFF		SUB R15, #$100
F81C	FFFF		SUB R15, #$100
F81E	FFFF		SUB R15, #$100
F820	FFFF		SUB R15, #$100
F822	FFFF		SUB R15, #$100
F824	FFFF		SUB R15, #$100
F826	FFFF		SUB R15, #$100
F828	FFFF		SUB R15, #$100
F82A	FFFF		SUB R15, #$100
F82C	FFFF		SUB R15, #$100
F82E	FFFF		SUB R15, #$100
F830	FFFF		SUB R15, #$100
F832	FFFF		SUB R15, #$100
F834	FFFF		SUB R15, #$100
F836	FFFF		SUB R15, #$100
F838	FFFF		SUB R15, #$100
F83A	FFFF		SUB R15, #$100
F83C	FFFF		SUB R15, #$100
F83E	FFFF		SUB R15, #$100
F840	FFFF		SUB R15, #$100
F842	FFFF		SUB R15, #$100
F844	FFFF		SUB R15, #$100
F846	FFFF		SUB R15, #$100
F848	FFFF		SUB R15, #$100
F84A	FFFF		SUB R15, #$100
F84C	FFFF		SUB R15, #$100
F84E	FFFF		SUB R15, #$100
F850	FFFF		SUB R15, #$100
F852	FFFF		SUB R15, #$100
F854	FFFF		SUB R15, #$100
F856	FFFF		SUB R15, #$100
F858	FFFF		SUB R15, #$100
F85A	FFFF		SUB R15, #$100
F85C	FFFF		SUB R15, #$100
F85E	FFFF		SUB R15, #$100
F860	FFFF		SUB R15, #$100
F862	FFFF		SUB R15, #$100
F864	FFFF		SUB R15, #$100
F866	FFFF		SUB R15, #$100
F868	FFFF		SUB R15, #$100
F86A	FFFF		SUB R15, #$100
F86C	FFFF		SUB R15, #$100
F86E	FFFF		SUB R15, #$100
F870	FFFF		SUB R15, #$100
F872	FFFF		SUB R15, #$100
F874	FFFF		SUB R15, #$100
F876	FFFF		SUB R15, #$100
F878	FFFF		SUB R15, #$100
F87A	FFFF		SUB R15, #$100
F87C	FFFF		SUB R15, #$100
F87E	FFFF		SUB R15, #$100
F880	FFFF		SUB R15, #$100
F882	FFFF		SUB R15, #$100
F884	FFFF		SUB R15, #$100
F886	FFFF		SUB R15, #$100
F888	FFFF		SUB R15, #$100
F88A	FFFF		SUB R15, #$100
F88C	FFFF		SUB R15, #$100
F88E	FFFF		SUB R15, #$100
F890	FFFF		SUB R15, #$100
F892	FFFF		SUB R15, #$100
F894	FFFF		SUB R15, #$100
F896	FFFF		SUB R15, #$100
F898	FFFF		SUB R15, #$100
F89A	FFFF		SUB R15, #$100
F89C	FFFF		SUB R15, #$100
F89E	FFFF		SUB R15, #$100
F8A0	FFFF		SUB R15, #$100
F8A2	FFFF		SUB R15, #$100
F8A4	FFFF		SUB R15, #$100
F8A6	FFFF		SUB R15, #$100
F8A8	FFFF		SUB R15, #$100
F8AA	FFFF		SUB R15, #$100
F8AC	FFFF		SUB R15, #$100
F8AE	FFFF		SUB R15, #$100
F8B0	FFFF		SUB R15, #$100
F8B2	FFFF		SUB R15, #$100
F8B4	FFFF		SUB R15, #$100
F8B6	FFFF		SUB R15, #$100
F8B8	FFFF		SUB R15, #$100
F8BA	FFFF		SUB R15, #$100
F8BC	FFFF		SUB R15, #$100
F8BE	FFFF		SUB R15, #$100
F8C0	FFFF		SUB R15, #$100
F8C2	FFFF		SUB R15, #$100
F8C4	FFFF		SUB R15, #$100
F8C6	FFFF		SUB R15, #$100
F8C8	FFFF		SUB R15, #$100
F8CA	FFFF		SUB R15, #$100
F8CC	FFFF		SUB R15, #$100
F8CE	FFFF		SUB R15, #$100
F8D0	FFFF		SUB R15, #$100
F8D2	FFFF		SUB R15, #$100
F8D4	FFFF		SUB R15, #$100
F8D6	FFFF		SUB R15, #$100
F8D8	FFFF		SUB R15, #$100
F8DA	FFFF		SUB R15, #$100
F8DC	FFFF		SUB R15, #$100
F8DE	FFFF		SUB R15, #$100
F8E0	FFFF		SUB R15, #$100
F8E2	FFFF		SUB R15, #$100
F8E4	FFFF		SUB R15, #$100
F8E6	FFFF		SUB R15, #$100
F8E8	FFFF		SUB R15, #$100
F8EA	FFFF		SUB R15, #$100
F8EC	FFFF		SUB R15, #$100
F8EE	FFFF		SUB R15, #$100
F8F0	FFFF		SUB R15, #$100
F8F2	FFFF		SUB R15, #$100
F8F4	FFFF		SUB R15, #$100
F8F6	FFFF		SUB R15, #$100
F8F8	FFFF		SUB R15, #$100
F8FA	FFFF		SUB R15, #$100
F8FC	FFFF		SUB R15, #$100
F8FE	FFFF		SUB R15, #$100
F900	FFFF		SUB R15, #$100
F902	FFFF		SUB R15, #$100
F904	FFFF		SUB R15, #$100
F906	FFFF		SUB R15, #$100
F908	FFFF		SUB R15, #$100
F90A	FFFF		SUB R15, #$100
F90C	FFFF		SUB R15, #$100
F90E	FFFF		SUB R15, #$100
F910	FFFF		SUB R15, #$100
F912	FFFF		SUB R15, #$100
F914	FFFF		SUB R15, #$100
F916	FFFF		SUB R15, #$100
F918	FFFF		SUB R15, #$100
F91A	FFFF		SUB R15, #$100
F91C	FFFF		SUB R15, #$100
F91E	FFFF		SUB R15, #$100
F920	FFFF		SUB R15, #$100
F922	FFFF		SUB R15, #$100
F924	FFFF		SUB R15, #$100
F926	FFFF		SUB R15, #$100
F928	FFFF		SUB R15, #$100
F92A	FFFF		SUB R15, #$100
F92C	FFFF		SUB R15, #$100
F92E	FFFF		SUB R15, #$100
F930	FFFF		SUB R15, #$100
F932	FFFF		SUB R15, #$100
F934	FFFF		SUB R15, #$100
F936	FFFF		SUB R15, #$100
F938	FFFF		SUB R15, #$100
F93A	FFFF		SUB R15, #$100
F93C	FFFF		SUB R15, #$100
F93E	FFFF		SUB R15, #$100
F940	FFFF		SUB R15, #$100
F942	FFFF		SUB R15, #$100
F944	FFFF		SUB R15, #$100
F946	FFFF		SUB R15, #$100
F948	FFFF		SUB R15, #$100
F94A	FFFF		SUB R15, #$100
F94C	FFFF		SUB R15, #$100
F94E	FFFF		SUB R15, #$100
F950	FFFF		SUB R15, #$100
F952	FFFF		SUB R15, #$100
F954	FFFF		SUB R15, #$100
F956	FFFF		SUB R15, #$100
F958	FFFF		SUB R15, #$100
F95A	FFFF		SUB R15, #$100
F95C	FFFF		SUB R15, #$100
F95E	FFFF		SUB R15, #$100
F960	FFFF		SUB R15, #$100
F962	FFFF		SUB R15, #$100
F964	FFFF		SUB R15, #$100
F966	FFFF		SUB R15, #$100
F968	FFFF		SUB R15, #$100
F96A	FFFF		SUB R15, #$100
F96C	FFFF		SUB R15, #$100
F96E	FFFF		SUB R15, #$100
F970	FFFF		SUB R15, #$100
F972	FFFF		SUB R15, #$100
F974	FFFF		SUB R15, #$100
F976	FFFF		SUB R15, #$100
F978	FFFF		SUB R15, #$100
F97A	FFFF		SUB R15, #$100
F97C	FFFF		SUB R15, #$100
F97E	FFFF		SUB R15, #$100
F980	FFFF		SUB R15, #$100
F982	FFFF		SUB R15, #$100
F984	FFFF		SUB R15, #$100
F986	FFFF		SUB R15, #$100
F988	FFFF		SUB R15, #$100
F98A	FFFF		SUB R15, #$100
F98C	FFFF		SUB R15, #$100
F98E	FFFF		SUB R15, #$100
F990	FFFF		SUB R15, #$100
F992	FFFF		SUB R15, #$100
F994	FFFF		SUB R15, #$100
F996	FFFF		SUB R15, #$100
F998	FFFF		SUB R15, #$100
F99A	FFFF		SUB R15, #$100
F99C	FFFF		SUB R15, #$100
F99E	FFFF		SUB R15, #$100
F9A0	FFFF		SUB R15, #$100
F9A2	FFFF		SUB R15, #$100
F9A4	FFFF		SUB R15, #$100
F9A6	FFFF		SUB R15, #$100
F9A8	FFFF		SUB R15, #$100
F9AA	FFFF		SUB R15, #$100
F9AC	FFFF		SUB R15, #$100
F9AE	FFFF		SUB R15, #$100
F9B0	FFFF		SUB R15, #$100
F9B2	FFFF		SUB R15, #$100
F9B4	FFFF		SUB R15, #$100
F9B6	FFFF		SUB R15, #$100
F9B8	FFFF		SUB R15, #$100
F9BA	FFFF		SUB R15, #$100
F9BC	FFFF		SUB R15, #$100
F9BE	FFFF		SUB R15, #$100
F9C0	FFFF		SUB R15, #$100
F9C2	FFFF		SUB R15, #$100
F9C4	FFFF		SUB R15, #$100
F9C6	FFFF		SUB R15, #$100
F9C8	FFFF		SUB R15, #$100
F9CA	FFFF		SUB R15, #$100
F9CC	FFFF		SUB R15, #$100
F9CE	FFFF		SUB R15, #$100
F9D0	FFFF		SUB R15, #$100
F9D2	FFFF		SUB R15, #$100
F9D4	FFFF		SUB R15, #$100
F9D6	FFFF		SUB R15, #$100
F9D8	FFFF		SUB R15, #$100
F9DA	FFFF		SUB R15, #$100
F9DC	FFFF		SUB R15, #$100
F9DE	FFFF		SUB R15, #$100
F9E0	FFFF		SUB R15, #$100
F9E2	FFFF		SUB R15, #$100
F9E4	FFFF		SUB R15, #$100
F9E6	FFFF		SUB R15, #$100
F9E8	FFFF		SUB R15, #$100
F9EA	FFFF		SUB R15, #$100
F9EC	FFFF		SUB R15, #$100
F9EE	FFFF		SUB R15, #$100
F9F0	FFFF		SUB R15, #$100
F9F2	FFFF		SUB R15, #$100
F9F4	FFFF		SUB R15, #$100
F9F6	FFFF		SUB R15, #$100
F9F8	FFFF		SUB R15, #$100
F9FA	FFFF		SUB R15, #$100
F9FC	FFFF		SUB R15, #$100
F9FE	FFFF		SUB R15, #$100
FA00	FFFF		SUB R15, #$100
FA02	FFFF		SUB R15, #$100
FA04	FFFF		SUB R15, #$100
FA06	FFFF		SUB R15, #$100
FA08	FFFF		SUB R15, #$100
FA0A	FFFF		SUB R15, #$100
FA0C	FFFF		SUB R15, #$100
FA0E	FFFF		SUB R15, #$100
FA10	FFFF		SUB R15, #$100
FA12	FFFF		SUB R15, #$100
FA14	FFFF		SUB R15, #$100
FA16	FFFF		SUB R15, #$100
FA18	FFFF		SUB R15, #$100
FA1A	FFFF		SUB R15, #$100
FA1C	FFFF		SUB R15, #$100
FA1E	FFFF		SUB R15, #$100
FA20	FFFF		SUB R15, #$100
FA22	FFFF		SUB R15, #$100
FA24	FFFF		SUB R15, #$100
FA26	FFFF		SUB R15, #$100
FA28	FFFF		SUB R15, #$100
FA2A	FFFF		SUB R15, #$100
FA2C	FFFF		SUB R15, #$100
FA2E	FFFF		SUB R15, #$100
FA30	FFFF		SUB R15, #$100
FA32	FFFF		SUB R15, #$100
FA34	FFFF		SUB R15, #$100
FA36	FFFF		SUB R15, #$100
FA38	FFFF		SUB R15, #$100
FA3A	FFFF		SUB R15, #$100
FA3C	FFFF		SUB R15, #$100
FA3E	FFFF		SUB R15, #$100
FA40	FFFF		SUB R15, #$100
FA42	FFFF		SUB R15, #$100
FA44	FFFF		SUB R15, #$100
FA46	FFFF		SUB R15, #$100
FA48	FFFF		SUB R15, #$100
FA4A	FFFF		SUB R15, #$100
FA4C	FFFF		SUB R15, #$100
FA4E	FFFF		SUB R15, #$100
FA50	FFFF		SUB R15, #$100
FA52	FFFF		SUB R15, #$100
FA54	FFFF		SUB R15, #$100
FA56	FFFF		SUB R15, #$100
FA58	FFFF		SUB R15, #$100
FA5A	FFFF		SUB R15, #$100
FA5C	FFFF		SUB R15, #$100
FA5E	FFFF		SUB R15, #$100
FA60	FFFF		SUB R15, #$100
FA62	FFFF		SUB R15, #$100
FA64	FFFF		SUB R15, #$100
FA66	FFFF		SUB R15, #$100
FA68	FFFF		SUB R15, #$100
FA6A	FFFF		SUB R15, #$100
FA6C	FFFF		SUB R15, #$100
FA6E	FFFF		SUB R15, #$100
FA70	FFFF		SUB R15, #$100
FA72	FFFF		SUB R15, #$100
FA74	FFFF		SUB R15, #$100
FA76	FFFF		SUB R15, #$100
FA78	FFFF		SUB R15, #$100
FA7A	FFFF		SUB R15, #$100
FA7C	FFFF		SUB R15, #$100
FA7E	FFFF		SUB R15, #$100
FA80	FFFF		SUB R15, #$100
FA82	FFFF		SUB R15, #$100
FA84	FFFF		SUB R15, #$100
FA86	FFFF		SUB R15, #$100
FA88	FFFF		SUB R15, #$100
FA8A	FFFF		SUB R15, #$100
FA8C	FFFF		SUB R15, #$100
FA8E	FFFF		SUB R15, #$100
FA90	FFFF		SUB R15, #$100
FA92	FFFF		SUB R15, #$100
FA94	FFFF		SUB R15, #$100
FA96	FFFF		SUB R15, #$100
FA98	FFFF		SUB R15, #$100
FA9A	FFFF		SUB R15, #$100
FA9C	FFFF		SUB R15, #$100
FA9E	FFFF		SUB R15, #$100
FAA0	FFFF		SUB R15, #$100
FAA2	FFFF		SUB R15, #$100
FAA4	FFFF		SUB R15, #$100
FAA6	FFFF		SUB R15, #$100
FAA8	FFFF		SUB R15, #$100
FAAA	FFFF		SUB R15, #$100
FAAC	FFFF		SUB R15, #$100
FAAE	FFFF		SUB R15, #$100
FAB0	FFFF		SUB R15, #$100
FAB2	FFFF		SUB R15, #$100
FAB4	FFFF		SUB R15, #$100
FAB6	FFFF		SUB R15, #$100
FAB8	FFFF		SUB R15, #$100
FABA	FFFF		SUB R15, #$100
FABC	FFFF		SUB R15, #$100
FABE	FFFF		SUB R15, #$100
FAC0	FFFF		SUB R15, #$100
FAC2	FFFF		SUB R15, #$100
FAC4	FFFF		SUB R15, #$100
FAC6	FFFF		SUB R15, #$100
FAC8	FFFF		SUB R15, #$100
FACA	FFFF		SUB R15, #$100
FACC	FFFF		SUB R15, #$100
FACE	FFFF		SUB R15, #$100
FAD0	FFFF		SUB R15, #$100
FAD2	FFFF		SUB R15, #$100
FAD4	FFFF		SUB R15, #$100
FAD6	FFFF		SUB R15, #$100
FAD8	FFFF		SUB R15, #$100
FADA	FFFF		SUB R15, #$100
FADC	FFFF		SUB R15, #$100
FADE	FFFF		SUB R15, #$100
FAE0	FFFF		SUB R15, #$100
FAE2	FFFF		SUB R15, #$100
FAE4	FFFF		SUB R15, #$100
FAE6	FFFF		SUB R15, #$100
FAE8	FFFF		SUB R15, #$100
FAEA	FFFF		SUB R15, #$100
FAEC	FFFF		SUB R15, #$100
FAEE	FFFF		SUB R15, #$100
FAF0	FFFF		SUB R15, #$100
FAF2	FFFF		SUB R15, #$100
FAF4	FFFF		SUB R15, #$100
FAF6	FFFF		SUB R15, #$100
FAF8	FFFF		SUB R15, #$100
FAFA	FFFF		SUB R15, #$100
FAFC	FFFF		SUB R15, #$100
FAFE	FFFF		SUB R15, #$100
FB00	FFFF		SUB R15, #$100
FB02	FFFF		SUB R15, #$100
FB04	FFFF		SUB R15, #$100
FB06	FFFF		SUB R15, #$100
FB08	FFFF		SUB R15, #$100
FB0A	FFFF		SUB R15, #$100
FB0C	FFFF		SUB R15, #$100
FB0E	FFFF		SUB R15, #$100
FB10	FFFF		SUB R15, #$100
FB12	FFFF		SUB R15, #$100
FB14	FFFF		SUB R15, #$100
FB16	FFFF		SUB R15, #$100
FB18	FFFF		SUB R15, #$100
FB1A	FFFF		SUB R15, #$100
FB1C	FFFF		SUB R15, #$100
FB1E	FFFF		SUB R15, #$100
FB20	FFFF		SUB R15, #$100
FB22	FFFF		SUB R15, #$100
FB24	FFFF		SUB R15, #$100
FB26	FFFF		SUB R15, #$100
FB28	FFFF		SUB R15, #$100
FB2A	FFFF		SUB R15, #$100
FB2C	FFFF		SUB R15, #$100
FB2E	FFFF		SUB R15, #$100
FB30	FFFF		SUB R15, #$100
FB32	FFFF		SUB R15, #$100
FB34	FFFF		SUB R15, #$100
FB36	FFFF		SUB R15, #$100
FB38	FFFF		SUB R15, #$100
FB3A	FFFF		SUB R15, #$100
FB3C	FFFF		SUB R15, #$100
FB3E	FFFF		SUB R15, #$100
FB40	FFFF		SUB R15, #$100
FB42	FFFF		SUB R15, #$100
FB44	FFFF		SUB R15, #$100
FB46	FFFF		SUB R15, #$100
FB48	FFFF		SUB R15, #$100
FB4A	FFFF		SUB R15, #$100
FB4C	FFFF		SUB R15, #$100
FB4E	FFFF		SUB R15, #$100
FB50	FFFF		SUB R15, #$100
FB52	FFFF		SUB R15, #$100
FB54	FFFF		SUB R15, #$100
FB56	FFFF		SUB R15, #$100
FB58	FFFF		SUB R15, #$100
FB5A	FFFF		SUB R15, #$100
FB5C	FFFF		SUB R15, #$100
FB5E	FFFF		SUB R15, #$100
FB60	FFFF		SUB R15, #$100
FB62	FFFF		SUB R15, #$100
FB64	FFFF		SUB R15, #$100
FB66	FFFF		SUB R15, #$100
FB68	FFFF		SUB R15, #$100
FB6A	FFFF		SUB R15, #$100
FB6C	FFFF		SUB R15, #$100
FB6E	FFFF		SUB R15, #$100
FB70	FFFF		SUB R15, #$100
FB72	FFFF		SUB R15, #$100
FB74	FFFF		SUB R15, #$100
FB76	FFFF		SUB R15, #$100
FB78	FFFF		SUB R15, #$100
FB7A	FFFF		SUB R15, #$100
FB7C	FFFF		SUB R15, #$100
FB7E	FFFF		SUB R15, #$100
FB80	FFFF		SUB R15, #$100
FB82	FFFF		SUB R15, #$100
FB84	FFFF		SUB R15, #$100
FB86	FFFF		SUB R15, #$100
FB88	FFFF		SUB R15, #$100
FB8A	FFFF		SUB R15, #$100
FB8C	FFFF		SUB R15, #$100
FB8E	FFFF		SUB R15, #$100
FB90	FFFF		SUB R15, #$100
FB92	FFFF		SUB R15, #$100
FB94	FFFF		SUB R15, #$100
FB96	FFFF		SUB R15, #$100
FB98	FFFF		SUB R15, #$100
FB9A	FFFF		SUB R15, #$100
FB9C	FFFF		SUB R15, #$100
FB9E	FFFF		SUB R15, #$100
FBA0	FFFF		SUB R15, #$100
FBA2	FFFF		SUB R15, #$100
FBA4	FFFF		SUB R15, #$100
FBA6	FFFF		SUB R15, #$100
FBA8	FFFF		SUB R15, #$100
FBAA	FFFF		SUB R15, #$100
FBAC	FFFF		SUB R15, #$100
FBAE	FFFF		SUB R15, #$100
FBB0	FFFF		SUB R15, #$100
FBB2	FFFF		SUB R15, #$100
FBB4	FFFF		SUB R15, #$100
FBB6	FFFF		SUB R15, #$100
FBB8	FFFF		SUB R15, #$100
FBBA	FFFF		SUB R15, #$100
FBBC	FFFF		SUB R15, #$100
FBBE	FFFF		SUB R15, #$100
FBC0	FFFF		SUB R15, #$100
FBC2	FFFF		SUB R15, #$100
FBC4	FFFF		SUB R15, #$100
FBC6	FFFF		SUB R15, #$100
FBC8	FFFF		SUB R15, #$100
FBCA	FFFF		SUB R15, #$100
FBCC	FFFF		SUB R15, #$100
FBCE	FFFF		SUB R15, #$100
FBD0	FFFF		SUB R15, #$100
FBD2	FFFF		SUB R15, #$100
FBD4	FFFF		SUB R15, #$100
FBD6	FFFF		SUB R15, #$100
FBD8	FFFF		SUB R15, #$100
FBDA	FFFF		SUB R15, #$100
FBDC	FFFF		SUB R15, #$100
FBDE	FFFF		SUB R15, #$100
FBE0	FFFF		SUB R15, #$100
FBE2	FFFF		SUB R15, #$100
FBE4	FFFF		SUB R15, #$100
FBE6	FFFF		SUB R15, #$100
FBE8	FFFF		SUB R15, #$100
FBEA	FFFF		SUB R15, #$100
FBEC	FFFF		SUB R15, #$100
FBEE	FFFF		SUB R15, #$100
FBF0	FFFF		SUB R15, #$100
FBF2	FFFF		SUB R15, #$100
FBF4	FFFF		SUB R15, #$100
FBF6	FFFF		SUB R15, #$100
FBF8	FFFF		SUB R15, #$100
FBFA	FFFF		SUB R15, #$100
FBFC	FFFF		SUB R15, #$100
FBFE	FFFF		SUB R15, #$100
FC00	FFFF		SUB R15, #$100
FC02	FFFF		SUB R15, #$100
FC04	FFFF		SUB R15, #$100
FC06	FFFF		SUB R15, #$100
FC08	FFFF		SUB R15, #$100
FC0A	FFFF		SUB R15, #$100
FC0C	FFFF		SUB R15, #$100
FC0E	FFFF		SUB R15, #$100
FC10	FFFF		SUB R15, #$100
FC12	FFFF		SUB R15, #$100
FC14	FFFF		SUB R15, #$100
FC16	FFFF		SUB R15, #$100
FC18	FFFF		SUB R15, #$100
FC1A	FFFF		SUB R15, #$100
FC1C	FFFF		SUB R15, #$100
FC1E	FFFF		SUB R15, #$100
FC20	FFFF		SUB R15, #$100
FC22	FFFF		SUB R15, #$100
FC24	FFFF		SUB R15, #$100
FC26	FFFF		SUB R15, #$100
FC28	FFFF		SUB R15, #$100
FC2A	FFFF		SUB R15, #$100
FC2C	FFFF		SUB R15, #$100
FC2E	FFFF		SUB R15, #$100
FC30	FFFF		SUB R15, #$100
FC32	FFFF		SUB R15, #$100
FC34	FFFF		SUB R15, #$100
FC36	FFFF		SUB R15, #$100
FC38	FFFF		SUB R15, #$100
FC3A	FFFF		SUB R15, #$100
FC3C	FFFF		SUB R15, #$100
FC3E	FFFF		SUB R15, #$100
FC40	FFFF		SUB R15, #$100
FC42	FFFF		SUB R15, #$100
FC44	FFFF		SUB R15, #$100
FC46	FFFF		SUB R15, #$100
FC48	FFFF		SUB R15, #$100
FC4A	FFFF		SUB R15, #$100
FC4C	FFFF		SUB R15, #$100
FC4E	FFFF		SUB R15, #$100
FC50	FFFF		SUB R15, #$100
FC52	FFFF		SUB R15, #$100
FC54	FFFF		SUB R15, #$100
FC56	FFFF		SUB R15, #$100
FC58	FFFF		SUB R15, #$100
FC5A	FFFF		SUB R15, #$100
FC5C	FFFF		SUB R15, #$100
FC5E	FFFF		SUB R15, #$100
FC60	FFFF		SUB R15, #$100
FC62	FFFF		SUB R15, #$100
FC64	FFFF		SUB R15, #$100
FC66	FFFF		SUB R15, #$100
FC68	FFFF		SUB R15, #$100
FC6A	FFFF		SUB R15, #$100
FC6C	FFFF		SUB R15, #$100
FC6E	FFFF		SUB R15, #$100
FC70	FFFF		SUB R15, #$100
FC72	FFFF		SUB R15, #$100
FC74	FFFF		SUB R15, #$100
FC76	FFFF		SUB R15, #$100
FC78	FFFF		SUB R15, #$100
FC7A	FFFF		SUB R15, #$100
FC7C	FFFF		SUB R15, #$100
FC7E	FFFF		SUB R15, #$100
FC80	FFFF		SUB R15, #$100
FC82	FFFF		SUB R15, #$100
FC84	FFFF		SUB R15, #$100
FC86	FFFF		SUB R15, #$100
FC88	FFFF		SUB R15, #$100
FC8A	FFFF		SUB R15, #$100
FC8C	FFFF		SUB R15, #$100
FC8E	FFFF		SUB R15, #$100
FC90	FFFF		SUB R15, #$100
FC92	FFFF		SUB R15, #$100
FC94	FFFF		SUB R15, #$100
FC96	FFFF		SUB R15, #$100
FC98	FFFF		SUB R15, #$100
FC9A	FFFF		SUB R15, #$100
FC9C	FFFF		SUB R15, #$100
FC9E	FFFF		SUB R15, #$100
FCA0	FFFF		SUB R15, #$100
FCA2	FFFF		SUB R15, #$100
FCA4	FFFF		SUB R15, #$100
FCA6	FFFF		SUB R15, #$100
FCA8	FFFF		SUB R15, #$100
FCAA	FFFF		SUB R15, #$100
FCAC	FFFF		SUB R15, #$100
FCAE	FFFF		SUB R15, #$100
FCB0	FFFF		SUB R15, #$100
FCB2	FFFF		SUB R15, #$100
FCB4	FFFF		SUB R15, #$100
FCB6	FFFF		SUB R15, #$100
FCB8	FFFF		SUB R15, #$100
FCBA	FFFF		SUB R15, #$100
FCBC	FFFF		SUB R15, #$100
FCBE	FFFF		SUB R15, #$100
FCC0	FFFF		SUB R15, #$100
FCC2	FFFF		SUB R15, #$100
FCC4	FFFF		SUB R15, #$100
FCC6	FFFF		SUB R15, #$100
FCC8	FFFF		SUB R15, #$100
FCCA	FFFF		SUB R15, #$100
FCCC	FFFF		SUB R15, #$100
FCCE	FFFF		SUB R15, #$100
FCD0	FFFF		SUB R15, #$100
FCD2	FFFF		SUB R15, #$100
FCD4	FFFF		SUB R15, #$100
FCD6	FFFF		SUB R15, #$100
FCD8	FFFF		SUB R15, #$100
FCDA	FFFF		SUB R15, #$100
FCDC	FFFF		SUB R15, #$100
FCDE	FFFF		SUB R15, #$100
FCE0	FFFF		SUB R15, #$100
FCE2	FFFF		SUB R15, #$100
FCE4	FFFF		SUB R15, #$100
FCE6	FFFF		SUB R15, #$100
FCE8	FFFF		SUB R15, #$100
FCEA	FFFF		SUB R15, #$100
FCEC	FFFF		SUB R15, #$100
FCEE	FFFF		SUB R15, #$100
FCF0	FFFF		SUB R15, #$100
FCF2	FFFF		SUB R15, #$100
FCF4	FFFF		SUB R15, #$100
FCF6	FFFF		SUB R15, #$100
FCF8	FFFF		SUB R15, #$100
FCFA	FFFF		SUB R15, #$100
FCFC	FFFF		SUB R15, #$100
FCFE	FFFF		SUB R15, #$100
FD00	FFFF		SUB R15, #$100
FD02	FFFF		SUB R15, #$100
FD04	FFFF		SUB R15, #$100
FD06	FFFF		SUB R15, #$100
FD08	FFFF		SUB R15, #$100
FD0A	FFFF		SUB R15, #$100
FD0C	FFFF		SUB R15, #$100
FD0E	FFFF		SUB R15, #$100
FD10	FFFF		SUB R15, #$100
FD12	FFFF		SUB R15, #$100
FD14	FFFF		SUB R15, #$100
FD16	FFFF		SUB R15, #$100
FD18	FFFF		SUB R15, #$100
FD1A	FFFF		SUB R15, #$100
FD1C	FFFF		SUB R15, #$100
FD1E	FFFF		SUB R15, #$100
FD20	FFFF		SUB R15, #$100
FD22	FFFF		SUB R15, #$100
FD24	FFFF		SUB R15, #$100
FD26	FFFF		SUB R15, #$100
FD28	FFFF		SUB R15, #$100
FD2A	FFFF		SUB R15, #$100
FD2C	FFFF		SUB R15, #$100
FD2E	FFFF		SUB R15, #$100
FD30	FFFF		SUB R15, #$100
FD32	FFFF		SUB R15, #$100
FD34	FFFF		SUB R15, #$100
FD36	FFFF		SUB R15, #$100
FD38	FFFF		SUB R15, #$100
FD3A	FFFF		SUB R15, #$100
FD3C	FFFF		SUB R15, #$100
FD3E	FFFF		SUB R15, #$100
FD40	FFFF		SUB R15, #$100
FD42	FFFF		SUB R15, #$100
FD44	FFFF		SUB R15, #$100
FD46	FFFF		SUB R15, #$100
FD48	FFFF		SUB R15, #$100
FD4A	FFFF		SUB R15, #$100
FD4C	FFFF		SUB R15, #$100
FD4E	FFFF		SUB R15, #$100
FD50	FFFF		SUB R15, #$100
FD52	FFFF		SUB R15, #$100
FD54	FFFF		SUB R15, #$100
FD56	FFFF		SUB R15, #$100
FD58	FFFF		SUB R15, #$100
FD5A	FFFF		SUB R15, #$100
FD5C	FFFF		SUB R15, #$100
FD5E	FFFF		SUB R15, #$100
FD60	FFFF		SUB R15, #$100
FD62	FFFF		SUB R15, #$100
FD64	FFFF		SUB R15, #$100
FD66	FFFF		SUB R15, #$100
FD68	FFFF		SUB R15, #$100
FD6A	FFFF		SUB R15, #$100
FD6C	FFFF		SUB R15, #$100
FD6E	FFFF		SUB R15, #$100
FD70	FFFF		SUB R15, #$100
FD72	FFFF		SUB R15, #$100
FD74	FFFF		SUB R15, #$100
FD76	FFFF		SUB R15, #$100
FD78	FFFF		SUB R15, #$100
FD7A	FFFF		SUB R15, #$100
FD7C	FFFF		SUB R15, #$100
FD7E	FFFF		SUB R15, #$100
FD80	FFFF		SUB R15, #$100
FD82	FFFF		SUB R15, #$100
FD84	FFFF		SUB R15, #$100
FD86	FFFF		SUB R15, #$100
FD88	FFFF		SUB R15, #$100
FD8A	FFFF		SUB R15, #$100
FD8C	FFFF		SUB R15, #$100
FD8E	FFFF		SUB R15, #$100
FD90	FFFF		SUB R15, #$100
FD92	FFFF		SUB R15, #$100
FD94	FFFF		SUB R15, #$100
FD96	FFFF		SUB R15, #$100
FD98	FFFF		SUB R15, #$100
FD9A	FFFF		SUB R15, #$100
FD9C	FFFF		SUB R15, #$100
FD9E	FFFF		SUB R15, #$100
FDA0	FFFF		SUB R15, #$100
FDA2	FFFF		SUB R15, #$100
FDA4	FFFF		SUB R15, #$100
FDA6	FFFF		SUB R15, #$100
FDA8	FFFF		SUB R15, #$100
FDAA	FFFF		SUB R15, #$100
FDAC	FFFF		SUB R15, #$100
FDAE	FFFF		SUB R15, #$100
FDB0	FFFF		SUB R15, #$100
FDB2	FFFF		SUB R15, #$100
FDB4	FFFF		SUB R15, #$100
FDB6	FFFF		SUB R15, #$100
FDB8	FFFF		SUB R15, #$100
FDBA	FFFF		SUB R15, #$100
FDBC	FFFF		SUB R15, #$100
FDBE	FFFF		SUB R15, #$100
FDC0	FFFF		SUB R15, #$100
FDC2	FFFF		SUB R15, #$100
FDC4	FFFF		SUB R15, #$100
FDC6	FFFF		SUB R15, #$100
FDC8	FFFF		SUB R15, #$100
FDCA	FFFF		SUB R15, #$100
FDCC	FFFF		SUB R15, #$100
FDCE	FFFF		SUB R15, #$100
FDD0	FFFF		SUB R15, #$100
FDD2	FFFF		SUB R15, #$100
FDD4	FFFF		SUB R15, #$100
FDD6	FFFF		SUB R15, #$100
FDD8	FFFF		SUB R15, #$100
FDDA	FFFF		SUB R15, #$100
FDDC	FFFF		SUB R15, #$100
FDDE	FFFF		SUB R15, #$100
FDE0	FFFF		SUB R15, #$100
FDE2	FFFF		SUB R15, #$100
FDE4	FFFF		SUB R15, #$100
FDE6	FFFF		SUB R15, #$100
FDE8	FFFF		SUB R15, #$100
FDEA	FFFF		SUB R15, #$100
FDEC	FFFF		SUB R15, #$100
FDEE	FFFF		SUB R15, #$100
FDF0	FFFF		SUB R15, #$100
FDF2	FFFF		SUB R15, #$100
FDF4	FFFF		SUB R15, #$100
FDF6	FFFF		SUB R15, #$100
FDF8	FFFF		SUB R15, #$100
FDFA	FFFF		SUB R15, #$100
FDFC	FFFF		SUB R15, #$100
FDFE	FFFF		SUB R15, #$100
FE00	FFFF		SUB R15, #$100
FE02	FFFF		SUB R15, #$100
FE04	FFFF		SUB R15, #$100
FE06	FFFF		SUB R15, #$100
FE08	FFFF		SUB R15, #$100
FE0A	FFFF		SUB R15, #$100
FE0C	FFFF		SUB R15, #$100
FE0E	FFFF		SUB R15, #$100
FE10	FFFF		SUB R15, #$100
FE12	FFFF		SUB R15, #$100
FE14	FFFF		SUB R15, #$100
FE16	FFFF		SUB R15, #$100
FE18	FFFF		SUB R15, #$100
FE1A	FFFF		SUB R15, #$100
FE1C	FFFF		SUB R15, #$100
FE1E	FFFF		SUB R15, #$100
FE20	FFFF		SUB R15, #$100
FE22	FFFF		SUB R15, #$100
FE24	FFFF		SUB R15, #$100
FE26	FFFF		SUB R15, #$100
FE28	FFFF		SUB R15, #$100
FE2A	FFFF		SUB R15, #$100
FE2C	FFFF		SUB R15, #$100
FE2E	FFFF		SUB R15, #$100
FE30	FFFF		SUB R15, #$100
FE32	FFFF		SUB R15, #$100
FE34	FFFF		SUB R15, #$100
FE36	FFFF		SUB R15, #$100
FE38	FFFF		SUB R15, #$100
FE3A	FFFF		SUB R15, #$100
FE3C	FFFF		SUB R15, #$100
FE3E	FFFF		SUB R15, #$100
FE40	FFFF		SUB R15, #$100
FE42	FFFF		SUB R15, #$100
FE44	FFFF		SUB R15, #$100
FE46	FFFF		SUB R15, #$100
FE48	FFFF		SUB R15, #$100
FE4A	FFFF		SUB R15, #$100
FE4C	FFFF		SUB R15, #$100
FE4E	FFFF		SUB R15, #$100
FE50	FFFF		SUB R15, #$100
FE52	FFFF		SUB R15, #$100
FE54	FFFF		SUB R15, #$100
FE56	FFFF		SUB R15, #$100
FE58	FFFF		SUB R15, #$100
FE5A	FFFF		SUB R15, #$100
FE5C	FFFF		SUB R15, #$100
FE5E	FFFF		SUB R15, #$100
FE60	FFFF		SUB R15, #$100
FE62	FFFF		SUB R15, #$100
FE64	FFFF		SUB R15, #$100
FE66	FFFF		SUB R15, #$100
FE68	FFFF		SUB R15, #$100
FE6A	FFFF		SUB R15, #$100
FE6C	FFFF		SUB R15, #$100
FE6E	FFFF		SUB R15, #$100
FE70	FFFF		SUB R15, #$100
FE72	FFFF		SUB R15, #$100
FE74	FFFF		SUB R15, #$100
FE76	FFFF		SUB R15, #$100
FE78	FFFF		SUB R15, #$100
FE7A	FFFF		SUB R15, #$100
FE7C	FFFF		SUB R15, #$100
FE7E	FFFF		SUB R15, #$100
FE80	FFFF		SUB R15, #$100
FE82	FFFF		SUB R15, #$100
FE84	FFFF		SUB R15, #$100
FE86	FFFF		SUB R15, #$100
FE88	FFFF		SUB R15, #$100
FE8A	FFFF		SUB R15, #$100
FE8C	FFFF		SUB R15, #$100
FE8E	FFFF		SUB R15, #$100
FE90	FFFF		SUB R15, #$100
FE92	FFFF		SUB R15, #$100
FE94	FFFF		SUB R15, #$100
FE96	FFFF		SUB R15, #$100
FE98	FFFF		SUB R15, #$100
FE9A	FFFF		SUB R15, #$100
FE9C	FFFF		SUB R15, #$100
FE9E	FFFF		SUB R15, #$100
FEA0	FFFF		SUB R15, #$100
FEA2	FFFF		SUB R15, #$100
FEA4	FFFF		SUB R15, #$100
FEA6	FFFF		SUB R15, #$100
FEA8	FFFF		SUB R15, #$100
FEAA	FFFF		SUB R15, #$100
FEAC	FFFF		SUB R15, #$100
FEAE	FFFF		SUB R15, #$100
FEB0	FFFF		SUB R15, #$100
FEB2	FFFF		SUB R15, #$100
FEB4	FFFF		SUB R15, #$100
FEB6	FFFF		SUB R15, #$100
FEB8	FFFF		SUB R15, #$100
FEBA	FFFF		SUB R15, #$100
FEBC	FFFF		SUB R15, #$100
FEBE	FFFF		SUB R15, #$100
FEC0	FFFF		SUB R15, #$100
FEC2	FFFF		SUB R15, #$100
FEC4	FFFF		SUB R15, #$100
FEC6	FFFF		SUB R15, #$100
FEC8	FFFF		SUB R15, #$100
FECA	FFFF		SUB R15, #$100
FECC	FFFF		SUB R15, #$100
FECE	FFFF		SUB R15, #$100
FED0	FFFF		SUB R15, #$100
FED2	FFFF		SUB R15, #$100
FED4	FFFF		SUB R15, #$100
FED6	FFFF		SUB R15, #$100
FED8	FFFF		SUB R15, #$100
FEDA	FFFF		SUB R15, #$100
FEDC	FFFF		SUB R15, #$100
FEDE	FFFF		SUB R15, #$100
FEE0	FFFF		SUB R15, #$100
FEE2	FFFF		SUB R15, #$100
FEE4	FFFF		SUB R15, #$100
FEE6	FFFF		SUB R15, #$100
FEE8	FFFF		SUB R15, #$100
FEEA	FFFF		SUB R15, #$100
FEEC	FFFF		SUB R15, #$100
FEEE	FFFF		SUB R15, #$100
FEF0	FFFF		SUB R15, #$100
FEF2	FFFF		SUB R15, #$100
FEF4	FFFF		SUB R15, #$100
FEF6	FFFF		SUB R15, #$100
FEF8	FFFF		SUB R15, #$100
FEFA	FFFF		SUB R15, #$100
FEFC	FFFF		SUB R15, #$100
FEFE	FFFF		SUB R15, #$100
FF00	FFFF		SUB R15, #$100
FF02	FFFF		SUB R15, #$100
FF04	FFFF		SUB R15, #$100
FF06	FFFF		SUB R15, #$100
FF08	FFFF		SUB R15, #$100
FF0A	FFFF		SUB R15, #$100
FF0C	FFFF		SUB R15, #$100
FF0E	FFFF		SUB R15, #$100
FF10	FFFF		SUB R15, #$100
FF12	FFFF		SUB R15, #$100
FF14	FFFF		SUB R15, #$100
FF16	FFFF		SUB R15, #$100
FF18	FFFF		SUB R15, #$100
FF1A	FFFF		SUB R15, #$100
FF1C	FFFF		SUB R15, #$100
FF1E	FFFF		SUB R15, #$100
FF20	FFFF		SUB R15, #$100
FF22	FFFF		SUB R15, #$100
FF24	FFFF		SUB R15, #$100
FF26	FFFF		SUB R15, #$100
FF28	FFFF		SUB R15, #$100
FF2A	FFFF		SUB R15, #$100
FF2C	FFFF		SUB R15, #$100
FF2E	FFFF		SUB R15, #$100
FF30	FFFF		SUB R15, #$100
FF32	FFFF		SUB R15, #$100
FF34	FFFF		SUB R15, #$100
FF36	FFFF		SUB R15, #$100
FF38	FFFF		SUB R15, #$100
FF3A	FFFF		SUB R15, #$100
FF3C	FFFF		SUB R15, #$100
FF3E	FFFF		SUB R15, #$100
FF40	FFFF		SUB R15, #$100
FF42	FFFF		SUB R15, #$100
FF44	FFFF		SUB R15, #$100
FF46	FFFF		SUB R15, #$100
FF48	FFFF		SUB R15, #$100
FF4A	FFFF		SUB R15, #$100
FF4C	FFFF		SUB R15, #$100
FF4E	FFFF		SUB R15, #$100
FF50	FFFF		SUB R15, #$100
FF52	FFFF		SUB R15, #$100
FF54	FFFF		SUB R15, #$100
FF56	FFFF		SUB R15, #$100
FF58	FFFF		SUB R15, #$100
FF5A	FFFF		SUB R15, #$100
FF5C	FFFF		SUB R15, #$100
FF5E	FFFF		SUB R15, #$100
FF60	FFFF		SUB R15, #$100
FF62	FFFF		SUB R15, #$100
FF64	FFFF		SUB R15, #$100
FF66	FFFF		SUB R15, #$100
FF68	FFFF		SUB R15, #$100
FF6A	FFFF		SUB R15, #$100
FF6C	FFFF		SUB R15, #$100
FF6E	FFFF		SUB R15, #$100
FF70	FFFF		SUB R15, #$100
FF72	FFFF		SUB R15, #$100
FF74	FFFF		SUB R15, #$100
FF76	FFFF		SUB R15, #$100
FF78	FFFF		SUB R15, #$100
FF7A	FFFF		SUB R15, #$100
FF7C	FFFF		SUB R15, #$100
FF7E	FFFF		SUB R15, #$100
FF80	FFFF		SUB R15, #$100
FF82	FFFF		SUB R15, #$100
FF84	FFFF		SUB R15, #$100
FF86	FFFF		SUB R15, #$100
FF88	FFFF		SUB R15, #$100
FF8A	FFFF		SUB R15, #$100
FF8C	FFFF		SUB R15, #$100
FF8E	FFFF		SUB R15, #$100
FF90	FFFF		SUB R15, #$100
FF92	FFFF		SUB R15, #$100
FF94	FFFF		SUB R15, #$100
FF96	FFFF		SUB R15, #$100
FF98	FFFF		SUB R15, #$100
FF9A	FFFF		SUB R15, #$100
FF9C	FFFF		SUB R15, #$100
FF9E	FFFF		SUB R15, #$100
FFA0	FFFF		SUB R15, #$100
FFA2	FFFF		SUB R15, #$100
FFA4	FFFF		SUB R15, #$100
FFA6	FFFF		SUB R15, #$100
FFA8	FFFF		SUB R15, #$100
FFAA	FFFF		SUB R15, #$100
FFAC	FFFF		SUB R15, #$100
FFAE	FFFF		SUB R15, #$100
FFB0	FFFF		SUB R15, #$100
FFB2	FFFF		SUB R15, #$100
FFB4	FFFF		SUB R15, #$100
FFB6	FFFF		SUB R15, #$100
FFB8	FFFF		SUB R15, #$100
FFBA	FFFF		SUB R15, #$100
FFBC	FFFF		SUB R15, #$100
FFBE	FFFF		SUB R15, #$100
FFC0	FFFF		SUB R15, #$100
FFC2	FFFF		SUB R15, #$100
FFC4	FFFF		SUB R15, #$100
FFC6	FFFF		SUB R15, #$100
FFC8	FFFF		SUB R15, #$100
FFCA	FFFF		SUB R15, #$100
FFCC	FFFF		SUB R15, #$100
FFCE	FFFF		SUB R15, #$100
FFD0	FFFF		SUB R15, #$100
FFD2	FFFF		SUB R15, #$100
FFD4	FFFF		SUB R15, #$100
FFD6	FFFF		SUB R15, #$100
FFD8	FFFF		SUB R15, #$100
FFDA	FFFF		SUB R15, #$100
FFDC	FFFF		SUB R15, #$100
FFDE	FFFF		SUB R15, #$100
FFE0	FFFF		SUB R15, #$100
FFE2	FFFF		SUB R15, #$100
FFE4	FFFF		SUB R15, #$100
FFE6	FFFF		SUB R15, #$100
FFE8	FFFF		SUB R15, #$100
FFEA	FFFF		SUB R15, #$100
FFEC	FFFF		SUB R15, #$100
FFEE	FFFF		SUB R15, #$100
FFF0	FFFF		SUB R15, #$100
FFF2	FFFF		SUB R15, #$100
FFF4	FFFF		SUB R15, #$100
FFF6	FFFF		SUB R15, #$100
FFF8	FFFF		SUB R15, #$100
FFFA	FFFF		SUB R15, #$100
FFFC	FFFF		SUB R15, #$100
FFFE	FFFF		SUB R15, #$100
Fertig!

